
 Start         Length     Name                   Class
 0002:00000000 000005754H LOAD                   CODE
 0004:00000000 00000000CH .init                  CODE
 0005:00000000 000000C2CH .plt                   CODE
 0006:00000000 00002045CH .text                  CODE
 0007:00000000 000000008H .fini                  CODE
 0008:00000000 000003B84H .rodata                CONST
 0009:00000000 000000DB0H .ARM.extab             CONST
 000A:00000000 000000AB8H .ARM.exidx             CONST
 000B:00000000 000000004H .eh_frame              CONST
 000C:00000000 000000004H .init_array            DATA
 000D:00000000 000000004H .fini_array            DATA
 000E:00000000 000000004H .jcr                   DATA
 0003:00000000 000000128H LOAD                   DATA
 000F:00000000 000000424H .got                   DATA
 0010:00000000 000000408H .data                  DATA
 0011:00000000 0000510BCH .bss                   BSS
 0012:00000000 000000000H .prgend                


  Address         Publics by Value

 0002:00000000       dword_0
 0002:000000D4       elf_hash_nbucket
 0002:000000D8       elf_hash_nchain
 0002:000000DC       elf_hash_bucket
 0002:000004F8       elf_hash_chain
 0002:00002281       aGmonStart
 0002:00002290       aAeabiUnwindCpp
 0002:000022A7       aFini
 0002:000022AD       aCxaFinalize
 0002:000022BC       aJvRegisterclas
 0002:000022D0       aDjicrc8table
 0002:000022DD       aWcrcTable
 0002:000022E8       aCalcrc8
 0002:000022F0       aCalcrc16
 0002:000022F9       aDatabuffCreate
 0002:00002309       aMalloc
 0002:00002310       aMemset
 0002:00002317       aFree
 0002:0000231C       aAeabiUnwindCpp_0
 0002:00002333       aDatabuffClear
 0002:00002342       aDatabuffDelete
 0002:00002352       aCodeHex
 0002:0000235B       aDecodeHex
 0002:00002366       aDjiFrameCap
 0002:00002374       aIstimeout
 0002:0000237E       aGetcurrenttime
 0002:0000238D       aMemcpy
 0002:00002394       aGetint16little
 0002:000023A6       aFrameCapture
 0002:000023B4       aFrameCapbyhead
 0002:000023CA       aAssertFail
 0002:000023D8       aGetfp32
 0002:000023E0       aPutint16little
 0002:000023F2       aGetint32little
 0002:00002404       aPutint32little
 0002:00002416       aExchgint8uhlbi
 0002:00002426       aPrinthex
 0002:0000242F       aPutchar
 0002:00002437       aGettimeofday
 0002:00002444       aInitprocmsg
 0002:00002450       aMsgget
 0002:00002457       aProcmsgsend
 0002:00002463       aMsgsnd
 0002:0000246A       aProcmsgrecv
 0002:00002476       aMsgrcv
 0002:0000247D       aGetfilesize
 0002:00002489       aIffileexist
 0002:00002495       aGetbasename
 0002:000024A1       aStrlen
 0002:000024A8       aReadfile
 0002:000024B1       aFopen
 0002:000024B7       aFread
 0002:000024BD       aFclose
 0002:000024C4       aWritefileNoSyn
 0002:000024D6       aFwrite
 0002:000024DD       aWritefile
 0002:000024E7       aSystem
 0002:000024EE       aP2psocketCreat
 0002:000024FF       aSocket
 0002:00002506       aFcntl
 0002:0000250C       aBzero
 0002:00002512       aHtonl
 0002:00002518       aHtons
 0002:0000251E       aBind
 0002:00002523       aP2psocketDelet
 0002:00002534       aP2psocketRec
 0002:00002542       aRecvfrom
 0002:0000254B       aNtohl
 0002:00002551       aNtohs
 0002:00002557       aP2psocketSend
 0002:00002566       aSendto
 0002:0000256D       aIoctl
 0002:00002573       aPuts
 0002:00002578       aWatchdogInit
 0002:00002586       aWatchdogFeed
 0002:00002594       aWatchdogDelete
 0002:000025A4       aUpdateParseApp
 0002:000025BD       aFgets
 0002:000025C3       aSscanf
 0002:000025CA       aUpdateParse680
 0002:000025E5       aPopen
 0002:000025EB       aStrstr
 0002:000025F2       aStrchr
 0002:000025F9       aPclose
 0002:00002600       aCalfilemd5
 0002:0000260B       aMd5Init
 0002:00002614       aMd5Update
 0002:0000261F       aMd5Final
 0002:00002629       aCalmd5
 0002:00002630       aDjiProstructIn
 0002:00002643       aSethardwarever
 0002:00002656       aGethardwarever
 0002:00002669       aSet68013hardwa
 0002:00002681       aGet68013hardwa
 0002:00002699       aUpdateFillVers
 0002:000026AD       aUpdateFill6801
 0002:000026C7       aLockfile
 0002:000026D0       aAlreadyRunning
 0002:000026E0       aFtruncate
 0002:000026EA       aGetpid
 0002:000026F1       aSprintf
 0002:000026F9       aGettickcount
 0002:00002706       aClockGettime
 0002:00002714       aThreadsignalMa
 0002:0000272A       aSigemptyset
 0002:00002736       aSigaddset
 0002:00002740       aPthreadSigmask
 0002:00002750       aGetrandomdata
 0002:0000275E       aSrand
 0002:00002764       aCalmac
 0002:0000276B       aSha256
 0002:00002772       aAesencrypt
 0002:0000277D       aAesSetEncryptK
 0002:00002791       aAesCbcEncrypt
 0002:000027A1       aAesdecrypt
 0002:000027AC       aAesSetDecryptK
 0002:000027C0       aAesencrypttofi
 0002:000027D1       aAesdecryptfrom
 0002:000027E4       aGetTime
 0002:000027ED       aLocaltime
 0002:000027F7       aSetTime
 0002:00002800       aMktime
 0002:00002807       aSettimeofday
 0002:00002814       aSetMutexAttrRe
 0002:00002828       aPthreadMutexat
 0002:0000283F       aPthreadMutexat_0
 0002:00002859       aPthreadMutexIn
 0002:0000286C       aPthreadMutexat_1
 0002:00002886       aUsleep
 0002:0000288D       aCreateFeedwatc
 0002:000028A8       aPthreadAttrIni
 0002:000028BA       aPthreadAttrSet
 0002:000028D7       aPthreadAttrSet_0
 0002:000028F3       aSchedGetPriori
 0002:0000290A       aPthreadAttrSet_1
 0002:00002925       aPthreadCreate
 0002:00002934       aPthreadAttrDes
 0002:00002949       aReset68013
 0002:00002955       aMfiCtrlSet
 0002:00002962       aMfiCtrlGet
 0002:0000296F       aSimpleEncrypta
 0002:00002988       aProDealCallbac
 0002:0000299A       aProIspacketnee
 0002:000029B2       aProPackandsend
 0002:000029C2       aProPackandsend_0
 0002:000029DD       aProInit
 0002:000029E6       aProCheckrec
 0002:000029F3       aProGetCurseq
 0002:00002A02       aPthreadMutexLo
 0002:00002A15       aPthreadMutexUn
 0002:00002A2A       aPthreadCondSig
 0002:00002A3E       aProSendwaitack
 0002:00002A4E       aPthreadCondIni
 0002:00002A60       aPthreadCondTim
 0002:00002A77       aPthreadMutexDe
 0002:00002A8D       aPthreadCondDes
 0002:00002AA2       aProCmdGetVersi
 0002:00002AB6       aProCmdEnterLoa
 0002:00002ACB       aProCmdGetState
 0002:00002ADD       aProCmdLoadStar
 0002:00002AF0       aProCmdLoadData
 0002:00002B02       aProCmdLoadFini
 0002:00002B16       aProCmdReboot
 0002:00002B25       aProCmdUpdateCt
 0002:00002B39       aQueueCreate
 0002:00002B46       aQueueDelete
 0002:00002B53       aKeyscan
 0002:00002B5B       aQueuePutdata
 0002:00002B69       aGetkey
 0002:00002B70       aQueueGetdata
 0002:00002B7E       aQueueCleardata
 0002:00002B8E       aSerialCreate
 0002:00002B9C       aTcgetattr
 0002:00002BA6       aCfsetispeed
 0002:00002BB2       aCfsetospeed
 0002:00002BBE       aTcflush
 0002:00002BC6       aTcsetattr
 0002:00002BD0       aSelect
 0002:00002BD7       aSerialDelete
 0002:00002BE5       aSerialReaddata
 0002:00002BF5       aSerialWritedat
 0002:00002C06       aSerialDisablec
 0002:00002C1C       aSerialEnableco
 0002:00002C31       aTcdrain
 0002:00002C39       aSha256H0
 0002:00002C43       aSha256K
 0002:00002C4C       aSha256Transf
 0002:00002C5A       aSha256Init
 0002:00002C66       aSha256Update
 0002:00002C74       aSha256Final
 0002:00002C81       aSha256Nopad
 0002:00002C8E       aAt88Init
 0002:00002C98       aAt88CheckAll
 0002:00002CA7       aAt88Delete
 0002:00002CB3       aAt88IsConfigLo
 0002:00002CC7       aAt88IsDataotpL
 0002:00002CDC       aAt88ReadConfig
 0002:00002CED       aAt88IsConfigSe
 0002:00002D00       aMemcmp
 0002:00002D07       aAt88LockConfig
 0002:00002D18       aAt88LockDataot
 0002:00002D2A       aAt88SetConfig
 0002:00002D3A       aAt88CheckAndSe
 0002:00002D54       aAt88ReadChipIn
 0002:00002D68       aAt88WriteChipI
 0002:00002D82       aAt88ReadChipIn_0
 0002:00002D9B       aAt88CheckChipI
 0002:00002DB0       aAt88SetChipInf
 0002:00002DC8       aAt88CheckAndSe_0
 0002:00002DE5       aAt88WriteFacto
 0002:00002DFD       aAt88ReadFactor
 0002:00002E14       aAt88WriteFacto_0
 0002:00002E31       aAt88WriteKerne
 0002:00002E4B       aAt88WriteFacto_1
 0002:00002E67       aAt88CheckFacto
 0002:00002E7F       aAt88ReadKeyFil
 0002:00002E92       aAt88MacCheck
 0002:00002EA1       aAt88WriteKeyFi
 0002:00002EB5       aAt88WriteKey
 0002:00002EC4       aAt88WriteKeyAl
 0002:00002ED7       aAt88CheckKey
 0002:00002EE6       aAt88CheckAuth
 0002:00002EF6       aAt88IsEncrypt
 0002:00002F06       aAt88IsPassed
 0002:00002F15       aAt88CheckOnce
 0002:00002F25       aAt88IsExist
 0002:00002F33       aIsandroidplugi
 0002:00002F43       aAdbSubscribe
 0002:00002F51       aAdbConnect
 0002:00002F5D       aTcpConnect
 0002:00002F69       aAdbClose
 0002:00002F73       aTcpClose
 0002:00002F7D       aAdbSend
 0002:00002F86       aTcpSend
 0002:00002F8F       aAdbIsConn
 0002:00002F9B       aTcpIsConn
 0002:00002FA7       aAdbRecv
 0002:00002FB0       aTcpRecv
 0002:00002FB9       aAoaSubscribe
 0002:00002FC7       aAoaConnect
 0002:00002FD3       aAoaClose
 0002:00002FDD       aAoaSend
 0002:00002FE6       aAoaIsConn
 0002:00002FF2       aAoaRecv
 0002:00002FFB       aMuxdIsConn
 0002:00003008       aMuxdConn
 0002:00003012       aUsbmuxdConnect
 0002:00003022       aMuxdev
 0002:00003029       aMuxdClose
 0002:00003034       aUsbmuxdDisconn
 0002:00003047       aMuxdRecv
 0002:00003051       aUsbmuxdRecvTim
 0002:00003066       aUsbmuxdSend
 0002:00003073       aErrnoLocation
 0002:00003084       aSetsockopt
 0002:0000308F       aInetAddr
 0002:00003099       aUsbmuxdGetDevi
 0002:000030B4       aPthreadAttrSet_2
 0002:000030D0       aUsbsocketInit
 0002:000030DF       aUsbmuxdSubscri
 0002:000030F1       aUsbsocketCreat
 0002:00003109       aUsbsocketIsCon
 0002:0000311B       aUsbsocketRecv
 0002:0000312A       aUsbsocketSend
 0002:00003139       aInitLibusb
 0002:00003145       aLibusbInit
 0002:00003151       aOpen68013
 0002:0000315B       aUninitLibusb
 0002:00003169       aClose68013
 0002:00003174       aLibusbExit
 0002:00003180       aLibusbGetDevic
 0002:00003197       aLibusbFreeDevi
 0002:000031AF       aLibusbGetDevic_0
 0002:000031CC       aRecvbuffer
 0002:000031D7       aSyncsendbuffer
 0002:000031E6       aIs68013Connect
 0002:000031F9       aHubErrorCheck
 0002:00003209       aApplecpCheck
 0002:00003217       aApplecpIsexist
 0002:00003227       aApplecpReadAut
 0002:00003241       aApplecpReqChal
 0002:00003260       aIap2QueuePut
 0002:0000326F       aIap2QueueGet
 0002:0000327E       aIap2Usbdevicet
 0002:000032A0       aIap2Usbdevicet_0
 0002:000032BD       aIap2Usbdevicet_1
 0002:000032DA       aIap2CtrlSessio
 0002:000032F0       aPthreadJoin
 0002:000032FD       aIap2TimerInit
 0002:0000330D       aIap2Calchecksu
 0002:0000331E       aIap2TimerDel
 0002:0000332D       aIap2PktGetdata
 0002:00003341       aIap2PktParse
 0002:00003350       aIap2TimerIsval
 0002:00003363       aIap2LinkSessio
 0002:00003384       aIap2CtrlSessio_0
 0002:0000339E       aIap2TimerIstim
 0002:000033B3       aIap2LinkPreini
 0002:000033C5       aIap2LinkRun
 0002:000033D3       aIap2LinkCtrlse
 0002:000033EE       aIap2LinkCtrlse_0
 0002:00003409       aIap2LinkSessio_0
 0002:00003426       aIap2LinkSessio_1
 0002:00003447       aIap2LinkEasess
 0002:00003462       aIap2LinkEasess_0
 0002:0000347B       aIap2LinkEasess_1
 0002:00003494       aIap2LinkEasess_2
 0002:000034B2       aIap2PktGeteapr
 0002:000034CB       aIap2LinkEasess_3
 0002:000034E9       aIap2CtrlSessio_1
 0002:00003506       aIap2QueueIsful
 0002:00003518       aIap2QueueIsemp
 0002:0000352B       aUsbupdateSavep
 0002:0000353E       aUsbupdateSetdm
 0002:0000355B       aUsbupdateClear
 0002:0000357A       aUsbupdatePrint
 0002:0000358D       aLseek
 0002:00003593       aUsbupdateRegis
 0002:000035AD       aUsbinit
 0002:000035B5       aUsbdel
 0002:000035BC       aIfusbpartition
 0002:000035D1       aUsbupdateInitr
 0002:000035EA       aUsbupdatePrint_0
 0002:00003604       aUsbupdateSaver
 0002:0000361D       aUsbupdateInitl
 0002:0000362F       aUsbupdateSavel
 0002:00003641       aStrcmp
 0002:00003648       aOpendir
 0002:00003650       aStrcpy
 0002:00003657       aReaddir
 0002:0000365F       aClosedir
 0002:00003668       aUsbupdatecheck
 0002:00003690       aStrcat
 0002:00003697       aUsbupdatecheck_0
 0002:000036B9       aUsbupdatecheck_1
 0002:000036DE       aUsbupdatecheck_2
 0002:000036FF       aUsbupdatecheck_3
 0002:00003720       aUsbupdatecheck_4
 0002:00003746       aUsbupdatecheck_5
 0002:00003771       aUsbupdatecheck_6
 0002:00003794       aUsbupdatecheck_7
 0002:000037B6       aUsbupdatecheck_8
 0002:000037CF       aUsbupdateDealA
 0002:000037E2       aUsbupdateCheck
 0002:000037F9       aParaGet
 0002:00003802       aParaSet
 0002:0000380B       aParaInit
 0002:00003815       aMd5BlockHostOr
 0002:0000382A       aMd5BlockDataOr
 0002:0000383F       aMd5Transform
 0002:0000384D       aMd5Version
 0002:00003859       aAesEncrypt
 0002:00003865       aAesDecrypt
 0002:00003871       aLibrtSo1
 0002:0000387C       aLibpthreadSo0
 0002:0000388C       aLibusb10So0
 0002:0000389C       aLibusbmuxdSo2
 0002:000038AC       aLibplistSo1
 0002:000038BA       aLibxml2So2
 0002:000038C7       aLibzSo1
 0002:000038D1       aRaise
 0002:000038D7       aLibgccSSo1
 0002:000038E5       aLibcSo6
 0002:000038EF       aXstat
 0002:000038F7       aExidxStart
 0002:00003905       aExidxEnd
 0002:00003911       aDataStart
 0002:0000391E       aEdata
 0002:00003925       aBssStart
 0002:00003931       aBssStart_0
 0002:0000393F       aBssEnd
 0002:0000394B       aEnd
 0002:00003953       aGcc35
 0002:0000395B       aGlibc24
 0004:00005754       .init_proc
 0005:00005774       j_Usbupdate_ClearDM368UpdateFlag
 0005:00005780       open
 0005:0000578C       j_At88_Set_Chip_Info_File
 0005:00005798       usbmuxd_connect
 0005:000057A4       j_AppleCP_Req_Challenge_Response
 0005:000057B0       sigemptyset
 0005:000057BC       j_Usbupdate_PrintLog
 0005:000057C8       j_CalCrc16
 0005:000057D4       j_At88_Read_Config
 0005:000057E0       connect
 0005:000057EC       j_sha256_transf
 0005:000057F8       srand
 0005:00005804       usbmuxd_send
 0005:00005810       j_open68013
 0005:0000581C       localtime
 0005:00005828       opendir
 0005:00005834       j_At88_Check_Chip_Info
 0005:00005840       j_At88_Check_Factory_Info
 0005:0000584C       memcmp
 0005:00005858       j_getTickCount
 0005:00005864       pthread_attr_setdetachstate
 0005:00005870       clock_gettime
 0005:0000587C       __xstat
 0005:00005888       j_Iap2_Queue_Put
 0005:00005894       j_AES_set_decrypt_key
 0005:000058A0       j_tcp_close
 0005:000058AC       j_AES_encrypt
 0005:000058B8       signal
 0005:000058C4       msgget
 0005:000058D0       pthread_attr_setschedpolicy
 0005:000058DC       __gmon_start__
 0005:000058E8       j_GetFileSize
 0005:000058F4       j_GetCurrentTime
 0005:00005900       j_Usbupdatecheck_PrintResult_Error
 0005:0000590C       pthread_mutexattr_settype
 0005:00005918       j_Pro_Cmd_Get_Version
 0005:00005924       libusb_free_device_list
 0005:00005930       inet_addr
 0005:0000593C       j_At88_Check_Key
 0005:00005948       j_Queue_Create
 0005:00005954       fclose
 0005:00005960       fgets
 0005:0000596C       recv
 0005:00005978       j_Iap2_Queue_IsEmpty
 0005:00005984       libusb_get_device_list
 0005:00005990       j_IfFileExist
 0005:0000599C       j_MD5_Init
 0005:000059A8       system
 0005:000059B4       strchr
 0005:000059C0       j_UnInit_libusb
 0005:000059CC       putchar
 0005:000059D8       j_Pro_Cmd_Load_Finish
 0005:000059E4       j_CalCrc8
 0005:000059F0       pclose
 0005:000059FC       j_MD5_Final
 0005:00005A08       j_Simple_EncryptAndDecrypt
 0005:00005A14       j_At88_Is_Passed
 0005:00005A20       sendto
 0005:00005A2C       htons
 0005:00005A38       j_Iap2_Link_EASession_Send
 0005:00005A44       fopen
 0005:00005A50       j_Watchdog_Init
 0005:00005A5C       sched_get_priority_max
 0005:00005A68       j_At88_Read_Factory_Info
 0005:00005A74       mktime
 0005:00005A80       j_Usbupdate_InitResultFile
 0005:00005A8C       memset
 0005:00005A98       j_PrintHex
 0005:00005AA4       pthread_cond_timedwait
 0005:00005AB0       j_Queue_GetData
 0005:00005ABC       j_AesEncrypt
 0005:00005AC8       j_At88_Write_Key_File
 0005:00005AD4       j_Usbupdate_SetDM368UpdateFlag
 0005:00005AE0       j_ThreadSignal_MaskPipe
 0005:00005AEC       j_GetHardwareVersion
 0005:00005AF8       pthread_attr_setschedparam
 0005:00005B04       j_GetINT32LittleEnd
 0005:00005B10       j_DJI_Frame_Cap
 0005:00005B1C       j_Iap2_CalChecksum
 0005:00005B28       j_At88_Delete
 0005:00005B34       j_ReadFile
 0005:00005B40       j_Pro_SendWaitAck
 0005:00005B4C       j_Usbupdate_SavePara
 0005:00005B58       j_Iap2_Pkt_Parse
 0005:00005B64       __assert_fail
 0005:00005B70       j_Pro_Deal_CallBack
 0005:00005B7C       j_AppleCP_Read_AuthCertData
 0005:00005B88       ntohl
 0005:00005B94       usleep
 0005:00005BA0       msgsnd
 0005:00005BAC       j_tcp_recv
 0005:00005BB8       j_Iap2_Link_CtrlSession_Recv
 0005:00005BC4       tcdrain
 0005:00005BD0       j_Pro_Cmd_Reboot
 0005:00005BDC       j_At88_Is_Config_Set
 0005:00005BE8       free
 0005:00005BF4       read
 0005:00005C00       write
 0005:00005C0C       j_DataBuff_Delete
 0005:00005C18       j_PutINT32LittleEnd
 0005:00005C24       j_Pro_PackAndSend_ThreadSafe
 0005:00005C30       gettimeofday
 0005:00005C3C       j_At88_Read_Chip_Info_File
 0005:00005C48       j_At88_Is_Config_Lock
 0005:00005C54       j_sha256_final
 0005:00005C60       tcgetattr
 0005:00005C6C       j_Usbupdate_SaveLog
 0005:00005C78       pthread_mutex_unlock
 0005:00005C84       j_Iap2_Link_Session_ReleaseRecvPkt
 0005:00005C90       tcflush
 0005:00005C9C       socket
 0005:00005CA8       j_md5_block_data_order
 0005:00005CB4       j_UsbDel
 0005:00005CC0       ioctl
 0005:00005CCC       ntohs
 0005:00005CD8       j_Usbupdatecheck_PrintResult_Forbid
 0005:00005CE4       j_LockFile
 0005:00005CF0       pthread_mutexattr_destroy
 0005:00005CFC       libusb_exit
 0005:00005D08       pthread_mutex_lock
 0005:00005D14       j_Iap2_Queue_IsFull
 0005:00005D20       j_AES_cbc_encrypt
 0005:00005D2C       strlen
 0005:00005D38       sscanf
 0005:00005D44       j_Iap2_Link_CtrlSession_Send
 0005:00005D50       j_Usbupdate_SaveResultFile
 0005:00005D5C       j_DataBuff_Create
 0005:00005D68       j_At88_Read_Key_File
 0005:00005D74       libusb_init
 0005:00005D80       pthread_create
 0005:00005D8C       memcpy
 0005:00005D98       j_GetINT16LittleEnd
 0005:00005DA4       pthread_cond_signal
 0005:00005DB0       j_PutINT16LittleEnd
 0005:00005DBC       j_Iap2_Timer_Init
 0005:00005DC8       j_WriteFile_No_Sync
 0005:00005DD4       pthread_attr_setinheritsched
 0005:00005DE0       sigaddset
 0005:00005DEC       strcpy
 0005:00005DF8       j_close68013
 0005:00005E04       pthread_cond_destroy
 0005:00005E10       pthread_sigmask
 0005:00005E1C       settimeofday
 0005:00005E28       pthread_mutex_destroy
 0005:00005E34       printf
 0005:00005E40       raise
 0005:00005E4C       j_MFI_Ctrl_Get
 0005:00005E58       j_At88_Write_Chip_Info_File
 0005:00005E64       j_tcp_connect
 0005:00005E70       j_Pro_IsPacketNeedEncrypt
 0005:00005E7C       pthread_mutex_init
 0005:00005E88       usbmuxd_subscribe
 0005:00005E94       bind
 0005:00005EA0       j_Usbupdate_InitLog
 0005:00005EAC       strstr
 0005:00005EB8       select
 0005:00005EC4       j_Usbupdatecheck_PrintResult_Corrupted
 0005:00005ED0       close
 0005:00005EDC       fwrite
 0005:00005EE8       usbmuxd_disconnect
 0005:00005EF4       closedir
 0005:00005F00       j_CalFileMD5
 0005:00005F0C       j_AES_decrypt
 0005:00005F18       j_Iap2_Ctrl_Session_FastCmd
 0005:00005F24       j_Iap2_Link_Session_GetSendPkt
 0005:00005F30       j_sha256_update
 0005:00005F3C       time
 0005:00005F48       j_MD5_Update
 0005:00005F54       j_UsbInit
 0005:00005F60       j_IsAndroidPlugIn
 0005:00005F6C       malloc
 0005:00005F78       j_Iap2_Pkt_GetEAProDataPtr
 0005:00005F84       cfsetospeed
 0005:00005F90       j_Update_Parse_App_Version
 0005:00005F9C       j_tcp_send
 0005:00005FA8       j_Usbupdatecheck_PrintResult_Downgrade_Abort
 0005:00005FB4       pthread_attr_init
 0005:00005FC0       j_IsTimeOut
 0005:00005FCC       j_Set_Mutex_Attr_Recu
 0005:00005FD8       j_Usbupdate_PrintResultFile
 0005:00005FE4       j_AES_set_encrypt_key
 0005:00005FF0       j_sha256
 0005:00005FFC       j_At88_Write_Key
 0005:00006008       j_Iap2_Link_EASession_Recv
 0005:00006014       j_AesDecryptFromFile
 0005:00006020       ftruncate
 0005:0000602C       j_CalMD5
 0005:00006038       j_AesDecrypt
 0005:00006044       sleep
 0005:00006050       j_Usbupdatecheck_PrintResult_Abort
 0005:0000605C       j_Pro_Cmd_Load_Start
 0005:00006068       j_Usbupdatecheck_CreateAndCheck_Single_Fw
 0005:00006074       send
 0005:00006080       strcat
 0005:0000608C       j_init_libusb
 0005:00006098       libusb_get_device_descriptor
 0005:000060A4       j_Queue_Delete
 0005:000060B0       popen
 0005:000060BC       usbmuxd_recv_timeout
 0005:000060C8       puts
 0005:000060D4       tcsetattr
 0005:000060E0       getpid
 0005:000060EC       j_Iap2_Timer_IsValid
 0005:000060F8       j_At88_Lock_Config
 0005:00006104       j_md5_block_host_order
 0005:00006110       j_sha256_init
 0005:0000611C       fcntl
 0005:00006128       j_tcp_is_conn
 0005:00006134       j_WriteFile
 0005:00006140       bzero
 0005:0000614C       j_Iap2_Timer_Del
 0005:00006158       j_Iap2_Timer_IsTimeout
 0005:00006164       j_Iap2_Pkt_GetDataPtr
 0005:00006170       j_At88_Write_Factory_Info
 0005:0000617C       htonl
 0005:00006188       j_Update_Parse_68013_Version
 0005:00006194       pthread_attr_destroy
 0005:000061A0       j_At88_Check_All
 0005:000061AC       j_Get68013HardwareVersion
 0005:000061B8       lseek
 0005:000061C4       rand
 0005:000061D0       j_At88_Set_Config
 0005:000061DC       j_Iap2_Link_Session_ReleaseSendPkt
 0005:000061E8       j_Pro_Cmd_Load_Data
 0005:000061F4       fread
 0005:00006200       usbmuxd_get_device_by_udid
 0005:0000620C       pthread_cond_init
 0005:00006218       j_Pro_PackAndSend
 0005:00006224       msgrcv
 0005:00006230       j_At88_Init
 0005:0000623C       j_Pro_Cmd_Enter_Loader
 0005:00006248       recvfrom
 0005:00006254       j_Iap2_Queue_Get
 0005:00006260       j_At88_Write_Factory_Info_File
 0005:0000626C       j_AesEncryptToFile
 0005:00006278       j_DJI_ProStruct_Init
 0005:00006284       setsockopt
 0005:00006290       pthread_mutexattr_init
 0005:0000629C       readdir
 0005:000062A8       j_Watchdog_Feed
 0005:000062B4       j_syncSendBuffer
 0005:000062C0       j_At88_Write_Kernel_Encrypt
 0005:000062CC       strcmp
 0005:000062D8       j_Pro_Cmd_Get_State
 0005:000062E4       exit
 0005:000062F0       cfsetispeed
 0005:000062FC       j_Reset_68013
 0005:00006308       j_At88_Mac_Check
 0005:00006314       __errno_location
 0005:00006320       j_Pro_Get_CurSeq
 0005:0000632C       j_Queue_PutData
 0005:00006338       j_At88_Read_Chip_Info
 0005:00006344       __cxa_finalize
 0005:00006350       sprintf
 0005:0000635C       pthread_join
 0005:00006368       j_aoa_subscribe
 0005:00006374       j_At88_Check_Auth
 0005:00006380       j_Pro_Cmd_Update_Ctrl
 0006:0000638C       call_gmon_start
 0006:000063B0       __do_global_dtors_aux
 0006:00006404       frame_dummy
 0006:00006448       CalCrc8
 0006:000064E0       CalCrc16
 0006:000065B0       DataBuff_Create
 0006:00006660       DataBuff_Clear
 0006:000066C0       DataBuff_Delete
 0006:00006728       Code_Hex
 0006:00006998       Decode_Hex
 0006:00006B98       DJI_Frame_Cap
 0006:00006FD4       crc
 0006:00006FD8       Frame_Capture
 0006:00007210       Frame_CapByHeadAndLen
 0006:00007718       assertion
 0006:0000771C       file
 0006:00007720       line
 0006:00007724       function
 0006:00007728       GetFP32
 0006:0000776C       GetINT16LittleEnd
 0006:000077B0       PutINT16LittleEnd
 0006:000077F0       GetINT32LittleEnd
 0006:00007834       PutINT32LittleEnd
 0006:00007870       ExchgINT8UHLBit
 0006:000078B8       PrintHex
 0006:00007920       format
 0006:00007924       GetCurrentTime
 0006:00007970       IsTimeOut
 0006:00007A48       InitProcMsg
 0006:00007AA0       key
 0006:00007AA4       msgflg
 0006:00007AAC       ProcMsgSend
 0006:00007B34       ProcMsgRecv
 0006:00007BCC       GetFileSize
 0006:00007C34       IfFileExist
 0006:00007C7C       GetBaseName
 0006:00007D30       ReadFile
 0006:00007DE8       modes
 0006:00007DEC       WriteFile_No_Sync
 0006:00007EA8       WriteFile
 0006:00007F6C       command
 0006:00007F70       P2PSocket_Create
 0006:000080E4       P2PSocket_Delete
 0006:0000814C       P2PSocket_Rec
 0006:00008248       P2PSocket_Send
 0006:000082DC       Kernel_Feed
 0006:00008328       request
 0006:0000832C       s
 0006:00008330       Watchdog_Init
 0006:0000844C       handler
 0006:00008450       Watchdog_Feed
 0006:000084C8       Watchdog_Delete
 0006:00008528       Update_Parse_App_Version
 0006:0000867C       filename
 0006:00008688       Update_Parse_68013_Version
 0006:000088E4       needle
 0006:00008900       CalFileMD5
 0006:000089F0       CalMD5
 0006:00008A48       DJI_ProStruct_Init
 0006:00008AB8       SetHardwareVersion
 0006:00008AE8       pcFileName
 0006:00008AEC       GetHardwareVersion
 0006:00008B38       Set68013HardwareVersion
 0006:00008B6C       Get68013HardwareVersion
 0006:00008BB8       Update_Fill_Version
 0006:00008CB4       ulData
 0006:00008CB8       Update_Fill_68013_Version
 0006:00008DCC       LockFile
 0006:00008E20       already_running
 0006:00008F10       getTickCount
 0006:00008F78       ThreadSignal_MaskPipe
 0006:00008FF8       GetRandomData
 0006:000090B0       CalMac
 0006:00009234       AesEncrypt
 0006:000092E8       AesDecrypt
 0006:0000939C       AesEncryptToFile
 0006:0000943C       pKey
 0006:00009440       AesDecryptFromFile
 0006:000094F0       Get_Time
 0006:000095BC       Set_Time
 0006:0000965C       Set_Mutex_Attr_Recu
 0006:000096AC       Loop_FeedWatchDog
 0006:000096D4       useconds
 0006:000096D8       Create_FeedWatchDog_Thread
 0006:00009764       start_routine
 0006:00009768       Reset_68013
 0006:000097A0       MFI_Ctrl_Set
 0006:00009824       MFI_Ctrl_Get
 0006:0000984C       pFile
 0006:00009850       Simple_EncryptAndDecrypt
 0006:000099AC       Pro_Deal_CallBack
 0006:00009A08       Pro_IsPacketNeedEncrypt
 0006:00009ADC       Pro_PackAndSend
 0006:00009E9C       Pro_DealProtocol
 0006:00009F84       Pro_ParseProtocol
 0006:0000A32C       Pro_DealRec
 0006:0000A394       Pro_Init
 0006:0000A540       Pro_CheckRec
 0006:0000A674       Pro_PackAndSend_ThreadSafe
 0006:0000AA78       Pro_Get_CurSeq
 0006:0000AAD4       Pro_Register_CmdSend
 0006:0000ABE0       Pro_Cancel_CmdSend
 0006:0000AD18       Pro_Check_CmdSend_Timeout
 0006:0000AE4C       Pro_Deal_CmdSend_Ack
 0006:0000B204       Pro_SendWaitAck
 0006:0000B4DC       Pro_Cmd_Get_Version
 0006:0000B648       Pro_Cmd_Enter_Loader
 0006:0000B780       Pro_Cmd_Get_State
 0006:0000B8EC       Pro_Cmd_Load_Start
 0006:0000BA78       Pro_Cmd_Load_Data
 0006:0000BC7C       Pro_Cmd_Load_Finish
 0006:0000BDDC       Pro_Cmd_Reboot
 0006:0000BF80       Pro_Cmd_Update_Ctrl
 0006:0000C0C8       Key_Init
 0006:0000C1A4       KeyScan
 0006:0000C290       GetKey
 0006:0000C2CC       Queue_Create
 0006:0000C3BC       Queue_Delete
 0006:0000C424       Queue_GetData
 0006:0000C518       Queue_PutData
 0006:0000C60C       Queue_ClearData
 0006:0000C640       Queue_Empty
 0006:0000C690       Queue_Full
 0006:0000C714       Serial_Create
 0006:0000C830       oflag
 0006:0000C834       SetAttr
 0006:0000CAF0       IsSerialHaveRecData
 0006:0000CC28       Serial_Delete
 0006:0000CC90       Serial_ReadData
 0006:0000CD2C       Serial_WriteData
 0006:0000CDA8       Serial_DisableConsole
 0006:0000CEE0       termios_p
 0006:0000CEEC       Serial_EnableConsole
 0006:0000CFC4       sha256_transf
 0006:0000D458       sha256
 0006:0000D4A8       sha256_init
 0006:0000D520       sha256_update
 0006:0000D670       sha256_final
 0006:0000D8BC       sha256_noPad
 0006:0000D9BC       At88_Ioctl_ThreadSafe
 0006:0000DA10       mutex
 0006:0000DA14       At88_Init
 0006:0000DB28       pMutex
 0006:0000DB34       slOpt
 0006:0000DB3C       At88_Delete
 0006:0000DB80       At88_Is_Config_Lock
 0006:0000DC80       At88_Is_DataOTP_Lock
 0006:0000DD80       At88_Read_Config
 0006:0000DE98       At88_Is_Config_Set
 0006:0000DF9C       At88_Lock_Config
 0006:0000E02C       At88_Lock_DataOTP
 0006:0000E0BC       At88_Set_Config
 0006:0000E220       At88_Check_And_Set_Config
 0006:0000E2E8       At88_Read_Chip_Info
 0006:0000E3F0       At88_Write_Chip_Info_File
 0006:0000E420       pcFile
 0006:0000E424       At88_Read_Chip_Info_File
 0006:0000E458       At88_Check_Chip_Info
 0006:0000E4F4       At88_Set_Chip_Info_File
 0006:0000E590       At88_Check_And_Set_Chip_Info
 0006:0000E5D4       At88_Write_Factory_Info
 0006:0000E7DC       At88_Read_Factory_Info
 0006:0000E938       At88_Write_Factory_Info_File
 0006:0000E964       At88_Write_Kernel_Encrypt
 0006:0000EA20       At88_Write_Factory_Info_All
 0006:0000EA88       At88_Check_Factory_Info
 0006:0000EBCC       At88_Write_Key_File
 0006:0000EC00       At88_Read_Key_File
 0006:0000EC34       At88_Write_Key
 0006:0000ED30       At88_Write_Key_All
 0006:0000ED98       At88_Mac_Check
 0006:0000F080       At88_Check_Key
 0006:0000F0B0       At88_Check_Auth
 0006:0000F11C       At88_Check_All
 0006:0000F1A4       At88_Is_Encrypt
 0006:0000F1EC       At88_Is_Passed
 0006:0000F210       At88_Check_Once
 0006:0000F260       At88_Is_Exist
 0006:0000F2A8       thread_recv_event
 0006:0000F324       adb_subscribe
 0006:0000F410       adb_connect
 0006:0000F498       m_remoteIP
 0006:0000F49C       adb_close
 0006:0000F4C4       adb_send
 0006:0000F4FC       adb_is_conn
 0006:0000F524       adb_recv
 0006:0000F55C       aoa_start
 0006:0000F8D8       src
 0006:0000F900       aoa_thread_event
 0006:0000FA58       aoa_subscribe
 0006:0000FAA8       aoa_connect
 0006:0000FB04       aoa_close
 0006:0000FB34       aoa_send
 0006:0000FC08       aoa_is_conn
 0006:0000FC6C       aoa_recv
 0006:0000FCD4       muxd_is_conn
 0006:0000FCFC       muxd_conn
 0006:0000FD54       muxd_close
 0006:0000FD90       muxd_recv
 0006:0000FE00       muxd_send
 0006:0000FE6C       tcp_is_conn
 0006:0000FF3C       tcp_connect
 0006:000104D0       tcp_send
 0006:000105D8       tcp_recv
 0006:000106CC       tcp_close
 0006:0001072C       usbmuxd_send_first
 0006:00010948       init_connection
 0006:00010A24       thread_connection_fun
 0006:00010DFC       usbmux_event_cb
 0006:00010EC8       adb_event_cb
 0006:00010F80       usbsocket_init
 0006:00011084       event_cb
 0006:00011098       usbsocket_create_handle
 0006:000111D4       usbsocket_is_conn
 0006:00011270       usbsocket_recv
 0006:00011348       usbsocket_send
 0006:00011448       init_libusb
 0006:000114AC       UnInit_libusb
 0006:000114E4       IsAndroidPlugIn
 0006:0001169C       open68013
 0006:00011764       ptTime
 0006:00011768       close68013
 0006:00011794       RecvBuffer
 0006:00011874       syncSendBuffer
 0006:0001194C       Is_68013_Connected
 0006:000119E4       Hub_Error_Check
 0006:00011A80       ulTimeOutms
 0006:00011A8C       __AppleCP_IsExist
 0006:00011B88       AppleCP_Check
 0006:00011C18       AppleCP_IsExist
 0006:00011C3C       AppleCP_Read_AuthCertData_Nolock
 0006:00011D94       AppleCP_Read_AuthCertData
 0006:00011DE8       AppleCP_Req_Challenge_Response_Nolock
 0006:000121D4       AppleCP_Req_Challenge_Response
 0006:00012238       Iap2_Link_Init
 0006:000127D0       n
 0006:00012814       INIT_LIST_HEAD
 0006:00012848       Iap2_Link_lockall
 0006:000128D0       Iap2_Link_unlockall
 0006:00012958       Iap2_Link_Start
 0006:000129D0       Iap2_Link_Stop
 0006:00012A4C       Iap2_Link_SendInitSeq
 0006:00012A8C       Iap2_Link_SendNoSupportSeq
 0006:00012AC8       Iap2_Link_SendLostAck
 0006:00012BA8       Iap2_Link_SendCommonAck
 0006:00012DB8       Iap2_Link_SendEak
 0006:00012F38       Iap2_Link_SendSync
 0006:000133B8       list_add_tail
 0006:000133EC       __list_add
 0006:00013440       Iap2_Link_GetSendSessionIDByType
 0006:00013504       Iap2_Link_SendDataPkt
 0006:000136E8       Iap2_Link_ResendPkt
 0006:000137C8       Iap2_Link_Sync_Parse
 0006:00013A94       Iap2_Link_Sync_IsValid
 0006:00013DC0       Iap2_Link_CheckRecv
 0006:00013F04       Iap2_Link_DealRecv
 0006:00013FA0       Iap2_Link_IsSyncAckPkt
 0006:00014010       Iap2_Link_IsAckPkt
 0006:00014068       Iap2_Link_IsOnlyAckPkt
 0006:000140CC       Iap2_Link_IsEakPkt
 0006:00014124       Iap2_Link_IsRstPkt
 0006:0001417C       Iap2_Link_IsSusPkt
 0006:000141D4       Iap2_Link_LeftGap
 0006:00014214       Iap2_Link_RightGap
 0006:00014254       Iap2_Link_IsInLeftGap
 0006:000142B0       Iap2_Link_IsInRightGap
 0006:0001430C       Iap2_Link_DealLink
 0006:00014768       list_del
 0006:0001479C       __list_del
 0006:000147D4       Iap2_Link_DealLinkInSeqPkt
 0006:00014928       Iap2_Link_DealLinkInSeqPkt_Parse
 0006:00014BF0       Iap2_Link_DealLinkOutSeqPkt
 0006:00014D30       Iap2_Link_IsRecvPktValid
 0006:00014EE0       Iap2_Link_CheckState
 0006:00014F5C       Iap2_Link_CheckSendRecv
 0006:000150E4       Iap2_Link_CheckSend
 0006:00015204       Iap2_Link_Runloop
 0006:00015234       Iap2_Link_PreInit
 0006:0001524C       ptLink
 0006:00015250       Iap2_Link_Run
 0006:000152A8       Iap2_Link_CtrlSession_Recv
 0006:00015304       pQueue
 0006:00015308       Iap2_Link_CtrlSession_Send
 0006:0001536C       Iap2_Link_Session_ReleaseRecvPkt
 0006:000153BC       Iap2_Link_Session_GetSendPkt
 0006:00015450       Iap2_Link_Session_ReleaseSendPkt
 0006:000154A0       Iap2_Link_EASession_IsConn
 0006:0001559C       Iap2_Link_EASession_Recv
 0006:0001570C       Iap2_Link_EASession_Send
 0006:00015A20       Iap2_Link_EASession_Recv_Wrap
 0006:00015AE4       Iap2_Link_EASession_Send_Wrap
 0006:00015BEC       Iap2_Pkt_GetDataPtr
 0006:00015C18       Iap2_Pkt_GetEAProDataPtr
 0006:00015C44       Iap2_Pkt_Parse
 0006:00016330       s2
 0006:00016338       Iap2_Ctrl_Session_App_Launch
 0006:000164DC       Iap2_Ctrl_Session_StartPowerUpdates
 0006:000166F0       Iap2_Ctrl_Session_PowerSourceUpdate
 0006:0001694C       Iap2_Ctrl_Session_Cmd_ReqAuthCert
 0006:00016B04       ulMaxLen
 0006:00016B08       Iap2_Ctrl_Session_Cmd_ReqAuthChaRes
 0006:00016D24       ulResponseMaxLen
 0006:00016D28       Iap2_Ctrl_Session_Cmd_StartIdent
 0006:00018080       Iap2_Ctrl_Session_Cmd_StartEAProSession
 0006:0001838C       Iap2_Ctrl_Session_Cmd_StopEAProSession
 0006:000187CC       Iap2_Ctrl_Session_Run
 0006:00018A2C       Iap2_Ctrl_Session_FastCmd
 0006:00018AFC       Iap2_UsbDeviceTransport_IsConnect
 0006:00018BDC       Iap2_UsbDeviceTransport_Recv
 0006:00018C74       Iap2_UsbDeviceTransport_Send
 0006:00018CE0       Iap2_Timer_Init
 0006:00018D60       Iap2_Timer_Del
 0006:00018D88       Iap2_Timer_IsTimeout
 0006:00018E48       Iap2_Timer_IsValid
 0006:00018E70       Iap2_Queue_IsFull
 0006:00018F04       Iap2_Queue_IsEmpty
 0006:00018F54       Iap2_Queue_Put
 0006:00018FE8       Iap2_Queue_Get
 0006:00019078       Iap2_CalChecksum
 0006:00019100       Usbupdate_SavePara
 0006:000193A8       pIn
 0006:000193B0       Usbupdate_RestorePara
 0006:000194B0       pchMessage
 0006:000194BC       Usbupdate_Start_NoWait
 0006:000194F0       Usbupdate_GetFirmwareDesc_ByID
 0006:000195D8       Usbupdate_GetFirmwareDesc_ByLoader
 0006:00019684       Usbupdate_GetDJIProtocolHandle
 0006:000196DC       Usbupdate_GetCurrentVersion_Common
 0006:00019780       Usbupdate_GetCurrentVersion_DM368
 0006:000197E4       Usbupdate_SetDM368UpdateFlag
 0006:00019834       Usbupdate_ClearDM368UpdateFlag
 0006:00019884       Usbupdate_Update_DM368
 0006:00019924       Usbupdate_GetCurrentVersion_68013
 0006:0001998C       Usbupdate_Update_68013
 0006:00019B84       Usbupdate_Update_Common
 0006:0001A578       ulTimeOut
 0006:0001A5F8       Usbupdate_CalFPGACheckSum
 0006:0001A6F0       Usbupdate_Update_FPGA
 0006:0001AF38       Usbupdate_RegisterChannel
 0006:0001AF94       UsbInit
 0006:0001B010       UsbDel
 0006:0001B070       IfUsbStorageExist
 0006:0001B0B8       IfUsbPartitionsExist
 0006:0001B210       Usbupdate_InitResultFile
 0006:0001B254       Usbupdate_PrintResultFile
 0006:0001B2A4       Usbupdate_SaveResultFile
 0006:0001B2FC       Usbupdate_InitLog
 0006:0001B370       Usbupdate_PrintLog
 0006:0001B3F0       Usbupdate_SaveLog
 0006:0001B448       Usbupdatecheck_RemoveLocalFile
 0006:0001B4E8       Usbupdatecheck_IsDebugMode
 0006:0001B530       Usbupdate_IsFileExtension
 0006:0001B604       Usbupdate_ParseEncFile
 0006:0001B830       Usbupdatecheck_Search_Fw
 0006:0001BB8C       Usbupdatecheck_Create_Single_Fw
 0006:0001BDE0       Usbupdatecheck_CreateAndCheck_Single_Fw
 0006:0001BEC4       Usbupdatecheck_Parse_FwFileHead
 0006:0001C8A0       Usbupdatecheck_PrintResult_FwPacket
 0006:0001C984       Usbupdatecheck_PrintResult_Forbid
 0006:0001C9A0       pcStr
 0006:0001C9A8       Usbupdatecheck_PrintResult_Corrupted
 0006:0001C9CC       Usbupdatecheck_PrintResult_Abort
 0006:0001C9F0       Usbupdatecheck_PrintResult_Error
 0006:0001CA14       Usbupdatecheck_PrintResult_Prohibited
 0006:0001CA38       Usbupdatecheck_PrintResult_Downgrade_Abort
 0006:0001CA5C       Usbupdatecheck_PrintResult_Success
 0006:0001CA80       Usbupdatecheck_PrintResult_Failed
 0006:0001CAB0       Usbupdate_ResetFirmwareAttr
 0006:0001CBF4       Usbupdatecheck_FwFile_ByIndex
 0006:0001D2D8       Usbupdatecheck_FwFile
 0006:0001D324       Usbupdatecheck_SingleFile
 0006:0001D49C       Usbupdate_CheckType
 0006:0001D8BC       Usbupdate_GetType
 0006:0001D8E0       Usbupdate_InitFile
 0006:0001DB24       pulFwNums
 0006:0001DB28       pulMaxVersionIndex
 0006:0001DB2C       pcDir
 0006:0001DB30       pPrefix
 0006:0001DB34       pcFwFile
 0006:0001DB3C       ptHead
 0006:0001DB54       Usbupdatecheck_CheckFile
 0006:0001DE08       Usbupdate_Is_FwPacket
 0006:0001DE38       Usbupdate_Deal_All
 0006:0001E8D4       pcExtension
 0006:0001E8F4       Usbupdate_Check_Result
 0006:0001EA04       Para_Get
 0006:0001EA54       Para_Set
 0006:0001EB64       Para_Init
 0006:0001EC08       pData
 0006:0001EC0C       Para_Load_Default
 0006:0001EC84       Para_Save
 0006:0001ECC8       Para_Check_All
 0006:0001ED98       MD5_Update
 0006:0001F630       MD5_Transform
 0006:0001F65C       MD5_Final
 0006:0001FA98       MD5_Init
 0006:0001FB20       md5_block_host_order
 0006:00021574       md5_block_data_order
 0006:0002368C       AES_set_encrypt_key
 0006:00023F68       AES_set_decrypt_key
 0006:0002449C       AES_encrypt
 0006:00024CFC       AES_decrypt
 0006:00025560       AES_cbc_encrypt
 0006:00025A38       __udivsi3
 0006:00025C24       __aeabi_uidivmod
 0006:00025C44       __aeabi_ldivmod
 0006:00025C88       __aeabi_ldiv0
 0006:00025C98       __gnu_uldivmod_helper
 0006:00025CD4       __gnu_ldivmod_helper
 0006:00025D10       __divdi3
 0006:000262B0       __udivdi3
 0006:000267D8       stat_0
 0007:000267E8       .term_proc
 0008:000267F0       DjiCrc8Table
 0008:000268F0       wCRC_Table
 0008:00026AF0       __PRETTY_FUNCTION__.5734
 0008:00026B08       a0
 0008:00026B0C       aCommonC
 0008:00026B18       a02x
 0008:00026B20       aRb
 0008:00026B24       aWb
 0008:00026B28       aSync
 0008:00026B30       aReceiveSigintP
 0008:00026B68       aDevWatchdog
 0008:00026B78       aWatchdogTimeou
 0008:00026B90       aOptDjiEtcVersi
 0008:00026BA8       aR
 0008:00026BAC       aDDDD
 0008:00026BB8       aCatProcBusUsbD
 0008:00026BD4       aVendor
 0008:00026BDC       aX
 0008:00026BE0       a2014
 0008:00026BE8       aManufacturer
 0008:00026BF8       aEtcHardwarever
 0008:00026C10       aEtc68013hardwa
 0008:00026C2C       aLd
 0008:00026C30       aBlockSigpipeEr
 0008:00026C44       aReset68013_0
 0008:00026C50       aDevgpioN60W0
 0008:00026C64       aDevgpioN60W1
 0008:00026C78       aEcho1S
 0008:00026C84       aVarDisTmp
 0008:00026C94       aRmRfS
 0008:00026CA0       aXo32LdViaqIxfe
 0008:00026CB8       aProPackandsend_1
 0008:00026CDC       aProCmdLoadData_0
 0008:00026CF8       aDevEvent0
 0008:00026D04       aDevConsole
 0008:00026D14       aDevTty1
 0008:00026D20       aDevAt88
 0008:00026D2C       aEtcChipInfoBin
 0008:00026D40       aEtcKeyBin
 0008:00026D50       aHomeRootAndroi
 0008:00026D6C       aHomeRootAndroi_0
 0008:00026D8C       aRmRS
 0008:00026D98       aAdbKillServer
 0008:00026DA8       aAdbStartServer
 0008:00026DBC       aAdbForwardTcpD
 0008:00026DD8       a127001
 0008:00026DE4       aDji
 0008:00026DE8       aAoaIoctlAoaIoc
 0008:00026E0C       aT600
 0008:00026E14       aDjiInspire1
 0008:00026E24       aVDDDD
 0008:00026E34       aWwwDjiCom
 0008:00026E40       aAoaIoctlAoaIoc_0
 0008:00026E60       aDevAoa
 0008:00026E6C       aOpenSErr
 0008:00026E7C       aAoaStartErr
 0008:00026E8C       aSocketError
 0008:00026E9C       aBindError
 0008:00026EA8       aSocketErrnoD
 0008:00026EBC       aConnErrorTimeo
 0008:00026ED0       aThreadConnecti
 0008:00026F04       aConnFailedType
 0008:00026F24       aConnecteOkType
 0008:00026F44       aIosDeviceFirst
 0008:00026F70       aThreadConnecti_0
 0008:00026F94       aIosDeviceAdd
 0008:00026FB8       aIosDeviceRemov
 0008:00026FE0       aAndroidDeviceA
 0008:00027014       aAndroidDeviceR
 0008:00027040       aUsbsocketInitF
 0008:00027058       aUsbsocketInitO
 0008:0002706C       aUsbmuxdDisable
 0008:00027080       aUsbsocketCreat_1
 0008:000270B4       aUsbsocketCreat_2
 0008:000270E4       aUsbsocketCreat_0
 0008:00027118       aFailedToInitia
 0008:00027148       aInitLibusbSucc
 0008:00027164       aFailedToGetDev
 0008:00027188       aDev68013
 0008:00027194       aOpenSErr_0
 0008:000271A4       aReboot
 0008:000271AC       C.0.5227
 0008:000271B0       aDevApplecp
 0008:000271C0       aIap2LinkResend
 0008:000271D8       aOverFlow
 0008:000271E4       aRecvBuffNotEno
 0008:000271FC       aComDjiPilot
 0008:0002720C       aStartPowerUpda
 0008:00027220       aPowerSourceUpd
 0008:00027234       aC1
 0008:00027238       aGlxxx
 0008:00027240       aDji_0
 0008:00027244       aVDDDD_0
 0008:00027254       aV1000
 0008:00027260       aComDjiVideo
 0008:00027270       aComDjiProtocol
 0008:00027284       aEn
 0008:00027288       aZh
 0008:0002728C       aJa
 0008:00027290       aFr
 0008:00027294       aDe
 0008:00027298       aRc
 0008:0002729C       aSOpen
 0008:000272A8       aSClose
 0008:000272B4       aIap2RequestAut
 0008:000272DC       aIap2RequestAut_0
 0008:0002730C       aIap2Authentica
 0008:00027328       aIap2Authentica_0
 0008:00027348       aIap2StartIdent
 0008:00027364       aIap2Identifica
 0008:00027384       aIap2Identifica_0
 0008:000273A4       aPowerUpdate
 0008:000273B4       aIap2StartExter
 0008:000273E4       aIap2StopExtern
 0008:00027414       aDevApplehid
 0008:00027424       aMntUsbUsbupdat
 0008:00027440       aOptTmpUsbupdat
 0008:0002745C       aMntUsbGs68013B
 0008:00027474       aOptTmpGs68013B
 0008:0002748C       aMntUsbGsFpgaBi
 0008:000274A4       aOptTmpGsFpgaBi
 0008:000274BC       aMntUsbGs1765Bi
 0008:000274D4       aOptTmpGs1765Bi
 0008:000274EC       aOptTmpUpdateBi
 0008:00027500       aOptTmpUpdateba
 0008:00027518       C.0.5556
 0008:00027520       C.5.5584
 0008:00027528       aEchoUpgradingS
 0008:0002753C       aOptTmpUpdatefl
 0008:00027554       aSync_0
 0008:0002755C       aRmRfS_0
 0008:00027568       aDdIfSOpensslDe
 0008:0002759C       aDji123456
 0008:000275A8       aOpt
 0008:000275B0       aOptDjiEtcUpdat
 0008:000275CC       aFxloadISTFx2DS
 0008:000275E8       aOptDjiBinVendA
 0008:00027604       a05471002
 0008:00027610       a04b48613
 0008:0002761C       aFxloadISTFx3DS
 0008:00027638       aNeedRebootBefo
 0008:00027654       aTryToRebootBef
 0008:00027678       aRebootXOk
 0008:00027688       aEnterLoaderBeg
 0008:0002769C       aEnterLoaderOk
 0008:000276AC       aEnterLoaderErr
 0008:000276C4       aGetStateBegin
 0008:000276D4       aGetStateOk
 0008:000276E4       aGetStateYes
 0008:000276F4       aGetStateNo
 0008:00027708       aGetStateErr
 0008:0002771C       aLoadStartBegin
 0008:00027730       aLoadStartOk
 0008:00027740       aLoadStartLengt
 0008:00027760       aLoadStartLengt_0
 0008:0002777C       aLoadStartFlash
 0008:000277A4       aLoadStartAckEr
 0008:000277C0       aLoadStartErr
 0008:000277D4       aLoadDataBeginD
 0008:000277E8       aLoadDataSeekEr
 0008:0002781C       aLoadDataSendOk
 0008:00027830       aLoadDataSendEr
 0008:00027858       aLoadDataSendSn
 0008:00027874       aLoadDataFinish
 0008:00027888       aLoadFinishBegi
 0008:0002789C       aLoadFinishOk
 0008:000278AC       aFinishAckX
 0008:000278BC       aLoadFinishErr
 0008:000278D4       aRetryExceedMax
 0008:000278F8       aTryToRebootX
 0008:0002790C       aSendDataErrOff
 0008:00027928       aCurrentSendTot
 0008:00027940       aSendDataSucces
 0008:00027968       aMkdirSP
 0008:00027974       aMntUsb
 0008:00027980       aMountSS
 0008:0002798C       aUmountS
 0008:00027998       aRmdirS
 0008:000279A4       aTestDProcScsiU
 0008:000279C4       aCatProcPartiti
 0008:000279DC       aR_0
 0008:000279E0       aSda
 0008:000279E4       aSda1
 0008:000279EC       aDevSda
 0008:000279F8       aDevSda1
 0008:00027A04       aEchoS
 0008:00027A24       aOptTmpC1FwResu
 0008:00027A40       aEchoSS
 0008:00027A50       aMvSS
 0008:00027A5C       aMntUsbC1FwResu
 0008:00027A78       aEcho10ld6ldUpg
 0008:00027AA0       aOptTmpC1FwLogT
 0008:00027AB8       aEcho10ld6ldSS
 0008:00027AD4       aMntUsbC1FwLogT
 0008:00027AEC       aRmSF
 0008:00027AF8       aMntUsbC1FwDebu
 0008:00027B10       aSS
 0008:00027B18       aSDDDS
 0008:00027B2C       aBin
 0008:00027B30       aSDDDSS
 0008:00027B48       aDji_1
 0008:00027B4C       aC1_0
 0008:00027B50       aNewFormatVersi
 0008:00027B68       aOldFormat
 0008:00027B74       aPacket
 0008:00027B84       aResultForbid
 0008:00027B94       aMultipleVersio
 0008:00027BF0       aResultCorrupte
 0008:00027C04       aFirmwareBinFil
 0008:00027C54       aResultAborted
 0008:00027C64       aTheFirmwareOnT
 0008:00027CD0       aResultError
 0008:00027CE0       aFailedToObatin
 0008:00027D44       aResultProhibit
 0008:00027D58       aUpgradeIsProhi
 0008:00027DBC       aTheCurrentFirm
 0008:00027E34       aUpgrading
 0008:00027E44       aResultSuccess
 0008:00027E54       aResultFailed
 0008:00027E64       aRebootTheRemot
 0008:00027EA8       aIdXLoaderXAppX
 0008:00027EDC       aCurrentX
 0008:00027EE8       aSaveXAcceptX
 0008:00027EFC       aUpdateModeDebu
 0008:00027F10       aParaInvalid
 0008:00027F20       aUpdateModeNorm
 0008:00027F34       aUpdateModeB
 0008:00027F44       aUnsupportDowng
 0008:00027F58       aUpdateModeR
 0008:00027F68       aC1FwV
 0008:00027F70       aMoreThan1FwPac
 0008:00027F8C       aFwPacketHeadCo
 0008:00027FA8       aFwCheckTypeErr
 0008:00027FBC       aTryToParseFwPa
 0008:00027FD8       aTryToParseSing
 0008:00027FF4       aCheckErrorIdX
 0008:00028008       aNoNeedUpdateId
 0008:00028020       aNeedUpdateIdX
 0008:00028034       aNotFoundIdX
 0008:00028048       aEnc
 0008:0002804C       aCpSS
 0008:00028058       aStartUpgradeX
 0008:0002806C       aUsbAutoUpdateS
 0008:0002809C       aSuccess
 0008:000280A4       aUsbAutoUpdateS_0
 0008:000280D4       aFailStepD
 0008:000280E4       aOptTmpParaBin
 0008:000280F8       aOptTmpParabakB
 0008:00028110       C.5.5300
 0008:00028118       aSync_1
 0008:00028120       end.2441
 0008:00028124       MD5_version
 0008:0002814C       Te0
 0008:0002854C       Te1
 0008:0002894C       Te2
 0008:00028D4C       Te3
 0008:0002914C       Td0
 0008:0002954C       Td1
 0008:0002994C       Td2
 0008:00029D4C       Td3
 0008:0002A14C       Td4
 0008:0002A24C       rcon
 0008:0002A274       __clz_tab
 000B:0002BBDC       __FRAME_END__
 000C:00034000       __frame_dummy_init_array_entry
 000D:00034004       __do_global_dtors_aux_fini_array_entry
 000E:00034008       __JCR_LIST__
 000F:00034134       $_GLOBAL_OFFSET_TABLE_
 000F:00034140       Usbupdate_ClearDM368UpdateFlag_ptr
 000F:00034144       open_ptr
 000F:00034148       At88_Set_Chip_Info_File_ptr
 000F:0003414C       usbmuxd_connect_ptr
 000F:00034150       AppleCP_Req_Challenge_Response_ptr
 000F:00034154       sigemptyset_ptr
 000F:00034158       Usbupdate_PrintLog_ptr
 000F:0003415C       CalCrc16_ptr
 000F:00034160       At88_Read_Config_ptr
 000F:00034164       connect_ptr
 000F:00034168       sha256_transf_ptr
 000F:0003416C       srand_ptr
 000F:00034170       usbmuxd_send_ptr
 000F:00034174       open68013_ptr
 000F:00034178       localtime_ptr
 000F:0003417C       opendir_ptr
 000F:00034180       At88_Check_Chip_Info_ptr
 000F:00034184       At88_Check_Factory_Info_ptr
 000F:00034188       memcmp_ptr
 000F:0003418C       getTickCount_ptr
 000F:00034190       pthread_attr_setdetachstate_ptr
 000F:00034194       clock_gettime_ptr
 000F:00034198       __xstat_ptr
 000F:0003419C       Iap2_Queue_Put_ptr
 000F:000341A0       AES_set_decrypt_key_ptr
 000F:000341A4       tcp_close_ptr
 000F:000341A8       AES_encrypt_ptr
 000F:000341AC       signal_ptr
 000F:000341B0       msgget_ptr
 000F:000341B4       pthread_attr_setschedpolicy_ptr
 000F:000341B8       __gmon_start___ptr
 000F:000341BC       GetFileSize_ptr
 000F:000341C0       GetCurrentTime_ptr
 000F:000341C4       Usbupdatecheck_PrintResult_Error_ptr
 000F:000341C8       pthread_mutexattr_settype_ptr
 000F:000341CC       Pro_Cmd_Get_Version_ptr
 000F:000341D0       libusb_free_device_list_ptr
 000F:000341D4       inet_addr_ptr
 000F:000341D8       At88_Check_Key_ptr
 000F:000341DC       Queue_Create_ptr
 000F:000341E0       fclose_ptr
 000F:000341E4       fgets_ptr
 000F:000341E8       recv_ptr
 000F:000341EC       Iap2_Queue_IsEmpty_ptr
 000F:000341F0       libusb_get_device_list_ptr
 000F:000341F4       IfFileExist_ptr
 000F:000341F8       MD5_Init_ptr
 000F:000341FC       system_ptr
 000F:00034200       strchr_ptr
 000F:00034204       UnInit_libusb_ptr
 000F:00034208       putchar_ptr
 000F:0003420C       Pro_Cmd_Load_Finish_ptr
 000F:00034210       CalCrc8_ptr
 000F:00034214       pclose_ptr
 000F:00034218       MD5_Final_ptr
 000F:0003421C       Simple_EncryptAndDecrypt_ptr
 000F:00034220       At88_Is_Passed_ptr
 000F:00034224       sendto_ptr
 000F:00034228       htons_ptr
 000F:0003422C       Iap2_Link_EASession_Send_ptr
 000F:00034230       fopen_ptr
 000F:00034234       Watchdog_Init_ptr
 000F:00034238       sched_get_priority_max_ptr
 000F:0003423C       At88_Read_Factory_Info_ptr
 000F:00034240       mktime_ptr
 000F:00034244       Usbupdate_InitResultFile_ptr
 000F:00034248       memset_ptr
 000F:0003424C       PrintHex_ptr
 000F:00034250       pthread_cond_timedwait_ptr
 000F:00034254       Queue_GetData_ptr
 000F:00034258       AesEncrypt_ptr
 000F:0003425C       At88_Write_Key_File_ptr
 000F:00034260       Usbupdate_SetDM368UpdateFlag_ptr
 000F:00034264       ThreadSignal_MaskPipe_ptr
 000F:00034268       GetHardwareVersion_ptr
 000F:0003426C       pthread_attr_setschedparam_ptr
 000F:00034270       GetINT32LittleEnd_ptr
 000F:00034274       DJI_Frame_Cap_ptr
 000F:00034278       Iap2_CalChecksum_ptr
 000F:0003427C       At88_Delete_ptr
 000F:00034280       ReadFile_ptr
 000F:00034284       Pro_SendWaitAck_ptr
 000F:00034288       Usbupdate_SavePara_ptr
 000F:0003428C       Iap2_Pkt_Parse_ptr
 000F:00034290       __assert_fail_ptr
 000F:00034294       Pro_Deal_CallBack_ptr
 000F:00034298       AppleCP_Read_AuthCertData_ptr
 000F:0003429C       ntohl_ptr
 000F:000342A0       usleep_ptr
 000F:000342A4       msgsnd_ptr
 000F:000342A8       tcp_recv_ptr
 000F:000342AC       Iap2_Link_CtrlSession_Recv_ptr
 000F:000342B0       tcdrain_ptr
 000F:000342B4       Pro_Cmd_Reboot_ptr
 000F:000342B8       At88_Is_Config_Set_ptr
 000F:000342BC       free_ptr
 000F:000342C0       read_ptr
 000F:000342C4       write_ptr
 000F:000342C8       DataBuff_Delete_ptr
 000F:000342CC       PutINT32LittleEnd_ptr
 000F:000342D0       Pro_PackAndSend_ThreadSafe_ptr
 000F:000342D4       gettimeofday_ptr
 000F:000342D8       At88_Read_Chip_Info_File_ptr
 000F:000342DC       At88_Is_Config_Lock_ptr
 000F:000342E0       sha256_final_ptr
 000F:000342E4       tcgetattr_ptr
 000F:000342E8       Usbupdate_SaveLog_ptr
 000F:000342EC       pthread_mutex_unlock_ptr
 000F:000342F0       Iap2_Link_Session_ReleaseRecvPkt_ptr
 000F:000342F4       tcflush_ptr
 000F:000342F8       socket_ptr
 000F:000342FC       md5_block_data_order_ptr
 000F:00034300       UsbDel_ptr
 000F:00034304       ioctl_ptr
 000F:00034308       ntohs_ptr
 000F:0003430C       Usbupdatecheck_PrintResult_Forbid_ptr
 000F:00034310       LockFile_ptr
 000F:00034314       pthread_mutexattr_destroy_ptr
 000F:00034318       libusb_exit_ptr
 000F:0003431C       pthread_mutex_lock_ptr
 000F:00034320       Iap2_Queue_IsFull_ptr
 000F:00034324       AES_cbc_encrypt_ptr
 000F:00034328       strlen_ptr
 000F:0003432C       sscanf_ptr
 000F:00034330       Iap2_Link_CtrlSession_Send_ptr
 000F:00034334       Usbupdate_SaveResultFile_ptr
 000F:00034338       DataBuff_Create_ptr
 000F:0003433C       At88_Read_Key_File_ptr
 000F:00034340       libusb_init_ptr
 000F:00034344       pthread_create_ptr
 000F:00034348       memcpy_ptr
 000F:0003434C       GetINT16LittleEnd_ptr
 000F:00034350       pthread_cond_signal_ptr
 000F:00034354       PutINT16LittleEnd_ptr
 000F:00034358       Iap2_Timer_Init_ptr
 000F:0003435C       WriteFile_No_Sync_ptr
 000F:00034360       pthread_attr_setinheritsched_ptr
 000F:00034364       sigaddset_ptr
 000F:00034368       strcpy_ptr
 000F:0003436C       close68013_ptr
 000F:00034370       pthread_cond_destroy_ptr
 000F:00034374       pthread_sigmask_ptr
 000F:00034378       settimeofday_ptr
 000F:0003437C       pthread_mutex_destroy_ptr
 000F:00034380       printf_ptr
 000F:00034384       raise_ptr
 000F:00034388       MFI_Ctrl_Get_ptr
 000F:0003438C       At88_Write_Chip_Info_File_ptr
 000F:00034390       tcp_connect_ptr
 000F:00034394       Pro_IsPacketNeedEncrypt_ptr
 000F:00034398       pthread_mutex_init_ptr
 000F:0003439C       usbmuxd_subscribe_ptr
 000F:000343A0       bind_ptr
 000F:000343A4       Usbupdate_InitLog_ptr
 000F:000343A8       strstr_ptr
 000F:000343AC       select_ptr
 000F:000343B0       Usbupdatecheck_PrintResult_Corrupted_ptr
 000F:000343B4       close_ptr
 000F:000343B8       fwrite_ptr
 000F:000343BC       usbmuxd_disconnect_ptr
 000F:000343C0       closedir_ptr
 000F:000343C4       CalFileMD5_ptr
 000F:000343C8       AES_decrypt_ptr
 000F:000343CC       Iap2_Ctrl_Session_FastCmd_ptr
 000F:000343D0       Iap2_Link_Session_GetSendPkt_ptr
 000F:000343D4       sha256_update_ptr
 000F:000343D8       time_ptr
 000F:000343DC       MD5_Update_ptr
 000F:000343E0       UsbInit_ptr
 000F:000343E4       IsAndroidPlugIn_ptr
 000F:000343E8       malloc_ptr
 000F:000343EC       Iap2_Pkt_GetEAProDataPtr_ptr
 000F:000343F0       cfsetospeed_ptr
 000F:000343F4       Update_Parse_App_Version_ptr
 000F:000343F8       tcp_send_ptr
 000F:000343FC       Usbupdatecheck_PrintResult_Downgrade_Abort_ptr
 000F:00034400       pthread_attr_init_ptr
 000F:00034404       IsTimeOut_ptr
 000F:00034408       Set_Mutex_Attr_Recu_ptr
 000F:0003440C       Usbupdate_PrintResultFile_ptr
 000F:00034410       AES_set_encrypt_key_ptr
 000F:00034414       sha256_ptr
 000F:00034418       At88_Write_Key_ptr
 000F:0003441C       Iap2_Link_EASession_Recv_ptr
 000F:00034420       AesDecryptFromFile_ptr
 000F:00034424       ftruncate_ptr
 000F:00034428       CalMD5_ptr
 000F:0003442C       AesDecrypt_ptr
 000F:00034430       sleep_ptr
 000F:00034434       Usbupdatecheck_PrintResult_Abort_ptr
 000F:00034438       Pro_Cmd_Load_Start_ptr
 000F:0003443C       Usbupdatecheck_CreateAndCheck_Single_Fw_ptr
 000F:00034440       send_ptr
 000F:00034444       strcat_ptr
 000F:00034448       init_libusb_ptr
 000F:0003444C       libusb_get_device_descriptor_ptr
 000F:00034450       Queue_Delete_ptr
 000F:00034454       popen_ptr
 000F:00034458       usbmuxd_recv_timeout_ptr
 000F:0003445C       puts_ptr
 000F:00034460       tcsetattr_ptr
 000F:00034464       getpid_ptr
 000F:00034468       Iap2_Timer_IsValid_ptr
 000F:0003446C       At88_Lock_Config_ptr
 000F:00034470       md5_block_host_order_ptr
 000F:00034474       sha256_init_ptr
 000F:00034478       fcntl_ptr
 000F:0003447C       tcp_is_conn_ptr
 000F:00034480       WriteFile_ptr
 000F:00034484       bzero_ptr
 000F:00034488       Iap2_Timer_Del_ptr
 000F:0003448C       Iap2_Timer_IsTimeout_ptr
 000F:00034490       Iap2_Pkt_GetDataPtr_ptr
 000F:00034494       At88_Write_Factory_Info_ptr
 000F:00034498       htonl_ptr
 000F:0003449C       Update_Parse_68013_Version_ptr
 000F:000344A0       pthread_attr_destroy_ptr
 000F:000344A4       At88_Check_All_ptr
 000F:000344A8       Get68013HardwareVersion_ptr
 000F:000344AC       lseek_ptr
 000F:000344B0       rand_ptr
 000F:000344B4       At88_Set_Config_ptr
 000F:000344B8       Iap2_Link_Session_ReleaseSendPkt_ptr
 000F:000344BC       Pro_Cmd_Load_Data_ptr
 000F:000344C0       fread_ptr
 000F:000344C4       usbmuxd_get_device_by_udid_ptr
 000F:000344C8       pthread_cond_init_ptr
 000F:000344CC       Pro_PackAndSend_ptr
 000F:000344D0       msgrcv_ptr
 000F:000344D4       At88_Init_ptr
 000F:000344D8       Pro_Cmd_Enter_Loader_ptr
 000F:000344DC       recvfrom_ptr
 000F:000344E0       Iap2_Queue_Get_ptr
 000F:000344E4       At88_Write_Factory_Info_File_ptr
 000F:000344E8       AesEncryptToFile_ptr
 000F:000344EC       DJI_ProStruct_Init_ptr
 000F:000344F0       setsockopt_ptr
 000F:000344F4       pthread_mutexattr_init_ptr
 000F:000344F8       readdir_ptr
 000F:000344FC       Watchdog_Feed_ptr
 000F:00034500       syncSendBuffer_ptr
 000F:00034504       At88_Write_Kernel_Encrypt_ptr
 000F:00034508       strcmp_ptr
 000F:0003450C       Pro_Cmd_Get_State_ptr
 000F:00034510       exit_ptr
 000F:00034514       cfsetispeed_ptr
 000F:00034518       Reset_68013_ptr
 000F:0003451C       At88_Mac_Check_ptr
 000F:00034520       __errno_location_ptr
 000F:00034524       Pro_Get_CurSeq_ptr
 000F:00034528       Queue_PutData_ptr
 000F:0003452C       At88_Read_Chip_Info_ptr
 000F:00034530       __cxa_finalize_ptr
 000F:00034534       sprintf_ptr
 000F:00034538       pthread_join_ptr
 000F:0003453C       aoa_subscribe_ptr
 000F:00034540       At88_Check_Auth_ptr
 000F:00034544       Pro_Cmd_Update_Ctrl_ptr
 000F:00034548       __gmon_start___ptr_0
 000F:0003454C       _Jv_RegisterClasses_ptr
 000F:00034550       __clz_tab_ptr
 000F:00034554       __cxa_finalize_ptr_0
 0010:00034558       __data_start
 0010:0003455C       s_slWatchdogFd
 0010:00034560       s_aucAesUserKey
 0010:00034570       s_ulsimple_key_len.6654
 0010:00034574       s_pcsimple_key.6653
 0010:00034578       s_aulKeyCode.5249
 0010:00034584       s_aslBandRate.5287
 0010:000345AC       sha256_h0
 0010:000345CC       sha256_k
 0010:000346CC       s_slAt88Fd
 0010:000346D0       s_slFd
 0010:000346D4       s_slFd_0
 0010:000346D8       s_slAppleCPFd
 0010:000346DC       s_aucIap2InitSeq
 0010:000346E2       s_aucIap1NoSupportSeq
 0010:000346F4       s_aucIap2InitSeq_0
 0010:000346FA       s_aucIap1InitAckSeq
 0010:00034704       s_slFd_1
 0010:00034708       s_atFirmwareAttr
 0010:000348B8       s_atParaAttr
 0011:00034960       completed.5904
 0011:00034964       s_slMsgID
 0011:00034968       s_aulKeyStatus.5248
 0011:00034974       s_ptKeyQueue
 0011:00034978       s_slKeyFd
 0011:0003497C       s_tConsoleAttrBak
 0011:000349B8       s_bConsoleAttrBakValid
 0011:000349BC       s_At88FdMutex
 0011:000349D4       s_slDevType
 0011:000349D8       s_bPassed
 0011:000349DC       s_flag.5302
 0011:000349E0       adb_fcb
 0011:000349E4       adb_fcb_0
 0011:000349E8       s_device_type
 0011:000349EC       running.5403
 0011:000349F0       mDevicePlugin
 0011:000349F4       s_arr_conn
 0011:00034A7C       last_count.6255
 0011:00034A80       s_SyncInit
 0011:00034A84       s_tHubErrorCheckTime
 0011:00034A8C       s_AppleCPMutex
 0011:00034AA4       s_bAppleCPExist
 0011:00034AA8       s_aucSendBuff
 0011:00066F58       s_aucRecvBuff
 0011:0007FF58       s_atSendPkt
 0011:00080EF8       s_atRecvPkt
 0011:00081E98       s_tIap2Link
 0011:00083CEC       s_pcDev
 0011:00083CF0       s_tFwPacketName
 0011:000844E8       s_ulFwNums
 0011:000844EC       s_ulMaxVersionIndex
 0011:000844F0       s_tHeader
 0011:00085980       s_ptDJIProtocolHandle
 0011:00085988       s_tUpdatePara
 0011:00085992       s_bUpdateParaValid
 0011:00085994       s_ulUpdateType
 0011:00085998       s_ParaMutex
 0011:000859B0       s_aslPara
 0011:000859E8       muxdev
 0012:00085A1C       _end_0
 0000:00034134 Abs   _GLOBAL_OFFSET_TABLE_
 0000:0003400C Abs   _DYNAMIC
 0000:00000000 Abs   shift
 0000:00034960 Abs   __bss_start__
 0000:0002BBDC Abs   __exidx_end
 0000:00085A1C Abs   __end__
 0000:00085A1C Abs   __bss_end__
 0000:00034960 Abs   __bss_start
 0000:00085A1C Abs   _bss_end__
 0000:00085A1C Abs   _end
 0000:00034960 Abs   _edata
 0000:0002B124 Abs   __exidx_start

Program entry point at 0006:00000000
