
 Start         Length     Name                   Class
 0003:00000000 000000034H LOAD                   CODE
 0002:00000000 000000100H PHDR                   CODE
 0003:00000000 00000433CH LOAD                   CODE
 0006:00000000 00000000CH .init                  CODE
 0007:00000000 000000AACH .plt                   CODE
 0008:00000000 00009CF94H .text                  CODE
 0009:00000000 000000E08H .text:IA_EAACP_DEC_CS_ CODE
 000A:00000000 000002C20H .text:IA_EAACP_DEC_CS_ CODE
 000B:00000000 000000028H IA_HE_AAC_DEC_CS_080   CODE
 000C:00000000 00000285CH .text:IA_EAACP_DEC_CS_ CODE
 000D:00000000 0000000C4H .text:algActivate      CODE
 000E:00000000 000000124H .text:algAlloc         CODE
 000F:00000000 000000008H .text:algControl       CODE
 0010:00000000 000000004H .text:algDeactivate    CODE
 0011:00000000 000000030H .text:algExit          CODE
 0012:00000000 000000074H .text:algFree          CODE
 0013:00000000 00000017CH .text:init             CODE
 0014:00000000 0000002ACH .text:algInit          CODE
 0015:00000000 000000138H .text:algMoved         CODE
 0016:00000000 0000001E8H .text:algNumAlloc      CODE
 0017:00000000 0000003E4H .text:ITTIAM_ENHAACPDE CODE
 0018:00000000 000000400H .text:ITTIAM_ENHAACPDE CODE
 0019:00000000 00000012CH IA_HE_AAC_DEC_CS_074   CODE
 001A:00000000 000000008H .fini                  CODE
 001B:00000000 00006F168H .rodata                CONST
 001C:00000000 0000000D4H xdc.meta               CONST
 001D:00000000 000004100H .constdata:IA_HEAAC_DE CONST
 001E:00000000 000000D14H .ARM.extab             CONST
 001F:00000000 0000009F0H .ARM.exidx             CONST
 0020:00000000 000000004H .eh_frame              CONST
 0021:00000000 000000004H .init_array            DATA
 0022:00000000 000000004H .fini_array            DATA
 0023:00000000 000000004H .jcr                   DATA
 0024:00000000 000000004H .data.rel.ro           DATA
 0004:00000000 000000148H LOAD                   DATA
 0025:00000000 000000524H .got                   DATA
 0026:00000000 00000227CH .data                  DATA
 0004:00000000 000000004H LOAD                   DATA
 0027:00000000 000180828H .bss                   BSS
 0028:00000000 000000000H .prgend                


  Address         Publics by Value

 0003:00008134       aLibLdLinuxSo3
 0003:00008168       elf_hash_nbucket
 0003:0000816C       elf_hash_nchain
 0003:00008170       elf_hash_bucket
 0003:0000858C       elf_hash_chain
 0003:0000A031       aLibpthreadSo0
 0003:0000A041       aJvRegisterclas
 0003:0000A055       aLibasoundSo2
 0003:0000A064       aGmonStart
 0003:0000A073       aLibcommonSo
 0003:0000A080       aFini
 0003:0000A086       aDataStart
 0003:0000A093       aLibusb10So0
 0003:0000A0A3       aLibusbmuxdSo2
 0003:0000A0B3       aLibplistSo1
 0003:0000A0C1       aLibxml2So2
 0003:0000A0CE       aLibzSo1
 0003:0000A0D8       aLibmSo6
 0003:0000A0E2       aLibfreetypeSo6
 0003:0000A0F3       aLibpng16So16
 0003:0000A102       aAlreadyRunning
 0003:0000A112       aInitprocmsg
 0003:0000A11E       aAt88Init
 0003:0000A128       aAt88IsPassed
 0003:0000A137       aParaInit
 0003:0000A141       aApplecpCheck
 0003:0000A14F       aMfiCtrlGet
 0003:0000A15C       aApplecpIsexist
 0003:0000A16C       aInitLibusb
 0003:0000A178       aUsbsocketInit
 0003:0000A187       aIap2LinkPreini
 0003:0000A199       aPthreadCreate
 0003:0000A1A8       aFcntl
 0003:0000A1AE       aCreateFeedwatc
 0003:0000A1C9       aHubErrorCheck
 0003:0000A1D9       aIap2LinkRun
 0003:0000A1E7       aIffileexist
 0003:0000A1F3       aPthreadAttrIni
 0003:0000A205       aPthreadAttrSet
 0003:0000A221       aPthreadAttrDes
 0003:0000A236       aGetcurrenttime
 0003:0000A245       aIs68013Connect
 0003:0000A258       aAt88IsExist
 0003:0000A266       aIstimeout
 0003:0000A270       aProcmsgsend
 0003:0000A27C       aProPackandsend
 0003:0000A28C       aProDealCallbac
 0003:0000A29E       aUsbsocketCreat
 0003:0000A2B6       aProInit
 0003:0000A2BF       aSetMutexAttrRe
 0003:0000A2D3       aPthreadMutexLo
 0003:0000A2E6       aPthreadMutexUn
 0003:0000A2FB       aIap2LinkEasess
 0003:0000A316       aIap2LinkEasess_0
 0003:0000A334       aUsbsocketRecv
 0003:0000A343       aIap2LinkEasess_1
 0003:0000A361       aUsbsocketSend
 0003:0000A370       aProPackandsend_0
 0003:0000A38B       aThreadsignalMa
 0003:0000A3A1       aProCheckrec
 0003:0000A3AE       aUsbsocketIsCon
 0003:0000A3C0       aIap2LinkSessio
 0003:0000A3DD       aIap2PktGeteapr
 0003:0000A3F6       aIap2LinkEasess_2
 0003:0000A40F       aIap2LinkSessio_0
 0003:0000A430       aGettickcount
 0003:0000A43D       aPthreadAttrSet_0
 0003:0000A45A       aPthreadAttrSet_1
 0003:0000A476       aPthreadAttrSet_2
 0003:0000A491       aRecvbuffer
 0003:0000A49C       aProCmdGetVersi
 0003:0000A4B0       aProGetCurseq
 0003:0000A4BF       aPutint16little
 0003:0000A4D1       aSerialCreate
 0003:0000A4DF       aSerialDelete
 0003:0000A4ED       aSerialReaddata
 0003:0000A4FD       aSerialWritedat
 0003:0000A50E       aUpdateFillVers
 0003:0000A522       aUpdateFill6801
 0003:0000A53C       aParaSet
 0003:0000A545       aMfiCtrlSet
 0003:0000A552       aParaGet
 0003:0000A55B       aPutint32little
 0003:0000A56D       aReset68013
 0003:0000A579       aGetint32little
 0003:0000A58B       aSethardwarever
 0003:0000A59E       aSet68013hardwa
 0003:0000A5B6       aGethardwarever
 0003:0000A5C9       aGet68013hardwa
 0003:0000A5E1       aPow
 0003:0000A5E5       aSqrt
 0003:0000A5EA       aIap2CtrlSessio
 0003:0000A607       aAt88IsConfigSe
 0003:0000A61A       aAt88IsConfigLo
 0003:0000A62E       aAt88IsDataotpL
 0003:0000A643       aAt88ReadFactor
 0003:0000A65A       aAt88IsEncrypt
 0003:0000A66A       aAt88CheckAll
 0003:0000A679       aAt88CheckAndSe
 0003:0000A696       aAt88CheckAndSe_0
 0003:0000A6B0       aAt88WriteKeyFi
 0003:0000A6C4       aAt88WriteFacto
 0003:0000A6E1       aAt88WriteKey
 0003:0000A6F0       aAt88WriteFacto_0
 0003:0000A708       aAt88WriteKeyAl
 0003:0000A71B       aAt88WriteFacto_1
 0003:0000A737       aAt88LockDataot
 0003:0000A749       aApplecpReadAut
 0003:0000A763       aDjiProstructIn
 0003:0000A776       aApplecpReqChal
 0003:0000A795       aDatabuffDelete
 0003:0000A7A5       aDatabuffCreate
 0003:0000A7B5       aPthreadExit
 0003:0000A7C2       aCeil
 0003:0000A7C7       aPngCreateReadS
 0003:0000A7DE       aPngCreateInfoS
 0003:0000A7F5       aPngSetLongjmpF
 0003:0000A808       aPngInitIo
 0003:0000A814       aPngReadPng
 0003:0000A821       aPngGetImageWid
 0003:0000A835       aPngGetImageHei
 0003:0000A84A       aPngGetChannels
 0003:0000A85B       aPngGetColorTyp
 0003:0000A86E       aPngGetRows
 0003:0000A87B       aPngDestroyRead
 0003:0000A893       aLongjmp
 0003:0000A89B       aFtInitFreetype
 0003:0000A8AC       aFtNewFace
 0003:0000A8B8       aFtSetPixelSize
 0003:0000A8CB       aFtLoadChar
 0003:0000A8D8       aFtDoneFace
 0003:0000A8E5       aFtDoneFreetype
 0003:0000A8F6       aTan
 0003:0000A8FA       aSin
 0003:0000A8FE       aCos
 0003:0000A902       aAtan2
 0003:0000A908       aUsbupdateInitr
 0003:0000A921       aUsbupdatecheck
 0003:0000A947       aUsbupdateSaver
 0003:0000A960       aUsbdel
 0003:0000A967       aUsbupdateRegis
 0003:0000A981       aIfusbpartition
 0003:0000A996       aUsbinit
 0003:0000A99E       aUsbupdatecheck_0
 0003:0000A9B7       aPthreadMutexIn
 0003:0000A9CA       aPthreadMutexDe
 0003:0000A9E0       aErrnoLocation
 0003:0000A9F1       aWaitpid
 0003:0000A9F9       aFork
 0003:0000A9FE       aPthreadSelf
 0003:0000AA0B       aPthreadAttrGet
 0003:0000AA25       aPthreadAttrGet_0
 0003:0000AA40       aPthreadSetsche
 0003:0000AA56       aPthreadGetspec
 0003:0000AA6A       aPthreadJoin
 0003:0000AA77       aPthreadKeyCrea
 0003:0000AA8A       aPthreadKeyDele
 0003:0000AA9D       aPthreadCancel
 0003:0000AAAC       aPthreadSetspec
 0003:0000AAC0       aPthreadSetcanc
 0003:0000AAD6       aPthreadMutexat
 0003:0000AAED       aPthreadMutexat_0
 0003:0000AB07       aPthreadMutexat_1
 0003:0000AB21       aSemPost
 0003:0000AB2A       aSemWait
 0003:0000AB33       aSemGetvalue
 0003:0000AB40       aSemDestroy
 0003:0000AB4C       aSemInit
 0003:0000AB55       aRaise
 0003:0000AB5B       aLibgccSSo1
 0003:0000AB69       aAeabiUnwindCpp
 0003:0000AB80       aAeabiUnwindCpp_0
 0003:0000AB97       aLibcSo6
 0003:0000ABA1       aFflush
 0003:0000ABA8       aStrcpy
 0003:0000ABAF       aShmget
 0003:0000ABB6       aExecv
 0003:0000ABBC       aSprintf
 0003:0000ABC4       aFopen
 0003:0000ABCA       aStrncmp
 0003:0000ABD2       aPipe
 0003:0000ABD7       aShmat
 0003:0000ABDD       aPerror
 0003:0000ABE4       aSemctl
 0003:0000ABEB       aStrncpy
 0003:0000ABF3       aSignal
 0003:0000ABFA       aShmctl
 0003:0000AC01       aPutchar
 0003:0000AC09       aMsgrcv
 0003:0000AC10       aShmdt
 0003:0000AC16       aAbort
 0003:0000AC1C       aGetpid
 0003:0000AC23       aKill
 0003:0000AC28       aAssertFail
 0003:0000AC36       aStrtok
 0003:0000AC3D       aMmap
 0003:0000AC42       aSchedYield
 0003:0000AC4E       aCalloc
 0003:0000AC55       aStrlen
 0003:0000AC5C       aMemset
 0003:0000AC63       aFseek
 0003:0000AC69       aMemcmp
 0003:0000AC70       aMsgget
 0003:0000AC77       aClearerr
 0003:0000AC80       aSetjmp
 0003:0000AC88       aStdout
 0003:0000AC8F       aFputc
 0003:0000AC95       aFputs
 0003:0000AC9B       aMemcpy
 0003:0000ACA2       aFclose
 0003:0000ACA9       aStrtolInternal
 0003:0000ACBB       aMalloc
 0003:0000ACC2       aStrcat
 0003:0000ACC9       aGetenv
 0003:0000ACD0       aOptarg
 0003:0000ACD7       aMsgctl
 0003:0000ACDE       aStderr
 0003:0000ACE5       aIoctl
 0003:0000ACEB       aMunmap
 0003:0000ACF2       aMsgsnd
 0003:0000ACF9       aGetoptLong
 0003:0000AD05       aFileno
 0003:0000AD0C       aUsleep
 0003:0000AD13       aFwrite
 0003:0000AD1A       aFread
 0003:0000AD20       aGettimeofday
 0003:0000AD2D       aAtoi
 0003:0000AD32       aSchedGetPriori
 0003:0000AD49       aStrchr
 0003:0000AD50       aRindex
 0003:0000AD57       aSetvbuf
 0003:0000AD5F       aMemmove
 0003:0000AD67       aStrcmp
 0003:0000AD6E       aStrerror
 0003:0000AD77       aLibcStartMain
 0003:0000AD89       aSemop
 0003:0000AD8F       aFerror
 0003:0000AD96       aSetpriority
 0003:0000ADA2       aVfprintf
 0003:0000ADAB       aSemget
 0003:0000ADB2       aFree
 0003:0000ADB7       aCxaAtexit
 0003:0000ADC4       aExidxStart
 0003:0000ADD2       aExidxEnd
 0003:0000ADDE       aEdata
 0003:0000ADE5       aBssStart
 0003:0000ADF1       aBssStart_0
 0003:0000ADFF       aBssEnd
 0003:0000AE0B       aEnd
 0003:0000AE13       aVicp2Ipckeybas
 0003:0000AE25       aTiSdoCeAlgIpck
 0003:0000AE3A       aGlobalUselinka
 0003:0000AE50       aIresAddrspaceG
 0003:0000AE73       aMemoryDefaultp
 0003:0000AE88       aGt
 0003:0000AE8B       aAlgorithmExit
 0003:0000AE9A       aRmanLock
 0003:0000AEA5       aIresmanGrouput
 0003:0000AEC6       aTiSdoFcIresGro
 0003:0000AEF6       aIresmanVicp2
 0003:0000AF04       aIresmanMemtcmC
 0003:0000AF21       aAlgorithmLocko
 0003:0000AF36       aEngineAlgcreat
 0003:0000AF4C       aIresmanEdma3ch
 0003:0000AF6C       aHdvicpNumresou
 0003:0000AF81       aIresMemtcmGets
 0003:0000AFA1       aRmanRegistryre
 0003:0000AFB9       aMemtcmIpckeyba
 0003:0000AFCB       aTiSdoCeAlgAlgU
 0003:0000AFE5       aTiSdoFcEdma3Ed
 0003:0000B00B       aVisaChecked
 0003:0000B018       aIresmanMemtcm
 0003:0000B027       aIresmanGrouput_0
 0003:0000B047       aRmanParams
 0003:0000B053       aIresmanAddrspa
 0003:0000B065       aRmanNumregistr
 0003:0000B07D       aVicp2Bufflens
 0003:0000B08D       aG711SunAlaw2li
 0003:0000B0A2       aTiSdoFcIresGro_0
 0003:0000B0D4       aGlobalExit
 0003:0000B0E0       aCommAttrs
 0003:0000B0EB       aTiSdoCeVersion
 0003:0000B104       aEngineAlwaysco
 0003:0000B121       aIresEdma3chanG
 0003:0000B144       aProcessorAttrs
 0003:0000B154       aG711SunUlaw2li
 0003:0000B169       aRmanFreeEntrie
 0003:0000B17B       aThreadAttrs
 0003:0000B188       aIresGrouputils
 0003:0000B1AC       aIresVicp2Getst
 0003:0000B1CB       aGtConfigTraceo
 0003:0000B1E4       aVicp2Bufsize
 0003:0000B1F3       aAlgGrouprefcou
 0003:0000B206       aVicp2Buffoffse
 0003:0000B219       aTiSdoCeEngineN
 0003:0000B235       aTiSdoFcIresGro_1
 0003:0000B267       aAlgSems
 0003:0000B271       aTiSdoFcIresGro_2
 0003:0000B297       aVicp2Regsize
 0003:0000B2A6       aIresmanHdvicpC
 0003:0000B2C3       aIresHdvicpGets
 0003:0000B2E3       aRmanTable
 0003:0000B2EE       aTiSdoCeDvtlog
 0003:0000B2FF       aIresmanGrouput_1
 0003:0000B312       aIresmanHdvicpD
 0003:0000B32E       aTiSdoFcIresGro_3
 0003:0000B35E       aTiSdoFcEdma3Ed_0
 0003:0000B37F       aGlobalBuildinf
 0003:0000B390       aIresmanMemtcmD
 0003:0000B3AC       aMemoryMaxcblis
 0003:0000B3C1       aMemtcmBlockid
 0003:0000B3D0       aVicp2Dm355
 0003:0000B3DD       aVicp2Imcopconf
 0003:0000B3F4       aAlgGroupused
 0003:0000B403       aIresmanNullres
 0003:0000B413       aGrouputilsIpck
 0003:0000B42A       aAddrspaceNotra
 0003:0000B442       aEngineConfig
 0003:0000B450       aMemtcmSize
 0003:0000B45C       aIresmanHdvicp
 0003:0000B46B       aTiSdoCeVideo2V
 0003:0000B48D       aVicp2Dm365
 0003:0000B49A       aTiSdoFcIresGro_4
 0003:0000B4BE       aIresmanAddrspa_0
 0003:0000B4DE       aHdvicpMembasea
 0003:0000B4F2       aIresmanEdma3ch_0
 0003:0000B504       aEngineCedebugd
 0003:0000B51F       aIresmanEdma3ch_1
 0003:0000B53E       aVicpsyncDm365
 0003:0000B54E       aMemorySkipvirt
 0003:0000B573       aLockSystem
 0003:0000B57F       aEdma3Ipckeybas
 0003:0000B591       aIresmanAddrspa_1
 0003:0000B5B0       aTiSdoCeAlgGtma
 0003:0000B5C5       aTiSdoCeAlgAlgM
 0003:0000B5E1       aRmanRegistryen
 0003:0000B5F6       aIresmanVicp2Co
 0003:0000B612       aG711decSunPara
 0003:0000B625       aHdvicpIpckeyba
 0003:0000B638       aGProtocolargs
 0003:0000B647       aIresmanVicp2De
 0003:0000B662       aTiSdoCeOsalLin
 0003:0000B684       aHdvicpRegbasea
 0003:0000B698       aTiSdoCeAlgAlgU_0
 0003:0000B6B3       aServerHoldingt
 0003:0000B6CC       aGlibc24
 0003:0000B6D6       aGcc35
 0003:0000B6DE       aPng160
 0006:0000C470       .init_proc
 0007:0000C490       open
 0007:0000C49C       AppleCP_Req_Challenge_Response
 0007:0000C4A8       strerror
 0007:0000C4B4       fileno
 0007:0000C4C0       Pro_Init
 0007:0000C4CC       mmap
 0007:0000C4D8       abort
 0007:0000C4E4       MFI_Ctrl_Set
 0007:0000C4F0       pthread_attr_getschedparam
 0007:0000C4FC       RecvBuffer
 0007:0000C508       memcmp
 0007:0000C514       getTickCount
 0007:0000C520       pthread_attr_setdetachstate
 0007:0000C52C       pthread_exit
 0007:0000C538       png_destroy_read_struct
 0007:0000C544       __libc_start_main
 0007:0000C550       At88_Check_And_Set_Chip_Info
 0007:0000C55C       FT_Set_Pixel_Sizes
 0007:0000C568       signal
 0007:0000C574       Create_FeedWatchDog_Thread
 0007:0000C580       msgget
 0007:0000C58C       pthread_attr_setschedpolicy
 0007:0000C598       __gmon_start__
 0007:0000C5A4       GetCurrentTime
 0007:0000C5B0       sched_yield
 0007:0000C5BC       InitProcMsg
 0007:0000C5C8       pthread_mutexattr_settype
 0007:0000C5D4       Iap2_Link_EASession_IsConn
 0007:0000C5E0       Pro_Cmd_Get_Version
 0007:0000C5EC       Iap2_Ctrl_Session_App_Launch
 0007:0000C5F8       pow
 0007:0000C604       strncpy
 0007:0000C610       fclose
 0007:0000C61C       getenv
 0007:0000C628       IfFileExist
 0007:0000C634       system
 0007:0000C640       strchr
 0007:0000C64C       semop
 0007:0000C658       putchar
 0007:0000C664       __cxa_atexit
 0007:0000C670       msgctl
 0007:0000C67C       sem_getvalue
 0007:0000C688       calloc
 0007:0000C694       Usbupdatecheck_CheckFile
 0007:0000C6A0       At88_Is_Passed
 0007:0000C6AC       sem_init
 0007:0000C6B8       Iap2_Link_EASession_Send
 0007:0000C6C4       fopen
 0007:0000C6D0       shmat
 0007:0000C6DC       sched_get_priority_max
 0007:0000C6E8       At88_Read_Factory_Info
 0007:0000C6F4       png_get_image_width
 0007:0000C700       __strtol_internal
 0007:0000C70C       Usbupdate_InitResultFile
 0007:0000C718       memset
 0007:0000C724       sem_destroy
 0007:0000C730       FT_Done_FreeType
 0007:0000C73C       At88_Write_Key_File
 0007:0000C748       AppleCP_IsExist
 0007:0000C754       ThreadSignal_MaskPipe
 0007:0000C760       GetHardwareVersion
 0007:0000C76C       pthread_attr_setschedparam
 0007:0000C778       png_get_color_type
 0007:0000C784       perror
 0007:0000C790       GetINT32LittleEnd
 0007:0000C79C       __assert_fail
 0007:0000C7A8       Pro_Deal_CallBack
 0007:0000C7B4       AppleCP_Read_AuthCertData
 0007:0000C7C0       shmdt
 0007:0000C7CC       usleep
 0007:0000C7D8       msgsnd
 0007:0000C7E4       sqrt
 0007:0000C7F0       already_running
 0007:0000C7FC       Para_Init
 0007:0000C808       At88_Is_Config_Set
 0007:0000C814       free
 0007:0000C820       read
 0007:0000C82C       write
 0007:0000C838       DataBuff_Delete
 0007:0000C844       getopt_long
 0007:0000C850       PutINT32LittleEnd
 0007:0000C85C       pthread_getspecific
 0007:0000C868       Pro_PackAndSend_ThreadSafe
 0007:0000C874       Iap2_Link_EASession_Send_Wrap
 0007:0000C880       gettimeofday
 0007:0000C88C       fseek
 0007:0000C898       setpriority
 0007:0000C8A4       At88_Is_Config_Lock
 0007:0000C8B0       Serial_Create
 0007:0000C8BC       Serial_Delete
 0007:0000C8C8       pthread_mutex_unlock
 0007:0000C8D4       fflush
 0007:0000C8E0       pthread_setschedparam
 0007:0000C8EC       UsbDel
 0007:0000C8F8       _setjmp
 0007:0000C904       png_set_longjmp_fn
 0007:0000C910       ioctl
 0007:0000C91C       pthread_key_delete
 0007:0000C928       pthread_mutexattr_destroy
 0007:0000C934       usbsocket_create_handle
 0007:0000C940       pthread_mutex_lock
 0007:0000C94C       cos
 0007:0000C958       strlen
 0007:0000C964       At88_Is_Exist
 0007:0000C970       Usbupdate_SaveResultFile
 0007:0000C97C       DataBuff_Create
 0007:0000C988       pthread_create
 0007:0000C994       At88_Check_And_Set_Config
 0007:0000C9A0       execv
 0007:0000C9AC       __aeabi_memcpy_0
 0007:0000C9B8       png_create_read_struct
 0007:0000C9C4       clearerr
 0007:0000C9D0       pthread_attr_getstacksize
 0007:0000C9DC       usbsocket_recv
 0007:0000C9E8       PutINT16LittleEnd
 0007:0000C9F4       Serial_WriteData
 0007:0000CA00       Is_68013_Connected
 0007:0000CA0C       png_create_info_struct
 0007:0000CA18       At88_Is_Encrypt
 0007:0000CA24       FT_Init_FreeType
 0007:0000CA30       Update_Fill_Version
 0007:0000CA3C       pthread_attr_setinheritsched
 0007:0000CA48       usbsocket_send
 0007:0000CA54       strcpy
 0007:0000CA60       sem_post
 0007:0000CA6C       waitpid
 0007:0000CA78       pthread_mutex_destroy
 0007:0000CA84       printf
 0007:0000CA90       raise
 0007:0000CA9C       MFI_Ctrl_Get
 0007:0000CAA8       atoi
 0007:0000CAB4       longjmp
 0007:0000CAC0       png_read_png
 0007:0000CACC       SetHardwareVersion
 0007:0000CAD8       pthread_mutex_init
 0007:0000CAE4       pthread_setspecific
 0007:0000CAF0       close
 0007:0000CAFC       fwrite
 0007:0000CB08       Iap2_Link_Session_GetSendPkt
 0007:0000CB14       semctl
 0007:0000CB20       Iap2_Link_PreInit
 0007:0000CB2C       setvbuf
 0007:0000CB38       UsbInit
 0007:0000CB44       fprintf
 0007:0000CB50       malloc
 0007:0000CB5C       Iap2_Pkt_GetEAProDataPtr
 0007:0000CB68       rindex
 0007:0000CB74       Para_Get
 0007:0000CB80       usbsocket_init
 0007:0000CB8C       pthread_attr_init
 0007:0000CB98       IsTimeOut
 0007:0000CBA4       Set_Mutex_Attr_Recu
 0007:0000CBB0       atan2
 0007:0000CBBC       fputc
 0007:0000CBC8       Para_Set
 0007:0000CBD4       strtok
 0007:0000CBE0       At88_Is_DataOTP_Lock
 0007:0000CBEC       At88_Write_Key
 0007:0000CBF8       FT_New_Face
 0007:0000CC04       sleep
 0007:0000CC10       strcat
 0007:0000CC1C       init_libusb
 0007:0000CC28       __aeabi_memmove_0
 0007:0000CC34       Iap2_Link_Run
 0007:0000CC40       png_get_channels
 0007:0000CC4C       Iap2_Link_EASession_Recv_Wrap
 0007:0000CC58       At88_Write_Factory_Info_All
 0007:0000CC64       png_init_io
 0007:0000CC70       puts
 0007:0000CC7C       FT_Load_Char
 0007:0000CC88       getpid
 0007:0000CC94       Pro_CheckRec
 0007:0000CCA0       fcntl
 0007:0000CCAC       fork
 0007:0000CCB8       At88_Write_Factory_Info
 0007:0000CCC4       png_get_image_height
 0007:0000CCD0       shmctl
 0007:0000CCDC       sin
 0007:0000CCE8       pthread_attr_destroy
 0007:0000CCF4       At88_Check_All
 0007:0000CD00       Get68013HardwareVersion
 0007:0000CD0C       munmap
 0007:0000CD18       At88_Lock_DataOTP
 0007:0000CD24       Usbupdatecheck_PrintResult_Prohibited
 0007:0000CD30       tan
 0007:0000CD3C       Iap2_Link_Session_ReleaseSendPkt
 0007:0000CD48       Hub_Error_Check
 0007:0000CD54       usbsocket_is_conn
 0007:0000CD60       vfprintf
 0007:0000CD6C       ProcMsgSend
 0007:0000CD78       FT_Done_Face
 0007:0000CD84       fread
 0007:0000CD90       At88_Write_Key_All
 0007:0000CD9C       Pro_PackAndSend
 0007:0000CDA8       strncmp
 0007:0000CDB4       msgrcv
 0007:0000CDC0       kill
 0007:0000CDCC       ferror
 0007:0000CDD8       png_get_rows
 0007:0000CDE4       At88_Init
 0007:0000CDF0       Set68013HardwareVersion
 0007:0000CDFC       Serial_ReadData
 0007:0000CE08       At88_Write_Factory_Info_File
 0007:0000CE14       DJI_ProStruct_Init
 0007:0000CE20       pipe
 0007:0000CE2C       pthread_mutexattr_init
 0007:0000CE38       sem_wait
 0007:0000CE44       strcmp
 0007:0000CE50       exit
 0007:0000CE5C       pthread_setcanceltype
 0007:0000CE68       IfUsbPartitionsExist
 0007:0000CE74       Usbupdate_RegisterChannel
 0007:0000CE80       Reset_68013
 0007:0000CE8C       __errno_location
 0007:0000CE98       Pro_Get_CurSeq
 0007:0000CEA4       pthread_self
 0007:0000CEB0       pthread_cancel
 0007:0000CEBC       Update_Fill_68013_Version
 0007:0000CEC8       AppleCP_Check
 0007:0000CED4       ceil
 0007:0000CEE0       sprintf
 0007:0000CEEC       pthread_join
 0007:0000CEF8       pthread_key_create
 0007:0000CF04       fputs
 0007:0000CF10       semget
 0007:0000CF1C       shmget
 0008:0000CF28       _start
 0008:0000CF60       call_gmon_start
 0008:0000CF84       __do_global_dtors_aux
 0008:0000CFA0       frame_dummy
 0008:0000CFD0       usage
 0008:0000CFF8       ptr
 0008:0000CFFC       parseArgs
 0008:0000D684       src
 0008:0000D688       longopts
 0008:0000D69C       dest
 0008:0000D6AC       format
 0008:0000D6CC       s2
 0008:0000D6EC       extension
 0008:0000D6F0       DummyRead68013
 0008:0000D8F8       tv
 0008:0000D918       Signal_Callback
 0008:0000D938       s
 0008:0000D93C       main
 0008:0000DD30       handler
 0008:0000DD48       argsp
 0008:0000DD4C       command
 0008:0000DD54       useconds
 0008:0000DD5C       start_routine
 0008:0000DD64       file
 0008:0000DD6C       request
 0008:0000DD98       Is_HDMI_Exist
 0008:0000DDBC       Is_HDMI_Connected
 0008:0000DDE0       Get68013DummyReadKbps
 0008:0000DE04       Mouse_Gimble_Angle_Valid
 0008:0000DE70       Mouse_Deal_Move
 0008:0000DFCC       Mouse_Run
 0008:0000E0BC       Mouse_Init
 0008:0000E118       Selftest_Run
 0008:0000E410       SelfTest_Init
 0008:0000E46C       FPGA_Enter_Loader
 0008:0000E57C       Client_Pro_PreDealProtocolCmd
 0008:0000E6E0       Client_Pro_Init
 0008:0000E7C8       Client_Pro_Send_Check
 0008:0000E840       pucBuff
 0008:0000E844       Client_Pro_Recv
 0008:0000E8BC       Client_Pro_Send
 0008:0000E9BC       __Client_Pro_Send
 0008:0000EA34       Client_Pro_Send_SelfCheck
 0008:0000EC30       Client_Pro_Run
 0008:0000EC68       Client_Pro_GetHandle
 0008:0000EC88       send_video_data
 0008:0000ED00       read68013_ctrl
 0008:0000ED2C       read68013_state
 0008:0000ED50       is_phone_conn
 0008:0000EDA8       thread_stream_fun
 0008:0000F0C0       Usbclient_Init
 0008:0000F154       Usbclient_Get_VideoBps
 0008:0000F178       RecvBuffer_ByVideoQuality
 0008:0000F1F8       Dec_Serial_Cmd_Get_Version
 0008:0000F260       Dec_Serial_Cmd_Gimble_Angle_Ctrl_NoWait
 0008:0000F400       Dec_Serial_Init
 0008:0000F504       Dec_Serial_GetSerialHandle
 0008:0000F524       Dec_Serial_Run
 0008:0000F554       Dec_Serial_Recv
 0008:0000F59C       Dec_Serial_Send
 0008:0000F5F8       Dec_Serial_DealForwardProtocol
 0008:0000F690       DealProtocolCmd
 0008:0000F758       Dec_Serial_Get_Prod_Code
 0008:0000F818       Dec_Serial_Get_Version
 0008:0000F8EC       Dec_Serial_Get_Phone_Conn
 0008:0000F96C       Restart_Proc
 0008:0000FA70       Dec_Serial_Set_GS_Ctrl
 0008:0000FE20       Dec_Serial_Get_GS_Ctrl
 0008:000101A0       Dec_Serial_Get_GS_Config
 0008:0001023C       Dec_Serial_Enter_Loader_CallBack
 0008:00010348       Dec_Serial_Enter_Loader
 0008:000103BC       Dec_Serial_Reboot_CallBack
 0008:00010440       Dec_Serial_Reboot
 0008:0001050C       Dec_Serial_Get_Device_State
 0008:000105A4       Dec_Serial_Set_Device_Version
 0008:00010740       Dec_Serial_Get_AB_Home_OSD
 0008:000107CC       Dec_Serial_Get_AB_Common_OSD
 0008:00010858       Dec_Serial_Get_GS_Comm_Quality
 0008:000109F8       Dec_Serial_Get_ElectricityData
 0008:00010A84       Dec_Serial_Get_CameraState
 0008:00010B10       Dec_Serial_Get_RcGpsInfo
 0008:00010B9C       Dec_Serial_GS_Req_App_Launch
 0008:00010BDC       GetABHomeOSD
 0008:00010C58       GetABCommonOSD
 0008:00010CD4       GetGSRcQuality
 0008:00010D40       GetGSVideoQuality
 0008:00010DAC       GetElectricityData
 0008:00010E28       GetCameraState
 0008:00010EA4       GetRcGpsInfo
 0008:00010F20       Dec_Serial_Encrypt_GetChipState
 0008:00011098       Dec_Serial_Encrypt_GetModuleState
 0008:00011150       Dec_Serial_Encrypt_Config
 0008:000113D0       Dec_Serial_Encrypt
 0008:00011480       Dec_Serial_MFI_Cert_Get_Cert
 0008:00011660       Dec_Serial_MFI_Cert_Challenge_Response_Ack
 0008:00011844       Dec_Serial_MFI_Cert_Challenge_Response
 0008:000119A0       Dec_Serial_MFI_Cert
 0008:00011A28       handleCodecBufs
 0008:00011B4C       handleCodecErrBufs
 0008:00011D74       InitDecode
 0008:00011F60       getCodec
 0008:00012094       InitVideo
 0008:00012258       InitLoader
 0008:00012314       attrs
 0008:00012328       ResetVideo
 0008:000124E0       gfxAttrs
 0008:000124F0       DecodeOneFrame
 0008:000126EC       outArgs
 0008:000126F4       FindDimensions
 0008:000127E0       dimPtr
 0008:00012804       resizeBufTab
 0008:00012A24       SearchHead
 0008:00012B08       InitSearchHead
 0008:00012B2C       InitRec
 0008:00012D6C       DealStream
 0008:00012DC0       SendDataToPhone
 0008:00012E34       Decode_GetDecodeType
 0008:00012EF8       FindOneFrame_USB_No_Copy_Init
 0008:00012F1C       FindOneFrame_USB_No_Copy
 0008:000131F0       ptrPtr
 0008:0001321C       FindOneFrame_USB_Pro_Init
 0008:00013250       FindOneFrame_USB_Pro
 0008:00013728       FindOneFrame_Clear
 0008:00013754       Decode_CheckType
 0008:00013808       Decode_Inspire2_GetOutModeByBandWidth
 0008:00013824       Decode_SingleCh_GetOutModeByBandWidth
 0008:00013840       Decode_SyncBandWidth
 0008:00013900       Decode_PeriodCheck
 0008:00013978       FindOneFrame
 0008:000139A4       DealFile
 0008:00013AB0       hBufPtr
 0008:00013ABC       Decode_03
 0008:00013C38       CheckDimensionChange
 0008:00013E50       framerate
 0008:00013E54       fluencymode
 0008:00013E74       DealVideoFromStream
 0008:00013F0C       DealDisplay
 0008:00014E20       SendDisplay
 0008:00014E84       GetDisplayStd
 0008:00014EE4       GetCurVideoStd
 0008:00014FA4       Decode_Run
 0008:000153C0       Decode_Ctrl
 0008:000153EC       Decode_State
 0008:00015410       GetDisplayBuffNum
 0008:00015438       Ue
 0008:000155A8       Se
 0008:00015670       u
 0008:00015734       decode_scaling_list
 0008:000158B8       h264_decode_seq_parameter_set
 0008:00016988       jvt_list
 0008:000169B8       TransCh_CheckSum
 0008:00016A2C       TransCh_Check
 0008:00016B78       Osd_Init_Single_Pic
 0008:00017134       modes
 0008:00017144       Osd_Del_Pic
 0008:000171FC       Osd_Init_Pic
 0008:0001732C       Osd_Del_Font
 0008:000173E4       Osd_Init_Font
 0008:000178FC       filepathname
 0008:0001791C       Osd_Init_Convert
 0008:00017A14       Osd_Display_Pic
 0008:00017D6C       Osd_Display_Pic_Float
 0008:0001808C       Osd_Display_Char
 0008:00018360       Osd_Display_String
 0008:00018440       Osd_Display_Init
 0008:0001862C       Osd_Display_Delete
 0008:00018668       Osd_Attr_Init
 0008:00018854       Osd_Attr_Delete
 0008:000189F4       Osd_Init
 0008:00018A5C       Osd_Delete
 0008:00018A80       Osd_Display_Run
 0008:00018E00       Osd_Refresh_Screen
 0008:00019518       Osd_Mask_Screen
 0008:000196D4       Osd_Update_Data
 0008:0001A3B4       Osd_Display_HShadow
 0008:0001A438       Osd_Display_Ctrl_Mode
 0008:0001A4D4       pcStr
 0008:0001A4D8       Osd_Display_Lock_Mode
 0008:0001A58C       Osd_Display_Record
 0008:0001A6A4       Osd_Display_Battery
 0008:0001A790       Osd_Display_ComQuality
 0008:0001A8DC       Osd_Display_RcSignalQuality
 0008:0001AA28       Osd_Display_GPSNum
 0008:0001ABA0       Osd_Display_Height
 0008:0001ADA8       Osd_Display_Distance
 0008:0001AEB4       Osd_Display_Az
 0008:0001AF88       Osd_Display_HS
 0008:0001B094       Osd_Display_VS
 0008:0001B1A0       Osd_Fill_Display
 0008:0001B24C       Osd_Fill_Attr
 0008:0001B420       Osd_Fill_Rect
 0008:0001B48C       Osd_Clear_Rect
 0008:0001B4F8       Osd_Display_AttiAngle
 0008:0001B70C       Osd_Display_PitchRoll
 0008:0001BBE8       llh2xyz
 0008:0001C024       dxyz2ned
 0008:0001C4B0       calculate_azimuth
 0008:0001C990       naza_atti_home_s_handler
 0008:0001CD78       Usbupdatecheck_Start
 0008:0001CE44       Usbupdatecheck_IsForbidden
 0008:0001CED0       Usbupdatecheck_Run
 0008:0001CFC4       IPC_generatedInit
 0008:0001CFC8       DMAN3_CE_init
 0008:0001CFCC       DMAN3_CE_exit
 0008:0001CFD0       DMAN3_grantDmaChannels
 0008:0001CFD8       DMAN3_releaseDmaChannels
 0008:0001CFE0       RMAN_autoRegister
 0008:0001D0FC       CERuntime_exit
 0008:0001D100       CERuntime_init
 0008:0001D2C0       ti_sdo_ce_CERuntime_init__F
 0008:0001D2C4       _Buffer_init
 0008:0001D344       Buffer_create
 0008:0001D5A4       Buffer_getAttrs
 0008:0001D654       assertion
 0008:0001D65C       function
 0008:0001D664       Buffer_clone
 0008:0001D748       Buffer_print
 0008:0001D908       Buffer_freeUseMask
 0008:0001D98C       Buffer_setUseMask
 0008:0001D9E4       Buffer_resetUseMask
 0008:0001DA38       Buffer_getUseMask
 0008:0001DA88       Buffer_getId
 0008:0001DAD8       Buffer_getUserPtr
 0008:0001DB24       line
 0008:0001DB2C       Buffer_getPhysicalPtr
 0008:0001DB80       Buffer_getSize
 0008:0001DBFC       _Buffer_getOriginalSize
 0008:0001DC4C       Buffer_getType
 0008:0001DCA0       Buffer_getNumBytesUsed
 0008:0001DCF0       Buffer_setNumBytesUsed
 0008:0001DD48       _Buffer_setId
 0008:0001DD9C       _Buffer_setBufTab
 0008:0001DDF4       Buffer_setUserPtr
 0008:0001DF04       Buffer_setSize
 0008:0001DF88       Buffer_setVirtualSize
 0008:0001DFE8       Buffer_getBufTab
 0008:0001E03C       Buffer_isReference
 0008:0001E08C       Buffer_delete
 0008:0001E184       Buffer_copy
 0008:0001E3C8       _BufferGfx_getObjectPtr
 0008:0001E438       BufferGfx_getBufferAttrs
 0008:0001E480       BufferGfx_calcSize
 0008:0001E524       BufferGfx_calcSizeDim
 0008:0001E5DC       BufferGfx_calcDimensions
 0008:0001E6C8       BufferGfx_resetDimensions
 0008:0001E730       BufferGfx_calcLineLength
 0008:0001E79C       BufferGfx_getFrameType
 0008:0001E7FC       BufferGfx_setFrameType
 0008:0001E860       BufferGfx_getColorSpace
 0008:0001E8C0       BufferGfx_setColorSpace
 0008:0001E924       BufferGfx_getDimensions
 0008:0001EA14       BufferGfx_setDimensions
 0008:0001EABC       BufferGfx_setMaxDimensions
 0008:0001EB88       _BufferGfx_setFrameDone
 0008:0001EBF4       _BufferGfx_toggleFrameDone
 0008:0001EC68       _BufferGfx_getFrameDone
 0008:0001ECD4       _BufferGfx_init
 0008:0001ED8C       _BufferGfx_getAttrs
 0008:0001EE1C       cleanupBufs
 0008:0001EEBC       cleanup
 0008:0001F044       BufTab_create
 0008:0001F318       BufTab_expand
 0008:0001F620       BufTab_chunk
 0008:0001FB0C       BufTab_collapse
 0008:0001FCC8       BufTab_print
 0008:0001FD6C       BufTab_freeAll
 0008:0001FE00       BufTab_getFreeBuf
 0008:0001FF04       BufTab_getBuf
 0008:0001FF6C       BufTab_getNumBufs
 0008:0001FFBC       BufTab_freeBuf
 0008:00020010       BufTab_delete
 0008:00020054       ColorSpace_getBpp
 0008:00020134       _config
 0008:000202BC       _execute
 0008:00020960       Framecopy_create
 0008:00020A88       Framecopy_config
 0008:00020C4C       Framecopy_execute
 0008:00020D94       Framecopy_delete
 0008:00020DF4       cleanup_0
 0008:00020F70       Loader_create
 0008:00021524       Loader_prime
 0008:0002189C       reading
 0008:00021934       lock
 0008:000219CC       unlock
 0008:00021A04       doneReading
 0008:00021A3C       nowait
 0008:00021A90       start
 0008:00021B1C       Loader_readData
 0008:00021F88       waitForStart
 0008:00022030       stop
 0008:000220FC       wait
 0008:000221A8       Loader_getFrame
 0008:0002241C       Loader_flush
 0008:000224B4       Loader_delete
 0008:000224F8       VideoStd_getResolution
 0008:00022720       Vdec2_process_2
 0008:00023064       Vdec2_process
 0008:00023A04       Vdec2_getMinOutBufs
 0008:00023B80       Vdec2_flush
 0008:00023C64       Vdec2_create
 0008:00023EDC       Vdec2_delete
 0008:00023F30       Vdec2_setBufTab
 0008:00023F84       Vdec2_getBufTab
 0008:00023FD8       Vdec2_getOutBufSize
 0008:00024088       Vdec2_getInBufSize
 0008:000240DC       Vdec2_getDisplayBuf
 0008:00024188       Vdec2_getFreeBuf
 0008:00024250       Vdec2_getVisaHandle
 0008:000242A4       Display_create
 0008:00024350       Display_getVideoStd
 0008:00024378       Display_getBufTab
 0008:000243A0       Display_getHandle
 0008:000243C8       Display_delete
 0008:00024404       Display_get
 0008:00024448       Display_put
 0008:0002448C       Display_control
 0008:000244E8       Dmai_setLogLevel
 0008:00024614       Dmai_init
 0008:00024728       name
 0008:00024744       Fifo_create
 0008:00024854       Fifo_delete
 0008:000248E4       Fifo_get
 0008:00024A64       Fifo_flush
 0008:00024B18       Fifo_put
 0008:00024BF4       Fifo_getNumEntries
 0008:00024C64       Time_create
 0008:00024D34       Time_delete
 0008:00024D68       Time_reset
 0008:00024E0C       Time_delta
 0008:00024F28       Time_total
 0008:00025030       setDisplayBuffer
 0008:00025164       cleanup_1
 0008:00025380       Display_fbdev_create
 0008:00025DB0       Display_fbdev_delete
 0008:00025DF4       Display_fbdev_get
 0008:00025F2C       Display_fbdev_put
 0008:00026028       Display_fbdev_control
 0008:00026058       cleanup_2
 0008:000262A8       Display_v4l2_create
 0008:00026B64       _Display_v4l2_set_framerate
 0008:00026D74       _Display_v4l2_streamon
 0008:00026E04       Display_v4l2_delete
 0008:00026E48       Display_v4l2_get
 0008:00026FF4       Display_v4l2_put
 0008:000273E4       getUsedIdx
 0008:0002748C       _Display_v4l2_set_frame_offsets
 0008:0002765C       Display_v4l2_control
 0008:0002768C       Framecopy_accel_create
 0008:0002777C       oflag
 0008:00027784       Framecopy_accel_config
 0008:00027814       Framecopy_accel_execute
 0008:00027CBC       Framecopy_accel_delete
 0008:00027D04       readSysFs
 0008:00027E84       delim
 0008:00027E88       writeSysFs
 0008:000280D4       _SysFs_setup
 0008:0002856C       _Dmai_blackFill
 0008:00028AA0       _Dmai_v4l2UserAlloc
 0008:00028E74       _Dmai_v4l2DriverAlloc
 0008:00029414       AUDCDC_ITTIAM_numResourceDescriptors
 0008:000294CC       AUDCDC_ITTIAM_activateResource
 0008:00029508       AUDCDC_ITTIAM_activateAllResources
 0008:00029534       AUDCDC_ITTIAM_deactivateResource
 0008:00029570       AUDCDC_ITTIAM_deactivateAllResources
 0008:000295A0       AUDCDC_ITTIAM_deinitResources
 0008:000295BC       AUDCDC_ITTIAM_reinitResources
 0008:000295DC       AUDCDC_ITTIAM_getResourceDescriptors
 0008:0002963C       AUDCDC_ITTIAM_initResources
 0008:0002973C       VIDDEC2_process
 0008:00029AB8       VIDDEC2_delete
 0008:00029B54       VIDDEC2_create
 0008:00029C60       VIDDEC2_control
 0008:00029F7C       cleanup_3
 0008:00029FBC       getServerStatus
 0008:0002A050       Server_setTrace
 0008:0002A10C       Server_restoreHeap
 0008:0002A218       Server_redefineHeap
 0008:0002A370       Server_init
 0008:0002A458       Server_getNumMemSegs
 0008:0002A574       Server_getNumAlgs
 0008:0002A688       Server_getMemStat
 0008:0002A790       Server_getCpuLoad
 0008:0002A830       Server_getAlgInfo
 0008:0002A904       Server_fwriteTrace
 0008:0002A9C4       Server_disconnectTrace
 0008:0002AAD8       Server_connectTrace
 0008:0002ABFC       Engine_getEngine
 0008:0002AC04       Engine_getLastError
 0008:0002AC0C       Engine_getName
 0008:0002AC18       Engine_getRemoteVisa
 0008:0002AC78       Engine_getNodeQueues
 0008:0002ACA4       Engine_hasServer
 0008:0002ACB0       Engine_getServerAlgInfo
 0008:0002ADD8       Engine_getServer
 0008:0002AE54       Engine_ctrlNode
 0008:0002AF40       callServer
 0008:0002AFCC       Engine_setTrace
 0008:0002B15C       Engine_getUsedMem
 0008:0002B240       Engine_restoreHeap
 0008:0002B3B0       Engine_requestTraceToken
 0008:0002B428       Engine_releaseTraceToken
 0008:0002B490       Engine_redefineHeap
 0008:0002B618       Engine_getCpuLoad
 0008:0002B704       Engine_getAlgNumRecs
 0008:0002B83C       Engine_getAlgMemRecs
 0008:0002BA24       Engine_getNumMemSegs
 0008:0002BB28       Engine_getNumServerAlgs
 0008:0002BCB4       Engine_getMemStat
 0008:0002BE1C       Engine_getNumAlgs
 0008:0002BED8       Engine_getNumAlgs2
 0008:0002BF78       Engine_getAlgInfo2
 0008:0002C160       Engine_getAlgInfo
 0008:0002C29C       freeServerTab
 0008:0002C418       Engine_addStubFxns
 0008:0002C4A4       Engine_init
 0008:0002C70C       cleanup_4
 0008:0002C84C       Engine_fwriteTrace
 0008:0002CC0C       collectDspTrace
 0008:0002CC64       Engine_callWait
 0008:0002CCBC       Engine_callAsync
 0008:0002CD24       Engine_call
 0008:0002CDA8       Engine_initFromServer
 0008:0002D530       isa
 0008:0002D61C       freeNode
 0008:0002D64C       Engine_deleteNode
 0008:0002D7C4       Engine_createNode2
 0008:0002E00C       Engine_createNode
 0008:0002E0B0       Engine_close
 0008:0002E28C       Engine_open
 0008:0002EC0C       Engine_getLocalEngine
 0008:0002EC60       Engine_getCodecClassConfig
 0008:0002ECE0       Engine_getMemId
 0008:0002ED00       Engine_getFxns
 0008:0002EE60       Engine_getConstName
 0008:0002EF94       VISA_getAlgFxns
 0008:0002EF9C       VISA_getAlgorithmHandle
 0008:0002EFA4       VISA_getContext
 0008:0002EFB0       VISA_setContext
 0008:0002EFB8       VISA_getCodecClassConfig
 0008:0002EFC0       VISA_isLocal
 0008:0002EFC8       VISA_getMaxMsgSize
 0008:0002F02C       VISA_allocMsg
 0008:0002F10C       VISA_getAlgNumRecs
 0008:0002F154       VISA_getAlgMemRecs
 0008:0002F1A0       VISA_getAlgHandle
 0008:0002F1BC       VISA_freeMsg
 0008:0002F2C0       VISA_exit
 0008:0002F390       VISA_enter
 0008:0002F468       VISA_delete
 0008:0002F630       VISA_wait
 0008:0002F770       VISA_callAsync
 0008:0002F840       VISA_call
 0008:0002F914       VISA_create2
 0008:00030040       VISA_create
 0008:00030100       Algorithm_getAlgHandle
 0008:00030108       Algorithm_getMemRecs
 0008:00030110       Algorithm_getNumRecs
 0008:00030118       Algorithm_removeGroup
 0008:000301B4       Algorithm_init
 0008:00030214       Algorithm_exit
 0008:000302AC       Algorithm_delete
 0008:000303C0       Algorithm_deactivate
 0008:000304B4       Algorithm_create
 0008:0003077C       Algorithm_addGroup
 0008:0003080C       Algorithm_activate
 0008:000308C0       Algorithm_releaseLock
 0008:000309B4       Algorithm_acquireLock
 0008:00030A64       ALG_delete
 0008:00030ADC       ALG_create
 0008:00030E08       _ALG_freeMemory2
 0008:00030F5C       _ALG_freeMemory
 0008:00030FCC       _ALG_allocMemory2
 0008:00031190       _ALG_allocMemory
 0008:00031200       ALG_removeGroup
 0008:00031318       ALG_exit
 0008:000313A4       ALG_init
 0008:00031558       ALG_addGroup
 0008:000316E4       ALG_deactivate
 0008:0003178C       ALG_releaseLock
 0008:00031818       ALG_activate
 0008:000318C4       ALG_acquireLock
 0008:00031954       Processor_wait
 0008:00031984       Processor_init
 0008:000319C4       Processor_delete
 0008:00031AA0       Processor_create
 0008:00031BDC       Comm_getMsgSize
 0008:00031C48       Comm_getSrcQueue
 0008:00031CCC       Comm_setSrcQueue
 0008:00031D40       Comm_release
 0008:00031DD8       nameToId
 0008:00031F04       Comm_locate
 0008:00032004       Comm_init
 0008:00032090       Comm_free
 0008:00032138       Comm_put
 0008:00032240       Comm_exit
 0008:000322C8       Comm_delete
 0008:000323C0       Comm_alloc
 0008:00032550       Comm_get
 0008:00032674       msgsz
 0008:0003268C       Comm_create
 0008:00032870       LockMP_getCount
 0008:00032878       cleanup_5
 0008:000328E0       LockMP_release
 0008:00032A4C       LockMP_init
 0008:00032AA4       LockMP_getRefCount
 0008:00032AAC       LockMP_delete
 0008:00032B54       LockMP_create
 0008:00032C88       LockMP_acquire
 0008:00032DB8       Queue_exit
 0008:00032DBC       Queue_init
 0008:00032DC4       Queue_extract
 0008:00032E0C       Queue_put
 0008:00032E58       Queue_get
 0008:00032EA0       GTConfig_nop
 0008:00032EA8       GTConfig_error
 0008:00032F30       GTConfig_vprintf
 0008:00032F84       GTConfig_libcFree
 0008:00032F88       GTConfig_libcMalloc
 0008:00032F8C       stat
 0008:00032FA8       Memory_getHeapId
 0008:00032FB0       Memory_getNumHeaps
 0008:00032FB8       Memory_redefine
 0008:00032FC0       Memory_restoreHeap
 0008:00032FC8       Memory_exit
 0008:00032FCC       Memory_contigStat
 0008:00032FD8       Memory_dumpKnownContigBufsList
 0008:00033090       Memory_cacheWbInvAll
 0008:00033100       Memory_segStat
 0008:0003317C       Memory_cacheWbInv
 0008:00033180       Memory_cacheWb
 0008:00033184       Memory_cacheInv
 0008:00033188       Memory_getBufferVirtualAddress
 0008:000333F8       Memory_getBufferPhysicalAddress
 0008:0003375C       Memory_init
 0008:000338C8       cleanup_6
 0008:0003395C       Memory_free
 0008:00033A6C       Memory_segFree
 0008:00033A84       removeContigBuf
 0008:00033BC0       Memory_unregisterContigBuf
 0008:00033C2C       contigFree
 0008:00033D8C       Memory_contigFree
 0008:00033D9C       myMalloc
 0008:00033E04       Memory_segAlloc
 0008:00033E0C       Memory_alloc
 0008:00033F68       addContigBuf
 0008:00034320       Memory_registerContigBuf
 0008:00034324       contigAlloc
 0008:00034618       Memory_contigAlloc
 0008:0003463C       Global_getCpuLoad
 0008:00034644       Global_setSpecialTrace
 0008:00034648       Global_init
 0008:0003473C       Global_getProcessId
 0008:00034740       Global_getenv
 0008:00034744       Global_exit
 0008:00034810       Global_atexit
 0008:000348C4       Global_abort
 0008:00034918       Thread_getenv
 0008:00034984       Thread_getname
 0008:000349F0       Thread_getpri
 0008:00034A5C       Thread_yield
 0008:00034AC4       Thread_stat
 0008:00034B58       Thread_setpri
 0008:00034C00       Thread_self
 0008:00034C70       Thread_join
 0008:00034D40       Thread_init
 0008:00034DA8       cleanup_7
 0008:00034DDC       Thread_exit
 0008:00034E6C       Thread_delete
 0008:00034FDC       Thread_create
 0008:000351C4       runStub
 0008:00035238       Log_init
 0008:0003523C       Log_event
 0008:00035240       Log_printf
 0008:0003524C       Lock_release
 0008:00035250       Lock_delete
 0008:00035298       cleanup_8
 0008:000352DC       Lock_create
 0008:00035330       Lock_init
 0008:00035384       Lock_acquire
 0008:00035388       GTConfig_pthreadUnlock
 0008:000353B0       GTConfig_pthreadLock
 0008:000353D8       GTConfig_gettimeofday
 0008:00035464       GTConfig_threadId
 0008:00035468       GTConfig_tracePrintf
 0008:000354D8       GT_config_setOutTrace
 0008:0003550C       GTConfig_posixInit
 0008:000356A4       cleanup_9
 0008:00035744       cleanup_10
 0008:000357BC       SemMP_post
 0008:000358A8       SemMP_pend
 0008:00035A18       SemMP_init
 0008:00035A70       exitCS
 0008:00035BA0       SemMP_getRefCount
 0008:00035BB0       SemMP_getCount
 0008:00035BC0       enterCS
 0008:00035CCC       semflg
 0008:00035CE0       SemMP_delete
 0008:00035F60       SemMP_create
 0008:000362F8       cleanup_11
 0008:0003636C       Sem_post
 0008:0003640C       Sem_pend
 0008:000364EC       Sem_init
 0008:00036544       Sem_getCount
 0008:000365B4       Sem_delete
 0008:00036650       Sem_create
 0008:00036774       XdmUtils_validateVideo1BufDesc
 0008:00036978       XdmUtils_validateVideoBufDesc
 0008:00036B7C       XdmUtils_validateSparseBufDesc1
 0008:00036CD8       XdmUtils_validateSparseBufDesc
 0008:00036E2C       XdmUtils_validateExtendedStruct
 0008:00036F5C       XdmUtils_init
 0008:00036F9C       MP4VDEC_TI_getResourceDescriptors
 0008:0003734C       MP4VDEC_TI_numResourceDescriptors
 0008:00037354       MP4VDEC_TI_activateAllResources
 0008:0003735C       MP4VDEC_TI_deactivateAllResources
 0008:00037364       MP4VDEC_TI_reinitResources
 0008:0003736C       MP4VDEC_TI_deinitResources
 0008:00037374       MP4VDEC_TI_activateResource
 0008:0003737C       MP4VDEC_TI_deactivateResource
 0008:00037384       MP4VDEC_TI_initResources
 0008:000375E4       MP4VDEC_TI_IMCOP_Reg_Init_phys
 0008:00037928       MP4VDEC_TI_IMCOP_Reg_Init_virt
 0008:00037C44       MP4VDEC_TI_IMCOP_Mem_Init_virt
 0008:00037D40       MP4VDEC_TI_IMCOP_Mem_Init_phys
 0008:00037E58       MP4VDEC_TI_assignBuffAddr
 0008:000383A8       MP4VDEC_TI_DM350_SEQ_RUN
 0008:000383FC       MP4VDEC_TI_DM350_INIT_UPDATE_SEQUENCER
 0008:000384F4       MP4VDEC_TI_DM350_INIT_SEQUENCER
 0008:00038610       MP4VDEC_TI_DM350_GEN_SEQ_CODES21
 0008:00038658       MP4VDEC_TI_DM350_GEN_SEQ_ERROR_RESILIENCE
 0008:000387C8       MP4VDEC_TI_DM350_GEN_SEQ_CODES01
 0008:0003881C       MP4VDEC_TI_DM350_GEN_SEQ_CODES00
 0008:00038860       MP4VDEC_TI_DM350_SEQ_RUN_CB
 0008:000388D8       MP4VDEC_TI_DM350_GEN_SEQ_CODES06_COPC
 0008:0003E810       MP4VDEC_TI_DM350_GEN_SEQ_CODES06_BS
 0008:0003ECE8       MP4VDEC_TI_DM350_GEN_SEQ_CODES06_MAIN
 0008:0003F434       MP4VDEC_TI_DM350_INIT_SEQUENCER_Generate_Code
 0008:0003F68C       MP4VDEC_TI_GEN_SEQCODES
 0008:0003F7F0       MP4VDEC_TI_seqcmd_NOP
 0008:0003F800       MP4VDEC_TI_seqcmd_SYNC
 0008:0003F810       MP4VDEC_TI_seqcmd_STOP
 0008:0003F828       MP4VDEC_TI_seqcmd_LD
 0008:0003F85C       MP4VDEC_TI_seqcmd_LD_NEW
 0008:0003F8DC       MP4VDEC_TI_seqcmd_LD_O
 0008:0003F95C       MP4VDEC_TI_seqcmd_LD_P
 0008:0003F9A4       MP4VDEC_TI_seqcmd_ST
 0008:0003F9D0       MP4VDEC_TI_seqcmd_ST_BigBox_MEM
 0008:0003F9F8       MP4VDEC_TI_seqcmd_LDINC_P
 0008:0003FA10       MP4VDEC_TI_seqcmd_LDNOINC_P2
 0008:0003FA28       MP4VDEC_TI_seqcmd_STINC_P
 0008:0003FA38       MP4VDEC_TI_seqcmd_STRTN
 0008:0003FA58       MP4VDEC_TI_seqcmd_ADD
 0008:0003FA94       MP4VDEC_TI_seqcmd_ADD_P2
 0008:0003FAD0       MP4VDEC_TI_seqcmd_ADD_P
 0008:0003FB1C       MP4VDEC_TI_seqcmd_SUB
 0008:0003FB58       MP4VDEC_TI_seqcmd_AND
 0008:0003FB94       MP4VDEC_TI_seqcmd_OR
 0008:0003FBD0       MP4VDEC_TI_seqcmd_XOR
 0008:0003FC0C       MP4VDEC_TI_seqcmd_LSH
 0008:0003FC48       MP4VDEC_TI_seqcmd_ASH
 0008:0003FC84       MP4VDEC_TI_seqcmd_NORM
 0008:0003FCB8       MP4VDEC_TI_seqcmd_NOT
 0008:0003FCEC       MP4VDEC_TI_seqcmd_MULT
 0008:0003FD28       MP4VDEC_TI_seqcmd_B
 0008:0003FD3C       MP4VDEC_TI_seqcmd_BV
 0008:0003FD50       MP4VDEC_TI_seqcmd_BZ
 0008:0003FD64       MP4VDEC_TI_seqcmd_BNZ
 0008:0003FD78       MP4VDEC_TI_seqcmd_BC
 0008:0003FD8C       MP4VDEC_TI_seqcmd_BNC
 0008:0003FDA0       MP4VDEC_TI_seqcmd_BN
 0008:0003FDB4       MP4VDEC_TI_seqcmd_BPZ
 0008:0003FDC4       MP4VDEC_TI_seqcmd_BRI
 0008:0003FDD4       MP4VDEC_TI_seqcmd_RTN
 0008:0003FDE4       MP4VDEC_TI_seqcmd_RTI
 0008:0003FDF4       MP4VDEC_TI_DM350_SEQ_EDMA_AUTO_SWITCHING_INT
 0008:0003FEAC       MP4VDEC_TI_DM350_SEQ_EDMA_AUTO_SWITCHING
 0008:0003FF88       MP4VDEC_TI_DM350_SEQ_EDMA_SAVE_LASTMB_OUT
 0008:0004021C       MP4VDEC_TI_DM350_SEQ_EDMA_FILLFULLSTREAMBUF
 0008:00040420       MP4VDEC_TI_DM350_SEQ_EDMA_LOAD_BiMXCODES
 0008:000405CC       MP4VDEC_TI_DM350_SEQ_EDMA_FILLSTREAM_UPPERSIDE
 0008:00040870       MP4VDEC_TI_DM350_SEQ_EDMA_FILLSTREAM_LOWERSIDE
 0008:00040B1C       MP4VDEC_TI_numAlloc
 0008:00040B24       MP4VDEC_TI_alloc
 0008:00040C20       MP4VDEC_TI_exit
 0008:00040C24       MP4VDEC_TI_init
 0008:00040C28       MP4VDEC_TI_moved
 0008:00040C2C       MP4VDEC_TI_decode
 0008:000411EC       MP4VDEC_TI_initObj
 0008:00041670       MP4VDEC_TI_control
 0008:00041A0C       MP4VDEC_TI_deactivate
 0008:00041A4C       MP4VDEC_TI_activate
 0008:00041AC4       MP4VDEC_TI_free
 0008:00041B6C       MP4VDEC_TI_vicpsync_wait
 0008:00041BAC       MP4VDEC_TI_vicpsync_start
 0008:00041BF8       MP4VDEC_TI_pARMtoBimx_D0
 0008:00041C28       MP4VDEC_TI_pARMtoBimx_D1
 0008:00041C88       MP4VDEC_TI_pARMtoBimx_OUT
 0008:00041CFC       MP4VDEC_TI_pARMtoBimx
 0008:00041D70       MP4VDEC_TI_DM350_associate_globals_to_physical
 0008:000420CC       MP4VDEC_TI_SetGlobal_Region
 0008:000421E8       MP4VDEC_TI_Restore_Shadow_Reg
 0008:000421EC       MP4VDEC_TI_DM350_EventClear
 0008:00042344       MP4VDEC_TI_DM350_InitParams
 0008:000425EC       MP4VDEC_TI_DM350_FrameDecode
 0008:00042CF8       MP4VDEC_TI_initdecoder
 0008:00042F1C       MP4VDEC_TI_DM350_420CbCr
 0008:000430F0       MP4VDEC_TI_DM350_420Y
 0008:000432AC       MP4VDEC_TI_DM350_FillBitstreamBuffer
 0008:00043398       MP4VDEC_TI_DM350_StartCodeSvhGobResync
 0008:00043468       MP4VDEC_TI_DM350_DecodeDCI
 0008:00043600       MP4VDEC_TI_DM350_Recover_BPVLCD
 0008:000438DC       MP4VDEC_TI_GetPacket
 0008:00044F68       MP4VDEC_TI_DM350_Getpicture
 0008:00044FFC       MP4VDEC_TI_DM350_FillBitstreamBuffer0
 0008:00045084       MP4VDEC_TI_DM350_switchMemToDMA
 0008:000450F0       MP4VDEC_TI_DM350_CopyQiqTable
 0008:000451D0       MP4VDEC_TI_DM350_INIT_IMCOP_IQ_MODULE_SVH
 0008:00045438       MP4VDEC_TI_DM350_INIT_IMCOP_IQ_MODULE
 0008:000456A8       MP4VDEC_TI_DM350_INIT_UPDATE_IMCOP_VLD_MODULE
 0008:000456E8       MP4VDEC_TI_DM350_INIT_IMCOP_VLD_MODULE
 0008:00045774       MP4VDEC_TI_DM350_INIT_IMCOP_biMX_MODULE
 0008:000457E8       MP4VDEC_TI_DM350_INIT_IMCOP_iMX_MODULE
 0008:00045B30       MP4VDEC_TI_DATA_SWAP
 0008:00045B4C       MP4VDEC_TI_DM350_BitstreamShowBitsByteAlign
 0008:00045B9C       MP4VDEC_TI_DM350_BitstreamShowBitsByteAlignTT
 0008:00045C4C       MP4VDEC_TI_DM350_INIT_IMCOP_BP
 0008:00045E24       MP4VDEC_TI_DM350_INIT_IMCOP_BP_SVH
 0008:00045FD4       MP4VDEC_TI_DM350_INIT_IMCOP_IDCT_MODULE
 0008:00046074       MP4VDEC_TI_DM350_CFG_Write32
 0008:000460C4       MP4VDEC_TI_DM350_EDMA_MakeOptionParam
 0008:00046164       MP4VDEC_TI_DM350_EDMA_SetPaRamEntry
 0008:000463C0       MP4VDEC_TI_DM350_EDMA_SetRegion2
 0008:00046468       MP4VDEC_TI_DM350_EDMA_EnableInterrupt
 0008:000464D8       MP4VDEC_TI_DM350_EDMA_DisableInterrupt
 0008:00046548       MP4VDEC_TI_DM350_EDMA_ClearInterrupt
 0008:000465B8       MP4VDEC_TI_DM350_EDMA_WaitInterrupt
 0008:00046634       MP4VDEC_TI_DM350_EDMA_SetEvent
 0008:000466A4       MP4VDEC_TI_DM350_EDMA_DisableEvent
 0008:00046714       MP4VDEC_TI_DM350_EDMA_EnableEvent
 0008:00046784       MP4VDEC_TI_DM350_EDMA_Copy32
 0008:00046C44       MP4VDEC_TI_DM350_GEN_PaRAM_EVENT_ODDCHROMA_PreSetup
 0008:00046F60       MP4VDEC_TI_DM350_GEN_PaRAM_EVENT_STORECHROMA_EVEN_PreSetup
 0008:0004724C       MP4VDEC_TI_DM350_GEN_PaRAM_LAST_EVENT2_PreSetup
 0008:000474F0       MP4VDEC_TI_DM350_GEN_PaRAM_LAST_EVENT_CHROMA_PreSetup
 0008:00047690       MP4VDEC_TI_DM350_GEN_PaRAM_LAST_EVENT0_PreSetup
 0008:000477E8       MP4VDEC_TI_DM350_GEN_PaRAM_EVENT016_PreSetup
 0008:00047970       MP4VDEC_TI_DM350_GEN_PaRAM_EVENT011C_PreSetup
 0008:00047BC8       MP4VDEC_TI_DM350_GEN_PaRAM_EVENT010C_PreSetup
 0008:00047E28       MP4VDEC_TI_DM350_GEN_PaRAM_EVENT013C_PreSetup
 0008:00048118       MP4VDEC_TI_DM350_GEN_PaRAM_EVENT007B_PreSetup
 0008:0004846C       MP4VDEC_TI_DM350_GEN_PaRAM_EVENT012C_PreSetup
 0008:00048780       MP4VDEC_TI_DM350_GEN_PaRAM_EVENT006B_PreSetup
 0008:00048B48       MP4VDEC_TI_DM350_GEN_PaRAM_EVENT005B_PreSetup
 0008:00048DAC       MP4VDEC_TI_DM350_GEN_PaRAM_EVENT004B_PreSetup
 0008:00049018       MP4VDEC_TI_DM350_GEN_PaRAM_EVENT003_PreSetup
 0008:000490E4       MP4VDEC_TI_DM350_GEN_PaRAM_EVENT002_PreSetup
 0008:000491AC       MP4VDEC_TI_DM350_GEN_PaRAM_EVENT001_PreSetup
 0008:00049270       MP4VDEC_TI_DM350_GEN_PaRAM_EVENT029_PreSetup
 0008:00049350       MP4VDEC_TI_DM350_GEN_PaRAM_EVENT028_PreSetup
 0008:0004942C       MP4VDEC_TI_DM350_GEN_PaRAM_EVENT_EndofCOPC_B_PreSetup
 0008:000499E0       MP4VDEC_TI_DM350_GEN_PaRAM_EVENT_EndofCOPC_A_PreSetup
 0008:00049F44       MP4VDEC_TI_DM350_GEN_PaRAM_LAST_EVENT1_PreSetup
 0008:0004A09C       MP4VDEC_TI_DM350_GEN_PaRAM_EVENT017_PreSetup
 0008:0004A238       MP4VDEC_TI_DM350_GEN_PaRAM_EVENT000_PreSetup
 0008:0004A31C       MP4VDEC_TI_DM350_INIT_FILL_BITSTREAM_BUFFER
 0008:0004A344       MP4VDEC_TI_DM350_GEN_PaRAM_EVENT_SEQ4_SWITCH_TO_DMA2_PreSetup
 0008:0004A41C       MP4VDEC_TI_DM350_GEN_PaRAM_EVENT_SEQ4_SWITCH_TO_BPS_PreSetup
 0008:0004A4F0       MP4VDEC_TI_DM350_GEN_PaRAM_EVENT_SEQ4_SWITCH_TO_DMA_PreSetup
 0008:0004A5C8       MP4VDEC_TI_DM350_GEN_PaRAM_EVENTDUMM3_PreSetup
 0008:0004A69C       MP4VDEC_TI_DM350_GEN_PaRAM_EVENTDUMM2_PreSetup
 0008:0004A770       MP4VDEC_TI_DM350_GEN_PaRAM_EVENTDUMM1_PreSetup
 0008:0004A830       MP4VDEC_TI_DM350_GEN_PaRAM_EVENT015A_PreSetup
 0008:0004A934       MP4VDEC_TI_DM350_GEN_PaRAM_EVENT009B_PreSetup
 0008:0004AA38       MP4VDEC_TI_DM350_GEN_PaRAM_EVENT014A_PreSetup
 0008:0004AB4C       MP4VDEC_TI_DM350_GEN_PaRAM_EVENT008B_PreSetup
 0008:0004AC68       MP4VDEC_TI_DM350_INIT_EDMA_PaRAM
 0008:0004AE84       MP4VDEC_TI_DM350_SET_EDMA_UPDATE
 0008:0004BFBC       MP4VDEC_TI_DM350_INIT_UPDATE_EDMA_PaRAM
 0008:0004C148       MP4VDEC_TI_DM350_GEN_PaRAM_EVENT029
 0008:0004C178       MP4VDEC_TI_DM350_GEN_PaRAM_EVENT028
 0008:0004C1A8       MP4VDEC_TI_DM350_GEN_PaRAM_EVENT_EndofCOPC_B
 0008:0004C368       MP4VDEC_TI_DM350_GEN_PaRAM_EVENT_EndofCOPC_A
 0008:0004C554       MP4VDEC_TI_DM350_GEN_PaRAM_CHROMA_LAST_EVENT
 0008:0004C6A8       MP4VDEC_TI_DM350_GEN_PaRAM_LAST_EVENT2
 0008:0004C890       MP4VDEC_TI_DM350_GEN_PaRAM_LAST_EVENT1
 0008:0004C9AC       MP4VDEC_TI_DM350_GEN_PaRAM_LAST_EVENT0
 0008:0004CA9C       MP4VDEC_TI_DM350_GEN_PaRAM_EVENT017
 0008:0004CB3C       MP4VDEC_TI_DM350_GEN_PaRAM_EVENT016
 0008:0004CBBC       MP4VDEC_TI_DM350_GEN_PaRAM_EVENT013C
 0008:0004CD04       MP4VDEC_TI_DM350_GEN_PaRAM_EVENT012C
 0008:0004CE4C       MP4VDEC_TI_DM350_GEN_PaRAM_EVENT011C
 0008:0004CF38       MP4VDEC_TI_DM350_GEN_PaRAM_EVENT010C
 0008:0004D024       MP4VDEC_TI_DM350_GEN_PaRAM_EVENT007B
 0008:0004D19C       MP4VDEC_TI_DM350_GEN_PaRAM_EVENT006B
 0008:0004D314       MP4VDEC_TI_DM350_GEN_PaRAM_EVENT005B
 0008:0004D400       MP4VDEC_TI_DM350_GEN_PaRAM_EVENT004B
 0008:0004D4EC       MP4VDEC_TI_DM350_GEN_PaRAM_EVENT000
 0008:0004D540       MP4VDEC_TI_DM350_GEN_PaRAM_EVENT_SEQ4_SWITCH_TO_DMA2
 0008:0004D584       MP4VDEC_TI_DM350_GEN_PaRAM_EVENT_SEQ4_SWITCH_TO_BPS
 0008:0004D5C8       MP4VDEC_TI_DM350_GEN_PaRAM_EVENT_SEQ4_SWITCH_TO_DMA
 0008:0004D60C       MP4VDEC_TI_DM350_GEN_PaRAM_EVENTDUMM3
 0008:0004D650       MP4VDEC_TI_DM350_GEN_PaRAM_EVENTDUMM2
 0008:0004D694       MP4VDEC_TI_DM350_GEN_PaRAM_EVENTDUMM1
 0008:0004D6D8       MP4VDEC_TI_DM350_no_bits
 0008:0004D828       MP4VDEC_TI_DM350_BitsToByteAlign
 0008:0004D83C       MP4VDEC_TI_DM350_flush_bits
 0008:0004D8C0       MP4VDEC_TI_DM350_next_bits
 0008:0004D974       MP4VDEC_TI_DM350_next_bits32
 0008:0004DA4C       MP4VDEC_TI_DM350_read_bits
 0008:0004DB74       MP4VDEC_TI_DM350_read_bits32
 0008:0004DCCC       MP4VDEC_TI_DM350_FlushStuffForward
 0008:0004DD5C       MP4VDEC_TI_DM350_CheckBitStuffing
 0008:0004DE30       MP4VDEC_TI_DM350_showbitsbytealign
 0008:0004DFB4       MP4VDEC_TI_DM350_ComputeNBytes
 0008:0004E00C       MP4VDEC_TI_DM350_GetH263VOP
 0008:0004E268       MP4VDEC_TI_Read_VOP_Complexity_Estmn_Hdr
 0008:0004E6A0       MP4VDEC_TI_DM350_GetMPEG4VOP
 0008:0004E9E8       MP4VDEC_TI_DM350_Define_VOP_Complexity_Estmn_Hdr
 0008:0004EB60       MP4VDEC_TI_GetVOPhdr
 0008:0004ECC0       MP4VDEC_TI_user_data
 0008:0004ED38       MP4VDEC_TI_LookForMarker
 0008:0004EE40       MP4VDEC_TI_DM350_GetUserData
 0008:0004EF0C       MP4VDEC_TI_DM350_GetVOS
 0008:0004EFA0       MP4VDEC_TI_DM350_GetVO
 0008:0004F1C0       MP4VDEC_TI_DM350_GetVOL
 0008:0004F698       MP4VDEC_TI_DM350_ResyncVOP
 0008:0004F7D0       MP4VDEC_TI_Getheader
 0008:0004FC64       MP4VDEC_TI_Gethdr
 0008:00050154       MP4VDEC_TI_DM350_HWSET_Copc_SwitchMemToHW
 0008:000503A0       MP4VDEC_TI_DM350_HWSET_Copc_Init
 0008:00050538       MP4VDEC_TI_DM350_INIT_COPC
 0008:000507D4       MP4VDEC_TI_DM350_Initialize_ARM
 0008:00050808       VICPSYNC_wait
 0008:000508DC       VICPSYNC_start
 0008:00050A24       VICPSYNC_unregister
 0008:00050AF8       VICPSYNC_done
 0008:00050BF8       IRESMAN_VICP2_getProtocolName
 0008:00050C40       IRESMAN_VICP2_getProtocolRevision
 0008:00050C88       setInternalState
 0008:00050CC8       VICP2_getIresmanFxns
 0008:00050CE4       VICP2_getDefaultParams
 0008:00050D08       IRESMAN_VICP2_freeHandles
 0008:00050F48       IRESMAN_VICP2_getHandles
 0008:000517F4       IRESMAN_VICP2_exit
 0008:0005186C       IRESMAN_VICP2_init
 0008:00051DCC       IRES_VICP2_getName
 0008:00051DE8       IRES_VICP2_getRevision
 0008:00051E04       IRES_VICP2_getMemRecs
 0008:00051E2C       IRES_VICP2_getNumMemRecs
 0008:00051E34       IRES_VICP2_getStaticProperties
 0008:00051E90       IRES_VICP2_destructHandle
 0008:00051E98       IRES_VICP2_constructHandle
 0008:00052208       offset
 0008:00052214       IRESMAN_GROUPUTILS_getProtocolName
 0008:0005225C       IRESMAN_GROUPUTILS_getProtocolRevision
 0008:000522A4       IRESMAN_GROUPUTILS_init
 0008:00052354       IRESMAN_GROUPUTILS_exit
 0008:000523AC       IRESMAN_GROUPUTILS_getHandles
 0008:00052504       IRESMAN_GROUPUTILS_freeHandle
 0008:000525A8       GROUPUTILS_getIresmanFxns
 0008:000525C4       GROUPUTILS_getDefaultParams
 0008:000525E8       IRES_GROUPUTILS_getName
 0008:00052604       IRES_GROUPUTILS_getRevision
 0008:00052620       IRES_GROUPUTILS_getMemRecs
 0008:00052648       IRES_GROUPUTILS_getNumMemRecs
 0008:00052650       IRES_GROUPUTILS_constructHandle
 0008:00052700       IRES_GROUPUTILS_getStaticProperties
 0008:00052704       IRES_GROUPUTILS_destructHandle
 0008:0005270C       lockScratchGroup
 0008:00052758       unlockScratchGroup
 0008:000527A4       lockLateAcquireResources
 0008:00052804       unlockLateAcquireResources
 0008:0005285C       IRESMAN_EDMA3CHAN_getProtocolName
 0008:000528A4       IRESMAN_EDMA3CHAN_getProtocolRevision
 0008:000528EC       IRESMAN_EDMA3CHAN_init
 0008:00052954       IRESMAN_EDMA3CHAN_exit
 0008:0005297C       _checkContig
 0008:000529D8       EDMA3CHAN_getIresmanFxns
 0008:000529F4       EDMA3CHAN_getDefaultParams
 0008:00052A18       IRESMAN_EDMA3CHAN_freeHandle
 0008:00052DE8       IRESMAN_EDMA3CHAN_getHandles
 0008:00053AA0       IRES_EDMA3CHAN_getName
 0008:00053ABC       IRES_EDMA3CHAN_getRevision
 0008:00053AD8       IRES_EDMA3CHAN_getMemRecs
 0008:00053B34       IRES_EDMA3CHAN_getNumMemRecs
 0008:00053B3C       IRES_EDMA3CHAN_constructHandle
 0008:00053ECC       IRES_EDMA3CHAN_getStaticProperties
 0008:00053F8C       IRES_EDMA3CHAN_destructHandle
 0008:00053F94       setInternalState_0
 0008:00054080       resToDev
 0008:00054118       freeResource
 0008:00054410       EDMA3_freeLogicalChannel
 0008:0005444C       EDMA3_freeResource
 0008:00054488       EDMA3_freeContiguousResource
 0008:000544C0       EDMA3_getBaseAddress
 0008:00054510       EDMA3_getCCRegister
 0008:00054590       findResource
 0008:00054A84       allocResource
 0008:00054D14       EDMA3_allocContiguousResource
 0008:00054D6C       EDMA3_allocLogicalChannel
 0008:00054DDC       EDMA3_allocResource
 0008:00054E70       EDMA3_deleteResourceManagerObject
 0008:00054ECC       EDMA3_releaseResourceManager
 0008:00055048       EDMA3_createResourceManagerObject
 0008:0005516C       EDMA3_getResourceManager
 0008:00055244       RMAN_activateResource
 0008:00055280       RMAN_activateAllResources
 0008:000552BC       RMAN_deactivateResource
 0008:000552F8       RMAN_deactivateAllResources
 0008:00055334       checkRevision
 0008:0005534C       myAlloc
 0008:00055398       myFree
 0008:000553F0       RMAN_unregister
 0008:00055598       getResman
 0008:00055680       RMAN_freeResources
 0008:000557D0       RMAN_assignResources
 0008:00055AB8       RMAN_register
 0008:00055CA8       RMAN_init
 0008:00055EB0       RMAN_exit
 0008:00055FB0       IRESMAN_NULLRES_getProtocolName
 0008:00055FCC       IRESMAN_NULLRES_getProtocolRevision
 0008:00055FE8       IRESMAN_NULLRES_init
 0008:0005603C       IRESMAN_NULLRES_exit
 0008:0005606C       IRESMAN_NULLRES_getHandles
 0008:00056110       IRESMAN_NULLRES_freeHandle
 0008:0005617C       _getStaticProperties
 0008:00056180       MPEG2VDEC_TI_numResourceDescriptors
 0008:00056224       MPEG2VDEC_TI_activateResource
 0008:00056520       MPEG2VDEC_TI_activateAllResources
 0008:000566C0       MPEG2VDEC_TI_deactivateResource
 0008:000569D4       MPEG2VDEC_TI_deactivateAllResources
 0008:00056B78       MPEG2VDEC_TI_initResources
 0008:0005729C       MPEG2VDEC_TI_deinitResources
 0008:000575D8       MPEG2VDEC_TI_reinitResources
 0008:00057710       MPEG2VDEC_TI_getResourceDescriptors
 0008:00057C50       MPEG2VDEC_TI_ChbaseDma
 0008:00057D70       MPEG2VDEC_TI_get_version
 0008:00057DFC       mpeg2_testIalgInit
 0008:000595CC       MPEG2VDEC_TI_alloc
 0008:0005A50C       MPEG2VDEC_TI_numAlloc
 0008:0005A528       MPEG2VDEC_TI_free
 0008:0005AA60       MPEG2VDEC_TI_init
 0008:0005B750       MPEG2VDEC_TI_control
 0008:0005C9B4       MPEG2VDEC_TI_deactivate
 0008:0005CA5C       MPEG2VDEC_TI_activate
 0008:0005CB04       MPEG2VDEC_TI_exit
 0008:0005CB18       MPEG2VDEC_TI_decode
 0008:0005D3A0       MPEG2VDEC_TI_Get968codeSize
 0008:0005D3CC       MPEG2VDEC_TI_Copy_codearm968
 0008:0005D438       n
 0008:0005D440       MPEG2VDEC_TI_KaleidoPsc_Reset
 0008:0005D4C4       MPEG2VDEC_TI_KaleidoPsc_SyncReset
 0008:0005D54C       MPEG2VDEC_TI_KaleidoPsc_Enable
 0008:0005D608       MPEG2VDEC_TI_KaleidoPsc_Disable
 0008:0005D690       MPEG2VDEC_TI_KaleidoPsc_EnableInitRamLow
 0008:0005D74C       MPEG2VDEC_TI_Loader_Arm968
 0008:0005D818       MPEG2VDEC_TI_decode_end
 0008:00060624       Transfer_params
 0008:000606F4       MPEG2VDEC_DMA_TI_ECopy_1D1D_Linked_Wait
 0008:000607C4       MPEG2VDEC_TI_decode_start
 0008:00067BD8       MPEG2VDEC_TI_Initialize_Buffers
 0008:00067E60       MPEG2VDEC_TI_showBits
 0008:00067ED0       MPEG2VDEC_TI_Flush_Buffer
 0008:00068384       MPEG2VDEC_TI_getBits
 0008:000683F8       MPEG2VDEC_TI_IPC_HostInit
 0008:00068508       MPEG2VDEC_TI_IPC_HostWriteData
 0008:000685A0       MPEG2VDEC_TI_IPC_HostReadData
 0008:000685E8       ResetIntc
 0008:000686F4       InitIntc
 0008:00068B4C       memcpy_dm6467
 0008:00068BEC       MPEG2VDEC_TI_header_decode
 0008:00068D90       InitBoundingBoxParams
 0008:00068DD4       MPEG2VDEC_TI_init_context_structure
 0008:00068E78       MPEG2VDEC_TI_init_coprocessors
 0008:00068FCC       MPEG2VDEC_TI_BFSWRegInit
 0008:00069184       MPEG2VDEC_TI_parse_frame_level_headers
 0008:00069458       next_start_code
 0008:000694C4       sequence_header
 0008:00069D5C       group_of_pictures_header
 0008:00069F14       picture_header
 0008:0006A208       extension_and_user_data
 0008:0006A450       sequence_extension
 0008:0006ADB0       sequence_display_extension
 0008:0006B010       quant_matrix_extension
 0008:0006B44C       sequence_scalable_extension
 0008:0006B650       picture_display_extension
 0008:0006B8A8       picture_coding_extension
 0008:0006C1D8       picture_temporal_scalable_extension
 0008:0006C240       extra_bit_information
 0008:0006C29C       copyright_extension
 0008:0006C520       MPEG2VDEC_TI_hdvicp_McInitMpeg2Dec
 0008:0006CE98       MPEG2VDEC_TI_hdvicp_McDynamicMpeg2Dec
 0008:0006D284       HDVICP_TI_BFSW_SetViewMode
 0008:0006D348       HDVICP_TI_BFSW_SetViewModeLpfdbuf
 0008:0006D398       HDVICP_TI_BFSW_SetViewModeBsbuf
 0008:0006D3E8       HDVICP_TI_BFSW_SetViewModeReconbuf
 0008:0006D438       HDVICP_TI_BFSW_SetViewModeCalcmbuf
 0008:0006D488       HDVICP_TI_BFSW_SetViewModeCalcobuf
 0008:0006D4CC       HDVICP_TI_BFSW_SetViewModeIprdbuf
 0008:0006D51C       HDVICP_TI_BFSW_SetViewModeRsdbuf
 0008:0006D56C       HDVICP_TI_BFSW_SetViewModeIporgbuf
 0008:0006D5B0       HDVICP_TI_BFSW_SetViewModeBsabuf
 0008:0006D600       HDVICP_TI_BFSW_SetViewModeMbdtbuf
 0008:0006D650       HDVICP_TI_BFSW_SetViewModeEcdabuf
 0008:0006D6A0       HDVICP_TI_BFSW_SetViewModeMemcbuf
 0008:0006D6EC       HDVICP_TI_BFSW_SwitchBuffers
 0008:0006D8DC       MPEG2VDEC_TI_hdvicp_CalcInitMpeg2Dec
 0008:0006DE00       MPEG2VDEC_TI_hdvicp_CalcDynamicMpeg2Dec
 0008:0006E0BC       MPEG2VDEC_TI_hdvicp_CalcRegFillMpeg2Dec
 0008:0006E2A0       MPEG2VDEC_TI_hdvicp_EcdInitMpeg2Dec
 0008:0006E5B4       MPEG2VDEC_TI_hdvicp_EcdPictDataMpeg2Dec
 0008:0006EAB4       MPEG2VDEC_TI_hdvicp_EcdWorkDataMpeg2Dec
 0008:0006EBB0       MPEG2VDEC_TI_hdvicp_EcdDynamicMpeg2Dec
 0008:0006EC28       DMA_TI_Open
 0008:0006F164       DMA_TI_IRES_EDMA_Open
 0008:0006F4C8       DMA_TI_Map_TC
 0008:0006F80C       DMA_TI_Close
 0008:0006F828       DMA_TI_ETrigger
 0008:0006F8C0       DMA_TI_Wait
 0008:0006F9D8       DMA_TI_ECopy_Update
 0008:0006FB80       DMA_TI_ECopy_1D1D
 0008:0006FD28       DMA_TI_ECopy_1D2D
 0008:0006FEE8       DMA_TI_ECopy_2D1D
 0008:000700A4       DMA_TI_ECopy_2D2D
 0008:00070260       DMA_TI_ECopy_1D1D_Linked
 0008:000705B8       DMA_TI_ECopy_1D1D_Early_Linked
 0008:00070914       DMA_TI_ECopy_1D2D_Linked
 0008:00070CC0       DMA_TI_ECopy_1D2D_Early_Linked
 0008:00071070       DMA_TI_ECopy_2D1D_Linked
 0008:00071418       DMA_TI_ECopy_2D1D_Early_Linked
 0008:000717C4       DMA_TI_ECopy_2D2D_Linked
 0008:00071B6C       DMA_TI_ECopy_2D2D_Early_Linked
 0008:00071F18       DMA_TI_ECopy_1D1D_Autoincr
 0008:00072034       DMA_TI_ECopy_1D2D_Autoincr
 0008:0007216C       DMA_TI_ECopy_2D1D_Autoincr
 0008:000722A0       DMA_TI_ECopy_2D2D_Autoincr
 0008:000723D4       DMA_TI_Lgl_Multi_Trig
 0008:000724FC       DMA_TI_Lgl_Multi_Wait
 0008:0007270C       DMA_TI_Phy_Multi_Trig
 0008:0007277C       DMA_TI_Phy_Multi_Wait
 0008:0007284C       DMA_TI_ECopy_1D1D_Link_MultiTrigg
 0008:00072C00       DMA_TI_ECopy_1D1D_Replicate
 0008:00072D88       DMA_TI_ECopy_2D2D_Linked_DstUpdate
 0008:00072F44       DMA_TI_ECopy_2D2D_Early_Linked_DstUpdate
 0008:00073104       DMA_TI_ECopy_2D2D_Linked_Dst_Bytes_Update
 0008:00073304       DMA_TI_ECopy_2D2D_Early_Linked_Dst_Bytes_Update
 0008:00073508       DMA_TI_ECopy_2D2D_Linked_SrcUpdate
 0008:000736C4       DMA_TI_ECopy_2D2D_Early_Linked_SrcUpdate
 0008:00073884       DMA_TI_ECopy_1D1D_Linked_src_update
 0008:00073B08       DMA_TI_ECopy_1D1D_Early_Linked_src_update
 0008:00073D90       DMA_TI_ECopy_1D1D_Linked_src_dst_update
 0008:00074034       DMA_TI_ECopy_1D1D_Early_Linked_src_dst_update
 0008:000742DC       DMA_TI_ECopy_2D2D_Linked_src_dst_update
 0008:000745D0       DMA_TI_ECopy_2D2D_Early_Linked_src_dst_update
 0008:000748C8       DMA_TI_ECopy_2D1D_Linked_src_update
 0008:00074A84       DMA_TI_ECopy_2D1D_Early_Linked_src_update
 0008:00074C44       DMA_TI_ECopy_2D1D_Linked_src_dst_update
 0008:00074E24       DMA_TI_ECopy_2D1D_Early_Linked_src_dst_update
 0008:00075008       DMA_TI_ECopy_2D1D_Early_Linked_src_dst_lines_update
 0008:00075230       DMA_TI_ECopy_1D2D_Linked_dst_update
 0008:000753F0       DMA_TI_ECopy_1D2D_Early_Linked_dst_update
 0008:000755B4       DMA_TI_ECopy_1D1D_src_dst_numbytes_update
 0008:000756F4       H264VDEC_TI_numResourceDescriptors
 0008:000757D0       H264VDEC_TI_activateResource
 0008:00075C44       H264VDEC_TI_activateAllResources
 0008:00075E34       H264VDEC_TI_deactivateResource
 0008:000762A8       H264VDEC_TI_deactivateAllResources
 0008:00076470       H264VDEC_TI_initResources
 0008:0007724C       H264VDEC_TI_deinitResources
 0008:0007787C       H264VDEC_TI_reinitResources
 0008:000779EC       H264VDEC_TI_getResourceDescriptors
 0008:000781DC       H264VDEC_TI_ChbaseDma
 0008:00078378       get_colocated_mb_mem_size
 0008:0007846C       get_addnl_luma_pad_mem_size
 0008:00078548       level_check
 0008:0007874C       H264VDEC_TI_alloc
 0008:0007955C       H264VDEC_TI_numAlloc
 0008:00079578       H264VDEC_TI_free
 0008:000797D8       H264VDEC_TI_init_contextstruct
 0008:0007A2D8       testIalgInit
 0008:0007B7A8       H264VDEC_TI_init
 0008:0007C918       H264VDEC_TI_control
 0008:0007D8AC       H264VDEC_TI_deactivate
 0008:0007D95C       H264VDEC_TI_activate
 0008:0007DA0C       populate_decoded_pic_descr
 0008:0007DD40       H264VDEC_TI_waitForHDVICP
 0008:0007DFF4       H264VDEC_TI_decode_header
 0008:0007EB80       H264VDEC_TI_decode_start
 0008:0007F120       H264VDEC_TI_decode_end
 0008:0007FD98       H264VDEC_TI_decode
 0008:000803EC       H264VDEC_TI_Update_FieldBufOutargs
 0008:00080774       H264VDEC_TI_decode_1
 0008:00081EAC       H264VDEC_TI_getDpbLimit
 0008:00082010       H264VDEC_TI_moreRBSPData
 0008:0008213C       H264VDEC_TI_sqrt_max_fs_x_8
 0008:000822DC       H264VDEC_TI_FindNalUnit
 0008:00082748       H264VDEC_TI_initialize_Bitstream
 0008:00082B84       H264VDEC_TI_calc_poc
 0008:0008338C       H264VDEC_TI_Scaling_List
 0008:00083688       H264VDEC_TI_parse_sps_hrdparams
 0008:000838B8       H264VDEC_TI_parse_sps_vuiparams
 0008:00083FB4       H264VDEC_TI_parse_sps
 0008:000858E4       H264VDEC_TI_parse_pps
 0008:00086854       H264VDEC_TI_restore_parmset
 0008:00086E3C       H264VDEC_TI_parsePartialSlcHdr
 0008:00089410       H264VDEC_TI_poc_postprocess
 0008:000895BC       H264VDEC_TI_DecodeOneAccessUnit
 0008:00089F38       H264VDEC_TI_DecodeEndInit
 0008:0008A164       H264VDEC_TI_FrmLvlFieldPadding
 0008:0008A564       H264VDEC_TI_FrmLvlPaddingWait
 0008:0008A5F4       H264VDEC_TI_FrmLvlPadding
 0008:0008A6BC       H264VDEC_TI_FrmLvlFramePadding
 0008:0008A9A4       H264VDEC_TI_FrmLvlExtraFramePadding
 0008:0008AFD0       H264VDEC_TI_MapError
 0008:0008B38C       H264VDEC_TI_sort
 0008:0008BAC0       H264VDEC_TI_merge
 0008:0008BBB0       H264VDEC_TI_default_list
 0008:0008C478       H264VDEC_TI_getNextWord
 0008:0008C5DC       H264VDEC_TI_flush_bits
 0008:0008C7C0       H264VDEC_TI_UVLC_dec
 0008:0008CCD8       H264VDEC_TI_next_start_code
 0008:0008CD3C       H264VDEC_TI_init_bits
 0008:0008CE08       H264VDEC_TI_Get968codeSize_mbaff
 0008:0008CE40       H264VDEC_TI_Copy_codearm968_mbaff
 0008:0008CF30       H264VDEC_TI_KALEIDO_PSC_Reset
 0008:0008CFB4       H264VDEC_TI_KALEIDO_PSC_SyncReset
 0008:0008D03C       H264VDEC_TI_KALEIDO_PSC_Enable
 0008:0008D0F8       H264VDEC_TI_KALEIDO_PSC_Disable
 0008:0008D180       H264VDEC_TI_KALEIDO_PSC_Enable_InitRam_Low
 0008:0008D23C       H264VDEC_TI_Loader_arm968_mbaff
 0008:0008D380       H264VDEC_TI_Get968codeSize_frame
 0008:0008D3B8       H264VDEC_TI_Copy_codearm968_frame
 0008:0008D4A8       H264VDEC_TI_Loader_arm968_frame
 0008:0008D5EC       H264VDEC_TI_Get968codeSize_cl
 0008:0008D624       H264VDEC_TI_Copy_codearm968_cl
 0008:0008D71C       H264VDEC_TI_Loader_arm968_cl
 0008:0008D868       H264VDEC_TI_Get968codeSize_field
 0008:0008D8A0       H264VDEC_TI_Copy_codearm968_field
 0008:0008D990       H264VDEC_TI_Loader_arm968_field
 0008:0008DAD4       H264VDEC_TI_errorConceal
 0008:0008DE6C       H264VDEC_TI_conceal
 0008:0008E174       H264VDEC_TI_spatialConclAlg
 0008:0008E2FC       H264VDEC_TI_estimateMv
 0008:0008E8E8       H264VDEC_TI_computeGlobalMv
 0008:0008E910       H264VDEC_TI_setComputedGMv
 0008:0008EA04       H264VDEC_TI_smoothHSpatialInterpolateV
 0008:0008F058       H264VDEC_TI_spatialInterpolateV
 0008:0008F424       H264VDEC_TI_temporalConclAlg
 0008:0008F448       H264VDEC_TI_intraConclAlg
 0008:0008F46C       H264VDEC_TI_estimateMvDP
 0008:0008F494       H264VDEC_TI_computSpatialNghbr
 0008:0008F6D8       H264VDEC_TI_collectErrIno
 0008:0008F930       H264VDEC_TI_initConclArgs
 0008:0008FA7C       H264VDEC_TI_initErrConcealObj
 0008:0009033C       H264VDEC_TI_errConclAlloc
 0008:000906EC       H264VDEC_TI_errConclnumAlloc
 0008:00090708       H264VDEC_TI_dmaXfrOutSpatial
 0008:00090918       H264VDEC_TI_dmaXfrInSpatial
 0008:00091080       H264VDEC_TI_dmaXfrInTemporal
 0008:00091990       H264VDEC_TI_initDmaConfig
 0008:00091D74       H264VDEC_TI_computeMedianOf8
 0008:000928C4       H264VDEC_TI_computeMedianOf3
 0008:00092968       H264VDEC_TI_computeMedianOf4
 0008:00092A30       H264VDEC_TI_getMbStatus
 0008:00092B50       H264VDEC_TI_getMbMv
 0008:00092D14       H264VDEC_TI_getMbTopMv
 0008:00092ED8       H264VDEC_TI_setMbMv
 0008:00093068       H264VDEC_TI_getMbRefMv
 0008:00093090       H264VDEC_TI_initConclInfoBufs
 0008:000931AC       H264VDEC_TI_1D2D
 0008:000932D0       H264VDEC_TI_2D1D
 0008:000933FC       H264VDEC_TI_2D2D
 0008:00093560       H264VDEC_TI_datCopyWait
 0008:00093580       H264VDEC_TI_colorConversion
 0008:000935A8       H264VDEC_TI_Init_Conclstruct
 0008:00093A50       H264VDEC_TI_Collect_Errinfo
 0008:000941F4       CheckMbBit
 0008:00094270       H264VDEC_TI_concealSidePadding
 0008:00094648       H264VDEC_TI_getFrmEnergy
 0008:000946AC       H264VDEC_TI_detectSceneChange
 0008:000946DC       H264VDEC_TI_NearestPocFrameInDpb
 0008:000947D8       H264VDEC_TI_PpltDsplyBuf
 0008:00094A68       H264VDEC_TI_GetNewPicture
 0008:00094BFC       H264VDEC_TI_DpbInit
 0008:00094EA0       H264VDEC_TI_buffer_management
 0008:00094F98       H264VDEC_TI_IDR_pic_management
 0008:000952FC       H264VDEC_TI_empty_dpb_without_output
 0008:000954AC       H264VDEC_TI_remove_unreferenced_displayed_pic
 0008:00095708       H264VDEC_TI_output_bumping
 0008:00095C30       H264VDEC_TI_force_sliding_window
 0008:00095F08       H264VDEC_TI_sliding_window
 0008:0009614C       H264VDEC_TI_store_current_pic
 0008:00097444       H264VDEC_TI_store_pic_attributes
 0008:00097780       H264VDEC_TI_adaptive_buff_mgmt
 0008:00098B04       H264VDEC_TI_dpb_reset
 0008:00098E48       H264VDEC_TI_copyPicture
 0008:000992E8       H264VDEC_TI_OutputDummyFrame
 0008:000997F4       H264VDEC_TI_parse_sei
 0008:00099E3C       H264VDEC_TI_full_frame_freeze_info
 0008:00099E94       H264VDEC_TI_full_frame_freeze_release_info
 0008:00099EC4       H264VDEC_TI_progressive_refinement_start_info
 0008:00099F18       H264VDEC_TI_progressive_refinement_end_info
 0008:00099F58       H264VDEC_TI_recovery_point_info
 0008:0009A040       H264VDEC_TI_picture_timing_info
 0008:0009AA34       H264VDEC_TI_buffering_period
 0008:0009ACB4       H264VDEC_TI_filler_payload
 0008:0009AD28       H264VDEC_TI_user_data_unregistered
 0008:0009AF24       H264VDEC_TI_user_data_registered
 0008:0009B1A4       H264VDEC_TI_unsupported_sei
 0008:0009B20C       H264VDEC_TI_GetCmdsSize
 0008:0009B238       H264VDEC_TI_Copy_Copcmds
 0008:0009B5BC       H264VDEC_TI_get_version
 0008:0009B648       H264V_TI_DMA_IRES_EDMA_Open
 0008:0009B9B0       H264V_TI_DMA_Map_TC
 0008:0009BD24       H264V_TI_DMA_Close
 0008:0009BD40       H264V_TI_DMA_ETrigger
 0008:0009BDD8       H264V_TI_DMA_Wait
 0008:0009BEF0       H264V_TI_DMA_ECopy_Update
 0008:0009C09C       H264V_TI_DMA_ECopy_1D1D
 0008:0009C248       H264V_TI_DMA_ECopy_1D1D_ASYNC
 0008:0009C38C       H264V_TI_DMA_ECopy_1D2D
 0008:0009C550       H264V_TI_DMA_ECopy_2D1D
 0008:0009C710       H264V_TI_DMA_ECopy_2D2D
 0008:0009C8D0       H264V_TI_DMA_ECopy_1D1D_Linked
 0008:0009CC2C       H264V_TI_DMA_ECopy_1D1D_Early_Linked
 0008:0009CF8C       H264V_TI_DMA_ECopy_1D2D_Linked
 0008:0009D33C       H264V_TI_DMA_ECopy_1D2D_Early_Linked
 0008:0009D6F0       H264V_TI_DMA_ECopy_2D1D_Linked
 0008:0009DA9C       H264V_TI_DMA_ECopy_2D1D_Early_Linked
 0008:0009DE4C       H264V_TI_DMA_ECopy_2D2D_Linked
 0008:0009E1F8       H264V_TI_DMA_ECopy_2D2D_Early_Linked
 0008:0009E5A8       H264V_TI_DMA_ECopy_1D1D_Autoincr
 0008:0009E6C8       H264V_TI_DMA_ECopy_1D2D_Autoincr
 0008:0009E804       H264V_TI_DMA_ECopy_2D1D_Autoincr
 0008:0009E93C       H264V_TI_DMA_ECopy_2D2D_Autoincr
 0008:0009EA74       H264V_TI_DMA_Lgl_Multi_Trig
 0008:0009EB9C       H264V_TI_DMA_Lgl_Multi_Wait
 0008:0009EDAC       H264V_TI_DMA_Phy_Multi_Trig
 0008:0009EE1C       H264V_TI_DMA_Phy_Multi_Wait
 0008:0009EEEC       H264V_TI_DMA_ECopy_1D1D_Link_MultiTrigg
 0008:0009F2A4       H264V_TI_DMA_ECopy_1D1D_Replicate
 0008:0009F430       H264V_TI_DMA_ECopy_2D2D_Linked_DstUpdate
 0008:0009F5F0       H264V_TI_DMA_ECopy_2D2D_Early_Linked_DstUpdate
 0008:0009F7B4       H264V_TI_DMA_ECopy_2D2D_Linked_Dst_Bytes_Update
 0008:0009F9B8       H264V_TI_DMA_ECopy_2D2D_Early_Linked_Dst_Bytes_Update
 0008:0009FBC0       H264V_TI_DMA_ECopy_2D2D_Linked_SrcUpdate
 0008:0009FD80       H264V_TI_DMA_ECopy_2D2D_Early_Linked_SrcUpdate
 0008:0009FF44       H264V_TI_DMA_ECopy_1D1D_Linked_src_update
 0008:000A01CC       H264V_TI_DMA_ECopy_1D1D_Early_Linked_src_update
 0008:000A0458       H264V_TI_DMA_ECopy_1D1D_Linked_src_dst_update
 0008:000A0700       H264V_TI_DMA_ECopy_1D1D_Early_Linked_src_dst_update
 0008:000A09AC       H264V_TI_DMA_ECopy_2D2D_Linked_src_dst_update
 0008:000A0CA4       H264V_TI_DMA_ECopy_2D2D_Early_Linked_src_dst_update
 0008:000A0FA0       H264V_TI_DMA_ECopy_2D1D_Linked_src_update
 0008:000A1160       H264V_TI_DMA_ECopy_2D1D_Early_Linked_src_update
 0008:000A1324       H264V_TI_DMA_ECopy_2D1D_Linked_src_dst_update
 0008:000A1508       H264V_TI_DMA_ECopy_2D1D_Early_Linked_src_dst_update
 0008:000A16F0       H264V_TI_DMA_ECopy_2D1D_Early_Linked_src_dst_lines_update
 0008:000A191C       H264V_TI_DMA_ECopy_1D2D_Linked_dst_update
 0008:000A1AE0       H264V_TI_DMA_ECopy_1D2D_Early_Linked_dst_update
 0008:000A1CA8       H264V_TI_DMA_ECopy_1D1D_src_dst_numbytes_update
 0008:000A1DEC       HDVICPSYNC_done
 0008:000A1E34       HDVICPSYNC_unregister
 0008:000A1E64       HDVICPSYNC_wait
 0008:000A1E94       HDVICPSYNC_start
 0008:000A1ED0       GT_curTime
 0008:000A1F0C       GT_disable
 0008:000A1F4C       GT_enable
 0008:000A1F6C       GT_init
 0008:000A1FC4       error
 0008:000A2008       applyOp
 0008:000A2064       _GT_trace
 0008:000A288C       findElem
 0008:000A28EC       getModNameFlagsAddr
 0008:000A290C       GT_getModNameFlags
 0008:000A292C       addModName
 0008:000A29F8       setMask
 0008:000A2B7C       _GT_set
 0008:000A2DC4       _GT_create
 0008:000A2E2C       IRESMAN_HDVICP_getProtocolName
 0008:000A2E74       IRESMAN_HDVICP_getProtocolRevision
 0008:000A2EBC       IRESMAN_HDVICP_getHandles
 0008:000A3230       IRESMAN_HDVICP_freeHandles
 0008:000A332C       setInternalState_1
 0008:000A3378       HDVICP_getIresmanFxns
 0008:000A3394       HDVICP_getDefaultParams
 0008:000A33B8       IRESMAN_HDVICP_exit
 0008:000A3440       IRESMAN_HDVICP_init
 0008:000A3588       IRES_HDVICP_getName
 0008:000A35BC       IRES_HDVICP_getRevision
 0008:000A35F0       IRES_HDVICP_getMemRecs
 0008:000A3618       IRES_HDVICP_getNumMemRecs
 0008:000A3620       IRES_HDVICP_getStaticProperties
 0008:000A362C       IRES_HDVICP_destructHandle
 0008:000A3634       IRES_HDVICP_constructHandle
 0008:000A37D0       validate_init
 0008:000A3878       VICP_done
 0008:000A38F0       VICP_wait
 0008:000A395C       VICP_unregister
 0008:000A39E4       VICP_register
 0008:000A3A90       VICP_exit
 0008:000A3B00       VICP_init
 0008:000A3C08       IRESMAN_MEMTCM_getProtocolName
 0008:000A3C50       IRESMAN_MEMTCM_getProtocolRevision
 0008:000A3C98       MEMTCM_getIresmanFxns
 0008:000A3CB4       MEMTCM_getDefaultParams
 0008:000A3CD8       setInternalState_2
 0008:000A3CEC       IRESMAN_MEMTCM_freeHandle
 0008:000A3DEC       IRESMAN_MEMTCM_getHandles
 0008:000A4048       freeInternalState
 0008:000A40AC       IRESMAN_MEMTCM_exit
 0008:000A4114       IRESMAN_MEMTCM_init
 0008:000A434C       IRES_MEMTCM_getName
 0008:000A4368       IRES_MEMTCM_getRevision
 0008:000A4384       IRES_MEMTCM_getMemRecs
 0008:000A43A8       IRES_MEMTCM_getNumMemRecs
 0008:000A43B0       IRES_MEMTCM_constructHandle
 0008:000A4410       IRES_MEMTCM_getStaticProperties
 0008:000A4414       IRES_MEMTCM_destructHandle
 0008:000A441C       SMGRMP_exit
 0008:000A4420       SMGRMP_init
 0008:000A4424       setInternalState_3
 0008:000A4430       shmAlloc
 0008:000A4470       shmFree
 0008:000A4478       SMGRMP_free
 0008:000A44C4       SMGRMP_delete
 0008:000A456C       SMGRMP_create
 0008:000A46C4       SMGRMP_alloc
 0008:000A4710       SMGR_create
 0008:000A47D8       SMGR_delete
 0008:000A480C       SMGR_exit
 0008:000A4810       SMGR_free
 0008:000A48F0       SMGR_init
 0008:000A48F4       SMGR_alloc
 0008:000A4BF8       SHM_freeObj
 0008:000A4C64       SHM_getObj
 0008:000A4D60       __aeabi_memclr
 0008:000A4D6C       __aeabi_memcpy
 0008:000A4D70       __aeabi_memmove
 0008:000A4D74       __aeabi_memmove4
 0008:000A4D78       __aeabi_memset
 0008:000A4D88       __aeabi_memcpy4
 0008:000A4D8C       __aeabi_memclr4
 0008:000A4D90       shl32_sat_co
 0008:000A4D94       shl32_dir_sat_limit_co
 0008:000A4DB4       round16_co
 0008:000A4DC4       negate16_co
 0008:000A4DDC       mult32x16in32_co
 0008:000A4DE4       mult32x16in32_shl_co
 0008:000A4DF0       shr32_dir_sat_limit_co
 0008:000A4E10       add32_sat_co
 0008:000A4E18       norm32_co
 0008:000A4E28       abs16_sat_co
 0008:000A4E3C       sat16_co
 0008:000A4E58       shl32_sat
 0008:000A4E7C       ia_eaacp_dec_couple_channel
 0008:000A4EA8       LOOP
 0008:000A4F08       STORE1
 0008:000A4F30       STORE2
 0008:000A4F40       DSP_fft32x16_dit
 0008:000A4F80       LOOP1
 0008:000A5144       LOOP2_OUTER
 0008:000A514C       LOOP2_TRIVIAL_INNER
 0008:000A52E8       TWIDDLE_OUTER_LOOP
 0008:000A52F8       TWIDDLE_INNER_LOOP
 0008:000A55A4       LOOP2_OUTER1
 0008:000A55C4       TWIDDLE_OUTER_LOOP1
 0008:000A5818       LOOP2_OUTER_SP
 0008:000A5820       LOOP2_TRIVIAL_INNER_SP
 0008:000A59BC       TWIDDLE_OUTER_LOOP_SP
 0008:000A59CC       TWIDDLE_INNER_LOOP_SP
 0008:000A5C98       TWIDDLE_OUTER_LOOP1_SP
 0008:000A5EF0       ia_eaacp_dec_CopyOutsample
 0008:000A5EF8       OUTSAMPLE_LOOP
 0008:000A5F30       ia_eaacp_dec_CopyOut_and_Over
 0008:000A5F40       OUT_OVERLAP_LOOP
 0008:000A5F84       ia_eaacp_dec_CopyOverlapbuff
 0008:000A5F98       OVERLAP_LOOP
 0008:000A5FC8       SPECT_SHIFT_RIGHT
 0008:000A5FCC       OVERLAP_LOOP1
 0008:000A5FFC       ia_eaacp_dec_Lap1
 0008:000A6044       LOOP1_0
 0008:000A60A0       SHR
 0008:000A60A4       LOOP2
 0008:000A6100       ia_eaacp_dec_Lap2
 0008:000A6148       LOOP1_1
 0008:000A61A0       SHR_0
 0008:000A61A4       LOOP2_0
 0008:000A61F8       OUT
 0008:000A61FC       NoLap1
 0008:000A6224       LOOP1_2
 0008:000A6280       SHR_1
 0008:000A6284       LOOP2_1
 0008:000A62BC       OUT_0
 0008:000A62C0       ia_eaacp_dec_postTwiddle
 0008:000A631C       POST_LOOP
 0008:000A63AC       ia_eaacp_dec_postTwid_overlap_add
 0008:000A6400       LOOP_SHL1
 0008:000A6490       LOOP_SHL2
 0008:000A6524       SHIFT_RIGHT
 0008:000A6528       LOOP_SHR1
 0008:000A65B4       SECOND_LOOP_BEGIN
 0008:000A6600       LOOP_SHR2
 0008:000A6694       POVLAP_SP
 0008:000A66D4       LOOP_SHL1_SP
 0008:000A6764       LOOP_SHL2_SP
 0008:000A67F8       SHIFT_RIGHT_SP
 0008:000A67FC       LOOP_SHR1_SP
 0008:000A6888       SECOND_LOOP_BEGIN_SP
 0008:000A68D4       LOOP_SHR2_SP
 0008:000A6978       ia_eaacp_dec_preTwiddleCompute
 0008:000A69D0       LOOP_SHL
 0008:000A6A28       LOOP_EXIT2
 0008:000A6A3C       LOOP_SHR1_0
 0008:000A6A48       LOOP_SHR
 0008:000A6A9C       LAST_ITERATION
 0008:000A6AD8       ia_eaacp_dec_right_shift_block
 0008:000A6AE0       LOOP_0
 0008:000A6B18       TnsParcor2Lpc
 0008:000A6B28       OUTLOOP
 0008:000A6B30       LOOP1_3
 0008:000A6B54       LOOP2_3
 0008:000A6B64       LOOP2_1_0
 0008:000A6BA0       LOOP2_2
 0008:000A6C10       IRESMAN_ADDRSPACE_getProtocolName
 0008:000A6C58       IRESMAN_ADDRSPACE_getProtocolRevision
 0008:000A6CA0       IRESMAN_ADDRSPACE_init
 0008:000A6D0C       IRESMAN_ADDRSPACE_exit
 0008:000A6D3C       ADDRSPACE_getIresmanFxns
 0008:000A6D58       ADDRSPACE_getDefaultParams
 0008:000A6D7C       IRESMAN_ADDRSPACE_freeHandle
 0008:000A6E2C       IRESMAN_ADDRSPACE_getHandles
 0008:000A709C       IRES_ADDRSPACE_getName
 0008:000A70B8       IRES_ADDRSPACE_getRevision
 0008:000A70D4       IRES_ADDRSPACE_getMemRecs
 0008:000A70FC       IRES_ADDRSPACE_getNumMemRecs
 0008:000A7104       IRES_ADDRSPACE_constructHandle
 0008:000A716C       IRES_ADDRSPACE_getStaticProperties
 0008:000A7170       IRES_ADDRSPACE_destructHandle
 0008:000A7178       MEMUTILS_cacheWbInv
 0008:000A71A4       MEMUTILS_cacheWb
 0008:000A71D0       MEMUTILS_cacheInv
 0008:000A71FC       MEMUTILS_getPhysicalAddr
 0008:000A7220       validate_init_0
 0008:000A72BC       CMEM_exit
 0008:000A730C       CMEM_getNumBlocks
 0008:000A736C       getBlock
 0008:000A7400       CMEM_getBlockAttrs
 0008:000A7408       CMEM_getBlock
 0008:000A7418       CMEM_getVersion
 0008:000A7484       CMEM_cacheInv
 0008:000A7504       CMEM_cacheWbInv
 0008:000A7584       CMEM_cacheWb
 0008:000A7604       CMEM_getPhys
 0008:000A7674       getPoolFromBlock
 0008:000A76F4       CMEM_getPool2
 0008:000A76F8       CMEM_getPool
 0008:000A7704       CMEM_free
 0008:000A77C4       CMEM_unregister
 0008:000A77C8       CMEM_registerAlloc
 0008:000A789C       allocFromHeap
 0008:000A79A4       allocFromPool
 0008:000A7AA0       allocPool
 0008:000A7AE0       CMEM_allocPool2
 0008:000A7AE4       CMEM_allocPool
 0008:000A7AF4       alloc
 0008:000A7B78       CMEM_alloc2
 0008:000A7B7C       CMEM_alloc
 0008:000A7B8C       CMEM_init
 0008:000A7D3C       EDMA_freeResource
 0008:000A7DB8       EDMA_unregister
 0008:000A7DBC       EDMA_registerResource
 0008:000A7E2C       EDMA_getResource
 0008:000A7EE4       EDMA_getVersion
 0008:000A7F4C       EDMA_mapBaseAddress
 0008:000A801C       EDMA_exit
 0008:000A8080       EDMA_init
 0008:000A8298       G711DEC_SUN_alloc
 0008:000A82B8       G711DEC_SUN_free
 0008:000A82C8       G711DEC_SUN_initObj
 0008:000A8344       G711DEC_SUN_decode
 0008:000A8408       G711DEC_SUN_control
 0008:000A855C       search
 0008:000A85B4       G711_SUN_linear2alaw
 0008:000A863C       G711_SUN_alaw2linear
 0008:000A869C       G711_SUN_linear2ulaw
 0008:000A8734       G711_SUN_ulaw2linear
 0008:000A877C       G711_SUN_alaw2ulaw
 0008:000A87C8       G711_SUN_ulaw2alaw
 0008:000A8830       __udivsi3
 0008:000A8A1C       __aeabi_uidivmod
 0008:000A8A3C       __divsi3
 0008:000A8A44       .divsi3_nodiv0
 0008:000A8C5C       __aeabi_idivmod
 0008:000A8C7C       __aeabi_drsub
 0008:000A8C84       __subdf3
 0008:000A8C88       __aeabi_dadd
 0008:000A8F34       __floatunsidf
 0008:000A8F58       __floatsidf
 0008:000A8F80       __extendsfdf2
 0008:000A8FC0       __floatundidf
 0008:000A8FD4       __floatdidf
 0008:000A9034       __muldf3
 0008:000A92A0       __divdf3
 0008:000A94A4       __gtdf2
 0008:000A94AC       __ltdf2
 0008:000A94B4       __nedf2
 0008:000A953C       __aeabi_cdrcmple
 0008:000A9558       __aeabi_cdcmple
 0008:000A956C       __aeabi_dcmpeq
 0008:000A9580       __aeabi_dcmplt
 0008:000A9594       __aeabi_dcmple
 0008:000A95A8       __aeabi_dcmpge
 0008:000A95BC       __aeabi_dcmpgt
 0008:000A95D0       __fixdfsi
 0008:000A962C       __fixunsdfsi
 0008:000A9680       __truncdfsf2
 0008:000A9720       __aeabi_frsub
 0008:000A9728       __subsf3
 0008:000A972C       __aeabi_fadd
 0008:000A98BC       __floatunsisf
 0008:000A98C4       __floatsisf
 0008:000A98E4       __floatundisf
 0008:000A98F4       __floatdisf
 0008:000A9970       __mulsf3
 0008:000A9B08       __divsf3
 0008:000A9C68       __gtsf2
 0008:000A9C70       __ltsf2
 0008:000A9C78       __nesf2
 0008:000A9CDC       __aeabi_cfrcmple
 0008:000A9CEC       __aeabi_cfcmple
 0008:000A9D00       __aeabi_fcmpeq
 0008:000A9D14       __aeabi_fcmplt
 0008:000A9D28       __aeabi_fcmple
 0008:000A9D3C       __aeabi_fcmpge
 0008:000A9D50       __aeabi_fcmpgt
 0008:000A9D64       __fixsfsi
 0008:000A9DC0       __fixunssfsi
 0008:000A9E14       __aeabi_ldiv0
 0008:000A9E24       __libc_csu_fini
 0008:000A9E28       __libc_csu_init
 0008:000A9E94       atexit
 0009:000A9EBC       ia_eaacp_dec_set_aac_persistent_buffers
 0009:000A9EFC       ia_eaacp_dec_Init_huff_tables
 0009:000AA024       ia_eaacp_dec_CAacDecoderOpen
 0009:000AA194       ia_eaacp_dec_allocate_memory_persistent
 0009:000AA1E0       ia_eaacp_dec_CreateBitBuffer
 0009:000AA210       ia_eaacp_dec_CreateInitializedBitBuffer
 0009:000AA230       ia_eaacp_dec_WindBitBufferBidirectional
 0009:000AA28C       ia_eaacp_dec_pce_chinfo_extract
 0009:000AA2E8       ia_eaacp_dec_pce_chinfo_extract2
 0009:000AA310       ia_eaacp_dec_skip_bits
 0009:000AA344       ia_eaacp_dec_programConfigElement
 0009:000AA4EC       ia_eaacp_dec_DecodePCE
 0009:000AA540       ia_eaacp_dec_findSyncWord
 0009:000AA5CC       ia_eaacp_dec_adtsFrame
 0009:000AA6A8       ia_eaacp_dec_GetSampRate
 0009:000AA6F0       ia_eaacp_ga_hdr_dec
 0009:000AA884       ia_eaacp_dec_CheckifSaneADTS
 0009:000AA8EC       ia_eaacp_dec_AACHeaderDecode
 0009:000AAC78       ia_eaacp_dec_aacByteAlign
 000A:000AACC4       ia_eaacp_dec_Illegal_Laps
 000A:000AAF10       ia_eaacp_dec_LongShortLapIllegal_short
 000A:000AB108       ia_eaacp_dec_CBlock_FrequencyToTime
 000A:000AB5C4       Illegal1
 000A:000AB6E4       ia_eaacp_dec_CAacDecoder_DecodeFrame
 000A:000ABCEC       ia_eaacp_dec_ByteAlign
 000A:000ABD20       aac_showbits_32
 000A:000ABD44       ia_eaacp_dec_CBlock_ReadSpectralData
 000A:000ABFEC       ia_eaacp_dec_CTns_Read
 000A:000AC1D4       ia_eaacp_dec_ReadICS
 000A:000AC294       ia_eaacp_dec_CJointStereo_Read
 000A:000AC338       ia_eaacp_dec_CPns_SetCorrelation
 000A:000AC354       ia_eaacp_dec_MapMidSideMaskToPnsCorrelation
 000A:000AC3FC       ia_eaacp_dec_CChannelPairElement_Decode
 000A:000AC50C       ia_eaacp_dec_inv_quant
 000A:000AC570       ia_eaacp_dec_CBlock_Read
 000A:000AC650       ia_eaacp_dec_get_channel_mask
 000A:000AC6C8       ia_eaacp_dec_CFillElementRead
 000A:000AC724       ia_eaacp_dec_get_element_index_tag
 000A:000AC8E8       aac_showbits_7
 000A:000AC918       ia_eaacp_dec_CDataStreamElement_Read
 000A:000AC988       ia_enhaacp_dec_updatebytesconsumed
 000A:000AC9C4       ia_eaacp_dec_readifadts
 000A:000ACA48       ia_eaacp_dec_persistent_buffer_sizes
 000A:000ACA58       ia_enhaacplus_dec_init
 000A:000ACAF8       ia_eaacp_dec_map_pce_to_slots
 000A:000ACBF0       ia_enhaacplus_dec_execute
 000A:000AD100       ia_enhaacp_init_ptr_only
 000A:000AD234       ia_enhaacplusdec_aacheader
 000A:000AD8C4       ia_eaacp_dec_allocate_aac_scr
 000B:000AD8E4       mult32_shl_sat_co
 000B:000AD8FC       shl32_co
 000B:000AD904       shr32_co
 000C:000AD90C       ia_eaacp_dec_ReadBits
 000C:000AD990       ia_eaacp_dec_inverse_quantization_lb
 000C:000AD9BC       ia_eaacp_dec_CBlock_DecodeHuffmanWordAll
 000C:000AE3D8       ia_eaacp_dec_CBlock_DecodeHuffmanWordAll_lb
 000C:000AED80       apply_one_scalefactor
 000C:000AEF0C       ia_eaacp_dec_apply_scale_factors
 000C:000AEF5C       aac_read_byte
 000C:000AEFA0       ia_eaacp_dec_GetScaleFactorBandOffsets
 000C:000AEFB4       ia_eaacp_dec_GetScaleFactorBandWidth
 000C:000AEFC8       ia_eaacp_dec_IcsRead
 000C:000AF0C0       ia_eaacp_dec_CBlock_InverseTransform
 000C:000AF140       ia_eaacp_dec_CBlock_ReadSectionData
 000C:000AF244       ia_eaacp_dec_CBlock_ReadScaleFactorData
 000C:000AF57C       ia_eaacp_dec_CPns_IsPnsUsed
 000C:000AF588       ia_eaacp_dec_CPns_Apply
 000C:000AF71C       TnsDecodeCoefficients_32x16
 000C:000AF76C       ia_eaacp_dec_CTns_Apply
 000C:000AFA08       ia_eaacp_dec_GenerateRandomVector
 000C:000AFB34       ia_eaacp_dec_CPulseData_Read
 000C:000AFBDC       ia_eaacp_dec_CJointStereo_ApplyMS
 000C:000AFCBC       ia_eaacp_dec_CJointStereo_ApplyIS
 000C:000AFE38       ia_eaacp_dec_tns_ar_filter_fixed_32x16
 000C:000AFF60       ia_eaacp_dec_CalcMaxSpectralLine
 000C:000AFFFC       ia_eaacp_dec_ffr_sqrt
 000C:000B0084       reciprt
 000D:000B0168       ENHAACPDEC_ITTIAM_activate
 000D:000B016C       ia_enhaacpdec_get_version
 000D:000B020C       aArm9eRev6100
 000D:000B0220       aIaAacDec
 000E:000B022C       ENHAACPDEC_ITTIAM_alloc
 000F:000B0350       ENHAACPDEC_ITTIAM_control
 0010:000B0358       ENHAACPDEC_ITTIAM_deactivate
 0011:000B035C       ENHAACPDEC_ITTIAM_exit
 0011:000B0360       ia_enhaacp_dec_get_tablestatus
 0012:000B038C       ENHAACPDEC_ITTIAM_free
 0013:000B0400       ENHAACPDEC_ITTIAM_init
 0013:000B0404       verify_mem_tabs
 0013:000B0478       verify_implementation_id
 0013:000B04AC       ia_enhaacp_dec_set_tablestatus
 0013:000B04D8       ia_enhaacp_dec_get_tables_copy_data
 0014:000B057C       ENHAACPDEC_ITTIAM_initObj
 0015:000B0828       ENHAACPDEC_ITTIAM_moved
 0016:000B0960       ENHAACPDEC_ITTIAM_numAlloc
 0016:000B0968       ia_ch_mode_from_num_ch_or_ch_mask
 0016:000B0A3C       ia_enhaacplus_dec_map_ittiam_err_to_xdm_error
 0017:000B0B48       ITTIAM_ENHAACPDEC_control
 0017:000B0E3C       verify_input_output_buffers
 0018:000B0F2C       ITTIAM_ENHAACPDEC_process
 0019:000B132C       TnsParcor2Lpc_32x16
 0019:000B1340       OUTLOOP_0
 0019:000B1348       LOOP1_4
 0019:000B1368       LOOP2_4
 0019:000B1378       LOOP2_1_1
 0019:000B13C4       LOOP2_2_0
 001A:000B1458       .term_proc
 001B:000B1460       _IO_stdin_used
 001B:000B1468       aReadsize
 001B:000B1474       aSleep
 001B:000B147C       aSavefile
 001B:000B1488       aProtocol
 001B:000B1494       aVideofile
 001B:000B14A0       aDisplayStandar
 001B:000B14B4       aDisplayOutput
 001B:000B14C4       aHelp
 001B:000B14CC       aTypical
 001B:000B14D4       aL1
 001B:000B14D8       aL2
 001B:000B14DC       aL3
 001B:000B14E0       aN1
 001B:000B14E4       aN2
 001B:000B14E8       aWatchdogdisabl
 001B:000B14F8       longOptions.8499
 001B:000B15F8       aVideoFileWitho
 001B:000B161C       aUnknownVideoFi
 001B:000B1640       a480p60
 001B:000B1648       a576p50
 001B:000B1650       a720p60hz
 001B:000B165C       a1080i30hz
 001B:000B1668       aUnknownDisplay
 001B:000B1684       aComponent
 001B:000B1690       aComposite
 001B:000B169C       aUnknownVideoOu
 001B:000B16B8       a264
 001B:000B16C0       aPrSVYOHtfABCDE
 001B:000B16DC       aDummyread68013
 001B:000B16F4       aReceiveSigintP
 001B:000B1710       aVarUsbclientPi
 001B:000B1724       aUsbclientAlrea
 001B:000B1740       aUsbclientInitp
 001B:000B1760       aEncryptCheckOk
 001B:000B1774       aEncryptCheckFa
 001B:000B178C       aPkillUsbmuxd
 001B:000B179C       aRmmodUsbAppleh
 001B:000B17B0       aInsmodOptDjiMo
 001B:000B17D8       aUsbmuxdVV
 001B:000B17E8       aDevHdmiStatus
 001B:000B17FC       aOpenDevHdmiSta
 001B:000B1818       aDevInputEvent0
 001B:000B182C       aMouseDisconnec
 001B:000B1840       aMouseConnect
 001B:000B1850       aDevmem0x01c400
 001B:000B1870       aDevgpioN36W1
 001B:000B1884       aGet1765Version
 001B:000B189C       aGetFpgaVersion
 001B:000B18B4       a68013Exist
 001B:000B18C0       aEncryptChipExi
 001B:000B18D4       a68013ReadDkbps
 001B:000B18E8       aDevgpioN36W0
 001B:000B18FC       aSelfTestOk
 001B:000B190C       aSelfTestTimeou
 001B:000B1920       aB1765versionva
 001B:000B1938       aBfpgaversionva
 001B:000B1950       aB68013existD
 001B:000B1960       aBencryptchipex
 001B:000B1978       aB68013readD
 001B:000B1988       aUsleep100000
 001B:000B1998       aPkill10Usbclie
 001B:000B19B0       aSleep1
 001B:000B19BC       aUpdate
 001B:000B19C8       aIap2LinkSessio_1
 001B:000B19EC       aRead68013Retur
 001B:000B1A08       aRead68013Retur_0
 001B:000B1A28       aDkbps
 001B:000B1A34       aDevTtys1
 001B:000B1A40       aWm610Inspire1D
 001B:000B1A5C       aWm610Inspire16
 001B:000B1A80       aUsleep100000_0
 001B:000B1A90       aPkill10Usbclie_0
 001B:000B1AA8       aSleep1_0
 001B:000B1AB4       aUsbclient
 001B:000B1AC0       aRestartProc
 001B:000B1AD0       aUpdate_0
 001B:000B1ADC       aReboot
 001B:000B1AE4       aG711
 001B:000B1AEC       aG711dec
 001B:000B1AF4       aG711Speech
 001B:000B1B04       aAac
 001B:000B1B0C       aAacdec
 001B:000B1B14       aAac_0
 001B:000B1B18       aMpeg4
 001B:000B1B20       aM4v
 001B:000B1B28       a264_0
 001B:000B1B30       aMpeg2
 001B:000B1B38       aM2v
 001B:000B1B40       aMpeg4dec
 001B:000B1B4C       aMpeg4SpVideo
 001B:000B1B5C       aH264dec
 001B:000B1B64       aH264HpVideo
 001B:000B1B74       aMpeg2dec
 001B:000B1B80       aMpeg2Video
 001B:000B1B8C       aDecode
 001B:000B1B94       aErrorFailedToO
 001B:000B1BBC       aErrorFailedToC
 001B:000B1BE8       aErrorFailedToC_0
 001B:000B1C14       aErrorFailedToC_1
 001B:000B1C48       aErrorFailedToG
 001B:000B1C6C       aErrorFailedToR
 001B:000B1C94       aDecodeErrorRet
 001B:000B1CB4       aFinddimensions
 001B:000B1CCC       aErrorFailedToG_0
 001B:000B1CF8       aErrorFailedToC_2
 001B:000B1D38       aErrorFailedToE
 001B:000B1D74       aErrorFailedToE_0
 001B:000B1DA4       aErrorFailedToC_3
 001B:000B1DCC       aFifoCreateErro
 001B:000B1DE0       aErrorFailedToA
 001B:000B1E08       aFileNotFound
 001B:000B1E18       aRecTimeOut
 001B:000B1E28       aNotSupport
 001B:000B1E34       aSHinbufOverflo
 001B:000B1E48       aSAucbufftempOv
 001B:000B1E60       aDecodeSyncband
 001B:000B1E88       aErrorFailedToP
 001B:000B1EB0       aDecodeDetectDi
 001B:000B1ED0       aDecodeDetectDi_0
 001B:000B1F08       aLatency1D
 001B:000B1F18       aLatency2D
 001B:000B1F28       aLatency3D
 001B:000B1F38       aDisplaybuffnum
 001B:000B1F4C       aDisplaybuffnum_0
 001B:000B1F60       aReboot_0
 001B:000B1F68       aErrorFailedToR_0
 001B:000B1F88       aDevVencOff
 001B:000B1F98       aSetVencXoffToD
 001B:000B1FB0       aErrorFailedToG_1
 001B:000B1FD4       aErrorFailedToI
 001B:000B2000       aFailedToPthrea
 001B:000B2028       aErrorFailedToS
 001B:000B2060       aErrorFailedToS_0
 001B:000B2090       aErrorFailedToS_1
 001B:000B20BC       aErrorFailedToC_4
 001B:000B20E4       aStardardNeedFi
 001B:000B20F8       aStartDecodeSta
 001B:000B2114       aDecodeStandard
 001B:000B2130       aStartDecodeStr
 001B:000B2150       aStartDecodeStr_0
 001B:000B2170       aErrorFailedToC_5
 001B:000B2198       aErrorFailedToC_6
 001B:000B21C0       aDecodeInitOkMa
 001B:000B21E4       default_scaling4
 001B:000B2204       default_scaling8
 001B:000B2284       zigzag_scan
 001B:000B2295       ff_zigzag_direct
 001B:000B22D8       aSpsIdError
 001B:000B22E8       aChromaFormatId
 001B:000B2300       aResidualColorT
 001B:000B2324       aBitDepthChroma
 001B:000B233C       aBitDepthChroma_0
 001B:000B2354       aLog2MaxFrameNu
 001B:000B2374       aTError
 001B:000B237C       aPocCycleLength
 001B:000B2394       aPocTypeError
 001B:000B23A4       aFt
 001B:000B23A8       aM
 001B:000B23AC       aMph
 001B:000B23B0       aMS
 001B:000B23B4       a1610
 001B:000B23BC       aPngCreateReadS_0
 001B:000B23E0       aPngCreateInfoS_0
 001B:000B2404       aSetjmpFailedS
 001B:000B2418       aRb
 001B:000B241C       aFopenFailedS
 001B:000B2430       aMallocFailedS
 001B:000B2444       aOptDjiDataPngI
 001B:000B246C       aOptDjiDataPngS
 001B:000B2494       aOptDjiDataPngI_0
 001B:000B24B4       aOptDjiDataPngS_0
 001B:000B24D8       aOptDjiDataPngI_1
 001B:000B24F8       aOptDjiDataPngS_1
 001B:000B251C       aOptDjiDataPngI_2
 001B:000B254C       aOptDjiDataPngS_2
 001B:000B2580       aOptDjiDataPngI_3
 001B:000B25A8       aOptDjiDataPngS_3
 001B:000B25D4       aOptDjiDataPngI_4
 001B:000B25FC       aOptDjiDataPngS_4
 001B:000B2628       aOptDjiDataPngA
 001B:000B264C       aOptDjiDataPngS_5
 001B:000B2670       aOptDjiDataPngA_0
 001B:000B2690       aOptDjiDataPngS_6
 001B:000B26B4       aOptDjiDataPngD
 001B:000B26D4       aOptDjiDataPngS_7
 001B:000B26F8       aOptDjiDataPngT
 001B:000B2718       aOptDjiDataPngS_8
 001B:000B273C       aOptDjiDataPngS_9
 001B:000B2764       aOptDjiDataPngS_10
 001B:000B278C       aOptDjiDataPngS_11
 001B:000B27B4       aOptDjiDataPngS_12
 001B:000B27DC       aOptDjiDataPngS_13
 001B:000B2804       aOptDjiDataPngS_14
 001B:000B282C       aOptDjiDataPngS_15
 001B:000B2854       aOptDjiDataPngS_16
 001B:000B287C       aOptDjiDataPngS_17
 001B:000B28A4       aOptDjiDataPngS_18
 001B:000B28CC       aOptDjiDataPngS_19
 001B:000B28F4       aOptDjiDataPngS_20
 001B:000B291C       aOptDjiDataPngI_5
 001B:000B2940       aOptDjiDataPngS_21
 001B:000B2968       C.30.10371
 001B:000B29F0       aOsdInitSingleP
 001B:000B2A10       aFtInitFreetype_0
 001B:000B2A28       aOptDjiDataFont
 001B:000B2A4C       aFtNewFaceFaile
 001B:000B2A60       aFtLoadCharFail
 001B:000B2A78       aOsdFontSizeExc
 001B:000B2A9C       aMallocFailed
 001B:000B2AAC       aOsdInitFontSuc
 001B:000B2AC4       aErrorFailedToC_7
 001B:000B2AF0       aErrorFailedToG_2
 001B:000B2B18       aErrorFailedToP_0
 001B:000B2B40       aErrorFailedToC_8
 001B:000B2B6C       aErrorFailedToG_3
 001B:000B2B98       aErrorFailedToP_1
 001B:000B2BBC       aReboot_1
 001B:000B2BC4       aSSlosdtypeChan
 001B:000B2BE8       aOsdDisplayInit
 001B:000B2C04       aOsdDelete
 001B:000B2C10       aOsdDisable
 001B:000B2C1C       aMarginChangedL
 001B:000B2C54       aErrorFailedToP_2
 001B:000B2C78       aFailsafe
 001B:000B2C84       aManual
 001B:000B2C8C       aAtti
 001B:000B2C94       aPAtti
 001B:000B2C9C       aPGps
 001B:000B2CA4       aPOpti
 001B:000B2CAC       aTakeoff
 001B:000B2CB4       aLanding
 001B:000B2CBC       aNavi
 001B:000B2CC4       aGohome
 001B:000B2CCC       aClickgo
 001B:000B2CD4       aJoystick
 001B:000B2CE0       aNA
 001B:000B2CE4       aCl
 001B:000B2CE8       aHl
 001B:000B2CEC       aPl
 001B:000B2CF0       a02d02d
 001B:000B2CFC       aD_0
 001B:000B2D04       aH
 001B:000B2D08       a61f
 001B:000B2D10       aD_1
 001B:000B2D14       aAz
 001B:000B2D18       a3d
 001B:000B2D1C       aHS
 001B:000B2D24       aVS
 001B:000B2D2C       aPkill10Usbclie_1
 001B:000B2D44       aSleep1_1
 001B:000B2D50       aUsbmanage
 001B:000B2D5C       aMoterupTrue
 001B:000B2D6C       aMoterupFalse
 001B:000B2D7C       aGetabcommonosd
 001B:000B2D94       aUsbstorageIn
 001B:000B2DB8       aUsbUpdateCheck
 001B:000B2DE4       aUsbUpdateCheck_0
 001B:000B2E10       aUsbstorageOut
 001B:000B2E34       aCeDebug
 001B:000B2E40       a67Ce3GtTime0Gt
 001B:000B2E64       a67GtPrefix1235
 001B:000B2E84       a01234567Ce3TiS
 001B:000B2EDC       a01234567Cr67Ti
 001B:000B2F2C       a01234567Ce3GtT
 001B:000B2F58       a01234567GtPref
 001B:000B2F80       aCeCheck
 001B:000B2F8C       a7
 001B:000B2F90       aCeTrace
 001B:000B2F9C       aPackageGnuTarg
 001B:000B3044       aPackageTiXdais
 001B:000B30F4       aPackageTiSdoLi
 001B:000B319C       aPackageTiSdoLi_0
 001B:000B3244       aPackageTiSdoFc
 001B:000B32E4       aPackageTiSdoFc_0
 001B:000B3388       aPackageTiSdoFc_1
 001B:000B3430       aPackageTiXdais_0
 001B:000B34B8       aPackageTiSdoFc_2
 001B:000B356C       aPackageIttiamC
 001B:000B360C       aPackageTiSdoFc_3
 001B:000B36B0       aPackageTiSdoFc_4
 001B:000B3760       aPackageTiSdoLi_1
 001B:000B3808       aPackageTiSdoFc_5
 001B:000B38B8       aPackageTiSdoUt
 001B:000B3960       aPackageTiSdoFc_6
 001B:000B3A0C       aPackageTiSdoCo
 001B:000B3AB4       aPackageTiSdoCo_0
 001B:000B3B5C       aPackageTiSdoFc_7
 001B:000B3C18       aPackageTiSdoFc_8
 001B:000B3CB8       aPackageTiSdoFc_9
 001B:000B3D5C       aPackageTiSdoFc_10
 001B:000B3E10       aPackageTiSdoFc_11
 001B:000B3EC8       aPackageTiSdoFc_12
 001B:000B3F74       aPackageTiSdoFc_13
 001B:000B401C       aPackageTiSdoCo_1
 001B:000B40C4       aPackageTiSdoCe
 001B:000B4160       aPackageTiXdais_1
 001B:000B41EC       aPackageTiSdoCe_0
 001B:000B4290       aPackageTiSdoCe_1
 001B:000B4328       aPackageTiSdoFc_14
 001B:000B43CC       aPackageTiSdoFc_15
 001B:000B4470       aPackageGnuTarg_0
 001B:000B4500       aPackageGnuTarg_1
 001B:000B459C       aPackageTiCatal
 001B:000B4634       aPackageTiCatal_0
 001B:000B46C0       aPackageTiPlatf
 001B:000B4764       aPackageTiSdoCe_2
 001B:000B47FC       aPackageTiSdoCe_3
 001B:000B48A0       aPackageTiSdoCe_4
 001B:000B4938       aPackageTiSdoCe_5
 001B:000B49DC       aPackageTiSdoCe_6
 001B:000B4A74       aPackageTiSdoCe_7
 001B:000B4B04       aPackageTiSdoCe_8
 001B:000B4BA0       aPackageTiSdoCo_2
 001B:000B4C50       aPackageTiSdoCo_3
 001B:000B4CFC       aPackageTiSdoCe_9
 001B:000B4D9C       aPackageTiSdoCe_10
 001B:000B4E54       aPackageTiSdoCe_11
 001B:000B4EF0       aPackageIttiamC_0
 001B:000B4F98       aPackageTiSdoCo_4
 001B:000B5048       aPackageTiSdoCe_12
 001B:000B50E4       aPackageTiSdoCe_13
 001B:000B5180       aPackageTiSdoCe_14
 001B:000B521C       aPackageTiSdoCe_15
 001B:000B52B8       aPackageTiSdoCe_16
 001B:000B5354       aPackageTiSdoCe_17
 001B:000B53F0       aPackageTiSdoDm
 001B:000B547C       aPackageUsbclie
 001B:000B54E8       aLocal
 001B:000B54F0       aDecode_0
 001B:000B54F8       aMpeg4dec_0
 001B:000B5504       aTiSdoCeVideo2I
 001B:000B5520       aH264dec_0
 001B:000B5528       aMpeg2dec_0
 001B:000B5534       aG711dec_0
 001B:000B553C       aTiSdoCeSpeech1
 001B:000B5558       aAacdec_0
 001B:000B5560       aTiSdoCeAudio1I
 001B:000B557C       Buffer_Memory_Params_DEFAULT
 001B:000B558C       Buffer_Attrs_DEFAULT
 001B:000B55A4       aBufferMustProv
 001B:000B55C4       aBufferUnknownB
 001B:000B55E8       aBufferFailedTo
 001B:000B5620       aFailedToAlloca
 001B:000B563C       aBufferAllocBuf
 001B:000B5674       __PRETTY_FUNCTION__.2812
 001B:000B5684       aHbuf
 001B:000B568C       aBufferC
 001B:000B5698       aAttrs
 001B:000B56A0       aBufferFailedTo_0
 001B:000B56D4       aYes
 001B:000B56D8       aNo
 001B:000B56DC       aD0xX0xXPhysNum
 001B:000B5728       aWidthDHeightDL
 001B:000B5750       aWidthDDHeightD
 001B:000B578C       __PRETTY_FUNCTION__.2890
 001B:000B57A0       __PRETTY_FUNCTION__.2903
 001B:000B57B4       __PRETTY_FUNCTION__.2909
 001B:000B57C8       __PRETTY_FUNCTION__.2916
 001B:000B57DC       __PRETTY_FUNCTION__.2924
 001B:000B57EC       __PRETTY_FUNCTION__.2932
 001B:000B5800       __PRETTY_FUNCTION__.2940
 001B:000B5818       __PRETTY_FUNCTION__.2948
 001B:000B5828       __PRETTY_FUNCTION__.2961
 001B:000B5840       __PRETTY_FUNCTION__.2969
 001B:000B5850       __PRETTY_FUNCTION__.2977
 001B:000B5868       __PRETTY_FUNCTION__.2986
 001B:000B5880       __PRETTY_FUNCTION__.2993
 001B:000B5890       __PRETTY_FUNCTION__.3000
 001B:000B58A4       __PRETTY_FUNCTION__.3007
 001B:000B58B8       aBufferSetUserP
 001B:000B58E8       __PRETTY_FUNCTION__.3038
 001B:000B58F8       __PRETTY_FUNCTION__.3050
 001B:000B5910       __PRETTY_FUNCTION__.3058
 001B:000B5924       __PRETTY_FUNCTION__.3066
 001B:000B5938       aBufferFreeBuff
 001B:000B5970       __PRETTY_FUNCTION__.3111
 001B:000B597C       aHsrcbuf
 001B:000B5984       aHdstbuf
 001B:000B598C       aHsrcbufTypeBuf
 001B:000B59D8       aBufferCannotCo
 001B:000B5A04       BufferGfx_Attrs_DEFAULT
 001B:000B5A34       __PRETTY_FUNCTION__.2723
 001B:000B5A4C       aHbuf_0
 001B:000B5A54       aBuffergfxC
 001B:000B5A60       __PRETTY_FUNCTION__.2783
 001B:000B5A7C       aDimptr
 001B:000B5A84       __PRETTY_FUNCTION__.2802
 001B:000B5AA0       __PRETTY_FUNCTION__.2820
 001B:000B5AB8       aGfxobjectptr
 001B:000B5AC8       __PRETTY_FUNCTION__.2831
 001B:000B5AE0       __PRETTY_FUNCTION__.2839
 001B:000B5AF8       __PRETTY_FUNCTION__.2850
 001B:000B5B10       __PRETTY_FUNCTION__.2859
 001B:000B5B28       __PRETTY_FUNCTION__.2878
 001B:000B5B40       __PRETTY_FUNCTION__.2891
 001B:000B5B5C       __PRETTY_FUNCTION__.2907
 001B:000B5B74       __PRETTY_FUNCTION__.2915
 001B:000B5B90       __PRETTY_FUNCTION__.2925
 001B:000B5BA8       __PRETTY_FUNCTION__.2937
 001B:000B5BB8       aGfxobjptr
 001B:000B5BC4       __PRETTY_FUNCTION__.2948_0
 001B:000B5BD8       aBuftabMustProv
 001B:000B5BF8       aBuftabFailedTo
 001B:000B5C30       aBuftabAllocati
 001B:000B5C5C       aBuftabFailedTo_0
 001B:000B5C94       aBuftabFailedTo_1
 001B:000B5CC0       aBuftabFailedTo_2
 001B:000B5CF4       __PRETTY_FUNCTION__.2904
 001B:000B5D04       aHbuftab
 001B:000B5D0C       aBuftabC
 001B:000B5D18       aHbuftabNumbufs
 001B:000B5D30       aBuftabFailedTo_3
 001B:000B5D54       __PRETTY_FUNCTION__.2995
 001B:000B5D64       aBufsize0
 001B:000B5D70       aNumbufs0
 001B:000B5D7C       aBuftabBuftabAl
 001B:000B5DB0       aBuftabTryingTo
 001B:000B5E14       aBuftabFailedTo_4
 001B:000B5E40       aBuftabNewChunk
 001B:000B5E84       __PRETTY_FUNCTION__.3123
 001B:000B5E94       __PRETTY_FUNCTION__.3179
 001B:000B5EA4       aBuftab
 001B:000B5EAC       __PRETTY_FUNCTION__.3192
 001B:000B5EBC       __PRETTY_FUNCTION__.3205
 001B:000B5ED0       __PRETTY_FUNCTION__.3235
 001B:000B5EE0       __PRETTY_FUNCTION__.3247
 001B:000B5EF4       __PRETTY_FUNCTION__.3255
 001B:000B5F04       aHbuf_1
 001B:000B5F0C       aColorspaceUnkn
 001B:000B5F3C       Framecopy_Attrs_DEFAULT
 001B:000B5F48       aFramecopyWidth
 001B:000B5F74       __PRETTY_FUNCTION__.2775
 001B:000B5F80       aBufferGetuserp
 001B:000B5F9C       aFramecopyC
 001B:000B5FA8       aBufferGetuserp_0
 001B:000B5FC4       aBuffergfxGetco
 001B:000B6090       aBuffergfxGetco_0
 001B:000B615C       aSrcdimY0x10
 001B:000B6174       aDstdimY0x10
 001B:000B618C       aFramecopyCanno
 001B:000B61C0       aFramecopyFaile
 001B:000B61FC       __PRETTY_FUNCTION__.2986_0
 001B:000B6214       aHsrcbuf_0
 001B:000B621C       aHdstbuf_0
 001B:000B6224       aBufferGettypeH
 001B:000B6254       aBufferGettypeH_0
 001B:000B6284       aFramecopyFrame
 001B:000B62D4       __PRETTY_FUNCTION__.3025
 001B:000B62E8       Loader_Attrs_DEFAULT
 001B:000B630C       aLoaderMustSupp
 001B:000B6344       aLoaderFailedTo
 001B:000B6370       aLoaderCreating
 001B:000B63C4       aRb_0
 001B:000B63C8       aLoaderFailedTo_0
 001B:000B63E4       aLoaderFailedTo_1
 001B:000B6420       aLoaderFailedSe
 001B:000B6454       aLoaderFailedTo_2
 001B:000B6480       aLoaderFailedTo_3
 001B:000B64B4       aLoaderFailedTo_4
 001B:000B64DC       __PRETTY_FUNCTION__.3140
 001B:000B64EC       aHloader
 001B:000B64F4       aLoaderC
 001B:000B6500       aHbufptr
 001B:000B6508       aLoaderErrorRea
 001B:000B6538       aLoaderFileIs0B
 001B:000B6554       aLoaderFailedTo_5
 001B:000B6578       aLoaderFailedTo_6
 001B:000B65A4       aLoaderFailedTo_7
 001B:000B65CC       __PRETTY_FUNCTION__.3224
 001B:000B65DC       aLoaderYouNeedA
 001B:000B6604       aLoaderErrorRea_0
 001B:000B662C       __PRETTY_FUNCTION__.3343
 001B:000B663C       aHbuf_2
 001B:000B6644       aHbufHloaderHbu
 001B:000B665C       aLoaderReaderNo
 001B:000B668C       aLoaderFailedTo_8
 001B:000B66BC       __PRETTY_FUNCTION__.1852
 001B:000B66D4       aWidthptr
 001B:000B66E0       aVideostdC
 001B:000B66EC       aHeightptr
 001B:000B66F8       aVideostdUnknow
 001B:000B6720       Vdec2_Params_DEFAULT
 001B:000B673C       Vdec2_DynamicParams_DEFAULT
 001B:000B6758       __PRETTY_FUNCTION__.3629
 001B:000B676C       aCeVdec2C
 001B:000B6778       aHinbuf
 001B:000B6780       aHdstbuf_1
 001B:000B6788       aBufferGetuserp_1
 001B:000B67A4       aBufferGetuserp_2
 001B:000B67C0       aBufferGetnumby
 001B:000B67E0       aBufferGetsizeH
 001B:000B67F8       aBufferGettypeH_1
 001B:000B6828       aOffsetBufferGe
 001B:000B684C       aVdec2Unsupport
 001B:000B6884       aVdec2Viddec2Pr
 001B:000B68C4       aVdec2Viddec2Pr_0
 001B:000B6900       aVdec2Viddec2Pr_1
 001B:000B6930       aVdec2FrameDoes
 001B:000B6960       __PRETTY_FUNCTION__.3858
 001B:000B6970       __PRETTY_FUNCTION__.4073
 001B:000B6984       aVdec2XdmGetbuf
 001B:000B69AC       aVdec2MadeXdmGe
 001B:000B69D8       __PRETTY_FUNCTION__.4110
 001B:000B69E4       aVdec2CannotPas
 001B:000B6A30       aVdec2FailedToA
 001B:000B6A64       aVdec2FailedToO
 001B:000B6A94       aVdec2VideoDeco
 001B:000B6ABC       aVdec2XdmSetpar
 001B:000B6AE4       aVdec2MadeXdmSe
 001B:000B6B10       __PRETTY_FUNCTION__.4219
 001B:000B6B20       __PRETTY_FUNCTION__.4225
 001B:000B6B30       __PRETTY_FUNCTION__.4235
 001B:000B6B44       __PRETTY_FUNCTION__.4249
 001B:000B6B58       __PRETTY_FUNCTION__.4257
 001B:000B6B6C       __PRETTY_FUNCTION__.4273
 001B:000B6B80       __PRETTY_FUNCTION__.4289
 001B:000B6B94       aDevFb2
 001B:000B6BA0       Display_Attrs_DM6446_DM355_ATTR_DEFAULT
 001B:000B6BD4       aDevFb0
 001B:000B6BE0       Display_Attrs_DM6446_DM355_OSD_DEFAULT
 001B:000B6C14       aDevFb3
 001B:000B6C20       Display_Attrs_DM6446_DM355_VID_DEFAULT
 001B:000B6C54       aDevFb0_0
 001B:000B6C60       Display_Attrs_OMAPL137_OSD_DEFAULT
 001B:000B6C94       Display_Attrs_OMAPL138_OSD_DEFAULT
 001B:000B6CC8       aDevVideo2_0
 001B:000B6CD4       Display_Attrs_OMAPL138_VID_DEFAULT
 001B:000B6D08       Display_Attrs_DM6467_VID_DEFAULT
 001B:000B6D3C       Display_Attrs_DM365_VID_DEFAULT
 001B:000B6D70       Display_Attrs_DM365_OSD_DEFAULT
 001B:000B6DA4       Display_Attrs_DM365_ATTR_DEFAULT
 001B:000B6DD8       aDevVideo1
 001B:000B6DE4       Display_Attrs_O3530_VID_DEFAULT
 001B:000B6E18       Display_Attrs_O3530_OSD_DEFAULT
 001B:000B6E4C       aDisplayDelayst
 001B:000B6E8C       aTiSdoDmai
 001B:000B6E9C       aTiSdoDmai67
 001B:000B6EAC       aTiSdoDmai01234
 001B:000B6EC4       aDmaiLogLevelSe
 001B:000B6EE4       aDmaiUsingLogLe
 001B:000B6F10       aTiSdoDmai_0
 001B:000B6F1C       aDmaiDebug
 001B:000B6F28       aDmaiDmaiLogLev
 001B:000B6FB4       Fifo_Attrs_DEFAULT
 001B:000B6FB8       aFifoNullAttrsN
 001B:000B6FDC       aFifoFailedToAl
 001B:000B7010       __PRETTY_FUNCTION__.3329
 001B:000B701C       aHfifo
 001B:000B7024       aLinuxFifoC
 001B:000B7034       aPtrptr
 001B:000B703C       __PRETTY_FUNCTION__.3360
 001B:000B7048       __PRETTY_FUNCTION__.3375
 001B:000B7058       __PRETTY_FUNCTION__.3395
 001B:000B706C       Time_Attrs_DEFAULT
 001B:000B7070       aTimeNullAttrsN
 001B:000B7094       aTimeFailedToAl
 001B:000B70C8       __PRETTY_FUNCTION__.2372
 001B:000B70D4       aHtime
 001B:000B70DC       aLinuxTimeC
 001B:000B70EC       __PRETTY_FUNCTION__.2387
 001B:000B70F8       aDeltaptr
 001B:000B7104       __PRETTY_FUNCTION__.2411
 001B:000B7110       aTotalptr
 001B:000B711C       aDisplayFailedF
 001B:000B7148       aDisplayFailedF_0
 001B:000B7170       aDisplayFailedF_1
 001B:000B719C       aDisplayFailedI
 001B:000B71D0       aDisplayMustSup
 001B:000B71F4       aDisplayFbdevDi
 001B:000B7234       aDisplayFailedT
 001B:000B726C       aDisplayFailedT_0
 001B:000B7298       aDisplayFailedF_2
 001B:000B72CC       aDisplayFailedF_3
 001B:000B7300       aDisplayFoundWi
 001B:000B7358       aDisplaySetting
 001B:000B73A0       aDisplayFailedF_4
 001B:000B73D4       aDisplayNewWidt
 001B:000B7428       aDisplayFailedT_1
 001B:000B7464       aDisplayFailedM
 001B:000B7488       aDisplayDisplay
 001B:000B74D0       aDisplayDisplay_0
 001B:000B7514       aDisplayErrorEn
 001B:000B7534       __PRETTY_FUNCTION__.4835
 001B:000B7548       aHdisplay
 001B:000B7554       aLinuxDm365Disp
 001B:000B7570       aHbufptr_0
 001B:000B7578       aDisplayFailedF_5
 001B:000B75A4       __PRETTY_FUNCTION__.4865
 001B:000B75B8       aHbuf_3
 001B:000B75C0       aDisplayVidiocS
 001B:000B75E8       aDisplayFailedT_2
 001B:000B7614       aDisplayFailedT_3
 001B:000B7644       __PRETTY_FUNCTION__.4403
 001B:000B7658       aAttrs_0
 001B:000B7660       aLinuxDm365Disp_0
 001B:000B767C       aDisplayFailedT_4
 001B:000B76B4       aDevVideo2
 001B:000B76C0       aDevVideo3
 001B:000B76CC       aDisplaySNotADi
 001B:000B76F0       aDisplayCannotO
 001B:000B7710       aDisplayFailedT_5
 001B:000B7744       aDisplayUnsuppo
 001B:000B776C       aDisplayVideoOu
 001B:000B77AC       aDisplayFailedV
 001B:000B77D8       aDisplayFailedT_6
 001B:000B7814       aDisplayFailedT_7
 001B:000B7850       aDisplayVidiocS_0
 001B:000B7880       aDisplayVidiocG
 001B:000B78A8       aDisplaySetting_0
 001B:000B78E0       aDisplayVidiocS_1
 001B:000B7908       aDisplayDriverD
 001B:000B793C       __PRETTY_FUNCTION__.4741
 001B:000B7950       aHdisplay_0
 001B:000B795C       aHbufptr_1
 001B:000B7964       aDisplayVidiocD
 001B:000B7988       __PRETTY_FUNCTION__.4782
 001B:000B799C       aHbuf_4
 001B:000B79A4       aDisplayFailedT_8
 001B:000B79DC       aDisplayNoV4l2B
 001B:000B7A04       aDisplayVidiocQ
 001B:000B7A28       aDisplayVidiocS_2
 001B:000B7A50       aDisplayVidiocS_3
 001B:000B7A78       aDisplayYdoffse
 001B:000B7AAC       aDisplayVidiocS_4
 001B:000B7AD4       aFramecopyFaile_0
 001B:000B7B10       aDevDm365mmap
 001B:000B7B20       aFramecopyFaile_1
 001B:000B7B40       __PRETTY_FUNCTION__.3679
 001B:000B7B58       aFramecopyFaile_2
 001B:000B7B80       aSrcdimY0x10_0
 001B:000B7B98       aLinuxDm365Fram
 001B:000B7BB8       aDstdimY0x10_0
 001B:000B7BD0       aSvideo
 001B:000B7BD8       aComposite_0
 001B:000B7BE4       aComponent_0
 001B:000B7BF0       aLcd
 001B:000B7BF4       aDvi
 001B:000B7BF8       aVga
 001B:000B7BFC       aNtsc
 001B:000B7C04       aPal
 001B:000B7C08       a480p60_0
 001B:000B7C10       a576p50_0
 001B:000B7C18       a720p60
 001B:000B7C20       a720p50
 001B:000B7C28       a720p30
 001B:000B7C30       a1080i30
 001B:000B7C3C       a1080i25
 001B:000B7C48       aR
 001B:000B7C4C       aDmaiFailedToOp
 001B:000B7C74       aDmaiFailedToRe
 001B:000B7CA8       aDmaiFailedToAl
 001B:000B7CE0       aW
 001B:000B7CE4       aDmaiFailedToOp_0
 001B:000B7D0C       aDmaiFailedToWr
 001B:000B7D3C       aDmaiFailedToVe
 001B:000B7D78       aSysClassDavinc
 001B:000B7DA0       aDmaiSettingVid
 001B:000B7DC8       aDmaiUnsupporte
 001B:000B7DEC       aMode
 001B:000B7DF4       aDmaiSettingVid_0
 001B:000B7E1C       aDmaiUnsupporte_0
 001B:000B7E44       __PRETTY_FUNCTION__.4182
 001B:000B7E54       aUint32Bufptr0x
 001B:000B7E74       aLinuxDm365Vide
 001B:000B7E8C       aDmaiUnsupporte_1
 001B:000B7EC8       aDmaiCouldNotAl
 001B:000B7EFC       aDmaiInsufficie
 001B:000B7F30       aDmaiFailedToAl_0
 001B:000B7F68       aDmaiFailedToGe
 001B:000B7FA0       aDmaiBufferSupp
 001B:000B7FDC       aDmaiViodicQbuf
 001B:000B7FFC       aDmaiVidiocGFmt
 001B:000B8020       aDmaiVidiocReqb
 001B:000B8044       aDmaiFailedVidi
 001B:000B8068       aDmaiFailedToMm
 001B:000B808C       aDmaiDriverBuff
 001B:000B80D0       aDmaiViodiocQbu
 001B:000B80F4       aFe4c1376
 001B:000B8100       aTiSdoFcIresAdd
 001B:000B811C       aInargs
 001B:000B8124       aOutargs
 001B:000B812C       aViddec2Process_0
 001B:000B8188       aViddec2Process_1
 001B:000B8198       aErrorAppProvid
 001B:000B81EC       aInbufs
 001B:000B81F4       aOutbufs
 001B:000B81FC       aErrorCodec0xXR
 001B:000B8238       aErrorCodec0xXM
 001B:000B8270       aDecodedbufs
 001B:000B827C       aDisplaybufs
 001B:000B8288       aViddec2Process
 001B:000B82BC       aViddec2DeleteE
 001B:000B82E4       aViddec2DeleteR
 001B:000B82FC       aTiSdoCeVideo2V_0
 001B:000B8318       aViddec2CreateE
 001B:000B8358       aViddec2CreateR
 001B:000B8378       aDynparams
 001B:000B8384       aStatus
 001B:000B838C       aViddec2Control_0
 001B:000B83F0       aViddec2Control_1
 001B:000B8400       aErrorCodec0xXM_1
 001B:000B843C       aErrorCodec0xXM_2
 001B:000B8478       aErrorCodec0xXM_0
 001B:000B84BC       aViddec2Control
 001B:000B84F0       aServerSettrace
 001B:000B8510       aAssertionViola
 001B:000B8534       aServerC
 001B:000B8540       aServerRestoreh
 001B:000B8560       aServerRedefine
 001B:000B8590       aCs
 001B:000B8594       aServerInit
 001B:000B85A4       aServerInitGlob
 001B:000B85D0       aServerGetnumme
 001B:000B85F4       aServerGetnumal
 001B:000B8618       aServerGetmemst
 001B:000B8640       aServerGetcpulo
 001B:000B865C       aServerGetalgin
 001B:000B8684       aServerFwritetr
 001B:000B86AC       aServerDisconne_0
 001B:000B86D4       aServerDisconne
 001B:000B86F8       aServerConnectt_0
 001B:000B871C       aServerConnectt
 001B:000B8748       __PRETTY_FUNCTION__.5265
 001B:000B8754       __PRETTY_FUNCTION__.5117
 001B:000B8760       serverTabInit.5309
 001B:000B876C       __PRETTY_FUNCTION__.4226
 001B:000B8780       C.264.5646
 001B:000B878C       aEngineC
 001B:000B8798       aEngineGetserve_1
 001B:000B87C0       aEngineGetserve
 001B:000B882C       aEngineGetserve_0
 001B:000B8858       aEngineGetserve_2
 001B:000B8874       aEngineCtrlnode_0
 001B:000B8898       aEngineCtrlnode
 001B:000B88BC       aStatus0
 001B:000B88C8       aEngineSettrace_1
 001B:000B88F8       aEngineSettrace_0
 001B:000B8948       aEngineSettrace_2
 001B:000B8978       aEngineSettrace
 001B:000B8998       aEngineGetusedm
 001B:000B89B4       aEngineRestoreh_0
 001B:000B89D0       aEngineRestoreh
 001B:000B8A08       aEngineRedefine_0
 001B:000B8A30       aEngineRedefine
 001B:000B8A68       aEngineGetcpulo
 001B:000B8A84       aEngineGetcpulo_0
 001B:000B8AB8       aEngineGetalgnu_0
 001B:000B8ADC       aEngineGetalgnu
 001B:000B8B00       aEngineGetalgme_0
 001B:000B8B30       aEngineGetalgme_1
 001B:000B8BAC       aEngineGetalgme
 001B:000B8BD0       aEngineGetnumme_0
 001B:000B8BF4       aEngineGetnumme
 001B:000B8C2C       aEngineGetnumse_0
 001B:000B8C54       aEngineGetnumse
 001B:000B8C8C       aEngineGetnumse_1
 001B:000B8CC8       aEngineGetnumse_2
 001B:000B8CFC       aEngineGetnumse_3
 001B:000B8D20       aEngineGetmemst_0
 001B:000B8D48       aEngineGetmemst
 001B:000B8D80       aEngineGetnumal
 001B:000B8DA0       aEngineGetnumal_0
 001B:000B8DC8       aEngineGetalgin_0
 001B:000B8DF8       aEngineGetalgin
 001B:000B8E70       aEngineGetalgin_1
 001B:000B8EBC       aEngineGetalgin_3
 001B:000B8EE4       aEngineGetalgin_2
 001B:000B8F58       aEngineFreeserv_1
 001B:000B8F7C       aEngineFreeserv_0
 001B:000B8FB0       aEngineFreeserv
 001B:000B8FD0       aEngineAddstubf
 001B:000B9000       aCe
 001B:000B9004       aEngineInitCeDe
 001B:000B9060       aServerlockVoid
 001B:000B907C       aTracelockVoid0
 001B:000B9098       aEnginelockVoid
 001B:000B90B4       aEngineInitDesc
 001B:000B911C       aEngineFwritetr
 001B:000B9144       aEngineFwritetr_0
 001B:000B9170       aEngineFwritetr_1
 001B:000B9194       aEngineFwritetr_2
 001B:000B91CC       aEngineFwritetr_3
 001B:000B9218       aArmWarningLost
 001B:000B92F4       aEngineFwritetr_4
 001B:000B9320       aDsp
 001B:000B9328       aEngineInitfrom_0
 001B:000B9348       aEngineInitfrom
 001B:000B9370       aEngineInitfrom_1
 001B:000B93BC       aEngineInitfrom_8
 001B:000B93FC       aEngineInitfrom_7
 001B:000B9450       aEngineInitfrom_14
 001B:000B94B0       aEngineInitfrom_10
 001B:000B94FC       aEngineInitfrom_12
 001B:000B9540       aEngineInitfrom_11
 001B:000B958C       aEngineInitfrom_13
 001B:000B95C8       aEngineInitfrom_4
 001B:000B9608       aEngineInitfrom_9
 001B:000B9654       aEngineInitfrom_3
 001B:000B96B0       aEngineInitfrom_16
 001B:000B96E4       aEngineInitfrom_15
 001B:000B9728       aEngineInitfrom_6
 001B:000B97B8       aEngineInitfrom_5
 001B:000B9878       aEngineInitfrom_2
 001B:000B98A8       aEngineDeleteno
 001B:000B98C4       aEngineDeleteno_0
 001B:000B9928       aEngineCreateno_0
 001B:000B9964       aEngineCreateno_1
 001B:000B99B4       aEngineCreateno_2
 001B:000B99EC       aEngineAllocnod
 001B:000B9A20       aGppfromnodeLuU
 001B:000B9A34       aEngineAllocnod_0
 001B:000B9A70       aEngineAllocnod_1
 001B:000B9AAC       aEngineCreateno_3
 001B:000B9AD8       aEngineCreateno_4
 001B:000B9B10       aEngineCreateno_5
 001B:000B9B48       aEngineCreateno_6
 001B:000B9B78       aEngineCreateno_7
 001B:000B9BEC       aEngineCreateno_8
 001B:000B9C10       aEngineCreateno
 001B:000B9C44       aEngineClose0xL
 001B:000B9C5C       aRserverclose0x_0
 001B:000B9C80       aRserverclose0x
 001B:000B9C9C       aEngineCloseExi
 001B:000B9CB0       aEngineOpenEnte
 001B:000B9CD8       aRserveropenSCo
 001B:000B9CF8       aRserveropenCan_0
 001B:000B9D30       aRserveropenCan
 001B:000B9D68       aRserveropenS0x
 001B:000B9D88       aSLuU
 001B:000B9D94       aRmsq
 001B:000B9D9C       aCheckserver0xL_0
 001B:000B9DB0       aGetserverkey0x
 001B:000B9DDC       aServerMajorDSo
 001B:000B9E14       aEngineMajorDSo
 001B:000B9E4C       aCheckserver0xL
 001B:000B9E88       aCeDsp0trace
 001B:000B9E98       aRmsinitRmsInit
 001B:000B9EE4       aRmsinit0xLxSet
 001B:000B9F14       aEngineOpenEngi
 001B:000B9F38       aEngineOpenWarn
 001B:000B9F98       aEngineOpenRetu
 001B:000B9FB4       aEngineGetfxnsU
 001B:000B9FE0       aEngineGetconst
 001B:000BA020       __PRETTY_FUNCTION__.4438
 001B:000BA030       aVisaGetmaxmsgs
 001B:000BA05C       aVisaAllocmsgAl
 001B:000BA094       aVisaAllocmsgFa
 001B:000BA0E8       aVisaCmdVisaCmd
 001B:000BA118       aVisaC
 001B:000BA120       aVisaFreemsg0xX
 001B:000BA164       aVisaFreemsgFai
 001B:000BA18C       aVisaExitVisa0x
 001B:000BA1B4       aCodecHandle0xX
 001B:000BA1D8       aCodecHandle0xX_0
 001B:000BA1FC       aVisaEnterVisa0
 001B:000BA228       aThreadid0xXCod
 001B:000BA258       aVisaDelete0xX
 001B:000BA26C       aVisaDeleteDele
 001B:000BA2B0       aVisaDeleteDele_0
 001B:000BA2D4       aVisaDeleteEngi
 001B:000BA314       aVisaWaitVisa0x
 001B:000BA338       aVisaWaitEngine
 001B:000BA380       aVisaWaitComple_0
 001B:000BA3C0       aVisaWaitComple
 001B:000BA408       aVisaCallasyncV
 001B:000BA450       aVisaCallasyncC
 001B:000BA498       aVisaCallVisa0x
 001B:000BA4D8       aVisaCallComple
 001B:000BA520       aCv
 001B:000BA524       aVisaCreate20xX
 001B:000BA558       aVisaCreate2Nam_0
 001B:000BA5BC       aVisaCreate2Nam
 001B:000BA604       aVisaCreate2Una
 001B:000BA630       aVisaCreate2Fai_0
 001B:000BA6A4       aVisaCreate2Fai_1
 001B:000BA6D4       aVisaCreateLoca
 001B:000BA710       aVisaCreate2Fai_2
 001B:000BA740       aVisaCreate2Fai
 001B:000BA770       aVisaCreate2Fai_3
 001B:000BA7A8       aVisaCreateRemo
 001B:000BA800       aVisaCreate0xXS
 001B:000BA82C       a106
 001B:000BA834       aTiSdoCeVersion_0
 001B:000BA894       aAlgorithmRemov_0
 001B:000BA8C0       aAlgorithmRemov
 001B:000BA8E0       aTiSdoCeAlgAlgo
 001B:000BA8F8       aAlgorithmNoosC
 001B:000BA90C       aAlgorithmDelet_1
 001B:000BA930       aAlgorithmDelet_0
 001B:000BA978       aAlgorithmDelet
 001B:000BA990       aAlgorithmDeact_0
 001B:000BA9B8       aAlgorithmDeact
 001B:000BA9D4       aAlgorithmCreat_2
 001B:000BAA34       aAlgorithmCreat_1
 001B:000BAA5C       aAlgorithmCreat_0
 001B:000BAAA0       aAlgorithmCreat_5
 001B:000BAB48       aAlgorithmCreat_3
 001B:000BAB9C       aAlgorithmCreat_4
 001B:000BABE8       aAlgorithmCreat
 001B:000BAC0C       aAlgorithmAddgr_0
 001B:000BAC34       aAlgorithmAddgr
 001B:000BAC5C       aAlgorithmActiv_0
 001B:000BAC84       aAlgorithmActiv
 001B:000BACA0       aAlgorithmRelea_0
 001B:000BACD4       aAlgorithmRelea
 001B:000BACF4       aAlgorithmAcqui_0
 001B:000BAD28       aAlgorithmAcqui
 001B:000BAD48       aAlgCreateEnter
 001B:000BADA4       aAlgCreateAlgnu
 001B:000BADCC       aAlgCreateAlgSA
 001B:000BAE14       aAlgCreateAlgal
 001B:000BAE40       aAlgCreateMemor
 001B:000BAE9C       aAlgCreateAlgin
 001B:000BAEC4       aAlgCreateExitA
 001B:000BAEE8       aAlgCreateAlgin_0
 001B:000BAF0C       aAlgCreateExitA_0
 001B:000BAF30       aAlgFreememory2
 001B:000BAF68       aAlgAllocmemory
 001B:000BAF9C       aAlgFreememoryM
 001B:000BAFC0       aAlgAllocmemory_0
 001B:000BAFF8       aAlgAllocmemory_2
 001B:000BB030       aAlgAllocmemory_1
 001B:000BB058       aAlgAllocmemory_3
 001B:000BB080       aAlgRemovegroup_1
 001B:000BB0A8       aAlgRemovegroup_0
 001B:000BB0D4       aAlgRemovegroup
 001B:000BB0EC       aTiSdoCeAlg
 001B:000BB0FC       aAlgInitEnter
 001B:000BB110       aAlgInitExit
 001B:000BB120       aAlgAddgroupEnt
 001B:000BB144       aAlgAddgroupGro
 001B:000BB16C       aAlgAddgroupFai
 001B:000BB1A8       aAlgAddgroupExi
 001B:000BB1CC       aAlgMallocC
 001B:000BB1DC       aOp
 001B:000BB1E0       aProcessorDelet_0
 001B:000BB204       aProcessorDelet_1
 001B:000BB230       aProcessorDelet
 001B:000BB24C       aProcessorCreat_0
 001B:000BB284       aProcessorCreat_2
 001B:000BB2B4       aProcessorCreat_1
 001B:000BB2D4       aProcessorCreat
 001B:000BB2F8       aDsp0
 001B:000BB300       aCommPosixC
 001B:000BB310       aCommReleaseEnt
 001B:000BB334       aNametoidEnterN
 001B:000BB350       aNametoidExitId
 001B:000BB36C       aCommLocateEnte
 001B:000BB39C       aCommLocateMsgg
 001B:000BB3B0       aOc
 001B:000BB3B4       aLogname
 001B:000BB3BC       aCommFreeEnterM
 001B:000BB3DC       aCommPutEnterQu
 001B:000BB404       aCommPut
 001B:000BB410       aCommDeleteEnte
 001B:000BB430       aCommDeleteRetu
 001B:000BB448       aCommAllocEnter
 001B:000BB47C       aCommAllocReque
 001B:000BB4C4       aCommAllocMsg0x
 001B:000BB4EC       aCommGetEnterQu
 001B:000BB520       aCommGet
 001B:000BB52C       aCommCreateEnte
 001B:000BB568       aMsggetKey0xX
 001B:000BB57C       aCommCreateMsgg
 001B:000BB590       aCommCreateRetu
 001B:000BB5AC       aLockmpPosixC
 001B:000BB5BC       aEnteredLockmpR
 001B:000BB5E0       aLeavingLockmpR
 001B:000BB604       aTiSdoCeOsalLoc
 001B:000BB61C       aEnteredLockmpD
 001B:000BB640       aLeavingLockmpD
 001B:000BB658       aLockmpCreateKe
 001B:000BB688       aLockmpCreateMe
 001B:000BB6AC       aLockmpCreateSe
 001B:000BB6D0       aLeavingLockmpC
 001B:000BB6F4       aEnteredLockmpA
 001B:000BB718       aLeavingLockmpA
 001B:000BB73C       aError
 001B:000BB744       __PRETTY_FUNCTION__.3908
 001B:000BB750       aMemoryDumpknow
 001B:000BB7A0       aVirt0x08lxSize
 001B:000BB7D4       aMemoryCachewbi
 001B:000BB7F4       aMemoryCachewbi_0
 001B:000BB814       aMemorySegstatE
 001B:000BB838       aMemoryGetbuffe_1
 001B:000BB878       aMemoryGetbuffe_0
 001B:000BB8BC       aMemoryGetvirtu
 001B:000BB8F8       aMemoryGetvirtu_1
 001B:000BB944       aMemoryGetvirtu_2
 001B:000BB9F4       aMemoryGetvirtu_0
 001B:000BBA28       aMemoryGetbuffe
 001B:000BBA58       aMemoryGetbuffe_3
 001B:000BBA98       aMemoryGetbuffe_4
 001B:000BBADC       aMemoryGetphysi_0
 001B:000BBB18       aMemoryGetphysi_1
 001B:000BBB70       aMemoryGetphysi
 001B:000BBBA8       aMemoryGetbuffe_6
 001B:000BBBE8       aMemoryGetbuffe_5
 001B:000BBC48       aMemoryGetbuffe_2
 001B:000BBC78       aOm
 001B:000BBC7C       aMemoryInitErro_0
 001B:000BBCB4       aMemoryCmemC
 001B:000BBCC4       aMemoryInitErro
 001B:000BBCF4       aProcessorCreat_3
 001B:000BBD24       aMemoryFreeEnte
 001B:000BBD48       aMemoryFreeRetu
 001B:000BBD64       aMemoryRemoveco
 001B:000BBD9C       aMemoryRemoveco_0
 001B:000BBDEC       aMemoryRemoveco_1
 001B:000BBE28       aMemoryUnregist
 001B:000BBE88       aMemoryContigfr_0
 001B:000BBEB4       aMemoryContigfr_2
 001B:000BBEE8       aMemoryContigfr_1
 001B:000BBF3C       aMemoryContigfr
 001B:000BBF60       aMemoryAllocErr
 001B:000BBF9C       aMemoryAllocEnt
 001B:000BBFB8       aMemoryAllocPar
 001B:000BC01C       aMemoryAllocRet
 001B:000BC03C       aMemoryAddconti
 001B:000BC080       aMemoryAddconti_2
 001B:000BC0C4       aMemoryAddconti_3
 001B:000BC108       aMemoryAddconti_4
 001B:000BC14C       aMemoryAddconti_5
 001B:000BC190       aMemoryAddconti_1
 001B:000BC1C8       aMemoryAddconti_0
 001B:000BC214       aMemoryAddconti_6
 001B:000BC23C       aTrue
 001B:000BC244       aFalse
 001B:000BC24C       aMemoryContigal
 001B:000BC298       aMemoryContigal_4
 001B:000BC2F4       aMemoryContigal_1
 001B:000BC368       aMemoryContigal_2
 001B:000BC394       aMemoryContigal_3
 001B:000BC3C4       aMemoryContigal_6
 001B:000BC420       aMemoryContigal_5
 001B:000BC450       aMemoryContigal_0
 001B:000BC474       aOg
 001B:000BC478       aGlobalInitThis
 001B:000BC4BC       aGlobalExitEnte
 001B:000BC4D0       aGlobalExitCall
 001B:000BC4FC       aGlobalAtexitEn
 001B:000BC520       aGlobalAbort
 001B:000BC548       aThreadPosixC
 001B:000BC558       aThreadJoinEnte
 001B:000BC578       aThreadJoinExit
 001B:000BC598       aOt
 001B:000BC59C       aThreadDeleteEn
 001B:000BC5C0       aThreadDeletePt_0
 001B:000BC5E8       aThreadDeletePt
 001B:000BC60C       aThreadDeleteEx
 001B:000BC630       aThreadCreateEn
 001B:000BC660       aThreadCreate
 001B:000BC670       aThreadCreateEx
 001B:000BC694       aCeTracefile
 001B:000BC6A4       aCeTracefilefla
 001B:000BC6B8       aWarningCouldNo
 001B:000BC6FC       aSemmpPosixC
 001B:000BC70C       aEnteredSemmpPo
 001B:000BC72C       aSemmpPost0xXFa
 001B:000BC748       aLeavingSemmpPo
 001B:000BC768       aEnteredSemmpPe
 001B:000BC798       aSemmpPend0xXFa
 001B:000BC7B4       aLeavingSemmpPe
 001B:000BC7E0       aTiSdoCeOsalSem
 001B:000BC7F8       aEnteredExitcsI
 001B:000BC814       aExitcsSemctlD0
 001B:000BC844       aLeavingExitcs
 001B:000BC854       aEnteredEntercs
 001B:000BC870       aEntercsTimingO
 001B:000BC8B4       aLeavingEntercs
 001B:000BC8D0       aEnteredSemmpDe
 001B:000BC8F4       aSemmpDeleteSem
 001B:000BC91C       aFailedToDecrem
 001B:000BC950       aSemmpDeleteFai
 001B:000BC980       aSemmpDeleteDel
 001B:000BC9A8       aSemmpDeleteSem_0
 001B:000BC9E0       aLeavingSemmpDe
 001B:000BC9F8       aSemmpCreateKey
 001B:000BCA1C       aSemmpCreateMem
 001B:000BCA40       aSemmpCreateSem_1
 001B:000BCA64       aSemmpCreateFai_0
 001B:000BCA90       aSemmpCreateSem_0
 001B:000BCAC4       aSemmpCreateFai_1
 001B:000BCAF4       aSemmpCreateFai
 001B:000BCB2C       aSemmpCreateSem
 001B:000BCB54       aLeavingSemmpCr
 001B:000BCB78       aSemPosixC
 001B:000BCB84       aEnteredSemPost
 001B:000BCBA4       aLeavingSemPost
 001B:000BCBC4       aEnteredSemPend
 001B:000BCBF0       aLeavingSemPend
 001B:000BCC18       aTiSdoCeOsalSem_0
 001B:000BCC2C       aSemGetcountSem
 001B:000BCC54       aEnteredSemDele
 001B:000BCC74       aLeavingSemDele
 001B:000BCC8C       aSemCreateCount
 001B:000BCCA4       aSemCreateMemor
 001B:000BCCC8       aSemCreateSemIn
 001B:000BCCE8       aLeavingSemCrea
 001B:000BCD08       aXdmutilsValida
 001B:000BCD4C       aErrorIvideoBuf
 001B:000BCD78       aErrorSNumbufsD
 001B:000BCD9C       aErrorSNumbufsI
 001B:000BCDD8       aErrorSBufdescD
 001B:000BCE10       aXdmutilsValida_0
 001B:000BCE40       aXdmutilsValida_1
 001B:000BCE80       aErrorSNumbufsI_0
 001B:000BCEB8       aErrorSBufsizes
 001B:000BCEEC       aXdmutilsValida_2
 001B:000BCF1C       aXdmutilsValida_3
 001B:000BCF5C       aErrorBufdescSP
 001B:000BCF84       aErrorInvalidBu
 001B:000BCFD0       aXdmutilsValida_4
 001B:000BD000       aXdmutilsValida_5
 001B:000BD040       aXdmutilsValida_6
 001B:000BD070       aXdmutilsValida_8
 001B:000BD0C0       aErrorExtendedS
 001B:000BD0E8       aErrorInvalidEx
 001B:000BD144       aXdmutilsValida_7
 001B:000BD174       aXu
 001B:000BD178       aTiSdoFcIresVic
 001B:000BD190       aTiSdoFcIresEdm
 001B:000BD1AC       aCodecmsgErrorV
 001B:000BD1CC       aCodecmsgErrorC
 001B:000BD1F4       MP4VDEC_TI_HWSET_imx_MPEGDecRot0Cmd
 001B:000BD1F8       MP4VDEC_TI_HWSET_imx_MPEGDecRot90Cmd_480
 001B:000BD310       MP4VDEC_TI_HWSET_imx_MPEGDecRot90Cmd_400
 001B:000BD428       MP4VDEC_TI_HWSET_imx_MPEGDecRot180Cmd_480
 001B:000BD540       MP4VDEC_TI_HWSET_imx_MPEGDecRot180Cmd_400
 001B:000BD658       MP4VDEC_TI_HWSET_imx_MPEGDecRot270Cmd_480
 001B:000BD770       MP4VDEC_TI_HWSET_imx_MPEGDecRot270Cmd_400
 001B:000BD888       MP4VDEC_TI_HWSET_imx_MPEGDecRot90Cmd_ME31_420
 001B:000BD8B8       MP4VDEC_TI_HWSET_imx_MPEGDecRot180Cmd_ME31_420
 001B:000BD8E8       MP4VDEC_TI_HWSET_imx_MPEGDecRot270Cmd_ME31_420
 001B:000BD918       MP4VDEC_TI_HWSET_imx_MPEGDecRot90Cmd_ME7_420
 001B:000BD948       MP4VDEC_TI_HWSET_imx_MPEGDecRot180Cmd_ME7_420
 001B:000BD978       MP4VDEC_TI_HWSET_imx_MPEGDecRot270Cmd_ME7_420
 001B:000BD9A8       MP4VDEC_TI_tabLumDCScaler
 001B:000BD9E8       MP4VDEC_TI_tabChrDCScaler
 001B:000BDA28       MP4VDEC_TI_tabMpeg4_intra_q_mat
 001B:000BDAA8       MP4VDEC_TI_tabMpeg4_inter_q_mat
 001B:000BDB28       MP4VDEC_TI_tabMpeg4_intra_inv_q_mat
 001B:000BDBA8       MP4VDEC_TI_tabMpeg4_inter_inv_q_mat
 001B:000BDC28       MP4VDEC_TI_tabQinv_tab
 001B:000BDD28       C.19.4701
 001B:000BDD48       C.20.4702
 001B:000BDD68       bit_stuffing
 001B:000BDD7C       glMask
 001B:000BDE00       aDevMem
 001B:000BDE0C       aTiSdoFcIresExa
 001B:000BDE3C       C.50.2518
 001B:000BDE44       aTiSdoFcIresExa_0
 001B:000BDE70       aTiSdoFcIresEdm_0
 001B:000BDE8C       aTiSdoFcIresHdv_0
 001B:000BDEA4       aTiSdoFcIresAdd_0
 001B:000BDEC0       MPEG2VDEC_TI_version
 001B:000BDF38       MPEG2VDEC_TI_static_ECD_cmdset
 001B:000BDFC0       MPEG2VDEC_TI_dynamic_ECD_cmdset
 001B:000BE200       MPEG2VDEC_TI_ecd_cmd_start_offs
 001B:000BE218       MPEG2VDEC_TI_static_CALC_cmdset
 001B:000BE5E0       MPEG2VDEC_TI_qiq_param
 001B:000BE5E8       MPEG2VDEC_TI_LUT_data
 001B:000BE5F0       MPEG2VDEC_TI_LUT_addrset_addr
 001B:000BE600       MPEG2VDEC_TI_LUT_calc_add_incr
 001B:000BE604       MPEG2VDEC_TI_quantizer_scale
 001B:000BE784       MPEG2VDEC_TI_LUT_parity_select
 001B:000BE79C       MPEG2VDEC_TI_dp_mvfs
 001B:000BE7A0       MPEG2VDEC_TI_pred_cmd
 001B:000BE7D8       MPEG2VDEC_TI_SECTION0
 001B:000BE7F8       MPEG2VDEC_TI_SECTION1
 001B:000C3AA0       MPEG2VDEC_TI_SECTION2
 001B:000C3D4C       C.36.9305
 001B:000C3D54       C.35.9304
 001B:000C3D5C       C.34.9303
 001B:000C3D64       C.33.9302
 001B:000C3D6C       C.24.9179
 001B:000C3D74       C.23.9178
 001B:000C3D7C       C.22.9177
 001B:000C3D84       C.21.9176
 001B:000C3D8C       C.11.8946
 001B:000C3D94       C.10.8945
 001B:000C3D9C       C.9.8944
 001B:000C3DA4       C.8.8943
 001B:000C3DAC       memc_pong
 001B:000C3DB4       aDeviceIdCheckF
 001B:000C3DCC       Rem_ParseData_addr
 001B:000C3DDC       MPEG2VDEC_TI_LUT_mod3
 001B:000C3DE4       MPEG2VDEC_TI_DMAPTR_VAL
 001B:000C3DF4       MPEG2VDEC_TI_scan
 001B:000C3E74       MPEG2VDEC_TI_default_intra_quantizer_matrix
 001B:000C3EB4       frameRateLUT
 001B:000C3ED8       H264VDEC_TI_edma_max_linked
 001B:000C3FD8       H264VDEC_TI_edma_max_linked_cl
 001B:000C40D8       H264VDEC_TI_edma_lgl_to_tc_map
 001B:000C41D8       H264VDEC_TI_edma_lgl_to_tc_map_cl
 001B:000C42D8       aTiSdoFcIresEdm_1
 001B:000C42F4       aTiSdoFcIresVic_0
 001B:000C430C       aTiSdoFcIresHdv_1
 001B:000C4324       aTiSdoFcIresAdd_1
 001B:000C4340       aTiSdoFcIresExa_2
 001B:000C436C       validLevel
 001B:000C4440       H264VDEC_TI_levelTable
 001B:000C456C       H264VDEC_TI_edma_tc_priority
 001B:000C457C       quant_intra_default
 001B:000C459C       quant_inter_default
 001B:000C45BC       slice_table
 001B:000C45C0       quant8_intra_default
 001B:000C4640       quant8_inter_default
 001B:000C46C0       par_wd_tbl
 001B:000C46D1       par_ht_tbl
 001B:000C46E2       cFwdInvScan4x4
 001B:000C46F2       cFwdInvScan8x8
 001B:000C4734       H264VDEC_TI_MBAFF_SECTION0
 001B:000C4754       H264VDEC_TI_MBAFF_SECTION1
 001B:000D051C       H264VDEC_TI_MBAFF_SECTION2
 001B:000D05C8       H264VDEC_TI_MBAFF_SECTION3
 001B:000D0778       H264VDEC_TI_MBAFF_SECTION4
 001B:000D07AC       H264VDEC_TI_FRAME_SECTION0
 001B:000D07CC       H264VDEC_TI_FRAME_SECTION1
 001B:000DBEE4       H264VDEC_TI_FRAME_SECTION2
 001B:000DBF90       H264VDEC_TI_FRAME_SECTION3
 001B:000DC1FC       H264VDEC_TI_FRAME_SECTION4
 001B:000DC240       H264VDEC_TI_FRAME_CL_SECTION0
 001B:000DC260       H264VDEC_TI_FRAME_CL_SECTION1
 001B:000E8024       H264VDEC_TI_FRAME_CL_SECTION2
 001B:000E80D0       H264VDEC_TI_FRAME_CL_SECTION3
 001B:000E8744       H264VDEC_TI_FRAME_CL_SECTION4
 001B:000E87A8       H264VDEC_TI_FIELD_SECTION0
 001B:000E87C8       H264VDEC_TI_FIELD_SECTION1
 001B:000F45D0       H264VDEC_TI_FIELD_SECTION2
 001B:000F467C       H264VDEC_TI_FIELD_SECTION3
 001B:000F48E8       H264VDEC_TI_FIELD_SECTION4
 001B:000F492C       H264VDEC_TI_BsCmdBufNonMbaff
 001B:000F4C6C       H264VDEC_TI_BsCmdBufMbaff
 001B:000F4FAC       H264VDEC_TI_LpfCmdBufNonMbaff
 001B:000F5DAC       H264VDEC_TI_LpfCmdBufMbaff
 001B:000F6BAC       H264VDEC_TI_CalcAddrSetCmdMbaff
 001B:000F6C4C       H264VDEC_TI_CalcAddrSetCmdProg
 001B:000F6CEC       H264VDEC_TI_CalcAddrSetCmdField
 001B:000F6D8C       H264VDEC_TI_NonAvailableMbdata
 001B:000F6EBC       H264VDEC_TI_EcdCmdBuf_nonMbaff
 001B:000F6FFC       H264VDEC_TI_EcdCmdBuf_Mbaff
 001B:000F713C       H264VDEC_TI_CalcFuncPrms
 001B:000F751C       H264VDEC_TI_CalcFuncPrmsHP
 001B:000F78FC       H264VDEC_TI_DeQuan4X4
 001B:000F79BC       H264VDEC_TI_mcConstTablesMbaff
 001B:000F8E3C       H264VDEC_TI_mcConstTablesProg
 001B:000FA2BC       H264VDEC_TI_mcConstTablesField
 001B:000FB73C       H264VDEC_TI_mcConstTablesField_closedloop
 001B:000FBA2C       H264VDEC_TI_mcConstTablesProg_closedloop
 001B:000FBD1C       H264VDEC_TI_DeQuan8X8
 001B:000FC01C       H264VDEC_TI_CabacContexts
 001B:0011F59C       H264VDEC_TI_version
 001B:0011F60C       aDm365H264dec02
 001B:0011F634       aGtS
 001B:0011F63C       aIllegalTraceMa
 001B:0011F650       a0x08xT0x08xS
 001B:0011F66C       a03d03dusDT0x08
 001B:0011F690       aD03d03dusDT0x0
 001B:0011F6B8       aD03dsDT0x08xS
 001B:0011F6F8       aS
 001B:0011F700       a0x08xDT0x08xS
 001B:0011F720       aDT0x08xS
 001B:0011F738       aDT0x08x
 001B:0011F74C       aDS
 001B:0011F758       aS_0
 001B:0011F768       a03d03dus
 001B:0011F778       aD03d03dus
 001B:0011F78C       aD03ds
 001B:0011F798       aD03d03dtk
 001B:0011F7AC       a0x08x
 001B:0011F7BC       aD
 001B:0011F7C0       aT0x08x
 001B:0011F7CC       aS0x08x
 001B:0011F7D8       aMemoryAllocFor
 001B:0011F800       aMemoryAllocFor_0
 001B:0011F830       aGtPrefix
 001B:0011F83C       aGtTime
 001B:0011F84C       aTiSdoFcIresHdv
 001B:0011F864       aVicpErrorVicpE
 001B:0011F8E0       aVicpErrorVicpI
 001B:0011F938       aVicpErrorIrqkF
 001B:0011F9B4       aVicpErrorVicpD
 001B:0011F9E0       aVicpErrorVicpW
 001B:0011FA0C       aVicpErrorVicpU
 001B:0011FA3C       aVicpErrorVicpR
 001B:0011FA6C       aDevIrqk
 001B:0011FA78       aVicpErrorInitF_0
 001B:0011FAAC       aVicpErrorInitF
 001B:0011FADC       aTiSdoFcIresExa_1
 001B:0011FB08       aCmemErrorCmemE
 001B:0011FB84       aCmemErrorCmemI
 001B:0011FBDC       aCmemErrorCmemF
 001B:0011FC58       aCmemErrorGetbl
 001B:0011FCA4       aCmemErrorGetbl_0
 001B:0011FD00       aCmemErrorGetve
 001B:0011FD48       aCmemErrorCache
 001B:0011FD78       aCmemErrorCache_0
 001B:0011FDB8       aCmemErrorCache_1
 001B:0011FDE8       aCmemErrorGetph
 001B:0011FE24       aCmemErrorGetpo
 001B:0011FE64       aCmemErrorFreeF_0
 001B:0011FE8C       aCmemErrorFreeF
 001B:0011FEB4       aCmemErrorRegis
 001B:0011FF04       aCmemErrorRegis_0
 001B:0011FF50       aCmemErrorUnreg
 001B:0011FF88       aCmemIocalloche_0
 001B:0011FF9C       aCmemIocalloche
 001B:0011FFB4       aCmemErrorAlloc
 001B:00120012       aYsicalAddressL
 001B:00120028       aCmemErrorFreei
 001B:00120054       aCmemIocalloc
 001B:00120064       aCmemIocallocca
 001B:00120078       aCmemErrorAlloc_0
 001B:001200B4       aCmemErrorAlloc_1
 001B:001200FC       aDevCmem
 001B:00120108       aCmemErrorInitF_0
 001B:0012013C       aCmemErrorInitM
 001B:00120184       aCmemErrorNeeds
 001B:001201B8       aCmemErrorInitM_0
 001B:00120200       aCmemErrorNeeds_0
 001B:0012026C       aCmemErrorInitF
 001B:0012029C       aEdmaErrorEdmaI
 001B:001202C4       aEdmaErrorEdmaI_0
 001B:001202E8       aEdmaErrorEdmaI_1
 001B:00120310       aEdmaErrorGetve
 001B:00120358       aDevEdma
 001B:00120364       aEdmaErrorInitF
 001B:00120398       aEdmaErrorInitF_0
 001B:001203CC       aEdmaErrorInitM
 001B:00120414       aEdmaErrorNeeds
 001B:00120448       aEdmaErrorInitD
 001B:00120484       aEdmaErrorInitD_0
 001B:001204BC       a100000
 001B:001204C8       _a2u
 001B:00120548       _u2a
 001C:001205C8       __ASM__
 001C:00120638       __ISA__
 001C:0012064C       __PLAT__
 001C:00120674       __TARG__
 001D:0012069C       ia_eaacp_dec_huffmann_tables
 001D:00121FE0       ia_eaacp_dec_block_tables
 001D:00122A4C       ia_eaacp_dec_imdct_tables
 001D:00124798       ia_eaacp_dec_fft_n_transcendent_tables
 0020:00125EA0       __FRAME_END__
 0021:0012DEA4       __frame_dummy_init_array_entry
 0022:0012DEA8       __do_global_dtors_aux_fini_array_entry
 0023:0012DEAC       __JCR_LIST__
 0024:0012DEB0       separator
 0004:0012DEB4       _DYNAMIC
 0025:0012DFFC       _GLOBAL_OFFSET_TABLE_
 0025:0012E008       open_ptr
 0025:0012E00C       AppleCP_Req_Challenge_Response_ptr
 0025:0012E010       strerror_ptr
 0025:0012E014       fileno_ptr
 0025:0012E018       Pro_Init_ptr
 0025:0012E01C       mmap_ptr
 0025:0012E020       abort_ptr
 0025:0012E024       MFI_Ctrl_Set_ptr
 0025:0012E028       pthread_attr_getschedparam_ptr
 0025:0012E02C       RecvBuffer_ptr
 0025:0012E030       memcmp_ptr
 0025:0012E034       getTickCount_ptr
 0025:0012E038       pthread_attr_setdetachstate_ptr
 0025:0012E03C       pthread_exit_ptr
 0025:0012E040       png_destroy_read_struct_ptr
 0025:0012E044       __libc_start_main_ptr
 0025:0012E048       At88_Check_And_Set_Chip_Info_ptr
 0025:0012E04C       FT_Set_Pixel_Sizes_ptr
 0025:0012E050       signal_ptr
 0025:0012E054       Create_FeedWatchDog_Thread_ptr
 0025:0012E058       msgget_ptr
 0025:0012E05C       pthread_attr_setschedpolicy_ptr
 0025:0012E060       __gmon_start___ptr
 0025:0012E064       GetCurrentTime_ptr
 0025:0012E068       sched_yield_ptr
 0025:0012E06C       InitProcMsg_ptr
 0025:0012E070       pthread_mutexattr_settype_ptr
 0025:0012E074       Iap2_Link_EASession_IsConn_ptr
 0025:0012E078       Pro_Cmd_Get_Version_ptr
 0025:0012E07C       Iap2_Ctrl_Session_App_Launch_ptr
 0025:0012E080       pow_ptr
 0025:0012E084       strncpy_ptr
 0025:0012E088       fclose_ptr
 0025:0012E08C       getenv_ptr
 0025:0012E090       IfFileExist_ptr
 0025:0012E094       system_ptr
 0025:0012E098       strchr_ptr
 0025:0012E09C       semop_ptr
 0025:0012E0A0       putchar_ptr
 0025:0012E0A4       __cxa_atexit_ptr
 0025:0012E0A8       msgctl_ptr
 0025:0012E0AC       sem_getvalue_ptr
 0025:0012E0B0       calloc_ptr
 0025:0012E0B4       Usbupdatecheck_CheckFile_ptr
 0025:0012E0B8       At88_Is_Passed_ptr
 0025:0012E0BC       sem_init_ptr
 0025:0012E0C0       Iap2_Link_EASession_Send_ptr
 0025:0012E0C4       fopen_ptr
 0025:0012E0C8       shmat_ptr
 0025:0012E0CC       sched_get_priority_max_ptr
 0025:0012E0D0       At88_Read_Factory_Info_ptr
 0025:0012E0D4       png_get_image_width_ptr
 0025:0012E0D8       __strtol_internal_ptr
 0025:0012E0DC       Usbupdate_InitResultFile_ptr
 0025:0012E0E0       memset_ptr
 0025:0012E0E4       sem_destroy_ptr
 0025:0012E0E8       FT_Done_FreeType_ptr
 0025:0012E0EC       At88_Write_Key_File_ptr
 0025:0012E0F0       AppleCP_IsExist_ptr
 0025:0012E0F4       ThreadSignal_MaskPipe_ptr
 0025:0012E0F8       GetHardwareVersion_ptr
 0025:0012E0FC       pthread_attr_setschedparam_ptr
 0025:0012E100       png_get_color_type_ptr
 0025:0012E104       perror_ptr
 0025:0012E108       GetINT32LittleEnd_ptr
 0025:0012E10C       __assert_fail_ptr
 0025:0012E110       Pro_Deal_CallBack_ptr
 0025:0012E114       AppleCP_Read_AuthCertData_ptr
 0025:0012E118       shmdt_ptr
 0025:0012E11C       usleep_ptr
 0025:0012E120       msgsnd_ptr
 0025:0012E124       sqrt_ptr
 0025:0012E128       already_running_ptr
 0025:0012E12C       Para_Init_ptr
 0025:0012E130       At88_Is_Config_Set_ptr
 0025:0012E134       free_ptr
 0025:0012E138       read_ptr
 0025:0012E13C       write_ptr
 0025:0012E140       DataBuff_Delete_ptr
 0025:0012E144       getopt_long_ptr
 0025:0012E148       PutINT32LittleEnd_ptr
 0025:0012E14C       pthread_getspecific_ptr
 0025:0012E150       Pro_PackAndSend_ThreadSafe_ptr
 0025:0012E154       Iap2_Link_EASession_Send_Wrap_ptr
 0025:0012E158       gettimeofday_ptr
 0025:0012E15C       fseek_ptr
 0025:0012E160       setpriority_ptr
 0025:0012E164       At88_Is_Config_Lock_ptr
 0025:0012E168       Serial_Create_ptr
 0025:0012E16C       Serial_Delete_ptr
 0025:0012E170       pthread_mutex_unlock_ptr
 0025:0012E174       fflush_ptr
 0025:0012E178       pthread_setschedparam_ptr
 0025:0012E17C       UsbDel_ptr
 0025:0012E180       _setjmp_ptr
 0025:0012E184       png_set_longjmp_fn_ptr
 0025:0012E188       ioctl_ptr
 0025:0012E18C       pthread_key_delete_ptr
 0025:0012E190       pthread_mutexattr_destroy_ptr
 0025:0012E194       usbsocket_create_handle_ptr
 0025:0012E198       pthread_mutex_lock_ptr
 0025:0012E19C       cos_ptr
 0025:0012E1A0       strlen_ptr
 0025:0012E1A4       At88_Is_Exist_ptr
 0025:0012E1A8       Usbupdate_SaveResultFile_ptr
 0025:0012E1AC       DataBuff_Create_ptr
 0025:0012E1B0       pthread_create_ptr
 0025:0012E1B4       At88_Check_And_Set_Config_ptr
 0025:0012E1B8       execv_ptr
 0025:0012E1BC       memcpy_ptr
 0025:0012E1C0       png_create_read_struct_ptr
 0025:0012E1C4       clearerr_ptr
 0025:0012E1C8       pthread_attr_getstacksize_ptr
 0025:0012E1CC       usbsocket_recv_ptr
 0025:0012E1D0       PutINT16LittleEnd_ptr
 0025:0012E1D4       Serial_WriteData_ptr
 0025:0012E1D8       Is_68013_Connected_ptr
 0025:0012E1DC       png_create_info_struct_ptr
 0025:0012E1E0       At88_Is_Encrypt_ptr
 0025:0012E1E4       FT_Init_FreeType_ptr
 0025:0012E1E8       Update_Fill_Version_ptr
 0025:0012E1EC       pthread_attr_setinheritsched_ptr
 0025:0012E1F0       usbsocket_send_ptr
 0025:0012E1F4       strcpy_ptr
 0025:0012E1F8       sem_post_ptr
 0025:0012E1FC       waitpid_ptr
 0025:0012E200       pthread_mutex_destroy_ptr
 0025:0012E204       printf_ptr
 0025:0012E208       raise_ptr
 0025:0012E20C       MFI_Ctrl_Get_ptr
 0025:0012E210       atoi_ptr
 0025:0012E214       longjmp_ptr
 0025:0012E218       png_read_png_ptr
 0025:0012E21C       SetHardwareVersion_ptr
 0025:0012E220       pthread_mutex_init_ptr
 0025:0012E224       pthread_setspecific_ptr
 0025:0012E228       close_ptr
 0025:0012E22C       fwrite_ptr
 0025:0012E230       Iap2_Link_Session_GetSendPkt_ptr
 0025:0012E234       semctl_ptr
 0025:0012E238       Iap2_Link_PreInit_ptr
 0025:0012E23C       setvbuf_ptr
 0025:0012E240       UsbInit_ptr
 0025:0012E244       fprintf_ptr
 0025:0012E248       malloc_ptr
 0025:0012E24C       Iap2_Pkt_GetEAProDataPtr_ptr
 0025:0012E250       rindex_ptr
 0025:0012E254       Para_Get_ptr
 0025:0012E258       usbsocket_init_ptr
 0025:0012E25C       pthread_attr_init_ptr
 0025:0012E260       IsTimeOut_ptr
 0025:0012E264       Set_Mutex_Attr_Recu_ptr
 0025:0012E268       atan2_ptr
 0025:0012E26C       fputc_ptr
 0025:0012E270       Para_Set_ptr
 0025:0012E274       strtok_ptr
 0025:0012E278       At88_Is_DataOTP_Lock_ptr
 0025:0012E27C       At88_Write_Key_ptr
 0025:0012E280       FT_New_Face_ptr
 0025:0012E284       sleep_ptr
 0025:0012E288       strcat_ptr
 0025:0012E28C       init_libusb_ptr
 0025:0012E290       memmove_ptr
 0025:0012E294       Iap2_Link_Run_ptr
 0025:0012E298       png_get_channels_ptr
 0025:0012E29C       Iap2_Link_EASession_Recv_Wrap_ptr
 0025:0012E2A0       At88_Write_Factory_Info_All_ptr
 0025:0012E2A4       png_init_io_ptr
 0025:0012E2A8       puts_ptr
 0025:0012E2AC       FT_Load_Char_ptr
 0025:0012E2B0       getpid_ptr
 0025:0012E2B4       Pro_CheckRec_ptr
 0025:0012E2B8       fcntl_ptr
 0025:0012E2BC       fork_ptr
 0025:0012E2C0       At88_Write_Factory_Info_ptr
 0025:0012E2C4       png_get_image_height_ptr
 0025:0012E2C8       shmctl_ptr
 0025:0012E2CC       sin_ptr
 0025:0012E2D0       pthread_attr_destroy_ptr
 0025:0012E2D4       At88_Check_All_ptr
 0025:0012E2D8       Get68013HardwareVersion_ptr
 0025:0012E2DC       munmap_ptr
 0025:0012E2E0       At88_Lock_DataOTP_ptr
 0025:0012E2E4       Usbupdatecheck_PrintResult_Prohibited_ptr
 0025:0012E2E8       tan_ptr
 0025:0012E2EC       Iap2_Link_Session_ReleaseSendPkt_ptr
 0025:0012E2F0       Hub_Error_Check_ptr
 0025:0012E2F4       usbsocket_is_conn_ptr
 0025:0012E2F8       vfprintf_ptr
 0025:0012E2FC       ProcMsgSend_ptr
 0025:0012E300       FT_Done_Face_ptr
 0025:0012E304       fread_ptr
 0025:0012E308       At88_Write_Key_All_ptr
 0025:0012E30C       Pro_PackAndSend_ptr
 0025:0012E310       strncmp_ptr
 0025:0012E314       msgrcv_ptr
 0025:0012E318       kill_ptr
 0025:0012E31C       ferror_ptr
 0025:0012E320       png_get_rows_ptr
 0025:0012E324       At88_Init_ptr
 0025:0012E328       Set68013HardwareVersion_ptr
 0025:0012E32C       Serial_ReadData_ptr
 0025:0012E330       At88_Write_Factory_Info_File_ptr
 0025:0012E334       DJI_ProStruct_Init_ptr
 0025:0012E338       pipe_ptr
 0025:0012E33C       pthread_mutexattr_init_ptr
 0025:0012E340       sem_wait_ptr
 0025:0012E344       strcmp_ptr
 0025:0012E348       exit_ptr
 0025:0012E34C       pthread_setcanceltype_ptr
 0025:0012E350       IfUsbPartitionsExist_ptr
 0025:0012E354       Usbupdate_RegisterChannel_ptr
 0025:0012E358       Reset_68013_ptr
 0025:0012E35C       __errno_location_ptr
 0025:0012E360       Pro_Get_CurSeq_ptr
 0025:0012E364       pthread_self_ptr
 0025:0012E368       pthread_cancel_ptr
 0025:0012E36C       Update_Fill_68013_Version_ptr
 0025:0012E370       AppleCP_Check_ptr
 0025:0012E374       ceil_ptr
 0025:0012E378       sprintf_ptr
 0025:0012E37C       pthread_join_ptr
 0025:0012E380       pthread_key_create_ptr
 0025:0012E384       fputs_ptr
 0025:0012E388       semget_ptr
 0025:0012E38C       shmget_ptr
 0025:0012E390       _VICP2_ipcKeyBase_ptr
 0025:0012E394       ti_sdo_ce_alg_ipcKey_ptr
 0025:0012E398       Global_useLinkArbiter_ptr
 0025:0012E39C       IRES_ADDRSPACE_getStaticProperties_ptr
 0025:0012E3A0       Memory_DEFAULTPARAMS_ptr
 0025:0012E3A4       GT_ptr
 0025:0012E3A8       Algorithm_exit_ptr
 0025:0012E3AC       _RMAN_lock_ptr
 0025:0012E3B0       IRESMAN_GROUPUTILS_CONSTRUCTFXNS_ptr
 0025:0012E3B4       ti_sdo_fc_ires_grouputils_GROUPUTILS_semPostFxn_ptr
 0025:0012E3B8       IRESMAN_VICP2_ptr
 0025:0012E3BC       IRESMAN_MEMTCM_CONSTRUCTFXNS_ptr
 0025:0012E3C0       _Algorithm_lockOwner_ptr
 0025:0012E3C4       Engine_ALGCREATEATTRS_ptr
 0025:0012E3C8       IRESMAN_EDMA3CHAN_CONSTRUCTFXNS_ptr
 0025:0012E3CC       __gmon_start___ptr_0
 0025:0012E3D0       _HDVICP_NUMRESOURCES_ptr
 0025:0012E3D4       IRES_MEMTCM_getStaticProperties_ptr
 0025:0012E3D8       RMAN_registryResmanArgs_ptr
 0025:0012E3DC       MEMTCM_ipcKeyBase_ptr
 0025:0012E3E0       ti_sdo_ce_alg_ALG_useHeap_ptr
 0025:0012E3E4       ti_sdo_fc_edma3_EDMA3_MAXEDMAREQUESTS_ptr
 0025:0012E3E8       VISA_checked_ptr
 0025:0012E3EC       IRESMAN_MEMTCM_ptr
 0025:0012E3F0       IRESMAN_GROUPUTILS_DEFAULTPARAM_ptr
 0025:0012E3F4       RMAN_PARAMS_ptr
 0025:0012E3F8       IRESMAN_ADDRSPACE_ptr
 0025:0012E3FC       RMAN_numRegistryEntries_ptr
 0025:0012E400       _VICP2_buffLens_ptr
 0025:0012E404       G711_SUN_alaw2linear_ptr
 0025:0012E408       ti_sdo_fc_ires_grouputils_GROUPUTILS_semDeleteFxn_ptr
 0025:0012E40C       Global_exit_ptr
 0025:0012E410       Comm_ATTRS_ptr
 0025:0012E414       ti_sdo_ce__versionString_ptr
 0025:0012E418       Engine_alwaysCollectDspTrace_ptr
 0025:0012E41C       IRES_EDMA3CHAN_getStaticProperties_ptr
 0025:0012E420       Processor_ATTRS_ptr
 0025:0012E424       G711_SUN_ulaw2linear_ptr
 0025:0012E428       RMAN_FREE_ENTRIES_ptr
 0025:0012E42C       Thread_ATTRS_ptr
 0025:0012E430       IRES_GROUPUTILS_getStaticProperties_ptr
 0025:0012E434       IRES_VICP2_getStaticProperties_ptr
 0025:0012E438       GT_config_traceOutStream_ptr
 0025:0012E43C       _VICP2_bufSize_ptr
 0025:0012E440       _ALG_groupRefCount_ptr
 0025:0012E444       _VICP2_buffOffsets_ptr
 0025:0012E448       ti_sdo_ce_Engine_noCommName_ptr
 0025:0012E44C       ti_sdo_fc_ires_grouputils_GROUPUTILS_semCreateFxn_ptr
 0025:0012E450       _ALG_sems_ptr
 0025:0012E454       ti_sdo_fc_ires_grouputils_unlockGroup_ptr
 0025:0012E458       _VICP2_regSize_ptr
 0025:0012E45C       IRESMAN_HDVICP_CONSTRUCTFXNS_ptr
 0025:0012E460       IRES_HDVICP_getStaticProperties_ptr
 0025:0012E464       RMAN_TABLE_ptr
 0025:0012E468       ti_sdo_ce_dvtLog_ptr
 0025:0012E46C       IRESMAN_GROUPUTILS_ptr
 0025:0012E470       IRESMAN_HDVICP_DEFAULTPARAM_ptr
 0025:0012E474       ti_sdo_fc_ires_grouputils_GROUPUTILS_semPendFxn_ptr
 0025:0012E478       ti_sdo_fc_edma3_EDMA3_physicalId_ptr
 0025:0012E47C       Global_buildInfo_ptr
 0025:0012E480       IRESMAN_MEMTCM_DEFAULTPARAM_ptr
 0025:0012E484       Memory_maxCbListSize_ptr
 0025:0012E488       MEMTCM_blockId_ptr
 0025:0012E48C       __dso_handle_ptr
 0025:0012E490       _VICP2_dm355_ptr
 0025:0012E494       _VICP2_imcopConfigBase_ptr
 0025:0012E498       _ALG_groupUsed_ptr
 0025:0012E49C       IRESMAN_NULLRES_ptr
 0025:0012E4A0       _GROUPUTILS_ipcKeyBase_ptr
 0025:0012E4A4       ADDRSPACE_noTranslation_ptr
 0025:0012E4A8       Engine_config_ptr
 0025:0012E4AC       MEMTCM_size_ptr
 0025:0012E4B0       IRESMAN_HDVICP_ptr
 0025:0012E4B4       ti_sdo_ce_video2_VIDDEC2_curTrace_ptr
 0025:0012E4B8       _VICP2_dm365_ptr
 0025:0012E4BC       ti_sdo_fc_ires_grouputils_lockGroup_ptr
 0025:0012E4C0       IRESMAN_ADDRSPACE_CONSTRUCTFXNS_ptr
 0025:0012E4C4       _HDVICP_MEMBASEADDR_ptr
 0025:0012E4C8       IRESMAN_EDMA3CHAN_ptr
 0025:0012E4CC       Engine_ceDebugDspTraceMask_ptr
 0025:0012E4D0       IRESMAN_EDMA3CHAN_DEFAULTPARAM_ptr
 0025:0012E4D4       _VICPSYNC_dm365_ptr
 0025:0012E4D8       stdout@@GLIBC_2.4_ptr
 0025:0012E4DC       Memory_skipVirtualAddressTranslation_ptr
 0025:0012E4E0       Lock_system_ptr
 0025:0012E4E4       _EDMA3_ipcKeyBase_ptr
 0025:0012E4E8       IRESMAN_ADDRSPACE_DEFAULTPARAM_ptr
 0025:0012E4EC       ti_sdo_ce_alg_GTMask_ptr
 0025:0012E4F0       ti_sdo_ce_alg_ALG_maxGroups_ptr
 0025:0012E4F4       RMAN_registryEntries_ptr
 0025:0012E4F8       IRESMAN_VICP2_CONSTRUCTFXNS_ptr
 0025:0012E4FC       stderr@@GLIBC_2.4_ptr
 0025:0012E500       G711DEC_SUN_PARAMS_ptr
 0025:0012E504       _HDVICP_ipcKeyBase_ptr
 0025:0012E508       g_protocolArgs_ptr
 0025:0012E50C       IRESMAN_VICP2_DEFAULTPARAM_ptr
 0025:0012E510       ti_sdo_ce_osal_linux_SemMP_ipcKey_ptr
 0025:0012E514       _HDVICP_REGBASEADDR_ptr
 0025:0012E518       ti_sdo_ce_alg_ALG_useCache_ptr
 0025:0012E51C       Server_holdingTraceToken_ptr
 0026:0012E520       __data_start
 0026:0012E524       __dso_handle
 0026:0012E528       g_readSize
 0026:0012E52C       g_timeout
 0026:0012E530       isProtocol
 0026:0012E534       latency1
 0026:0012E538       latency2
 0026:0012E53C       latency3
 0026:0012E540       displaybuffnum1
 0026:0012E544       displaybuffnum2
 0026:0012E548       s_slUSBSocketHandle
 0026:0012E54C       s_atFPGAProtocolCmd
 0026:0012E55C       s_slUSBSocketHandle_0
 0026:0012E560       s_atForwardProtocolCmd
 0026:0012E598       s_atDecSerialProtocolCmd
 0026:0012E608       s_aucMagic.7169
 0026:0012E610       g711Extensions
 0026:0012E618       speechDecoders
 0026:0012E640       aacExtensions
 0026:0012E648       AAC_PARAMS
 0026:0012E658       H264_PARAMS
 0026:0012E690       audioDecoders
 0026:0012E6B8       mpeg4Extensions
 0026:0012E6C4       h264Extensions
 0026:0012E6CC       mpeg2Extensions
 0026:0012E6D8       videoDecoders
 0026:0012E728       decodeEngine
 0026:0012E744       engine
 0026:0012E748       s_Args
 0026:0012E760       s_bEnDecode
 0026:0012E761       s_aucVideo
 0026:0012E765       s_aucAUD
 0026:0012E76C       s_slFrameRate
 0026:0012E770       s_ulHead
 0026:0012E774       s_slShadowHeight
 0026:0012E778       s_slFontSize
 0026:0012E77C       s_slPngBase
 0026:0012E780       s_slCharBase
 0026:0012E784       s_afLengthRate
 0026:0012E78C       s_pcLengthUnit
 0026:0012E794       s_afVelocityRate
 0026:0012E79C       s_pcVelocityUnit
 0026:0012E7A4       s_atDisplayAttr
 0026:0012E864       s_slMaxHeightRange.12043
 0026:0012E86C       s_slRectWidth.12042
 0026:0012E874       s_slPitchCoef.12041
 0026:0012E87C       s_aslPixelBasex.12040
 0026:0012E8BC       ti_sdo_codecs_mpeg2dec_ce_MPEG2DEC_codecClassConfig
 0026:0012E8FC       ti_sdo_codecs_h264dec_ce_H264DEC_codecClassConfig
 0026:0012E93C       ti_sdo_codecs_mpeg4dec_ce_MPEG4DEC_codecClassConfig
 0026:0012E97C       _VICPSYNC_dm365
 0026:0012E980       _EDMA3_ipcKeyBase
 0026:0012E984       ti_sdo_fc_edma3_EDMA3_MAXEDMAREQUESTS
 0026:0012E988       _HDVICP_REGBASEADDR
 0026:0012E98C       _HDVICP_MEMBASEADDR
 0026:0012E990       _HDVICP_NUMRESOURCES
 0026:0012E994       _HDVICP_ipcKeyBase
 0026:0012E998       _VICP2_imcopConfigBase
 0026:0012E99C       _VICP2_ipcKeyBase
 0026:0012E9A0       _VICP2_dm365
 0026:0012E9A4       MEMTCM_blockId
 0026:0012E9A8       MEMTCM_size
 0026:0012E9AC       MEMTCM_ipcKeyBase
 0026:0012E9B0       ti_sdo_fc_multiProcess
 0026:0012E9B4       _GROUPUTILS_ipcKeyBase
 0026:0012E9B8       ti_sdo_ce_alg_ALG_maxGroups
 0026:0012E9BC       ti_sdo_ce_alg_ipcKey
 0026:0012E9C0       _ALG_groupUsed
 0026:0012EA10       ti_sdo_ce_osal_linux_SemMP_ipcKey
 0026:0012EA14       Memory_maxCbListSize
 0026:0012EA18       Global_buildInfo
 0026:0012EB08       Engine_config
 0026:0012EB10       engineTab
 0026:0012EB4C       typeTab_MP4VDEC_TI_IMP4VDEC
 0026:0012EB54       typeTab_H264VDEC_TI_IH264VDEC
 0026:0012EB5C       typeTab_MPEG2VDEC_TI_IMPEG2VDEC
 0026:0012EB64       typeTab_G711DEC_SUN_IG711DEC
 0026:0012EB6C       typeTab_ENHAACPDECODER_ITTIAM_IENHAACPDECODER
 0026:0012EB74       RMAN_PARAMS
 0026:0012EB88       EDMA3_PARAMS
 0026:0012EBA8       ti_sdo_fc_ires_grouputils_lockGroup
 0026:0012EBAC       ti_sdo_fc_ires_grouputils_unlockGroup
 0026:0012EBB0       ti_sdo_fc_ires_grouputils_GROUPUTILS_semCreateFxn
 0026:0012EBB4       ti_sdo_fc_ires_grouputils_GROUPUTILS_semDeleteFxn
 0026:0012EBB8       ti_sdo_fc_ires_grouputils_GROUPUTILS_semPendFxn
 0026:0012EBBC       ti_sdo_fc_ires_grouputils_GROUPUTILS_semPostFxn
 0026:0012EBC0       _ti_sdo_utils_trace_GT_params
 0026:0012EBE8       GT
 0026:0012EBEC       engineAlgs0
 0026:0012ED0C       createFxns
 0026:0012ED14       deleteFxns
 0026:0012ED1C       getFxns
 0026:0012ED24       putFxns
 0026:0012ED2C       controlFxns
 0026:0012ED34       outputStrings
 0026:0012ED4C       modeStrings
 0026:0012EDA0       IRES_ADDRSPACE_PROTOCOLREVISION
 0026:0012EDAC       AUDCDC_ITTIAM_IRES
 0026:0012EDD4       Engine_ALGCREATEATTRS
 0026:0012EDDC       Engine_ceDebugDspTraceMask
 0026:0012EDE0       ti_sdo_ce__versionNumArray
 0026:0012EDEC       ti_sdo_ce__versionString
 0026:0012EDF0       ti_sdo_ce__whatString
 0026:0012EDF4       Processor_ATTRS
 0026:0012EE00       argv
 0026:0012EE08       userName
 0026:0012EE0C       Memory_DEFAULTPARAMS
 0026:0012EE1C       doRegisterAtExit
 0026:0012EE20       Thread_ATTRS
 0026:0012EE34       IRES_VICP2_PROTOCOLREVISION
 0026:0012EE40       IRES_EDMA3CHAN_PROTOCOLREVISION
 0026:0012EE4C       IRES_ADDRSPACE_PROTOCOLREVISION_0
 0026:0012EE58       MP4VDEC_TI_IRES
 0026:0012EE80       MP4VDEC_TI_IMP4VDEC
 0026:0012EEAC       MP4VDEC_TI_IALG
 0026:0012EED0       MP4VDEC_TI_MC_Round_Off_biMX_Code
 0026:0012F074       MP4VDEC_TI_MC_Round_On_biMX_Code
 0026:0012F218       MP4VDEC_TI_MC31_Round_Off_biMX_Code
 0026:0012F3BC       MP4VDEC_TI_MC31_Round_On_biMX_Code
 0026:0012F560       MP4VDEC_TI_MC_Round_Off_biMX_Code_UMV
 0026:0012F7B8       MP4VDEC_TI_MC_Round_On_biMX_Code_UMV
 0026:0012FA10       MP4VDEC_TI_MC31_Round_Off_biMX_Code_UMV
 0026:0012FC68       MP4VDEC_TI_MC31_Round_On_biMX_Code_UMV
 0026:0012FEC0       MP4VDEC_TI_mask16
 0026:0012FEE4       IRESMAN_VICP2
 0026:0012FEFC       memfd
 0026:0012FF00       IRES_VICP2_PROTOCOLREVISION_0
 0026:0012FF0C       IRESMAN_VICP2_CONSTRUCTFXNS
 0026:0012FF24       IRESMAN_GROUPUTILS
 0026:0012FF3C       IRES_GROUPUTILS_PROTOCOLREVISION
 0026:0012FF48       IRESMAN_GROUPUTILS_CONSTRUCTFXNS
 0026:0012FF60       IRESMAN_EDMA3CHAN
 0026:0012FF78       IRES_EDMA3CHAN_PROTOCOLREVISION_0
 0026:0012FF84       IRESMAN_EDMA3CHAN_CONSTRUCTFXNS
 0026:0012FF9C       initStatus
 0026:0012FFA0       IRES_NULLRES_PROTOCOLREVISION
 0026:0012FFAC       IRESMAN_NULLRES
 0026:0012FFC4       IRES_HDVICP_PROTOCOLREVISION
 0026:0012FFD0       IRES_EDMA3CHAN_PROTOCOLREVISION_1
 0026:0012FFDC       IRES_ADDRSPACE_PROTOCOLREVISION_1
 0026:0012FFE8       MPEG2VDEC_TI_IMPEG2VDEC
 0026:00130014       MPEG2VDEC_TI_IALG
 0026:00130038       IRES_EDMA3CHAN_PROTOCOLREVISION_2
 0026:00130044       IRES_VICP2_PROTOCOLREVISION_1
 0026:00130050       IRES_HDVICP_PROTOCOLREVISION_0
 0026:0013005C       IRES_ADDRSPACE_PROTOCOLREVISION_2
 0026:00130068       edma_max_linked
 0026:001300A4       mp2_edma_lgl_to_tc_map
 0026:001301A4       MPEG2VDEC_TI_IRES
 0026:001301CC       IRES_EDMA3CHAN_PROTOCOLREVISION_3
 0026:001301D8       IRES_HDVICP_PROTOCOLREVISION_1
 0026:001301E4       IRES_EDMA3CHAN_PROTOCOLREVISION_4
 0026:001301F0       IRES_ADDRSPACE_PROTOCOLREVISION_3
 0026:001301FC       MPEG2VDEC_TI_Static_Params
 0026:0013021C       MPEG2VDEC_TI_DynamicParams
 0026:00130244       MPEG2VDEC_TI_PARAMS
 0026:00130264       IRES_EDMA3CHAN_PROTOCOLREVISION_5
 0026:00130270       IRES_HDVICP_PROTOCOLREVISION_2
 0026:0013027C       IRES_EDMA3CHAN_PROTOCOLREVISION_6
 0026:00130288       IRES_ADDRSPACE_PROTOCOLREVISION_4
 0026:00130294       IRES_HDVICP_PROTOCOLREVISION_3
 0026:001302A0       IRES_EDMA3CHAN_PROTOCOLREVISION_7
 0026:001302AC       IRES_ADDRSPACE_PROTOCOLREVISION_5
 0026:001302B8       IRES_EDMA3CHAN_PROTOCOLREVISION_8
 0026:001302C4       IRES_EDMA3CHAN_PROTOCOLREVISION_9
 0026:001302D0       IRES_EDMA3CHAN_PROTOCOLREVISION_10
 0026:001302DC       IRES_EDMA3CHAN_PROTOCOLREVISION_11
 0026:001302E8       IRES_EDMA3CHAN_PROTOCOLREVISION_12
 0026:001302F4       IRES_EDMA3CHAN_PROTOCOLREVISION_13
 0026:00130300       IRES_VICP2_PROTOCOLREVISION_2
 0026:0013030C       IRES_HDVICP_PROTOCOLREVISION_4
 0026:00130318       IRES_ADDRSPACE_PROTOCOLREVISION_6
 0026:00130324       IRES_MEMTCM_PROTOCOLREVISION
 0026:00130330       H264VDEC_TI_IRES
 0026:00130358       IRES_HDVICP_PROTOCOLREVISION_5
 0026:00130364       IRES_VICP2_PROTOCOLREVISION_3
 0026:00130370       IRES_ADDRSPACE_PROTOCOLREVISION_7
 0026:0013037C       IRES_EDMA3CHAN_PROTOCOLREVISION_14
 0026:00130388       IRES_MEMTCM_PROTOCOLREVISION_0
 0026:00130394       H264VDEC_TI_IH264VDEC
 0026:001303C4       H264VDEC_TI_IALG
 0026:001303E8       IRES_EDMA3CHAN_PROTOCOLREVISION_15
 0026:001303F4       IRES_HDVICP_PROTOCOLREVISION_6
 0026:00130400       IRES_VICP2_PROTOCOLREVISION_4
 0026:0013040C       IRES_ADDRSPACE_PROTOCOLREVISION_8
 0026:00130418       IRES_EDMA3CHAN_PROTOCOLREVISION_16
 0026:00130424       IRES_MEMTCM_PROTOCOLREVISION_1
 0026:00130430       IRES_HDVICP_PROTOCOLREVISION_7
 0026:0013043C       IRES_VICP2_PROTOCOLREVISION_5
 0026:00130448       IRES_ADDRSPACE_PROTOCOLREVISION_9
 0026:00130454       IRES_EDMA3CHAN_PROTOCOLREVISION_17
 0026:00130460       IRES_MEMTCM_PROTOCOLREVISION_2
 0026:0013046C       IH264VDEC_PARAMS
 0026:001304A4       IRES_EDMA3CHAN_PROTOCOLREVISION_18
 0026:001304B0       IRES_HDVICP_PROTOCOLREVISION_8
 0026:001304BC       IRES_VICP2_PROTOCOLREVISION_6
 0026:001304C8       IRES_ADDRSPACE_PROTOCOLREVISION_10
 0026:001304D4       IRES_MEMTCM_PROTOCOLREVISION_3
 0026:001304E0       IRES_EDMA3CHAN_PROTOCOLREVISION_19
 0026:001304EC       IRES_EDMA3CHAN_PROTOCOLREVISION_20
 0026:001304F8       IRES_EDMA3CHAN_PROTOCOLREVISION_21
 0026:00130504       IRES_EDMA3CHAN_PROTOCOLREVISION_22
 0026:00130510       IRES_EDMA3CHAN_PROTOCOLREVISION_23
 0026:0013051C       IRES_EDMA3CHAN_PROTOCOLREVISION_24
 0026:00130528       IRES_EDMA3CHAN_PROTOCOLREVISION_25
 0026:00130534       IRES_EDMA3CHAN_PROTOCOLREVISION_26
 0026:00130540       IRES_EDMA3CHAN_PROTOCOLREVISION_27
 0026:0013054C       IRES_EDMA3CHAN_PROTOCOLREVISION_28
 0026:00130558       IRES_EDMA3CHAN_PROTOCOLREVISION_29
 0026:00130564       IRES_EDMA3CHAN_PROTOCOLREVISION_30
 0026:00130570       IRES_HDVICP_PROTOCOLREVISION_9
 0026:0013057C       IRES_VICP2_PROTOCOLREVISION_7
 0026:00130588       IRES_ADDRSPACE_PROTOCOLREVISION_11
 0026:00130594       IRES_EDMA3CHAN_PROTOCOLREVISION_31
 0026:001305A0       IRES_MEMTCM_PROTOCOLREVISION_4
 0026:001305AC       IRES_EDMA3CHAN_PROTOCOLREVISION_32
 0026:001305B8       idForDisabledThread
 0026:001305BC       prefixMask
 0026:001305C0       IRESMAN_HDVICP
 0026:001305D8       memfd_0
 0026:001305DC       IRES_HDVICP_PROTOCOLREVISION_10
 0026:001305E8       IRESMAN_HDVICP_CONSTRUCTFXNS
 0026:00130600       VICP_irqk_fd
 0026:00130604       IRESMAN_MEMTCM
 0026:0013061C       IRES_MEMTCM_PROTOCOLREVISION_5
 0026:00130628       IRESMAN_MEMTCM_CONSTRUCTFXNS
 0026:00130640       ENHAACPDECODER_ITTIAM_IENHAACPDECODER
 0026:0013066C       ENHAACPDECODER_ITTIAM_IALG
 0026:00130690       ENHAACPDECODER_ITTIAM_PARAMS
 0026:001306C4       memfd_1
 0026:001306C8       IRESMAN_ADDRSPACE
 0026:001306E0       IRES_ADDRSPACE_PROTOCOLREVISION_12
 0026:001306EC       IRESMAN_ADDRSPACE_CONSTRUCTFXNS
 0026:00130704       cmem_fd
 0026:00130708       CMEM_DEFAULTPARAMS
 0026:00130714       EDMA_dmaops_fd
 0026:00130718       EDMA_memfd
 0026:0013071C       G711DEC_SUN_PARAMS
 0026:0013072C       G711DEC_SUN_IG711DEC
 0026:00130758       G711DEC_SUN_IALG
 0027:001307A0       stdout@@GLIBC_2.4
 0027:001307A8       stderr@@GLIBC_2.4
 0027:001307B0       optarg@@GLIBC_2.4
 0027:001307B4       completed.5904
 0027:001307B8       savestr
 0027:00130838       isSave
 0027:0013083C       s_bWatchdogDisable
 0027:0013083D       s_bHDMIExist
 0027:0013083E       s_bHDMIConnected
 0027:00130840       s_slTotal.8600
 0027:00130844       s_time1.8599
 0027:0013084C       s_bInit.8598
 0027:00130850       s_ul68013DummyReadKbps
 0027:00130854       s_ClientProSendMutex
 0027:0013086C       s_bInit.6246
 0027:00130870       s_tTime.6245
 0027:00130878       s_tClientProProtocolData
 0027:0013094C       s_aucClientProSendBuff
 0027:0013114C       s_ulClientProSendLen
 0027:00131150       s_tClientProSendTime
 0027:00131158       s_read_ctrl
 0027:0013115C       s_read_state
 0027:00131160       s_slVideoBps
 0027:00131164       s_SerialHandleMutex
 0027:0013117C       s_DecDataMutex
 0027:00131194       s_DecSerialProtocolCmdMutex
 0027:001311AC       s_bCertValid.7241
 0027:001311B0       s_ulCertLen.7240
 0027:001311B4       s_aucCert.7239
 0027:001315B4       s_ptSerialHandle
 0027:001315B8       s_tDecSerialProtocolData
 0027:0013168C       s_tABHomeOSD
 0027:001316A8       s_bABHomeOSDValid
 0027:001316A9       s_tABCommonOSD
 0027:001316DA       s_bABCommonOSDValid
 0027:001316DB       s_ucGSRcQuality
 0027:001316DC       s_bGSRcQualityValid
 0027:001316DD       s_ucGSVideoQuality
 0027:001316DE       s_bGSVideoQualityValid
 0027:001316DF       s_tElectricityData
 0027:001316FC       s_bElectricityDataValid
 0027:001316FD       s_tCameraStatus
 0027:0013171E       s_bCameraStatusValid
 0027:0013171F       s_tRcGpsInfo
 0027:0013173D       s_bRcGpsInfoValid
 0027:00131740       s_colorSpace
 0027:00131744       s_hLoader
 0027:00131748       s_hInBuf
 0027:0013174C       s_hInBufTab
 0027:00131750       init
 0027:00131754       s_hEngine
 0027:00131758       s_hVd2
 0027:0013175C       s_hVideoBufTab
 0027:00131760       s_slDecodeType
 0027:00131764       s_slVideoType
 0027:00131768       s_slOutMode
 0027:0013176C       s_hDisplay
 0027:00131770       s_hDisplayBufTab
 0027:00131774       s_bFluencyMode
 0027:00131778       s_tTimeBak.8399
 0027:00131780       s_Init.8569
 0027:00131784       s_cnt.8568
 0027:00131788       s_DisplayEnv
 0027:00131790       s_VideoEnv
 0027:001317A8       s_iCtrl
 0027:001317AC       s_iState
 0027:001317B0       pRec
 0027:001317B4       fd
 0027:001317B8       s_lAttrs
 0027:001317DC       s_hVideoInFifo
 0027:001317E0       s_hVideoOutFifo
 0027:001317E4       s_defaultParams
 0027:00131800       s_defaultDynParams
 0027:0013181C       s_pParams
 0027:00131820       s_pDynParams
 0027:00131824       s_VideogfxAttrs
 0027:00131854       s_VideobufSize
 0027:00131858       s_Videodim
 0027:0013186C       s_iVideoState
 0027:00131870       s_iFindDimensions
 0027:00131874       s_outArgs
 0027:00132014       s_NoRecCnt
 0027:00132018       s_aucBuffTemp
 0027:001B2018       s_ulTempOffset
 0027:001B201C       s_bDisplayInit
 0027:001B2020       s_dAttrs
 0027:001B2054       s_DisplaygfxAttrs
 0027:001B2084       s_Displaydim
 0027:001B2098       s_DisplaybufSize
 0027:001B209C       s_hDisplayInFifo
 0027:001B20A0       s_hDisplayOutFifo
 0027:001B20A4       pDeal
 0027:001B20A8       s_slOsdType
 0027:001B20AC       hOsd
 0027:001B20B0       hOsdAttr
 0027:001B20B4       s_atMyFont
 0027:001B2EB4       s_ausBitmap2RGB565
 0027:001B30B4       s_aucBitmap2Trans
 0027:001B31B4       s_atMyPic
 0027:001B3390       s_tOsdDisplayData
 0027:001B3450       s_slLeftMargin
 0027:001B3454       s_slRightMargin
 0027:001B3458       s_slUpperMargin
 0027:001B345C       s_slLowerMargin
 0027:001B3460       s_slWidth
 0027:001B3464       s_slHeight
 0027:001B3468       s_slParameterUnit
 0027:001B346C       _entries
 0027:001B3488       _params
 0027:001B34A4       ti_sdo_ce_dvtLog
 0027:001B34A8       Memory_skipVirtualAddressTranslation
 0027:001B34AA       ti_sdo_ce_Engine_noCommName
 0027:001B34AC       Global_useLinkArbiter
 0027:001B34B0       VISA_checked
 0027:001B34B2       RMAN_numRegistryEntries
 0027:001B34B4       RMAN_registryEntries
 0027:001B34B8       RMAN_registryResmanArgs
 0027:001B34BC       _VICPSYNC_dm355
 0027:001B34C0       ti_sdo_fc_edma3_EDMA3_physicalId
 0027:001B34C4       _VICP2_dm355
 0027:001B34C6       ADDRSPACE_noTranslation
 0027:001B34C8       ti_sdo_ce_alg_ALG_useHeap
 0027:001B34CC       ti_sdo_ce_alg_ALG_useCache
 0027:001B34D0       _ALG_groupRefCount
 0027:001B3520       _Algorithm_lockOwner
 0027:001B3570       engineAlgs1
 0027:001B35A0       ti_sdo_dmai_GTMask
 0027:001B35A8       logLevelSetByEnv
 0027:001B35AC       Dmai_DM365dmaLock
 0027:001B35C4       curInit.3761
 0027:001B35C8       ti_sdo_ce_video2_VIDDEC2_curTrace
 0027:001B35D0       init_0
 0027:001B35D4       curTrace
 0027:001B35DC       Server_holdingTraceToken
 0027:001B35E0       curTrace_0
 0027:001B35E8       stubFxnsList
 0027:001B35F0       curInit
 0027:001B35F4       engineList
 0027:001B35FC       serverLock
 0027:001B3600       traceLock
 0027:001B3604       engineLock
 0027:001B3608       gppCommId
 0027:001B360C       serverTab
 0027:001B3618       localEngine
 0027:001B361C       traceToken
 0027:001B3620       Engine_alwaysCollectDspTrace
 0027:001B3624       curTrace_1
 0027:001B362C       curTrace_2
 0027:001B3634       curInit_0
 0027:001B3638       curInit_1
 0027:001B363C       curInit.3668
 0027:001B3640       curTrace_3
 0027:001B3648       curInit_2
 0027:001B364C       curTrace_4
 0027:001B3654       Comm_ATTRS
 0027:001B3660       curInit_3
 0027:001B3664       curTrace_5
 0027:001B366C       mut
 0027:001B3684       curTrace_6
 0027:001B368C       contigBufList
 0027:001B3690       moduleLock
 0027:001B3694       curInit_4
 0027:001B3696       cmemInitialized
 0027:001B3698       numCmemBlocks
 0027:001B369C       curInit_5
 0027:001B36A0       curTrace_7
 0027:001B36A8       exitFxnList
 0027:001B36AC       curInit_6
 0027:001B36B0       taskKey
 0027:001B36B4       curTrace_8
 0027:001B36BC       curInit_7
 0027:001B36C0       Lock_system
 0027:001B36C4       Lock_ATTRS
 0027:001B36C8       mutex
 0027:001B36E0       GTConfig_gettimeofdayInit
 0027:001B36E4       initTime
 0027:001B36E8       curInit_8
 0027:001B36EC       traceOutStreamOpenedHere
 0027:001B36F0       mattrs
 0027:001B36F4       GT_config_traceOutStream
 0027:001B36F8       curInit_9
 0027:001B36FC       curTrace_9
 0027:001B3704       curInit_10
 0027:001B3708       curTrace_10
 0027:001B3710       curTrace_11
 0027:001B3718       curInit_11
 0027:001B371C       MP4VDEC_TI_InvQCONT
 0027:001B3720       _resmanInternalState
 0027:001B3724       smgr
 0027:001B3728       _freeFxn
 0027:001B372C       _allocFxn
 0027:001B3730       _VICP2_lock
 0027:001B3734       gtInit
 0027:001B3738       _VICP2_pscBase
 0027:001B373C       _VICP2_dmaViewConfigBase
 0027:001B3740       _VICP2_configBase
 0027:001B3744       _initialized
 0027:001B3748       _GROUPUTILS_sem
 0027:001B374C       gtInit_0
 0027:001B3750       _resmanInternalState_0
 0027:001B3758       _GROUPUTILS_sem_0
 0027:001B375C       currentAlg
 0027:001B3760       _initialized_0
 0027:001B3764       _freeFxn_0
 0027:001B3768       _dchmapExists
 0027:001B376C       _allocFxn_0
 0027:001B3770       gtInit_1
 0027:001B3774       internalState
 0027:001B3778       pResMgrObj
 0027:001B377C       pResTable
 0027:001B3780       _EDMA3_baseAddress
 0027:001B3784       _EDMA3_pOpens
 0027:001B3788       _EDMA3_lock
 0027:001B378C       rmanInit
 0027:001B378E       resTable
 0027:001B3794       rmanYieldArgs
 0027:001B383C       _initialized_1
 0027:001B3840       _resmanInternalState_1
 0027:001B3848       Non_Linear_quantizer_scale
 0027:001B3868       Non_Linear_quantizer_scale_0
 0027:001B3888       Non_Linear_quantizer_scale_1
 0027:001B38A8       Non_Linear_quantizer_scale_2
 0027:001B38C8       Non_Linear_quantizer_scale_3
 0027:001B38E8       timeMask
 0027:001B38EC       lastTime.2219
 0027:001B38F0       initModFlags
 0027:001B38F4       modNameList
 0027:001B38F8       curInit_12
 0027:001B38FC       _initialized_2
 0027:001B3900       _HDVICP_lock
 0027:001B3904       gtInit_2
 0027:001B3908       allocFxn
 0027:001B390C       freeFxn
 0027:001B3910       _resmanInternalState_2
 0027:001B3914       registerBaseAddress
 0027:001B3918       pscBaseAddress
 0027:001B391C       memoryBaseAddress
 0027:001B3920       gtInit_3
 0027:001B3924       VICP_refCount
 0027:001B3928       resource_registered
 0027:001B3940       _initialized_3
 0027:001B3944       _resmanInternalState_3
 0027:001B3948       smgr_0
 0027:001B394C       _freeFxn_1
 0027:001B3950       _allocFxn_1
 0027:001B3954       armtcmAddr
 0027:001B3958       _MEMTCM_lock
 0027:001B395C       gtInit_4
 0027:001B3960       shmTotal
 0027:001B3964       shmCount
 0027:001B3968       shmAddrs
 0027:001B39B8       shmIndex
 0027:001B3A08       curInit_13
 0027:001B3A0C       _initialized_4
 0027:001B3A10       gtInit_5
 0027:001B3A14       _resmanInternalState_4
 0027:001B3A1C       ref_count
 0027:001B3A20       EDMA_basePhysAddr
 0027:001B3A24       EDMA_refCount
 0027:001B3A28       latency
 0027:001B3A2C       RMAN_FREE_ENTRIES
 0027:001B3A44       _ALG_sems
 0027:001B3A94       RMAN_TABLE
 0027:001B3AC0       g_protocolArgs
 0027:001B3AD4       ti_sdo_ce__dummy__
 0027:001B3AD8       ti_sdo_ce_alg_GTMask
 0027:001B3AE0       Queue_ATTRS
 0027:001B3AE4       MP4VDEC_TI_seqcmd_int_space
 0027:001B3B24       MP4VDEC_TI_seqcmd_SMEM
 0027:001B3B54       MP4VDEC_TI_EDMA_SAVE_RECON_MB_CbCr_IMG_B_UPDATE
 0027:001B3B58       MP4VDEC_TI_EDMA_ODD_EVENT_CALL
 0027:001B3B5C       MP4VDEC_TI_EDMA_STORE_DCAC_MEM_A
 0027:001B3B60       MP4VDEC_TI_EDMA_SW_SEQ4_TO_BPVLD_EVEN
 0027:001B3B64       MP4VDEC_TI_Seq_DATA2
 0027:001B3B68       MP4VDEC_TI_EDMA_FILL_UPPER_BITSTREAM_BUFFER
 0027:001B3B6C       MP4VDEC_TI_EDMA_FILL_UPPER_BITSTREAM_BUFFER_POST
 0027:001B3B70       MP4VDEC_TI_EDMA_LOAD_REF_MB_FOR_MC_Y_IMG_B_UPDATE_2
 0027:001B3B74       MP4VDEC_TI_EDMA_SW_SEQ4_TO_BPS
 0027:001B3B78       MP4VDEC_TI_EDMA_FILL_LOWER_BITSTREAM_BUFFER
 0027:001B3B7C       MP4VDEC_TI_EDMA_SAVE_RECON_MB_Y_IMG_B_UPDATE
 0027:001B3B80       MP4VDEC_TI_EDMA_LOAD_DCAC_MEM_B
 0027:001B3B84       MP4VDEC_TI_EDMA_LOAD_REF_MB_FOR_MC_Y_IMG_C
 0027:001B3B88       MP4VDEC_TI_EDMA_LOAD_BiMX_CODE
 0027:001B3B8C       MP4VDEC_TI_EDMA_SET_CLR_INT_REG
 0027:001B3B90       MP4VDEC_TI_EDMA_LOAD_REF_MB_FOR_MC_Y_IMG_C_UPDATE_2
 0027:001B3B94       MP4VDEC_TI_EDMA_FilllBitstreamBuffer
 0027:001B3B98       MP4VDEC_TI_EDMA_SAVE_RECON_MB_CbCr_IMG_B
 0027:001B3B9C       MP4VDEC_TI_EDMA_SAVE_RECON_422MB_IMG_C
 0027:001B3BA0       MP4VDEC_TI_EDMA_SAVE_RECON_422MB_UPDATE_IMG_C
 0027:001B3BA4       MP4VDEC_TI_Seq_DATA
 0027:001B3BA8       MP4VDEC_TI_EDMA_SW_SEQ4_TO_BPVLD_ODD
 0027:001B3BAC       MP4VDEC_TI_EDMA_FILL_LOWER_BITSTREAM_BUFFER_POST
 0027:001B3BB0       MP4VDEC_TI_Seq_DATA_ODD
 0027:001B3BB4       MP4VDEC_TI_EDMA_LOAD_REF_MB_Y_INIT
 0027:001B3BB8       MP4VDEC_TI_EDMA_LOAD_DCAC_MEM_A
 0027:001B3BBC       MP4VDEC_TI_EDMA_LOAD_REF_MB_CbCr_INIT
 0027:001B3BC0       MP4VDEC_TI_EDMA_LOAD_REF_MB_FOR_MC_CbCr_IMG_C_UPDATE_2
 0027:001B3BC4       MP4VDEC_TI_EDMA_LOAD_REF_MB_FOR_MC_Y_IMG_B
 0027:001B3BC8       MP4VDEC_TI_EDMA_LOAD_REF_MB_FOR_MC_CbCr_IMG_B_UPDATE_2
 0027:001B3BCC       MP4VDEC_TI_EDMA_LOAD_REF_MB_FOR_MC_Y_IMG_C_UPDATE
 0027:001B3BD0       MP4VDEC_TI_EDMA_SAVE_RECON_MB_Y_IMG_B
 0027:001B3BD4       MP4VDEC_TI_EDMA_LOAD_REF_MB_FOR_MC_CbCr_IMG_B
 0027:001B3BD8       MP4VDEC_TI_EDMA_SAVE_RECON_MB_CbCr_IMG_C
 0027:001B3BDC       MP4VDEC_TI_EDMA_EVEN_EVENT_CALL
 0027:001B3BE0       MP4VDEC_TI_EDMA_SAVE_RECON_422MB_IMG_B
 0027:001B3BE4       MP4VDEC_TI_EDMA_SAVE_RECON_422MB_UPDATE_IMG_B
 0027:001B3BE8       MP4VDEC_TI_EDMA_SAVE_RECON_MB_Y_IMG_C_UPDATE
 0027:001B3BEC       MP4VDEC_TI_EDMA_LOAD_REF_MB_FOR_MC_CbCr_IMG_C_UPDATE
 0027:001B3BF0       MP4VDEC_TI_EDMA_STORE_DCAC_MEM_B
 0027:001B3BF4       MP4VDEC_TI_EDMA_LOAD_REF_MB_FOR_MC_CbCr_IMG_C
 0027:001B3BF8       MP4VDEC_TI_EDMA_SAVE_RECON_MB_Y_IMG_C
 0027:001B3BFC       MP4VDEC_TI_EDMA_LOAD_REF_MB_FOR_MC_CbCr_IMG_B_UPDATE
 0027:001B3C00       MP4VDEC_TI_EDMA_SAVE_RECON_MB_CbCr_LAST
 0027:001B3C04       MP4VDEC_TI_EDMA_SW_SEQ4_TO_BPS_COMMON
 0027:001B3C08       MP4VDEC_TI_EDMA_SAVE_RECON_MB_CbCr_IMG_C_UPDATE
 0027:001B3C0C       MP4VDEC_TI_EDMA_SAVE_RECON_MB_Y_LAST
 0027:001B3C10       MP4VDEC_TI_EDMA_LOAD_REF_MB_FOR_MC_Y_IMG_B_UPDATE
 0027:001B3C14       Data_420Y
 0027:0025C814       Data_420CbCr
 0027:002B0E14       MP4VDEC_TI_sreg_qiq
 0027:002B0E94       VICPSYNC_PARAMS
 0027:002B0E98       _VICP2_buffLens
 0027:002B0ED8       _VICP2_bufSize
 0027:002B0EDC       _VICP2_buffOffsets
 0027:002B0F1C       _VICP2_regSize
 0027:002B0F20       ti_sdo_fc_ires_vicp2_GTMask
 0027:002B0F28       IRESMAN_VICP2_DEFAULTPARAM
 0027:002B0F34       ti_sdo_fc_ires_grouputils_GTMask
 0027:002B0F3C       IRESMAN_GROUPUTILS_DEFAULTPARAM
 0027:002B0F48       ti_sdo_fc_ires_edma3chan_GTMask
 0027:002B0F50       IRESMAN_EDMA3CHAN_DEFAULTPARAM
 0027:002B0F5C       ti_sdo_fc_edma3_GTMask
 0027:002B0F64       _RMAN_lock
 0027:002B0F68       ti_sdo_fc_rman_GTMask
 0027:002B0F70       ti_sdo_fc_ires_nullres_GTMask
 0027:002B0F78       HDVICPSYNC_PARAMS
 0027:002B0F7C       IRESMAN_HDVICP_DEFAULTPARAM
 0027:002B0F90       ti_sdo_fc_ires_hdvicp_GTMask
 0027:002B0F98       IRESMAN_MEMTCM_DEFAULTPARAM
 0027:002B0FA4       ti_sdo_fc_ires_memtcm_GTMask
 0027:002B0FAC       ti_sdo_fc_utils_sharedMem_sharedMemory_GTMask
 0027:002B0FB4       ti_sdo_fc_ires_addrspace_GTMask
 0027:002B0FBC       IRESMAN_ADDRSPACE_DEFAULTPARAM
 0028:002B0FC8       _end_0
 0000:00000000 Abs   BuildAttributes$$ARM_ISAv5$M$E$P$PE$A:L22$X:L11$S22$IEEE1$IW$USESV6$_STKCKD$USESV7$_SHL$OSPACE$EBA8$REQ8$PRES8$EABIv2
 0000:00000000 Abs   BuildAttributes$$ARM_ISAv5$M$E$P$PE$A:L22$X:L11$S22$IEEE1$IW$USESV6$_STKCKD$USESV7$_SHL$OSPACE$EBA8$PRES8$EABIv2
 0000:00000000 Abs   BuildAttributes$$ARM_ISAv5$M$E$P$PE$A:L22$X:L11$S22$IEEE1$IW$USESV6$_STKCKD$USESV7$_SHL$OSPACE$EBA8$EABIv2
 0000:00000000 Abs   BuildAttributes$$ARM_ISAv5$M$E$P$PE$A:L22$X:L11$S22$IEEE1$IW$USESV6$_STKCKD$USESV7$_SHL$OTIME$EBA8$REQ8$PRES8$EABIv2
 0000:00000000 Abs   BuildAttributes$$ARM_ISAv5$M$E$P$PE$A:L22$X:L11$S22$IEEE1$IW$USESV6$_STKCKD$USESV7$_SHL$OTIME$EBA8$PRES8$EABIv2
 0000:00000000 Abs   shift
 0000:0013079C Abs   __bss_start__
 0000:00125EA0 Abs   __exidx_end
 0000:002B0FC8 Abs   __end__
 0000:002B0FC8 Abs   __bss_end__
 0000:0013079C Abs   __bss_start
 0000:002B0FC8 Abs   _bss_end__
 0000:002B0FC8 Abs   _end
 0000:0013079C Abs   _edata
 0000:001254B0 Abs   __exidx_start

Program entry point at 0008:00000000
