
 Start         Length     Name                   Class
 0003:00000000 00001BBA0H .text                  CODE
 0004:00000000 00000560CH .data                  DATA
 0005:00000000 000008000H .bss                   BSS
 0007:00000000 000050000H .bss2                  BSS
 0001:00000000 000000008H EXIDX                  DATA
 0006:00000000 000010000H .bss3                  BSS


  Address         Publics by Value

 0003:0000A596       log_current_status
 0003:0000A65C       aSomethingChang
 0003:0000A670       aNoChange
 0003:0000A6B4       aVerioD
 0003:0000A6C4       aVerX
 0003:0000A6CC       aMar112016
 0003:0000A6D8       aBuild_dateS
 0003:0000A6E8       a182228
 0003:0000A6F4       aBuild_timeS
 0003:0000A704       aDefverD
 0003:0000A710       aUid08x08x08x08
 0003:0000A728       aId02x02x02x02x
 0003:0000A744       aMynameCCCCCC
 0003:0000A758       aMypassword04d
 0003:0000A768       aRcXXXXX
 0003:0000AB6C       a5_8g
 0003:0000AB74       a900m
 0003:0000AB7C       aS
 0003:0000AB80       aFcc
 0003:0000AB84       aOff
 0003:0000AB88       aSS
 0003:0000AB90       aCe
 0003:0000AB94       aOn
 0003:0000AB98       aMaster
 0003:0000ABA0       aSlaver
 0003:0000ABA8       aGroup_id02x02x
 0003:0000ABC8       aGroup_nameCCCC
 0003:0000ABE0       aGroup_password
 0003:0000ABF4       aMyipD
 0003:0000ABFC       aStatue02x
 0003:0000AC08       aGimbal_ctlipD
 0003:0000AC18       aSlaverDId02x02
 0003:0000AC4C       aChD
 0003:0000AC54       aMcsD
 0003:0000AC5C       aAutoS
 0003:0000AC68       a5d5d5d
 0003:0000AC78       aMonitor
 0003:0000AC80       aCaliErr
 0003:0000AC8C       aCaliChange
 0003:0000AC9C       aDD
 0003:0000ACB8       aStickerr
 0003:0000ACC4       aFpgaerr
 0003:0000ACCC       aRfmoduleerr
 0003:0000ACD8       aF330err
 0003:0000ACE0       aGpserr
 0003:0000ACE8       aEncrypterr
 0003:0000ACF4       aReseterr
 0003:0000AD00       aBattery600mh
 0003:0000AD10       aTemperr
 0003:0000B144       aRadio
 0003:0000B154       aLedbell
 0003:0000B164       aUnpack
 0003:0000B178       aBk5811
 0003:0000B184       aCc1120
 0003:0000B194       aAdckey
 0003:0000B1B0       a3d3d3d3d3d3d3d
 0003:0000B1D8       aSSDIpDCtlD3d3d
 0003:0000B210       aM
 0003:0000B35C       aStart
 0003:0000B87E       jpt_187A
 0003:0000B890       def_187A
 0003:0000BA06       jpt_1A02
 0003:0000BAC4       def_1A02
 0003:0000C62A       jpt_2626
 0003:0000C650       def_2626
 0003:0000C9F8       jpt_29F4
 0003:0000CA0C       def_29F4
 0003:0000CB5E       cmd_exec_set08_cmd02
 0003:0000CB7C       cmd_exec_set08_cmd0E
 0003:0000CBB6       cmd_exec_set09_cmd15
 0003:0000CBD2       packet_send
 0003:0000CBE0       jpt_2BDC
 0003:0000CC24       def_2BDC
 0003:0000CC26       packet_prepare_response
 0003:0000CCB6       cmd_exec_set09_cmd14
 0003:0000CDA8       cmd_exec_set09_cmd13
 0003:0000CE60       cmd_exec_set09_cmd12
 0003:0000CECE       cmd_exec_set09_cmd10
 0003:0000CF02       cmd_exec_set09_cmd0D
 0003:0000CF9E       cmd_exec_set09_cmd0C
 0003:0000CFF0       cmd_exec_set09_cmd09
 0003:0000D022       cmd_exec_set09_cmd07
 0003:0000D062       cmd_exec_set09_cmd06
 0003:0000D09E       cmd_exec_set09_cmd05
 0003:0000D0D8       cmd_exec_set09_cmd04
 0003:0000D112       cmd_exec_set09_cmd00
 0003:0000D12E       cmd_exec_set06_cmd41
 0003:0000D148       cmd_exec_set06_cmdFD
 0003:0000D184       cmd_exec_set06_cmdF0
 0003:0000D47A       cmd_exec_set06_cmd3B
 0003:0000D4B8       cmd_exec_set06_cmd38
 0003:0000D528       cmd_exec_set06_cmd36
 0003:0000D55E       cmd_exec_set06_cmd35
 0003:0000D59C       cmd_exec_set06_cmd34
 0003:0000D5D4       cmd_exec_set06_cmd33
 0003:0000D614       cmd_exec_set06_cmd32
 0003:0000D672       cmd_exec_set06_cmd31
 0003:0000D744       cmd_exec_set06_cmd30
 0003:0000D784       cmd_exec_set06_cmd2F
 0003:0000D7DC       cmd_exec_set06_cmd2E
 0003:0000D81A       cmd_exec_set06_cmd2D
 0003:0000D852       cmd_exec_set06_cmd2C
 0003:0000D8BA       cmd_exec_set06_cmd2B
 0003:0000D90C       cmd_exec_set06_cmd2A
 0003:0000D94A       cmd_exec_set06_cmd29
 0003:0000D984       cmd_exec_set06_cmd28
 0003:0000DD24       cmd_exec_set06_cmd27
 0003:0000DE60       cmd_exec_set06_cmd25
 0003:0000DE8E       cmd_exec_set06_cmd24
 0003:0000DEE6       cmd_exec_set06_cmd23
 0003:0000DF58       cmd_exec_set06_cmd22
 0003:0000DFE8       cmd_exec_set06_cmd21
 0003:0000E016       cmd_exec_set06_cmd20
 0003:0000E048       cmd_exec_set06_cmd1A
 0003:0000E084       cmd_exec_set06_cmd19
 0003:0000E0EC       cmd_exec_set06_cmd18
 0003:0000E14C       cmd_exec_set06_cmd17
 0003:0000E1B6       cmd_exec_set06_cmd16
 0003:0000E200       cmd_exec_set06_cmd15
 0003:0000E27C       cmd_exec_set06_cmd14
 0003:0000E306       cmd_exec_set06_cmd13
 0003:0000E30E       cmd_exec_set06_cmd12
 0003:0000E33C       cmd_exec_set06_cmd11
 0003:0000E36E       cmd_exec_set06_cmd10
 0003:0000E39C       cmd_exec_set06_cmd0F
 0003:0000E3DC       cmd_exec_set06_cmd0E
 0003:0000E44C       cmd_exec_set06_cmd0D
 0003:0000E492       cmd_exec_set06_cmd0C
 0003:0000E588       cmd_exec_set06_cmd0B
 0003:0000E5B8       cmd_exec_set06_cmd0A
 0003:0000E5F0       cmd_exec_set06_cmd09
 0003:0000E626       cmd_exec_set06_cmd08
 0003:0000E664       cmd_exec_set06_cmd07
 0003:0000E6B8       cmd_exec_set06_cmd06
 0003:0000E6EE       cmd_exec_set06_cmd04
 0003:0000E74C       cmd_exec_set06_cmd03
 0003:0000E784       cmd_exec_set06_cmd02
 0003:0000E7B0       cmd_exec_set06_cmd01
 0003:0000E83E       cmd_exec_set01_cmd01
 0003:0000E8C6       cmd_exec_set00_cmdFF
 0003:0000E8FC       cmd_exec_set00_cmd32
 0003:0000E958       aWm610A7_176520
 0003:0000EA00       log_printf
 0003:0000F1CC       cmd_exec_set00_cmd30
 0003:0000F25C       cmd_exec_set00_cmd0D
 0003:0000F2BA       cmd_exec_set00_cmd0C
 0003:0000F31E       cmd_exec_set00_cmd0B
 0003:0000F384       cmd_exec_set00_cmd0A
 0003:0000F412       cmd_exec_set00_cmd08
 0003:0000F460       cmd_exec_set00_cmd07
 0003:0000F4E4       cmd_exec_set00_cmd01
 0003:0000F5D2       jpt_55CE
 0003:0000F600       def_55CE
 0003:0000F66A       def_56CE
 0003:0000F67E       jpt_567A
 0003:0000F6B0       jpt_56AC
 0003:0000F6D2       jpt_56CE
 0003:0000F7E2       def_58D8
 0003:0000F8DC       jpt_58D8
 0003:0000FB16       power_zone_auto_select
 0003:0000FE4E       jpt_5E4A
 0003:0000FEB4       jpt_5EB0
 0003:0000FEE6       def_5EB0
 0003:000109EE       def_6A78
 0003:00010A7C       jpt_6A78
 0003:00010D9C       a_2x
 0003:00011110       jpt_710C
 0003:000111D0       def_710C
 0003:00012560       aXXXXXXXXXXX
 0003:00012588       aAmcSem
 0003:000128BE       rf_power_unkn1
 0003:00012CA6       jpt_8CA2
 0003:00012CEC       def_8CA2
 0003:0001392E       jpt_992A
 0003:0001397A       def_992A
 0003:00013BD4       aXGrXXXX
 0003:00013BF4       a5_8gVerErrD
 0003:00013C0C       aRfmCrcErr
 0003:00013DC0       aMaster_0
 0003:00013DC8       aSlaver_0
 0003:00014D40       aTestmaster
 0003:00014D4C       aTestslaver
 0003:00014D5C       aMonitor_0
 0003:000156F0       ofdm_init_instruction
 0003:00015706       jpt_B702
 0003:00015764       def_B702
 0003:0001580A       init_fpga_config
 0003:00015A20       get_board_version
 0003:00015A8E       spi_raw_ct16_dt8_write
 0003:00015ABC       spi_raw_ct16_dt8_read
 0003:00015B60       ad936x_reg_sync_write
 0003:00015BAE       ad936x_reg_sync_read
 0003:000161A4       fpga_set_receiver_id
 0003:00016632       tcx_config_update1
 0003:00016A00       jpt_C9FC
 0003:00016A2E       def_C9FC
 0003:00016E2E       set_transciever_flag_20001A28_E
 0003:00016E44       set_transciever_flag_20001A28_D
 0003:00016E5A       set_transciever_flag_20001A28_B
 0003:00016E80       set_transciever_flag_20001A28_C
 0003:00016E9A       update_tcx_power_zone_flag
 0003:00016EB4       set_transciever_attenuation
 0003:00016EBC       get_transciever_attenuation
 0003:00016FD0       tcx_config_80105FA
 0003:0001702A       ad936x_config_set
 0003:000170EE       ad936x_config_get
 0003:00017B8C       a2d2d2d
 0003:00017B98       a2d2d4d
 0003:00017BA4       aF_0
 0003:00018008       aGpgga
 0003:00018010       aGprmc
 0003:00018018       aGpgsv
 0003:00018020       aD
 0003:00018024       aF
 0003:0001802C       compute_buf_crc8
 0003:00018176       packet_set_checksum
 0003:00018598       aSha204p_send_s
 0003:00018FDC       aFactory_infoEr
 0003:00018FF0       aMacErr
 0003:00018FF8       aChip_infoErr
 0003:00019010       aIsareadyencrpt
 0003:00019034       aBnCCCCCCCCCC
 0003:0001904C       aIsareadyencr_0
 0003:00019074       aBn2CCCCCCCCCC
 0003:00019090       aEncryptChange
 0003:000190A4       aEncryptLoss
 0003:0001A818       aCanBufOverFlow
 0003:0001A8E2       nullsub_8
 0003:0001AB58       nullsub_2
 0003:0001AF54       aUcOsIiiIdleTas
 0003:0001AFAC       aTaskQ
 0003:0001AFB4       aTaskSem
 0003:0001B182       jpt_1117E
 0003:0001B1EA       def_11294
 0003:0001B298       jpt_11294
 0003:0001B33A       jpt_11336
 0003:0001B3AE       def_11336
 0003:0001B400       nullsub_9
 0003:0001B42A       nullsub_3
 0003:0001B42E       nullsub_11
 0003:0001B4DA       nullsub_10
 0003:0001B550       nullsub_4
 0003:0001BB24       aSem
 0003:0001BB66       jpt_11B62
 0003:0001BBB6       jpt_11BB2
 0003:0001BBCC       def_11BB2
 0003:0001BBE0       def_11B62
 0003:0001BF20       jpt_11F1C
 0003:0001BF7C       aTask
 0003:0001BF9C       def_11F1C
 0003:0001BFF6       jpt_11FF2
 0003:0001C07C       def_11FF2
 0003:0001C1D0       jpt_121CC
 0003:0001C234       def_121CC
 0003:0001C2E6       jpt_122E2
 0003:0001C330       def_122E2
 0003:0001C440       jpt_1243C
 0003:0001C4D8       def_1243C
 0003:0001C6A8       aUcOsIiiTickTas
 0003:0001C91C       jpt_12918
 0003:0001C984       def_12918
 0003:0001C9DE       jpt_129DA
 0003:0001CA46       def_129DA
 0003:0001CB02       jpt_12AFE
 0003:0001CBB8       def_12AFE
 0003:0001CC28       jpt_12C24
 0003:0001CCD0       def_12C24
 0003:0001CEDA       jpt_12ED6
 0003:0001CEFA       def_12ED6
 0003:0001DA88       jpt_13A84
 0003:0001DAB8       jpt_13AB4
 0003:0001DB66       def_13A84
 0003:0001DB96       def_13AB4
 0003:0001DEE4       nullsub_5
 0003:0001DF46       nullsub_6
 0003:0001E0CC       nullsub_7
 0003:0001E0CE       nullsub_12
 0003:0001E604       compute_buf_crc16
 0003:0001E9C0       aWrongParameter
 0003:0001EAEC       jpt_14AE8
 0003:0001EAFC       jpt_14AF8
 0003:0001EB14       def_14AF8
 0003:0001EBDC       jpt_14BD8
 0003:0001EBEC       jpt_14BE8
 0003:0001EC04       def_14BE8
 0003:0001ECCC       jpt_14CC8
 0003:0001ECE6       def_14CC8
 0003:0001EDCE       jpt_14DCA
 0003:0001EDE0       aLpc17xx_libLpc
 0003:0001EE3A       def_14DCA
 0003:0001EF36       jpt_14F32
 0003:0001EF52       def_14F32
 0003:0001F00C       jpt_15008
 0003:0001F05C       def_15008
 0003:00021DE4       aInfinity
 0003:000222C0       aGfffeeeddddccc
 0003:00024EA0       jpt_1AE9C
 0003:00025866       jpt_1B862
 0004:00025E64       ofdm_init_list_2
 0004:00028FA0       ofdm_init_list_4
 0004:000298BC       ofdm_init_list_1
 0004:0002AB08       a0123456789abcd
 0004:0002AB1C       a0123456789abcd_0
 0005:10000310       active_transciever_attenuation
 0005:10000312       fpga_reg_unkn15_value
 0005:100042D0       ofdm_receiver_id
 0005:100042DC       transceiver_flags_1A28
 0005:1000433C       transciever_attenuation
 0005:1000433D       tcx_control_attenuation_by_packet
 0005:10004340       tcx_dword_33C0

Program entry point at 0003:00000000
