
 Start         Length     Name                   Class
 0003:00000000 000000034H LOAD                   CODE
 0002:00000000 000000100H PHDR                   CODE
 0003:00000000 0000037D8H LOAD                   CODE
 0006:00000000 00000000CH .init                  CODE
 0007:00000000 0000007D0H .plt                   CODE
 0008:00000000 0000A4104H .text                  CODE
 0009:00000000 00000101CH .text:IA_ENHAACPLUS_EN CODE
 000A:00000000 00000D548H .text:IA_ENHAACPLUS_EN CODE
 000B:00000000 000003F04H .text:IA_ENHAACPLUS_EN CODE
 000C:00000000 000000004H .text:algActivate      CODE
 000D:00000000 0000002A0H .text:algNumAlloc      CODE
 000E:00000000 000000204H .text:algAlloc         CODE
 000F:00000000 000000008H .text:algControl       CODE
 0010:00000000 000000004H .text:Deactivate       CODE
 0011:00000000 000000004H .text:exit             CODE
 0012:00000000 00000018CH .text:algFree          CODE
 0013:00000000 000000308H .text:init             CODE
 0014:00000000 000000370H .text:algInit          CODE
 0015:00000000 000000B30H .text:algMoved         CODE
 0016:00000000 000000008H .fini                  CODE
 0017:00000000 000074774H .rodata                CONST
 0018:00000000 0000000DCH xdc.meta               CONST
 0019:00000000 0000068C4H .constdata:IA_EAACP_EN CONST
 001A:00000000 00000017CH .constdata             CONST
 001B:00000000 000000B94H .ARM.extab             CONST
 001C:00000000 0000009C0H .ARM.exidx             CONST
 001D:00000000 000000004H .eh_frame              CONST
 001E:00000000 000000004H .init_array            DATA
 001F:00000000 000000004H .fini_array            DATA
 0020:00000000 000000004H .jcr                   DATA
 0021:00000000 000000004H .data.rel.ro           DATA
 0004:00000000 000000120H LOAD                   DATA
 0022:00000000 000000434H .got                   DATA
 0004:00000000 000000004H LOAD                   DATA
 0023:00000000 00000590CH .data                  DATA
 0004:00000000 000000004H LOAD                   DATA
 0024:00000000 0000014C8H .bss                   BSS
 0025:00000000 000000000H .prgend                


  Address         Publics by Value

 0003:00008134       aLibLdLinuxSo3
 0003:00008168       elf_hash_nbucket
 0003:0000816C       elf_hash_nchain
 0003:00008170       elf_hash_bucket
 0003:0000858C       elf_hash_chain
 0003:00009C0D       aLibpthreadSo0
 0003:00009C1D       aJvRegisterclas
 0003:00009C31       aLibasoundSo2
 0003:00009C40       aGmonStart
 0003:00009C4F       aLibusb10So0
 0003:00009C5F       aDataStart
 0003:00009C6C       aFini
 0003:00009C72       aLibcommonSo
 0003:00009C7F       aPthreadMutexLo
 0003:00009C92       aPthreadMutexUn
 0003:00009CA7       aErrnoLocation
 0003:00009CB8       aLibusbSend
 0003:00009CC4       aReinitLibusb
 0003:00009CD2       aUninitLibusb
 0003:00009CE0       aWatchdogFeed
 0003:00009CEE       aInitprocmsg
 0003:00009CFA       aPthreadAttrIni
 0003:00009D0C       aPthreadAttrSet
 0003:00009D29       aPthreadAttrSet_0
 0003:00009D45       aPthreadCreate
 0003:00009D54       aPthreadMutexIn
 0003:00009D67       aInitLibusb
 0003:00009D73       aPthreadAttrSet_1
 0003:00009D8E       aWatchdogInit
 0003:00009D9C       aWatchdogDelete
 0003:00009DAC       aPthreadJoin
 0003:00009DB9       aPthreadMutexDe
 0003:00009DCF       aProcmsgsend
 0003:00009DDB       aIstimeout
 0003:00009DE5       aPthreadCondSig
 0003:00009DF9       aGetcurrenttime
 0003:00009E08       aPthreadCondIni
 0003:00009E1A       aPthreadCondTim
 0003:00009E31       aPthreadCondDes
 0003:00009E46       aSerialCreate
 0003:00009E54       aDatabuffCreate
 0003:00009E64       aDjiProstructIn
 0003:00009E77       aQueueCreate
 0003:00009E84       aDatabuffDelete
 0003:00009E94       aSerialDelete
 0003:00009EA2       aQueueDelete
 0003:00009EAF       aQueueGetdata
 0003:00009EBD       aDjiFrameCap
 0003:00009ECB       aUpdateFillVers
 0003:00009EDF       aUpdateFill6801
 0003:00009EF9       aGetint32little
 0003:00009F0B       aPutint32little
 0003:00009F1D       aSethardwarever
 0003:00009F30       aSet68013hardwa
 0003:00009F48       aGethardwarever
 0003:00009F5B       aGet68013hardwa
 0003:00009F73       aCalcrc8
 0003:00009F7B       aCalcrc16
 0003:00009F84       aPutint16little
 0003:00009F96       aSerialWritedat
 0003:00009FA7       aSerialReaddata
 0003:00009FB7       aQueuePutdata
 0003:00009FC5       aGetfilesize
 0003:00009FD1       aAesencrypttofi
 0003:00009FE2       aGetrandomdata
 0003:00009FF0       aAesdecryptfrom
 0003:0000A003       aCalmac
 0003:0000A00A       aCalmd5
 0003:0000A011       aPthreadCondWai
 0003:0000A023       aPthreadCondBro
 0003:0000A03A       aWaitpid
 0003:0000A042       aFork
 0003:0000A047       aPthreadSelf
 0003:0000A054       aPthreadAttrGet
 0003:0000A06E       aPthreadAttrGet_0
 0003:0000A089       aPthreadSetsche
 0003:0000A09F       aPthreadGetspec
 0003:0000A0B3       aPthreadKeyCrea
 0003:0000A0C6       aPthreadKeyDele
 0003:0000A0D9       aPthreadCancel
 0003:0000A0E8       aPthreadSetspec
 0003:0000A0FC       aPthreadSetcanc
 0003:0000A112       aPthreadExit
 0003:0000A11F       aPthreadMutexat
 0003:0000A136       aPthreadMutexat_0
 0003:0000A150       aFcntl
 0003:0000A156       aPthreadMutexat_1
 0003:0000A170       aSemPost
 0003:0000A179       aSemWait
 0003:0000A182       aSemGetvalue
 0003:0000A18F       aSemDestroy
 0003:0000A19B       aSemInit
 0003:0000A1A4       aRaise
 0003:0000A1AA       aLibgccSSo1
 0003:0000A1B8       aAeabiUnwindCpp
 0003:0000A1CF       aAeabiUnwindCpp_0
 0003:0000A1E6       aLibcSo6
 0003:0000A1F0       aFflush
 0003:0000A1F7       aAeabiMemclr4
 0003:0000A207       aStrcpy
 0003:0000A20E       aShmget
 0003:0000A215       aExecv
 0003:0000A21B       aSprintf
 0003:0000A223       aFopen
 0003:0000A229       aStrncmp
 0003:0000A231       aPipe
 0003:0000A236       aShmat
 0003:0000A23C       aPerror
 0003:0000A243       aSemctl
 0003:0000A24A       aStrncpy
 0003:0000A252       aShmctl
 0003:0000A259       aPutchar
 0003:0000A261       aMsgrcv
 0003:0000A268       aSelect
 0003:0000A26F       aShmdt
 0003:0000A275       aAbort
 0003:0000A27B       aStdin
 0003:0000A281       aGetpid
 0003:0000A288       aKill
 0003:0000A28D       aAssertFail
 0003:0000A29B       aStrtok
 0003:0000A2A2       aMmap
 0003:0000A2A7       aSchedYield
 0003:0000A2B3       aFgetc
 0003:0000A2B9       aFgets
 0003:0000A2BF       aCalloc
 0003:0000A2C6       aStrlen
 0003:0000A2CD       aMemcmp
 0003:0000A2D4       aMsgget
 0003:0000A2DB       aStdout
 0003:0000A2E2       aFputc
 0003:0000A2E8       aFputs
 0003:0000A2EE       aAeabiMemmove4
 0003:0000A2FF       aFclose
 0003:0000A306       aStrtolInternal
 0003:0000A318       aMalloc
 0003:0000A31F       aStrcat
 0003:0000A326       aAeabiMemcpy4
 0003:0000A336       aBzero
 0003:0000A33C       aGetenv
 0003:0000A343       aSscanf
 0003:0000A34A       aOptarg
 0003:0000A351       aMsgctl
 0003:0000A358       aStderr
 0003:0000A35F       aIoctl
 0003:0000A365       aAeabiMemclr
 0003:0000A374       aMunmap
 0003:0000A37B       aAeabiMemset
 0003:0000A38A       aMsgsnd
 0003:0000A391       aFscanf
 0003:0000A398       aGetoptLong
 0003:0000A3A4       aFileno
 0003:0000A3AB       aUsleep
 0003:0000A3B2       aFwrite
 0003:0000A3B9       aFread
 0003:0000A3BF       aGettimeofday
 0003:0000A3CC       aAtoi
 0003:0000A3D1       aSchedGetPriori
 0003:0000A3E8       aAeabiMemcpy
 0003:0000A3F7       aLocaltime
 0003:0000A401       aStrchr
 0003:0000A408       aRindex
 0003:0000A40F       aSyscall
 0003:0000A417       aSetvbuf
 0003:0000A41F       aAeabiMemmove
 0003:0000A42F       aStrcmp
 0003:0000A436       aStrerror
 0003:0000A43F       aLibcStartMain
 0003:0000A451       aSemop
 0003:0000A457       aSetpriority
 0003:0000A463       aVfprintf
 0003:0000A46C       aSemget
 0003:0000A473       aFree
 0003:0000A478       aCxaAtexit
 0003:0000A485       aLibrtSo1
 0003:0000A490       aMqOpen
 0003:0000A498       aLibmSo6
 0003:0000A4A2       aCeil
 0003:0000A4A7       aPow
 0003:0000A4AB       aFloor
 0003:0000A4B1       aExidxStart
 0003:0000A4BF       aExidxEnd
 0003:0000A4CB       aEdata
 0003:0000A4D2       aBssStart
 0003:0000A4DE       aBssStart_0
 0003:0000A4EC       aBssEnd
 0003:0000A4F8       aEnd
 0003:0000A500       aVicp2Ipckeybas
 0003:0000A512       aTiSdoCeAlgIpck
 0003:0000A527       aGlobalUselinka
 0003:0000A53D       aIresAddrspaceG
 0003:0000A560       aMemoryDefaultp
 0003:0000A575       aGt
 0003:0000A578       aAlgorithmExit
 0003:0000A587       aRmanLock
 0003:0000A592       aIresmanGrouput
 0003:0000A5B3       aG711encSunPara
 0003:0000A5C6       aTiSdoFcIresGro
 0003:0000A5F6       aIresmanVicp2
 0003:0000A604       aIresmanMemtcmC
 0003:0000A621       aG711SunLinear2
 0003:0000A636       aAlgorithmLocko
 0003:0000A64B       aEngineAlgcreat
 0003:0000A661       aIresmanEdma3ch
 0003:0000A681       aHdvicpNumresou
 0003:0000A696       aIresMemtcmGets
 0003:0000A6B6       aRmanRegistryre
 0003:0000A6CE       aMemtcmIpckeyba
 0003:0000A6E0       aTiSdoCeAlgAlgU
 0003:0000A6FA       aTiSdoFcEdma3Ed
 0003:0000A720       aVisaChecked
 0003:0000A72D       aIresmanMemtcm
 0003:0000A73C       aIresmanGrouput_0
 0003:0000A75C       aRmanParams
 0003:0000A768       aIresmanAddrspa
 0003:0000A77A       aRmanNumregistr
 0003:0000A792       aVicp2Bufflens
 0003:0000A7A2       aTiSdoFcIresGro_0
 0003:0000A7D4       aGlobalExit
 0003:0000A7E0       aCommAttrs
 0003:0000A7EB       aTiSdoCeVersion
 0003:0000A804       aEngineAlwaysco
 0003:0000A821       aIresEdma3chanG
 0003:0000A844       aProcessorAttrs
 0003:0000A854       aRmanFreeEntrie
 0003:0000A866       aThreadAttrs
 0003:0000A873       aIresGrouputils
 0003:0000A897       aIresVicp2Getst
 0003:0000A8B6       aGtConfigTraceo
 0003:0000A8CF       aVicp2Bufsize
 0003:0000A8DE       aAlgGrouprefcou
 0003:0000A8F1       aVicp2Buffoffse
 0003:0000A904       aTiSdoCeEngineN
 0003:0000A920       aTiSdoFcIresGro_1
 0003:0000A952       aAlgSems
 0003:0000A95C       aTiSdoFcIresGro_2
 0003:0000A982       aVicp2Regsize
 0003:0000A991       aIresmanHdvicpC
 0003:0000A9AE       aIresHdvicpGets
 0003:0000A9CE       aRmanTable
 0003:0000A9D9       aTiSdoCeDvtlog
 0003:0000A9EA       aIresmanGrouput_1
 0003:0000A9FD       aIresmanHdvicpD
 0003:0000AA19       aTiSdoFcIresGro_3
 0003:0000AA49       aTiSdoFcEdma3Ed_0
 0003:0000AA6A       aGlobalBuildinf
 0003:0000AA7B       aIresmanMemtcmD
 0003:0000AA97       aMemoryMaxcblis
 0003:0000AAAC       aMemtcmBlockid
 0003:0000AABB       aVicp2Dm355
 0003:0000AAC8       aVicp2Imcopconf
 0003:0000AADF       aAlgGroupused
 0003:0000AAEE       aIresmanNullres
 0003:0000AAFE       aGrouputilsIpck
 0003:0000AB15       aAddrspaceNotra
 0003:0000AB2D       aEngineConfig
 0003:0000AB3B       aMemtcmSize
 0003:0000AB47       aIresmanHdvicp
 0003:0000AB56       aVicp2Dm365
 0003:0000AB63       aTiSdoFcIresGro_4
 0003:0000AB87       aIresmanAddrspa_0
 0003:0000ABA7       aHdvicpMembasea
 0003:0000ABBB       aIresmanEdma3ch_0
 0003:0000ABCD       aEngineCedebugd
 0003:0000ABE8       aIresmanEdma3ch_1
 0003:0000AC07       aVicpsyncDm365
 0003:0000AC17       aMemorySkipvirt
 0003:0000AC3C       aLockSystem
 0003:0000AC48       aEdma3Ipckeybas
 0003:0000AC5A       aIresmanAddrspa_1
 0003:0000AC79       aTiSdoCeAlgGtma
 0003:0000AC8E       aTiSdoCeAlgAlgM
 0003:0000ACAA       aRmanRegistryen
 0003:0000ACBF       aIresmanVicp2Co
 0003:0000ACDB       aTiSdoCeVideo1V
 0003:0000ACFD       aHdvicpIpckeyba
 0003:0000AD10       aGProtocolargs
 0003:0000AD1F       aIresmanVicp2De
 0003:0000AD3A       aG711SunLinear2_0
 0003:0000AD4F       aTiSdoCeOsalLin
 0003:0000AD71       aHdvicpRegbasea
 0003:0000AD85       aTiSdoCeAlgAlgU_0
 0003:0000ADA0       aServerHoldingt
 0003:0000ADB9       aGlibc24
 0003:0000ADC3       aGcc35
 0006:0000B90C       .init_proc
 0007:0000B92C       open
 0007:0000B938       strerror
 0007:0000B944       CalCrc16
 0007:0000B950       fileno
 0007:0000B95C       reInit_libusb
 0007:0000B968       mmap
 0007:0000B974       GetRandomData
 0007:0000B980       abort
 0007:0000B98C       localtime
 0007:0000B998       pthread_attr_getschedparam
 0007:0000B9A4       memcmp
 0007:0000B9B0       pthread_exit
 0007:0000B9BC       __libc_start_main
 0007:0000B9C8       signal
 0007:0000B9D4       msgget
 0007:0000B9E0       pthread_attr_setschedpolicy
 0007:0000B9EC       __gmon_start__
 0007:0000B9F8       GetFileSize
 0007:0000BA04       GetCurrentTime
 0007:0000BA10       sched_yield
 0007:0000BA1C       InitProcMsg
 0007:0000BA28       pthread_mutexattr_settype
 0007:0000BA34       pow
 0007:0000BA40       Queue_Create
 0007:0000BA4C       strncpy
 0007:0000BA58       fclose
 0007:0000BA64       fgets
 0007:0000BA70       getenv
 0007:0000BA7C       system
 0007:0000BA88       strchr
 0007:0000BA94       semop
 0007:0000BAA0       UnInit_libusb
 0007:0000BAAC       putchar
 0007:0000BAB8       __cxa_atexit
 0007:0000BAC4       msgctl
 0007:0000BAD0       CalCrc8
 0007:0000BADC       sem_getvalue
 0007:0000BAE8       calloc
 0007:0000BAF4       pthread_cond_wait
 0007:0000BB00       sem_init
 0007:0000BB0C       fopen
 0007:0000BB18       shmat
 0007:0000BB24       Watchdog_Init
 0007:0000BB30       sched_get_priority_max
 0007:0000BB3C       __strtol_internal
 0007:0000BB48       libusb_Send
 0007:0000BB54       memset
 0007:0000BB60       sem_destroy
 0007:0000BB6C       pthread_cond_timedwait
 0007:0000BB78       Queue_GetData
 0007:0000BB84       GetHardwareVersion
 0007:0000BB90       pthread_attr_setschedparam
 0007:0000BB9C       perror
 0007:0000BBA8       GetINT32LittleEnd
 0007:0000BBB4       DJI_Frame_Cap
 0007:0000BBC0       floor
 0007:0000BBCC       __assert_fail
 0007:0000BBD8       pthread_cond_broadcast
 0007:0000BBE4       shmdt
 0007:0000BBF0       usleep
 0007:0000BBFC       msgsnd
 0007:0000BC08       free
 0007:0000BC14       read
 0007:0000BC20       write
 0007:0000BC2C       DataBuff_Delete
 0007:0000BC38       getopt_long
 0007:0000BC44       PutINT32LittleEnd
 0007:0000BC50       pthread_getspecific
 0007:0000BC5C       gettimeofday
 0007:0000BC68       setpriority
 0007:0000BC74       Serial_Create
 0007:0000BC80       Serial_Delete
 0007:0000BC8C       pthread_mutex_unlock
 0007:0000BC98       fflush
 0007:0000BCA4       pthread_setschedparam
 0007:0000BCB0       ioctl
 0007:0000BCBC       pthread_key_delete
 0007:0000BCC8       CalMac
 0007:0000BCD4       pthread_mutexattr_destroy
 0007:0000BCE0       pthread_mutex_lock
 0007:0000BCEC       strlen
 0007:0000BCF8       sscanf
 0007:0000BD04       DataBuff_Create
 0007:0000BD10       pthread_create
 0007:0000BD1C       mq_open
 0007:0000BD28       execv
 0007:0000BD34       memcpy
 0007:0000BD40       pthread_cond_signal
 0007:0000BD4C       pthread_attr_getstacksize
 0007:0000BD58       PutINT16LittleEnd
 0007:0000BD64       Serial_WriteData
 0007:0000BD70       fgetc
 0007:0000BD7C       Update_Fill_Version
 0007:0000BD88       pthread_attr_setinheritsched
 0007:0000BD94       strcpy
 0007:0000BDA0       sem_post
 0007:0000BDAC       waitpid
 0007:0000BDB8       pthread_cond_destroy
 0007:0000BDC4       pthread_mutex_destroy
 0007:0000BDD0       printf
 0007:0000BDDC       raise
 0007:0000BDE8       atoi
 0007:0000BDF4       SetHardwareVersion
 0007:0000BE00       pthread_mutex_init
 0007:0000BE0C       pthread_setspecific
 0007:0000BE18       select
 0007:0000BE24       close
 0007:0000BE30       fwrite
 0007:0000BE3C       semctl
 0007:0000BE48       setvbuf
 0007:0000BE54       fprintf
 0007:0000BE60       malloc
 0007:0000BE6C       rindex
 0007:0000BE78       pthread_attr_init
 0007:0000BE84       IsTimeOut
 0007:0000BE90       fputc
 0007:0000BE9C       strtok
 0007:0000BEA8       AesDecryptFromFile
 0007:0000BEB4       CalMD5
 0007:0000BEC0       sleep
 0007:0000BECC       strcat
 0007:0000BED8       init_libusb
 0007:0000BEE4       memmove
 0007:0000BEF0       Queue_Delete
 0007:0000BEFC       puts
 0007:0000BF08       getpid
 0007:0000BF14       fcntl
 0007:0000BF20       bzero
 0007:0000BF2C       fork
 0007:0000BF38       shmctl
 0007:0000BF44       Get68013HardwareVersion
 0007:0000BF50       munmap
 0007:0000BF5C       vfprintf
 0007:0000BF68       ProcMsgSend
 0007:0000BF74       fread
 0007:0000BF80       pthread_cond_init
 0007:0000BF8C       strncmp
 0007:0000BF98       msgrcv
 0007:0000BFA4       kill
 0007:0000BFB0       Set68013HardwareVersion
 0007:0000BFBC       Serial_ReadData
 0007:0000BFC8       AesEncryptToFile
 0007:0000BFD4       DJI_ProStruct_Init
 0007:0000BFE0       pipe
 0007:0000BFEC       syscall
 0007:0000BFF8       pthread_mutexattr_init
 0007:0000C004       Watchdog_Feed
 0007:0000C010       sem_wait
 0007:0000C01C       strcmp
 0007:0000C028       exit
 0007:0000C034       pthread_setcanceltype
 0007:0000C040       __errno_location
 0007:0000C04C       pthread_self
 0007:0000C058       pthread_cancel
 0007:0000C064       Queue_PutData
 0007:0000C070       Update_Fill_68013_Version
 0007:0000C07C       ceil
 0007:0000C088       sprintf
 0007:0000C094       pthread_join
 0007:0000C0A0       pthread_key_create
 0007:0000C0AC       Watchdog_Delete
 0007:0000C0B8       fscanf
 0007:0000C0C4       fputs
 0007:0000C0D0       semget
 0007:0000C0DC       shmget
 0008:0000C0E8       _start
 0008:0000C120       call_gmon_start
 0008:0000C144       __do_global_dtors_aux
 0008:0000C160       frame_dummy
 0008:0000C190       CapBuf_blackFill
 0008:0000C698       assertion
 0008:0000C69C       file
 0008:0000C6A0       function
 0008:0000C6AC       format
 0008:0000C6B0       captureThrFxn
 0008:0000D10C       ptr
 0008:0000D134       gblSetImageWidth
 0008:0000D170       gblSetImageHeight
 0008:0000D1AC       gblGetImageWidth
 0008:0000D1EC       gblGetImageHeight
 0008:0000D22C       gblSetQuit
 0008:0000D25C       gblIncFrames
 0008:0000D294       gblGetQuit
 0008:0000D2D8       checkUsbID
 0008:0000D57C       s
 0008:0000D580       command
 0008:0000D584       filename
 0008:0000D588       modes
 0008:0000D594       s2
 0008:0000D5A0       getUsbBusStatus
 0008:0000D6C0       oflag
 0008:0000D6C4       drawDynamicData
 0008:0000DBDC       request
 0008:0000DC18       vendor
 0008:0000DC28       useconds
 0008:0000E704       gblGetAndResetFrames
 0008:0000E750       gblGetAndResetVideoBytesProcessed
 0008:0000E79C       gblSetVideoBitRate
 0008:0000E7D8       gblSetVideoStatus
 0008:0000E814       gblGetUsbStatus
 0008:0000E854       gblSetUsbStatus
 0008:0000E890       gblGetSamplingFrequency
 0008:0000E8D0       gblGetImageWidth_0
 0008:0000E910       gblGetImageHeight_0
 0008:0000E950       msgAction
 0008:0000EA9C       gblSetSkipFrame
 0008:0000EACC       gblResetSkipFrame
 0008:0000EAFC       gblSetForceFrame
 0008:0000EB2C       gblSetImageWidth_0
 0008:0000EB68       gblSetImageHeight_0
 0008:0000EBA4       getKbdCommand
 0008:0000EF24       delim
 0008:0000EF6C       osdThrFxn
 0008:0000F13C       gblSetQuit_0
 0008:0000F16C       gblGetQuit_0
 0008:0000F1AC       ctrlThrFxn
 0008:0000F2EC       encryptThrFxn
 0008:0000F348       get_gpio
 0008:0000F3A4       set_gpio
 0008:0000F404       ledTurnOff
 0008:0000F4DC       gpio_label
 0008:0000F4EC       ledInited
 0008:0000F56C       color
 0008:0000F578       ledTurnOn
 0008:0000F68C       ledFlash
 0008:0000F7D8       usbPhyLinkCheck
 0008:0000F860       usbPhyLinkReset
 0008:0000F884       usbPhyLinkRestore
 0008:0000F8A8       getCanLinkStatus
 0008:0000F8F4       Version
 0008:0000F940       getCodec
 0008:0000FA74       usage
 0008:0000FAA0       n
 0008:0000FAA4       parseArgs
 0008:000101A0       src
 0008:000101A8       extension
 0008:000101AC       longopts
 0008:00010204       validateArgs
 0008:00010318       autoDetectVideoIput
 0008:00010B10       pData
 0008:00010B2C       detectVideo
 0008:00010C5C       uiSetup
 0008:00010CF0       valString
 0008:00010CF8       sigint_fun
 0008:00010D10       main
 0008:00011B88       handler
 0008:00011BA8       start_routine
 0008:00011BBC       name
 0008:00011C24       gblSetUsbStatus_0
 0008:00011C60       gblSetVideoStatus_0
 0008:00011C9C       gblSetQuit_1
 0008:00011CCC       fgetstr
 0008:00011D70       drawValue
 0008:00011F74       cleanupUI
 0008:00011FEC       setOsdTransparency
 0008:000120EC       UI_create
 0008:00012298       UI_getConfig
 0008:00012398       UI_getCmd
 0008:0001250C       UI_play
 0008:00012528       UI_pause
 0008:00012544       UI_stop
 0008:00012560       UI_toggleVisibility
 0008:0001257C       UI_incTransparency
 0008:00012598       UI_decTransparency
 0008:000125B4       UI_updateValue
 0008:0001265C       UI_setRow
 0008:000126A8       UI_update
 0008:0001279C       UI_delete
 0008:000127E0       AddSerialDataToFrame
 0008:00012918       ulLength
 0008:00012930       sendMsgToMonitor
 0008:0001298C       getEncodedSliceProvideSpace
 0008:00012CA4       gblSetUsbStatus_1
 0008:00012CE0       videoThrFxn
 0008:00013BEC       ptrPtr
 0008:00014168       tv
 0008:000147A0       gblSetVideoBitRate_0
 0008:000147DC       gblGetUsbStatus_0
 0008:0001481C       gblSetQuit_2
 0008:0001484C       gblIncVideoBytesProcessed
 0008:00014894       gblGetQuit_1
 0008:000148D8       Enc_Serial_Register_CmdSend
 0008:0001498C       Enc_Serial_Cancel_CmdSend
 0008:00014A68       Enc_Serial_Check_CmdSend_Timeout
 0008:00014B50       Enc_Serial_Deal_CmdSend_Ack
 0008:00014E80       Enc_Serial_SendWaitAck
 0008:00015114       Enc_Serial_Get_CurSeq
 0008:00015154       Enc_Serial_TaskHeartBeat
 0008:00015180       Enc_Serial_UpdateTimer
 0008:000151B0       Enc_Serial_IsTimeOut
 0008:000151FC       Enc_Serial_Init
 0008:00015384       Enc_Serial_Delete
 0008:000153E8       Enc_Serial_Fill_Forward_Data
 0008:00015410       Enc_Serial_Run
 0008:0001543C       Enc_Serial_DealTask
 0008:00015518       pslCnt
 0008:0001551C       Enc_Serial_Rec
 0008:00015684       Enc_Serial_DealRec
 0008:000156E0       Enc_Serial_ParseProtocol
 0008:000157D4       Enc_Serial_DealProtocol
 0008:00015870       ptPro
 0008:00015874       DealProtocolCmd
 0008:0001593C       Enc_Serial_Deal_CallBack
 0008:00015980       Enc_Serial_Get_Version
 0008:00015A28       Enc_Serial_Enter_Loader
 0008:00015AA8       Enc_Serial_Enter_Loader_CallBack
 0008:00015B88       Enc_Serial_Reboot
 0008:00015C54       Enc_Serial_Reboot_CallBack
 0008:00015CA4       Enc_Serial_Get_Device_State
 0008:00015D3C       Enc_Serial_Set_Device_Version
 0008:00015EB4       Enc_Serial_Get_State
 0008:00015F1C       dest
 0008:00015F24       Enc_Serial_Ctrl_Set
 0008:00016094       Enc_Serial_Ctrl_Get
 0008:00016204       Enc_Serial_SendCommand
 0008:00016404       pCmd
 0008:00016408       Enc_Serial_PackAndSend
 0008:000166F0       Enc_Serial_Send
 0008:0001674C       Enc_Serial_Recv
 0008:00016794       Reset68013
 0008:0001683C       GetStatus
 0008:000168B8       PustABDM368State
 0008:00016AD8       PustABDM368SelfCheck
 0008:00016BC4       Enc_Serial_PackAndSend_ThreadSafe
 0008:00016EB0       Encrypt_GetModuleState_Response
 0008:00017050       Enc_Serial_Encrypt_GetModuleState
 0008:00017130       Enc_Serial_Encrypt_Config
 0008:000172A4       Encrypt_Request
 0008:000175AC       Encrypt_Is_Passed
 0008:000175D0       Enc_Serial_Encrypt_Request
 0008:000175F4       Enc_Serial_Is_Stream_Disable
 0008:00017618       Enc_Serial_Get_Encode_Mode
 0008:0001763C       Enc_Serial_Encrypt
 0008:000176EC       IPC_generatedInit
 0008:000176F0       DMAN3_CE_init
 0008:000176F4       DMAN3_CE_exit
 0008:000176F8       DMAN3_grantDmaChannels
 0008:00017700       DMAN3_releaseDmaChannels
 0008:00017708       RMAN_autoRegister
 0008:00017824       CERuntime_exit
 0008:00017828       CERuntime_init
 0008:000179E8       ti_sdo_ce_CERuntime_init__F
 0008:000179EC       AUDCDC_ITTIAM_numResourceDescriptors
 0008:00017AA4       AUDCDC_ITTIAM_activateResource
 0008:00017AE0       AUDCDC_ITTIAM_activateAllResources
 0008:00017B0C       AUDCDC_ITTIAM_deactivateResource
 0008:00017B48       AUDCDC_ITTIAM_deactivateAllResources
 0008:00017B78       AUDCDC_ITTIAM_deinitResources
 0008:00017B94       AUDCDC_ITTIAM_reinitResources
 0008:00017BB4       AUDCDC_ITTIAM_getResourceDescriptors
 0008:00017C14       AUDCDC_ITTIAM_initResources
 0008:00017D14       _Buffer_init
 0008:00017D94       Buffer_create
 0008:00017FF4       Buffer_getAttrs
 0008:000180B4       Buffer_clone
 0008:00018198       Buffer_print
 0008:00018358       Buffer_freeUseMask
 0008:000183DC       Buffer_setUseMask
 0008:00018434       Buffer_resetUseMask
 0008:00018488       Buffer_getUseMask
 0008:000184D8       Buffer_getId
 0008:00018528       Buffer_getIndex
 0008:00018574       line
 0008:0001857C       Buffer_getUserPtr
 0008:000185D0       Buffer_getPhysicalPtr
 0008:00018620       Buffer_getSize
 0008:0001869C       _Buffer_getOriginalSize
 0008:000186F0       Buffer_getType
 0008:00018744       Buffer_getNumBytesUsed
 0008:00018798       Buffer_setNumBytesUsed
 0008:000187F0       _Buffer_setId
 0008:00018848       Buffer_setIndex
 0008:000188A0       _Buffer_setBufTab
 0008:000188F4       Buffer_setUserPtr
 0008:00018A08       Buffer_setSize
 0008:00018A88       Buffer_setVirtualSize
 0008:00018AE4       Buffer_getBufTab
 0008:00018B34       Buffer_isReference
 0008:00018B88       Buffer_delete
 0008:00018C80       Buffer_copy
 0008:00018EC8       _BufferGfx_getObjectPtr
 0008:00018F38       BufferGfx_getBufferAttrs
 0008:00018F80       BufferGfx_calcSize
 0008:00019024       BufferGfx_calcSizeDim
 0008:000190DC       BufferGfx_calcDimensions
 0008:000191C8       BufferGfx_resetDimensions
 0008:00019230       BufferGfx_calcLineLength
 0008:0001929C       BufferGfx_getFrameType
 0008:000192FC       BufferGfx_setFrameType
 0008:00019360       BufferGfx_getColorSpace
 0008:000193C0       BufferGfx_setColorSpace
 0008:00019424       BufferGfx_getDimensions
 0008:00019514       BufferGfx_setDimensions
 0008:000195BC       BufferGfx_setMaxDimensions
 0008:00019688       _BufferGfx_setFrameDone
 0008:000196F4       _BufferGfx_toggleFrameDone
 0008:00019768       _BufferGfx_getFrameDone
 0008:000197D4       _BufferGfx_init
 0008:0001988C       _BufferGfx_getAttrs
 0008:0001991C       cleanupBufs
 0008:000199BC       cleanup
 0008:00019B44       BufTab_create
 0008:00019E3C       BufTab_expand
 0008:0001A150       BufTab_chunk
 0008:0001A648       BufTab_collapse
 0008:0001A804       BufTab_print
 0008:0001A8A8       BufTab_freeAll
 0008:0001A940       BufTab_getFreeBuf
 0008:0001AA48       BufTab_getBuf
 0008:0001AAB0       BufTab_getNumBufs
 0008:0001AB04       BufTab_freeBuf
 0008:0001AB58       BufTab_delete
 0008:0001AB9C       ColorSpace_getBpp
 0008:0001AC7C       VideoStd_getResolution
 0008:0001AEA4       Venc1_process
 0008:0001B538       Venc1_create
 0008:0001B990       Venc1_delete
 0008:0001B9E4       Venc1_getInBufSize
 0008:0001BA90       Venc1_getOutBufSize
 0008:0001BAE4       Venc1_getInBufNum
 0008:0001BB38       Venc1_getOutBufNum
 0008:0001BB8C       Venc1_getVisaHandle
 0008:0001BBE0       Venc1_getReconBufs
 0008:0001BC34       Venc1_setBufTab
 0008:0001BC8C       Venc1_getBufTab
 0008:0001BCE0       Venc1_getFreeBuf
 0008:0001BD48       Venc1_flush
 0008:0001BE2C       getDevice
 0008:0001BE5C       Cpu_getDevice
 0008:0001BEFC       Cpu_getDeviceName
 0008:0001BF2C       Cpu_getLoad
 0008:0001C1BC       Cpu_create
 0008:0001C2A0       Cpu_delete
 0008:0001C2D4       Display_create
 0008:0001C380       Display_getVideoStd
 0008:0001C3A8       Display_getBufTab
 0008:0001C3D0       Display_getHandle
 0008:0001C3F8       Display_delete
 0008:0001C434       Display_get
 0008:0001C478       Display_put
 0008:0001C4BC       Display_control
 0008:0001C518       Dmai_setLogLevel
 0008:0001C644       Dmai_init
 0008:0001C774       Fifo_create
 0008:0001C884       Fifo_delete
 0008:0001C914       Fifo_get
 0008:0001CA94       Fifo_flush
 0008:0001CB48       Fifo_put
 0008:0001CC24       Fifo_getNumEntries
 0008:0001CC94       Pause_create
 0008:0001CD50       Pause_delete
 0008:0001CDA4       Pause_test
 0008:0001CE34       Pause_on
 0008:0001CEA4       Pause_off
 0008:0001CF34       Rendezvous_create
 0008:0001D0A0       Rendezvous_delete
 0008:0001D0F4       Rendezvous_meet
 0008:0001D1EC       Rendezvous_force
 0008:0001D26C       Rendezvous_reset
 0008:0001D2EC       Rendezvous_forceAndReset
 0008:0001D37C       cleanup_0
 0008:0001D648       Capture_create
 0008:0001E8DC       Capture_delete
 0008:0001E920       Capture_detectVideoStd
 0008:0001F51C       Capture_getVideoStd
 0008:0001F544       Capture_getBufTab
 0008:0001F56C       Capture_get
 0008:0001F748       Capture_put
 0008:0001F9AC       getUsedIdx
 0008:0001FA54       setDisplayBuffer
 0008:0001FB88       cleanup_1
 0008:0001FDA4       Display_fbdev_create
 0008:000207D4       Display_fbdev_delete
 0008:00020818       Display_fbdev_get
 0008:00020950       Display_fbdev_put
 0008:00020A4C       Display_fbdev_control
 0008:00020A7C       cleanup_2
 0008:00020CCC       Display_v4l2_create
 0008:000215A0       _Display_v4l2_set_framerate
 0008:000217B0       _Display_v4l2_streamon
 0008:00021840       Display_v4l2_delete
 0008:00021884       Display_v4l2_get
 0008:00021A30       Display_v4l2_put
 0008:00021E20       getUsedIdx_0
 0008:00021EC8       _Display_v4l2_set_frame_offsets
 0008:00022098       Display_v4l2_control
 0008:000220C8       pixFormatConversion
 0008:00022130       Resize_create
 0008:0002237C       Resize_config
 0008:00022A38       Resize_execute
 0008:00022C98       Resize_420_to_420_execute
 0008:00023314       Resize_doYUV420SP
 0008:00023E98       Resize_delete
 0008:00023EDC       Resizer_continuous_config
 0008:00024308       Previewer_continuous_config
 0008:00024874       Resizer_continuous_delete
 0008:00024914       Previewer_continuous_delete
 0008:000249B4       readSysFs
 0008:00024B38       writeSysFs
 0008:00024D84       _SysFs_setup
 0008:0002521C       _Dmai_blackFill
 0008:00025750       _Dmai_v4l2UserAlloc
 0008:00025B24       _Dmai_v4l2DriverAlloc
 0008:000260C4       VIDENC1_process
 0008:000263D0       VIDENC1_delete
 0008:0002646C       VIDENC1_create
 0008:00026574       VIDENC1_control
 0008:00026898       cleanup_3
 0008:000268D8       getServerStatus
 0008:0002696C       Server_setTrace
 0008:00026A28       Server_restoreHeap
 0008:00026B34       Server_redefineHeap
 0008:00026C8C       Server_init
 0008:00026D74       Server_getNumMemSegs
 0008:00026E90       Server_getNumAlgs
 0008:00026FA4       Server_getMemStat
 0008:000270AC       Server_getCpuLoad
 0008:0002714C       Server_getAlgInfo
 0008:00027220       Server_fwriteTrace
 0008:000272E0       Server_disconnectTrace
 0008:000273F4       Server_connectTrace
 0008:00027518       Engine_getEngine
 0008:00027520       Engine_getLastError
 0008:00027528       Engine_getName
 0008:00027534       Engine_getRemoteVisa
 0008:00027594       Engine_getNodeQueues
 0008:000275C0       Engine_hasServer
 0008:000275CC       Engine_getServerAlgInfo
 0008:000276F4       Engine_getServer
 0008:00027770       Engine_ctrlNode
 0008:0002785C       callServer
 0008:000278E8       Engine_setTrace
 0008:00027A78       Engine_getUsedMem
 0008:00027B5C       Engine_restoreHeap
 0008:00027CCC       Engine_requestTraceToken
 0008:00027D44       Engine_releaseTraceToken
 0008:00027DAC       Engine_redefineHeap
 0008:00027F34       Engine_getCpuLoad
 0008:00028020       Engine_getAlgNumRecs
 0008:00028158       Engine_getAlgMemRecs
 0008:00028340       Engine_getNumMemSegs
 0008:00028444       Engine_getNumServerAlgs
 0008:000285D0       Engine_getMemStat
 0008:00028738       Engine_getNumAlgs
 0008:000287F4       Engine_getNumAlgs2
 0008:00028894       Engine_getAlgInfo2
 0008:00028A7C       Engine_getAlgInfo
 0008:00028BB8       freeServerTab
 0008:00028D34       Engine_addStubFxns
 0008:00028DC0       Engine_init
 0008:00029028       cleanup_4
 0008:00029168       Engine_fwriteTrace
 0008:00029528       collectDspTrace
 0008:00029580       Engine_callWait
 0008:000295D8       Engine_callAsync
 0008:00029640       Engine_call
 0008:000296C4       Engine_initFromServer
 0008:00029E4C       isa
 0008:00029F38       freeNode
 0008:00029F68       Engine_deleteNode
 0008:0002A0E0       Engine_createNode2
 0008:0002A928       Engine_createNode
 0008:0002A9CC       Engine_close
 0008:0002ABA8       Engine_open
 0008:0002B528       Engine_getLocalEngine
 0008:0002B57C       Engine_getCodecClassConfig
 0008:0002B5FC       Engine_getMemId
 0008:0002B61C       Engine_getFxns
 0008:0002B77C       Engine_getConstName
 0008:0002B8B0       VISA_getAlgFxns
 0008:0002B8B8       VISA_getAlgorithmHandle
 0008:0002B8C0       VISA_getContext
 0008:0002B8CC       VISA_setContext
 0008:0002B8D4       VISA_getCodecClassConfig
 0008:0002B8DC       VISA_isLocal
 0008:0002B8E4       VISA_getMaxMsgSize
 0008:0002B948       VISA_allocMsg
 0008:0002BA28       VISA_getAlgNumRecs
 0008:0002BA70       VISA_getAlgMemRecs
 0008:0002BABC       VISA_getAlgHandle
 0008:0002BAD8       VISA_freeMsg
 0008:0002BBDC       VISA_exit
 0008:0002BCAC       VISA_enter
 0008:0002BD84       VISA_delete
 0008:0002BF4C       VISA_wait
 0008:0002C08C       VISA_callAsync
 0008:0002C15C       VISA_call
 0008:0002C230       VISA_create2
 0008:0002C95C       VISA_create
 0008:0002CA1C       Algorithm_getAlgHandle
 0008:0002CA24       Algorithm_getMemRecs
 0008:0002CA2C       Algorithm_getNumRecs
 0008:0002CA34       Algorithm_removeGroup
 0008:0002CAD0       Algorithm_init
 0008:0002CB30       Algorithm_exit
 0008:0002CBC8       Algorithm_delete
 0008:0002CCDC       Algorithm_deactivate
 0008:0002CDD0       Algorithm_create
 0008:0002D098       Algorithm_addGroup
 0008:0002D128       Algorithm_activate
 0008:0002D1DC       Algorithm_releaseLock
 0008:0002D2D0       Algorithm_acquireLock
 0008:0002D380       ALG_delete
 0008:0002D3F8       ALG_create
 0008:0002D724       _ALG_freeMemory2
 0008:0002D878       _ALG_freeMemory
 0008:0002D8E8       _ALG_allocMemory2
 0008:0002DAAC       _ALG_allocMemory
 0008:0002DB1C       ALG_removeGroup
 0008:0002DC34       ALG_exit
 0008:0002DCC0       ALG_init
 0008:0002DE74       ALG_addGroup
 0008:0002E000       ALG_deactivate
 0008:0002E0A8       ALG_releaseLock
 0008:0002E134       ALG_activate
 0008:0002E1E0       ALG_acquireLock
 0008:0002E270       Processor_wait
 0008:0002E2A0       Processor_init
 0008:0002E2E0       Processor_delete
 0008:0002E3BC       Processor_create
 0008:0002E4F8       Comm_getMsgSize
 0008:0002E564       Comm_getSrcQueue
 0008:0002E5E8       Comm_setSrcQueue
 0008:0002E65C       Comm_release
 0008:0002E6F4       nameToId
 0008:0002E820       Comm_locate
 0008:0002E920       Comm_init
 0008:0002E9AC       Comm_free
 0008:0002EA54       Comm_put
 0008:0002EB5C       Comm_exit
 0008:0002EBE4       Comm_delete
 0008:0002ECDC       Comm_alloc
 0008:0002EE6C       Comm_get
 0008:0002EF90       msgsz
 0008:0002EFA8       Comm_create
 0008:0002F18C       LockMP_getCount
 0008:0002F194       cleanup_5
 0008:0002F1FC       LockMP_release
 0008:0002F368       LockMP_init
 0008:0002F3C0       LockMP_getRefCount
 0008:0002F3C8       LockMP_delete
 0008:0002F470       LockMP_create
 0008:0002F5A4       LockMP_acquire
 0008:0002F6D4       Queue_exit
 0008:0002F6D8       Queue_init
 0008:0002F6E0       Queue_extract
 0008:0002F728       Queue_put
 0008:0002F774       Queue_get
 0008:0002F7BC       GTConfig_nop
 0008:0002F7C4       GTConfig_error
 0008:0002F84C       GTConfig_vprintf
 0008:0002F8A0       GTConfig_libcFree
 0008:0002F8A4       GTConfig_libcMalloc
 0008:0002F8A8       stat
 0008:0002F8C4       Memory_getHeapId
 0008:0002F8CC       Memory_getNumHeaps
 0008:0002F8D4       Memory_redefine
 0008:0002F8DC       Memory_restoreHeap
 0008:0002F8E4       Memory_exit
 0008:0002F8E8       Memory_contigStat
 0008:0002F8F4       Memory_dumpKnownContigBufsList
 0008:0002F9AC       Memory_cacheWbInvAll
 0008:0002FA1C       Memory_segStat
 0008:0002FA98       Memory_cacheWbInv
 0008:0002FA9C       Memory_cacheWb
 0008:0002FAA0       Memory_cacheInv
 0008:0002FAA4       Memory_getBufferVirtualAddress
 0008:0002FD14       Memory_getBufferPhysicalAddress
 0008:00030078       Memory_init
 0008:000301E4       cleanup_6
 0008:00030278       Memory_free
 0008:00030388       Memory_segFree
 0008:000303A0       removeContigBuf
 0008:000304DC       Memory_unregisterContigBuf
 0008:00030548       contigFree
 0008:000306A8       Memory_contigFree
 0008:000306B8       myMalloc
 0008:00030720       Memory_segAlloc
 0008:00030728       Memory_alloc
 0008:00030884       addContigBuf
 0008:00030C3C       Memory_registerContigBuf
 0008:00030C40       contigAlloc
 0008:00030F34       Memory_contigAlloc
 0008:00030F58       Global_getCpuLoad
 0008:00030F60       Global_setSpecialTrace
 0008:00030F64       Global_init
 0008:00031058       Global_getProcessId
 0008:0003105C       Global_getenv
 0008:00031060       Global_exit
 0008:0003112C       Global_atexit
 0008:000311E0       Global_abort
 0008:00031234       Thread_getenv
 0008:000312A0       Thread_getname
 0008:0003130C       Thread_getpri
 0008:00031378       Thread_yield
 0008:000313E0       Thread_stat
 0008:00031474       Thread_setpri
 0008:0003151C       Thread_self
 0008:0003158C       Thread_join
 0008:0003165C       Thread_init
 0008:000316C4       cleanup_7
 0008:000316F8       Thread_exit
 0008:00031788       Thread_delete
 0008:000318F8       Thread_create
 0008:00031AE0       runStub
 0008:00031B54       Log_init
 0008:00031B58       Log_event
 0008:00031B5C       Log_printf
 0008:00031B68       Lock_release
 0008:00031B6C       Lock_delete
 0008:00031BB4       cleanup_8
 0008:00031BF8       Lock_create
 0008:00031C4C       Lock_init
 0008:00031CA0       Lock_acquire
 0008:00031CA4       GTConfig_pthreadUnlock
 0008:00031CCC       GTConfig_pthreadLock
 0008:00031CF4       GTConfig_gettimeofday
 0008:00031D80       GTConfig_threadId
 0008:00031D84       GTConfig_tracePrintf
 0008:00031DF4       GT_config_setOutTrace
 0008:00031E28       GTConfig_posixInit
 0008:00031FC0       cleanup_9
 0008:00032060       cleanup_10
 0008:000320D8       SemMP_post
 0008:000321C4       SemMP_pend
 0008:00032334       SemMP_init
 0008:0003238C       exitCS
 0008:000324BC       SemMP_getRefCount
 0008:000324CC       SemMP_getCount
 0008:000324DC       enterCS
 0008:000325E8       semflg
 0008:000325FC       SemMP_delete
 0008:0003287C       SemMP_create
 0008:00032C14       cleanup_11
 0008:00032C88       Sem_post
 0008:00032D28       Sem_pend
 0008:00032E08       Sem_init
 0008:00032E60       Sem_getCount
 0008:00032ED0       Sem_delete
 0008:00032F6C       Sem_create
 0008:00033090       XdmUtils_validateVideo1BufDesc
 0008:00033294       XdmUtils_validateVideoBufDesc
 0008:00033498       XdmUtils_validateSparseBufDesc1
 0008:000335F4       XdmUtils_validateSparseBufDesc
 0008:00033748       XdmUtils_validateExtendedStruct
 0008:00033878       XdmUtils_init
 0008:000338B8       MP4VENC_TI_getResourceDescriptors
 0008:00033BA4       MP4VENC_TI_numResourceDescriptors
 0008:00033BAC       MP4VENC_TI_activateAllResources
 0008:00033BEC       MP4VENC_TI_deactivateAllResources
 0008:00033C2C       MP4VENC_TI_reinitResources
 0008:00033C34       MP4VENC_TI_deinitResources
 0008:00033CA4       MP4VENC_TI_activateResource
 0008:00033CDC       MP4VENC_TI_deactivateResource
 0008:00033CE4       MP4VENC_TI_initResources
 0008:00034004       MP4VENC_TI_IMCOP_Reg_Init_phys
 0008:0003434C       MP4VENC_TI_IMCOP_Reg_Init_virt
 0008:00034674       MP4VENC_TI_IMCOP_Mem_Init_virt
 0008:00034770       MP4VENC_TI_IMCOP_Mem_Init_phys
 0008:00034888       MP4VENC_TI_assignBuffAddr
 0008:00034DEC       MP4VENC_TI_numAlloc
 0008:00034DF4       MP4VENC_TI_deactivate
 0008:00034E18       MP4VENC_TI_control
 0008:000359A8       MP4VENC_TI_alloc
 0008:00035B0C       MP4VENC_TI_exit
 0008:00035B10       MP4VENC_TI_init
 0008:00035B14       MP4VENC_TI_moved
 0008:00035B18       MP4VENC_TI_ComputeSSE
 0008:00035D30       MP4VENC_TI_DM350_frameComplexity
 0008:00035E74       MP4VENC_TI_DM350_MV_Copy_DMA
 0008:00036028       MP4VENC_TI_Associate_globals_to_physical
 0008:00036CC8       MP4VENC_TI_initObj
 0008:000376C0       MP4VENC_TI_activate
 0008:00037734       MP4VENC_TI_free
 0008:00037898       MP4VENC_TI_encode
 0008:00037FD0       MP4VENC_TI_DM350_EDMA_MakeOptionParam
 0008:00038070       MP4VENC_TI_DM350_EDMA_SetRegion2
 0008:000380A0       MP4VENC_TI_DM350_EDMA_WaitInterrupt
 0008:000380EC       MP4VENC_TI_DM350_EDMA_UpdateRefDstAddr
 0008:00038160       MP4VENC_TI_DM350_EDMA_UpdateDstAddr
 0008:000381F0       MP4VENC_TI_DM350_EDMA_DisableEvent
 0008:0003821C       MP4VENC_TI_DM350_EDMA_EnableEvent
 0008:00038248       MP4VENC_TI_DM350_EDMA_SetEvent
 0008:00038274       MP4VENC_TI_DM350_EDMA_ClearInterrupt
 0008:000382A0       MP4VENC_TI_DM350_EDMA_DisableInterrupt
 0008:000382CC       MP4VENC_TI_DM350_EDMA_EnableInterrupt
 0008:000382F8       MP4VENC_TI_DM350_EDMA_SetPaRamEntry
 0008:00038374       MP4VENC_TI_DM350_EDMA_UpdateRefSrcAddr
 0008:0003839C       MP4VENC_TI_DM350_EDMA_GetInterrupt
 0008:000383C8       MP4VENC_TI_DM350_HWSET_Copc_SwitchMemToDMA
 0008:00038444       MP4VENC_TI_DM350_HWSET_Copc_SwitchMemToHW
 0008:0003868C       MP4VENC_TI_DM350_HWSET_Copc_Init
 0008:00038838       MP4VENC_TI_DM350_RC_Sequence_init
 0008:000388C0       MP4VENC_TI_SetGlobal_Region
 0008:00038A04       MP4VENC_TI_DM350_FramePostProcess
 0008:00038CC0       MP4VENC_TI_DM350_FrameReset
 0008:0003B8B4       MP4VENC_TI_DM350_SequenceReset
 0008:0003BD38       MP4VENC_TI_DM350_EDMAPresetup
 0008:0003BEE4       MP4VENC_TI_DM350_FrameEncOnSeq
 0008:0003BF38       MP4VENC_TI_DM350_copy32
 0008:0003BF68       MP4VENC_TI_DM350_EventClear
 0008:0003C138       MP4VENC_TI_DM350_FrameEncode
 0008:0003CE60       MP4VENC_TI_DM350_WriteMPEG4VOPEndHeader
 0008:0003CE78       MP4VENC_TI_DM350_VideoObjectLayer
 0008:0003D078       code
 0008:0003D07C       MP4VENC_TI_DM350_EncodeVOP_header_FRMSKIP
 0008:0003D240       MP4VENC_TI_DM350_WriteMPEG4Header_FRMSKIP
 0008:0003D2C4       MP4VENC_TI_DM350_EncodeVOP_header
 0008:0003D4AC       MP4VENC_TI_DM350_EncodeVideoObjectSequenceEnd
 0008:0003D4F8       MP4VENC_TI_DM350_WriteMPEG4Header
 0008:0003D770       MP4VENC_TI_DM350_EncodeGOV_header
 0008:0003D890       MP4VENC_TI_DM350_rate_cnt_top
 0008:0003DAC8       MP4VENC_TI_DM350_float_rate_cnt_core
 0008:0003DBA4       MP4VENC_TI_DM350_calc_T
 0008:0003DCAC       MP4VENC_TI_DM350_calc_r
 0008:0003DD04       MP4VENC_TI_DM350_calc_Xp
 0008:0003DD4C       MP4VENC_TI_DM350_calc_Xi
 0008:0003DD94       MP4VENC_TI_DM350_calc_d0
 0008:0003DDE0       MP4VENC_TI_DM350_rc_update_pict
 0008:0003E3A0       MP4VENC_TI_DM350_rc_init_GOP
 0008:0003EA58       MP4VENC_TI_DM350_rc_init_vGOP
 0008:0003EDF4       MP4VENC_TI_DM350_rc_init_pict
 0008:0003FABC       MP4VENC_TI_DM350_rc_init_seq
 0008:0003FD18       MP4VENC_TI_Seq_data_mem_MVacc
 0008:0003FD28       MP4VENC_TI_DM350_SEQ_GetParam
 0008:0003FD40       MP4VENC_TI_DM350_Brkpnt_biMXcmd_address
 0008:00040CB4       MP4VENC_TI_DM350_MV_Access_DMA_init
 0008:00040F24       SEQ_Update_PaRam_Enc_OddMB
 0008:00044D44       SEQ_Update_PaRam_Enc_UMV
 0008:0004735C       MP4VENC_TI_DM350_SEQ_GenCmd
 0008:0005CA60       MP4VENC_TI_vicpsync_wait
 0008:0005CAA0       MP4VENC_TI_vicpsync_start
 0008:0005CAEC       MP4VENC_TI_DM350_flush_bits
 0008:0005CB34       MP4VENC_TI_DM350_flush_bits1
 0008:0005CB70       MP4VENC_TI_DM350_put_bits
 0008:0005CD10       MP4VENC_TI_DM350_no_bits
 0008:0005CE20       MP4VENC_TI_DM350_put_next_resync_marker
 0008:0005CE50       MP4VENC_TI_DM350_put_next_gob_resync_marker
 0008:0005CE74       MP4VENC_TI_DM350_remove_bytealign_mp4
 0008:0005CECC       MP4VENC_TI_DM350_SetTable
 0008:0005CF14       MP4VENC_TI_DM350_EDMA_PreSetup_Enc
 0008:0005EA18       MP4VENC_TI_DM350_EDMA_UpdateSetupOrgRead
 0008:0005EA94       setupOrgReadChroma_Enc
 0008:0005EBDC       setupOrgRead_Enc
 0008:0005EDD8       MP4VENC_TI_Padding
 0008:0005FC5C       MP4VENC_TI_DM350_EDMA_CopyFirstRef
 0008:0005FDC4       MP4VENC_TI_DM350_EDMA_CopyFirstRef_UMV_1
 0008:0005FF44       MP4VENC_TI_DM350_EDMA_CopyFirstRef_UMV
 0008:000600C4       MP4VENC_TI_DM350_EDMA_Copy
 0008:00060224       MP4VENC_TI_DM350_EDMA_CopyToSeq4
 0008:00060274       MP4VENC_TI_DM350_EDMA_CopyToRingbuf
 0008:00060338       MP4VENC_TI_DM350_EDMA_Copy32
 0008:000604A0       MP4VENC_TI_DM350_LastMBReconUpdate
 0008:000605F4       MP4VENC_TI_DM350_EDMA_SetupTCC_Enc
 0008:00060C48       MP4VENC_TI_DM350_EDMA_420To422
 0008:00060ECC       MP4VENC_TI_DM350_EDMA_Setup_Enc
 0008:000622E4       MP4VENC_TI_DM350_ComputePictureEndHeader
 0008:00062320       MP4VENC_TI_DM350_WritePictureEndHeader
 0008:00062370       MP4VENC_TI_DM350_WritePictureHeader_EDMA
 0008:00062474       MP4VENC_TI_DM350_GetPictureEndHeaderLength
 0008:000624EC       MP4VENC_TI_DM350_HWSET_BigBox
 0008:00062950       MP4VENC_TI_DM350_HWSET_imx_Init
 0008:00062C74       MP4VENC_TI_DM350_HWSET_Bimx_LoadCmd
 0008:00063778       MP4VENC_TI_DM350_HWSET_Bimx_Init
 0008:0006559C       MP4VENC_TI_HWSET_Bp_Init_H263
 0008:0006569C       MP4VENC_TI_DM350_HWSET_Bp_Init
 0008:0006580C       MP4VENC_TI_DM350_HWSET_Bp_SetInitQ
 0008:00065848       MP4VENC_TI_DM350_HWSET_Vlcd_Init
 0008:000658D8       MP4VENC_TI_HWSET_Vlcd_Init_H263
 0008:00065968       MP4VENC_TI_DM350_HWSET_Vlcd_SetTable
 0008:000659EC       MP4VENC_TI_DM350_HWSET_Dct_Init
 0008:00065A54       MP4VENC_TI_DM350_HWSET_Qiq_Init
 0008:00065BB8       MP4VENC_TI_HWSET_Qiq_Init_H263
 0008:00065CAC       MP4VENC_TI_DM350_HWSET_Qiq_SetTable
 0008:00065D4C       MP4VENC_TI_DM350_HWSET_Rc_Init
 0008:00065DD8       MP4VENC_TI_WriteH263EndHeader
 0008:00065DE8       MP4VENC_TI_EncodeVideoPlane_w_short_header_str
 0008:00065F04       MP4VENC_TI_WriteH263Header
 0008:00065F64       MP4VENC_TI_EncodeVideoPlane_w_short_header_en
 0008:00065F94       VICPSYNC_wait
 0008:00066068       VICPSYNC_start
 0008:000661B0       VICPSYNC_unregister
 0008:00066284       VICPSYNC_done
 0008:00066384       IRESMAN_VICP2_getProtocolName
 0008:000663CC       IRESMAN_VICP2_getProtocolRevision
 0008:00066414       setInternalState
 0008:00066454       VICP2_getIresmanFxns
 0008:00066470       VICP2_getDefaultParams
 0008:00066494       IRESMAN_VICP2_freeHandles
 0008:000666D4       IRESMAN_VICP2_getHandles
 0008:00066F80       IRESMAN_VICP2_exit
 0008:00066FF8       IRESMAN_VICP2_init
 0008:00067558       IRES_VICP2_getName
 0008:00067574       IRES_VICP2_getRevision
 0008:00067590       IRES_VICP2_getMemRecs
 0008:000675B8       IRES_VICP2_getNumMemRecs
 0008:000675C0       IRES_VICP2_getStaticProperties
 0008:0006761C       IRES_VICP2_destructHandle
 0008:00067624       IRES_VICP2_constructHandle
 0008:00067994       offset
 0008:000679A0       IRESMAN_GROUPUTILS_getProtocolName
 0008:000679E8       IRESMAN_GROUPUTILS_getProtocolRevision
 0008:00067A30       IRESMAN_GROUPUTILS_init
 0008:00067AE0       IRESMAN_GROUPUTILS_exit
 0008:00067B38       IRESMAN_GROUPUTILS_getHandles
 0008:00067C90       IRESMAN_GROUPUTILS_freeHandle
 0008:00067D34       GROUPUTILS_getIresmanFxns
 0008:00067D50       GROUPUTILS_getDefaultParams
 0008:00067D74       IRES_GROUPUTILS_getName
 0008:00067D90       IRES_GROUPUTILS_getRevision
 0008:00067DAC       IRES_GROUPUTILS_getMemRecs
 0008:00067DD4       IRES_GROUPUTILS_getNumMemRecs
 0008:00067DDC       IRES_GROUPUTILS_constructHandle
 0008:00067E8C       IRES_GROUPUTILS_getStaticProperties
 0008:00067E90       IRES_GROUPUTILS_destructHandle
 0008:00067E98       lockScratchGroup
 0008:00067EE4       unlockScratchGroup
 0008:00067F30       lockLateAcquireResources
 0008:00067F90       unlockLateAcquireResources
 0008:00067FE8       IRESMAN_EDMA3CHAN_getProtocolName
 0008:00068030       IRESMAN_EDMA3CHAN_getProtocolRevision
 0008:00068078       IRESMAN_EDMA3CHAN_init
 0008:000680E0       IRESMAN_EDMA3CHAN_exit
 0008:00068108       _checkContig
 0008:00068164       EDMA3CHAN_getIresmanFxns
 0008:00068180       EDMA3CHAN_getDefaultParams
 0008:000681A4       IRESMAN_EDMA3CHAN_freeHandle
 0008:00068574       IRESMAN_EDMA3CHAN_getHandles
 0008:0006922C       IRES_EDMA3CHAN_getName
 0008:00069248       IRES_EDMA3CHAN_getRevision
 0008:00069264       IRES_EDMA3CHAN_getMemRecs
 0008:000692C0       IRES_EDMA3CHAN_getNumMemRecs
 0008:000692C8       IRES_EDMA3CHAN_constructHandle
 0008:00069658       IRES_EDMA3CHAN_getStaticProperties
 0008:00069718       IRES_EDMA3CHAN_destructHandle
 0008:00069720       setInternalState_0
 0008:0006980C       resToDev
 0008:000698A4       freeResource
 0008:00069B9C       EDMA3_freeLogicalChannel
 0008:00069BD8       EDMA3_freeResource
 0008:00069C14       EDMA3_freeContiguousResource
 0008:00069C4C       EDMA3_getBaseAddress
 0008:00069C9C       EDMA3_getCCRegister
 0008:00069D1C       findResource
 0008:0006A210       allocResource
 0008:0006A4A0       EDMA3_allocContiguousResource
 0008:0006A4F8       EDMA3_allocLogicalChannel
 0008:0006A568       EDMA3_allocResource
 0008:0006A5FC       EDMA3_deleteResourceManagerObject
 0008:0006A658       EDMA3_releaseResourceManager
 0008:0006A7D4       EDMA3_createResourceManagerObject
 0008:0006A8F8       EDMA3_getResourceManager
 0008:0006A9D0       RMAN_activateResource
 0008:0006AA0C       RMAN_activateAllResources
 0008:0006AA48       RMAN_deactivateResource
 0008:0006AA84       RMAN_deactivateAllResources
 0008:0006AAC0       checkRevision
 0008:0006AAD8       myAlloc
 0008:0006AB24       myFree
 0008:0006AB7C       RMAN_unregister
 0008:0006AD24       getResman
 0008:0006AE0C       RMAN_freeResources
 0008:0006AF5C       RMAN_assignResources
 0008:0006B244       RMAN_register
 0008:0006B434       RMAN_init
 0008:0006B63C       RMAN_exit
 0008:0006B73C       IRESMAN_NULLRES_getProtocolName
 0008:0006B758       IRESMAN_NULLRES_getProtocolRevision
 0008:0006B774       IRESMAN_NULLRES_init
 0008:0006B7C8       IRESMAN_NULLRES_exit
 0008:0006B7F8       IRESMAN_NULLRES_getHandles
 0008:0006B89C       IRESMAN_NULLRES_freeHandle
 0008:0006B908       _getStaticProperties
 0008:0006B90C       MPEG2VENC_TI_numResourceDescriptors
 0008:0006B9C4       MPEG2VENC_TI_activateResource
 0008:0006BCCC       MPEG2VENC_TI_activateAllResources
 0008:0006BE6C       MPEG2VENC_TI_deactivateResource
 0008:0006C174       MPEG2VENC_TI_deactivateAllResources
 0008:0006C314       MPEG2VENC_TI_initResources
 0008:0006C9DC       MPEG2VENC_TI_deinitResources
 0008:0006CD10       MPEG2VENC_TI_reinitResources
 0008:0006CE7C       MPEG2VENC_TI_getResourceDescriptors
 0008:0006D3CC       MPEG2VENC_TI_ChbaseDma
 0008:0006D58C       MPEG2VENC_TI_InitConv_phy
 0008:0006D6C4       MPEG2VENC_TI_Conv_phy
 0008:0006D764       MPEG2VENC_TI_printf_context
 0008:0006D780       MPEG2VENC_TI_testIalgInit
 0008:0006F290       MPEG2VENC_TI_activate
 0008:0006F344       MPEG2VENC_TI_deactivate
 0008:0006F400       MPEG2VENC_TI_alloc
 0008:0006FC20       MPEG2VENC_TI_control
 0008:00070BE8       MPEG2Enc_get_version
 0008:00070C68       MPEG2VENC_TI_free
 0008:00070EE0       MPEG2VENC_TI_initObj
 0008:00072580       MPEG2VENC_TI_numAlloc
 0008:0007259C       MPEG2VENC_TI_Encode_End
 0008:00072B10       MPEG2VENC_TI_Encode
 0008:00073AF0       MPEG2VENC_TI_ErrorChk
 0008:00074A80       MPEG2VENC_TI_Encoder_Init
 0008:00074FF0       MPEG2VENC_TI_Get968codeSize
 0008:00075028       MPEG2VENC_TI_KaleidoPsc_Disable
 0008:000750B0       MPEG2VENC_TI_Copy_codearm968
 0008:0007514C       MPEG2VENC_TI_KaleidoPsc_Reset
 0008:000751D0       MPEG2VENC_TI_KaleidoPsc_SyncReset
 0008:00075258       MPEG2VENC_TI_KaleidoPsc_Enable
 0008:00075314       MPEG2VENC_TI_KaleidoPsc_EnableInitRamLow
 0008:000753D0       MPEG2VENC_TI_Loader_Arm968
 0008:000754E0       MPEG2VENC_TI_decreaseVbv
 0008:00075558       MPEG2VENC_TI_increaseVbv
 0008:00075654       MPEG2VENC_TI_getPicAveQ
 0008:00075760       MPEG2VENC_TI_getvbvLevel
 0008:000757FC       MPEG2VENC_TI_endOfPicture
 0008:00075918       MPEG2VENC_TI_initHRDBuffer
 0008:00075A78       MPEG2VENC_TI_RateCtrlH263TMN5
 0008:00075BCC       MPEG2VENC_TI_RateCtrlPLR1
 0008:00075E7C       MPEG2VENC_TI_RateCtrlPLR3
 0008:00075F48       MPEG2VENC_TI_decideFrameSkipping
 0008:0007622C       MPEG2VENC_TI_updateQPI
 0008:00076278       MPEG2VENC_TI_updateForI
 0008:00076414       MPEG2VENC_TI_startOfMBProc
 0008:00076578       MPEG2VENC_TI_startOfPictureProc
 0008:000766E0       MPEG2VENC_TI_startOfPicture
 0008:00076944       MPEG2VENC_TI_FindMaxQsBoost
 0008:00076A78       MPEG2VENC_TI_updatePrevBitCountForP
 0008:00076B4C       MPEG2VENC_TI_updateQPForFutureI
 0008:00076B98       MPEG2VENC_TI_modifyQByVBV
 0008:00076C34       MPEG2VENC_TI_updateGlobalAdjForP
 0008:00076CC8       MPEG2VENC_TI_updateForP
 0008:00076DF8       MPEG2VENC_TI_RcUpdateInit
 0008:00076FB0       MPEG2VENC_TI_Encode_Start
 0008:00077794       MPEG2VENC_TI_Init968
 0008:00077B2C       MPEG2VENC_TI_Encode_Frameend
 0008:00077E4C       MPEG2VENC_TI_Putbits
 0008:00077F98       MPEG2VENC_TI_StuffRM
 0008:00077FE8       MPEG2VENC_TI_next_start_code
 0008:00078038       MPEG2VENC_TI_MP2_Header
 0008:00078634       MPEG2VENC_TI_GOP_Header
 0008:00078700       MPEG2VENC_TI_Picture_Header
 0008:00078CE4       DMA_TI_Open
 0008:00079220       DMA_TI_IRES_EDMA_Open
 0008:00079584       DMA_TI_Map_TC
 0008:000798C8       DMA_TI_Close
 0008:000798E4       DMA_TI_ETrigger
 0008:0007997C       DMA_TI_Wait
 0008:00079A94       DMA_TI_ECopy_Update
 0008:00079C3C       DMA_TI_ECopy_1D1D
 0008:00079DE4       DMA_TI_ECopy_1D2D
 0008:00079FA4       DMA_TI_ECopy_2D1D
 0008:0007A160       DMA_TI_ECopy_2D2D
 0008:0007A31C       DMA_TI_ECopy_1D1D_Linked
 0008:0007A674       DMA_TI_ECopy_1D1D_Early_Linked
 0008:0007A9D0       DMA_TI_ECopy_1D2D_Linked
 0008:0007AD7C       DMA_TI_ECopy_1D2D_Early_Linked
 0008:0007B12C       DMA_TI_ECopy_2D1D_Linked
 0008:0007B4D4       DMA_TI_ECopy_2D1D_Early_Linked
 0008:0007B880       DMA_TI_ECopy_2D2D_Linked
 0008:0007BC28       DMA_TI_ECopy_2D2D_Early_Linked
 0008:0007BFD4       DMA_TI_ECopy_1D1D_Autoincr
 0008:0007C0F0       DMA_TI_ECopy_1D2D_Autoincr
 0008:0007C228       DMA_TI_ECopy_2D1D_Autoincr
 0008:0007C35C       DMA_TI_ECopy_2D2D_Autoincr
 0008:0007C490       DMA_TI_Lgl_Multi_Trig
 0008:0007C5B8       DMA_TI_Lgl_Multi_Wait
 0008:0007C7C8       DMA_TI_Phy_Multi_Trig
 0008:0007C838       DMA_TI_Phy_Multi_Wait
 0008:0007C908       DMA_TI_ECopy_1D1D_Link_MultiTrigg
 0008:0007CCBC       DMA_TI_ECopy_1D1D_Replicate
 0008:0007CE44       DMA_TI_ECopy_2D2D_Linked_DstUpdate
 0008:0007D000       DMA_TI_ECopy_2D2D_Early_Linked_DstUpdate
 0008:0007D1C0       DMA_TI_ECopy_2D2D_Linked_Dst_Bytes_Update
 0008:0007D3C0       DMA_TI_ECopy_2D2D_Early_Linked_Dst_Bytes_Update
 0008:0007D5C4       DMA_TI_ECopy_2D2D_Linked_SrcUpdate
 0008:0007D780       DMA_TI_ECopy_2D2D_Early_Linked_SrcUpdate
 0008:0007D940       DMA_TI_ECopy_1D1D_Linked_src_update
 0008:0007DBC4       DMA_TI_ECopy_1D1D_Early_Linked_src_update
 0008:0007DE4C       DMA_TI_ECopy_1D1D_Linked_src_dst_update
 0008:0007E0F0       DMA_TI_ECopy_1D1D_Early_Linked_src_dst_update
 0008:0007E398       DMA_TI_ECopy_2D2D_Linked_src_dst_update
 0008:0007E68C       DMA_TI_ECopy_2D2D_Early_Linked_src_dst_update
 0008:0007E984       DMA_TI_ECopy_2D1D_Linked_src_update
 0008:0007EB40       DMA_TI_ECopy_2D1D_Early_Linked_src_update
 0008:0007ED00       DMA_TI_ECopy_2D1D_Linked_src_dst_update
 0008:0007EEE0       DMA_TI_ECopy_2D1D_Early_Linked_src_dst_update
 0008:0007F0C4       DMA_TI_ECopy_2D1D_Early_Linked_src_dst_lines_update
 0008:0007F2EC       DMA_TI_ECopy_1D2D_Linked_dst_update
 0008:0007F4AC       DMA_TI_ECopy_1D2D_Early_Linked_dst_update
 0008:0007F670       DMA_TI_ECopy_1D1D_src_dst_numbytes_update
 0008:0007F7B0       H264VENC_TI_numResourceDescriptors
 0008:0007F8F8       H264VENC_TI_activateResource
 0008:0007FD98       H264VENC_TI_activateAllResources
 0008:0007FF70       H264VENC_TI_deactivateResource
 0008:00080410       H264VENC_TI_deactivateAllResources
 0008:000805E8       H264VENC_TI_initResources
 0008:00081AFC       H264VENC_TI_deinitResources
 0008:000820D8       H264VENC_TI_reinitResources
 0008:00082270       H264VENC_TI_getResourceDescriptors
 0008:00082B44       H264VENC_TI_convert_SeqScaleMatrix_forCalcCommand
 0008:00082E10       H264VENC_TI_activate
 0008:00082EB8       H264VENC_TI_alloc
 0008:00083F90       H264VENC_TI_control
 0008:00088EF8       s1
 0008:0008A3B8       H264VENC_TI_deactivate
 0008:0008A460       H264VENC_TI_exit
 0008:0008A470       H264VENC_TI_free
 0008:0008A5C4       H264VENC_TI_init
 0008:0008A5D4       H264VENC_TI_initObj
 0008:0008DA30       H264VENC_TI_moved
 0008:0008DA58       H264VENC_TI_numAlloc
 0008:0008DA70       H264VENC_TI_waitForHDVICP
 0008:0008DE64       H264VENC_TI_encode
 0008:00091528       H264VENC_TI_Initsps
 0008:00091CF0       H264VENC_TI_Initpps
 0008:00091ECC       H264VENC_TI_Initslice
 0008:00091F84       H264VENC_TI_CheckInputParams
 0008:000928B4       H264VENC_TI_ChecklevelLimits
 0008:00092AFC       H264VENC_TI_GetCorrectLevel
 0008:00093414       max1min0
 0008:0009347C       H264VENC_TI_RateControlInit
 0008:00093968       H264VENC_TI_RateCtrl_PicInit
 0008:0009405C       H264VENC_TI_RateCtrl_Dm365PicInit
 0008:00094E44       H264VENC_TI_RateCtrl_ComputeGlobalAdj
 0008:00095118       H264VENC_TI_RateCtrl_UpdatePrevGopStat
 0008:00095200       H264VENC_TI_RateCtrl_PostPic
 0008:000955F4       H264VENC_TI_RateCtrl_UpdateCurrGopStat
 0008:000959C8       H264VENC_TI_RateCtrl_UpdateQsIAfterPPic
 0008:00095BD4       H264VENC_TI_RateCtrl_UpdateQsIAfterIPic
 0008:00095EB8       H264VENC_TI_RateCtrl_LocalAdj
 0008:00096BF0       H264VENC_TI_RateCtrl_AddDelta2Quant
 0008:00096D1C       H264VENC_TI_RateCtrl_AdptvAddDelta2Quant
 0008:00096DF8       H264VENC_TI_RateCtrl_Clip
 0008:00096E48       H264ENC_TI_norm
 0008:00096E78       H264VENC_TI_RateCtrl_GetQpFrmQscale
 0008:00096EF0       H264VENC_TI_RateCtrl_UpdateMaxFrameSize
 0008:00097188       H264VENC_TI_RateCtrl_ShiftFacForRowLevelQs
 0008:000972A8       H264VENC_TI_RateCtrl_Qp_ROI_noROI
 0008:00097A24       H264VENC_TI_RateCtrl_AccumWtProdBitsQs
 0008:00097C18       H264VENC_TI_RateCtrl_ShiftFacForComplexity
 0008:00097D5C       H264VENC_TI_RateCtrl_UpdateStateTransitionCVBR
 0008:00098458       H264VENC_TI_RateCtrl_TransitionToHighStateCVBR
 0008:000985D4       H264VENC_TI_RateCtrl_TransitionFromHighToHighStateCVBR
 0008:00098774       H264VENC_TI_RateCtrl_TransitionFromHighToAvgStateCVBR
 0008:000987E4       H264VENC_TI_RateCtrl_SetSkipFlagLBR
 0008:000988D0       H264VENC_TI_RateCtrl_FindGCF
 0008:000989E4       H264VENC_TI_Get968codeSize
 0008:00098A1C       H264VENC_TI_Copy_codearm968
 0008:00098ABC       H264VENC_TI_KALEIDO_PSC_Reset
 0008:00098B64       H264VENC_TI_KALEIDO_PSC_SyncReset
 0008:00098C10       H264VENC_TI_KALEIDO_PSC_Enable
 0008:00098CF8       H264VENC_TI_KALEIDO_PSC_Enable_InitRam_Low
 0008:00098DE0       H264VENC_TI_Loader_arm968
 0008:00098F30       H264VENC_TI_Loader_arm968_1
 0008:00099080       H264VENC_TI_Copy_codearm968_1
 0008:00099120       H264VENC_TI_Get968codeSize_1
 0008:00099158       H264VENC_TI_Loader_arm968_2
 0008:000992A8       H264VENC_TI_Copy_codearm968_2
 0008:00099348       H264VENC_TI_Get968codeSize_2
 0008:00099380       H264VENC_TI_Loader_arm968_3
 0008:000994C8       H264VENC_TI_Copy_codearm968_3
 0008:00099560       H264VENC_TI_Get968codeSize_3
 0008:00099598       H264VENC_TI_Loader_arm968_4
 0008:000996E8       H264VENC_TI_Copy_codearm968_4
 0008:00099788       H264VENC_TI_Get968codeSize_4
 0008:000997C0       H264VENC_TI_PutBits
 0008:000998C4       H264VENC_TI_AlignBits
 0008:00099914       H264VENC_TI_PutBits_ue
 0008:000999A8       H264VENC_TI_PutBits_ue_long
 0008:00099AA8       H264VENC_TI_PutBits_se
 0008:00099B04       H264VENC_TI_PutBits_strbuf
 0008:00099BA0       H264VENC_TI_AlignBits_strbuf
 0008:00099BF8       H264VENC_TI_PutBits_ue_strbuf
 0008:00099CA4       H264VENC_TI_PutBits_se_strbuf
 0008:00099D00       H264VENC_TI_CopyToCompBuffer
 0008:0009A7D8       H264VENC_TI_GenerateSeqParamNAL
 0008:0009B7D8       H264VENC_TI_GeneratePicParamNAL
 0008:0009BCC0       H264VENC_TI_getCurrDelay
 0008:0009BE10       H264VENC_TI_GenerateBuffPeriodSEI_NAL
 0008:0009C038       H264VENC_TI_GeneratePicTimingSEI_NAL
 0008:0009C278       H264VENC_TI_user_data_unregisteredSEI_NAL
 0008:0009C3D8       H264VENC_TI_GenerateScalableSEIinfo
 0008:0009CA20       H264VENC_TI_SVCScalableInfoSEI_NAL
 0008:0009CAA8       H264VENC_TI_GeneratePrefixNAL
 0008:0009CD4C       H264VENC_TI_Encode_Frame
 0008:0009D608       H264VENC_TI_Encode_Frame_Lite
 0008:0009DEBC       H264VENC_TI_Encode_End
 0008:0009E9A4       H264VENC_TI_Encode_Frame_HeaderGen
 0008:0009F74C       H264VENC_TI_RdOptimizedAIR_Decision
 0008:0009FAC4       H264VENC_TI_RandomAIR_Decision
 0008:0009FEB8       H264VENC_TI_rand_generate
 0008:0009FF4C       H264VENC_TI_Encode_Frame_GDRupdate
 0008:000A0250       H264VENC_TI_Init
 0008:000A03D8       H264VENC_TI_store_pic_attr
 0008:000A079C       H264VENC_TI_remove_unref
 0008:000A0A24       H264VENC_TI_reset_buf_idx
 0008:000A0B2C       H264VENC_TI_set_buf_idx
 0008:000A1240       H264VENC_TI_set_buf_management
 0008:000A1E5C       HDVICP_TI_InitCmdTab_H264ENC
 0008:000A1FE0       H264VENC_TI_saturate
 0008:000A2034       H264VENC_TI_Lmask
 0008:000A2094       H264VENC_TI_ubyte0
 0008:000A20C4       H264VENC_TI_ubyte1
 0008:000A20F8       H264VENC_TI_ubyte2
 0008:000A212C       H264VENC_TI_ubyte3
 0008:000A2160       H264VENC_TI_rotl
 0008:000A21C0       H264VENC_TI_lmbd
 0008:000A22A4       H264VENC_TI_swap4
 0008:000A2308       H264VENC_TI_mem4
 0008:000A23B0       H264V_TI_DMA_IRES_EDMA_Open
 0008:000A2718       H264V_TI_DMA_Map_TC
 0008:000A2ACC       H264V_TI_DMA_Close
 0008:000A2AE8       H264V_TI_DMA_ETrigger
 0008:000A2B80       H264V_TI_DMA_Wait
 0008:000A2C98       H264V_TI_DMA_ECopy_Update
 0008:000A2E44       H264V_TI_DMA_ECopy_1D1D
 0008:000A2FF0       H264V_TI_DMA_ECopy_1D1D_ASYNC
 0008:000A3134       H264V_TI_DMA_ECopy_1D2D
 0008:000A32F8       H264V_TI_DMA_ECopy_2D1D
 0008:000A34B8       H264V_TI_DMA_ECopy_2D2D
 0008:000A3678       H264V_TI_DMA_ECopy_1D1D_Linked
 0008:000A39F4       H264V_TI_DMA_ECopy_1D1D_Early_Linked
 0008:000A3D74       H264V_TI_DMA_ECopy_1D2D_Linked
 0008:000A4144       H264V_TI_DMA_ECopy_1D2D_Early_Linked
 0008:000A4518       H264V_TI_DMA_ECopy_2D1D_Linked
 0008:000A48E4       H264V_TI_DMA_ECopy_2D1D_Early_Linked
 0008:000A4CB4       H264V_TI_DMA_ECopy_2D2D_Linked
 0008:000A5080       H264V_TI_DMA_ECopy_2D2D_Early_Linked
 0008:000A5450       H264V_TI_DMA_ECopy_1D1D_Autoincr
 0008:000A5570       H264V_TI_DMA_ECopy_1D2D_Autoincr
 0008:000A56AC       H264V_TI_DMA_ECopy_2D1D_Autoincr
 0008:000A57E4       H264V_TI_DMA_ECopy_2D2D_Autoincr
 0008:000A591C       H264V_TI_DMA_Lgl_Multi_Trig
 0008:000A5A44       H264V_TI_DMA_Lgl_Multi_Wait
 0008:000A5C54       H264V_TI_DMA_Phy_Multi_Trig
 0008:000A5CC4       H264V_TI_DMA_Phy_Multi_Wait
 0008:000A5D94       H264V_TI_DMA_ECopy_1D1D_Link_MultiTrigg
 0008:000A6184       H264V_TI_DMA_ECopy_1D1D_Replicate
 0008:000A6310       H264V_TI_DMA_ECopy_2D2D_Linked_DstUpdate
 0008:000A64D0       H264V_TI_DMA_ECopy_2D2D_Early_Linked_DstUpdate
 0008:000A6694       H264V_TI_DMA_ECopy_2D2D_Linked_Dst_Bytes_Update
 0008:000A6898       H264V_TI_DMA_ECopy_2D2D_Early_Linked_Dst_Bytes_Update
 0008:000A6AA0       H264V_TI_DMA_ECopy_2D2D_Linked_SrcUpdate
 0008:000A6C60       H264V_TI_DMA_ECopy_2D2D_Early_Linked_SrcUpdate
 0008:000A6E24       H264V_TI_DMA_ECopy_1D1D_Linked_src_update
 0008:000A70CC       H264V_TI_DMA_ECopy_1D1D_Early_Linked_src_update
 0008:000A7378       H264V_TI_DMA_ECopy_1D1D_Linked_src_dst_update
 0008:000A7644       H264V_TI_DMA_ECopy_1D1D_Early_Linked_src_dst_update
 0008:000A7914       H264V_TI_DMA_ECopy_2D2D_Linked_src_dst_update
 0008:000A7C30       H264V_TI_DMA_ECopy_2D2D_Early_Linked_src_dst_update
 0008:000A7F50       H264V_TI_DMA_ECopy_2D1D_Linked_src_update
 0008:000A8110       H264V_TI_DMA_ECopy_2D1D_Early_Linked_src_update
 0008:000A82D4       H264V_TI_DMA_ECopy_2D1D_Linked_src_dst_update
 0008:000A84B8       H264V_TI_DMA_ECopy_2D1D_Early_Linked_src_dst_update
 0008:000A86A0       H264V_TI_DMA_ECopy_2D1D_Early_Linked_src_dst_lines_update
 0008:000A88CC       H264V_TI_DMA_ECopy_1D2D_Linked_dst_update
 0008:000A8A90       H264V_TI_DMA_ECopy_1D2D_Early_Linked_dst_update
 0008:000A8C58       H264V_TI_DMA_ECopy_1D1D_src_dst_numbytes_update
 0008:000A8D9C       HDVICPSYNC_done
 0008:000A8DE4       HDVICPSYNC_unregister
 0008:000A8E14       HDVICPSYNC_wait
 0008:000A8E44       HDVICPSYNC_start
 0008:000A8E80       GT_curTime
 0008:000A8EBC       GT_disable
 0008:000A8EFC       GT_enable
 0008:000A8F1C       GT_init
 0008:000A8F74       error
 0008:000A8FB8       applyOp
 0008:000A9014       _GT_trace
 0008:000A983C       findElem
 0008:000A989C       getModNameFlagsAddr
 0008:000A98BC       GT_getModNameFlags
 0008:000A98DC       addModName
 0008:000A99A8       setMask
 0008:000A9B2C       _GT_set
 0008:000A9D74       _GT_create
 0008:000A9DDC       IRESMAN_MEMTCM_getProtocolName
 0008:000A9E24       IRESMAN_MEMTCM_getProtocolRevision
 0008:000A9E6C       MEMTCM_getIresmanFxns
 0008:000A9E88       MEMTCM_getDefaultParams
 0008:000A9EAC       setInternalState_1
 0008:000A9EC0       IRESMAN_MEMTCM_freeHandle
 0008:000A9FC0       IRESMAN_MEMTCM_getHandles
 0008:000AA21C       freeInternalState
 0008:000AA280       IRESMAN_MEMTCM_exit
 0008:000AA2E8       IRESMAN_MEMTCM_init
 0008:000AA520       IRES_MEMTCM_getName
 0008:000AA53C       IRES_MEMTCM_getRevision
 0008:000AA558       IRES_MEMTCM_getMemRecs
 0008:000AA57C       IRES_MEMTCM_getNumMemRecs
 0008:000AA584       IRES_MEMTCM_constructHandle
 0008:000AA5E4       IRES_MEMTCM_getStaticProperties
 0008:000AA5E8       IRES_MEMTCM_destructHandle
 0008:000AA5F0       IRESMAN_HDVICP_getProtocolName
 0008:000AA638       IRESMAN_HDVICP_getProtocolRevision
 0008:000AA680       IRESMAN_HDVICP_getHandles
 0008:000AA9F4       IRESMAN_HDVICP_freeHandles
 0008:000AAAF0       setInternalState_2
 0008:000AAB3C       HDVICP_getIresmanFxns
 0008:000AAB58       HDVICP_getDefaultParams
 0008:000AAB7C       IRESMAN_HDVICP_exit
 0008:000AAC04       IRESMAN_HDVICP_init
 0008:000AAD4C       IRES_HDVICP_getName
 0008:000AAD80       IRES_HDVICP_getRevision
 0008:000AADB4       IRES_HDVICP_getMemRecs
 0008:000AADDC       IRES_HDVICP_getNumMemRecs
 0008:000AADE4       IRES_HDVICP_getStaticProperties
 0008:000AADF0       IRES_HDVICP_destructHandle
 0008:000AADF8       IRES_HDVICP_constructHandle
 0008:000AAF94       SMGRMP_exit
 0008:000AAF98       SMGRMP_init
 0008:000AAF9C       setInternalState_3
 0008:000AAFA8       shmAlloc
 0008:000AAFE8       shmFree
 0008:000AAFF0       SMGRMP_free
 0008:000AB03C       SMGRMP_delete
 0008:000AB0E4       SMGRMP_create
 0008:000AB23C       SMGRMP_alloc
 0008:000AB288       SMGR_create
 0008:000AB350       SMGR_delete
 0008:000AB384       SMGR_exit
 0008:000AB388       SMGR_free
 0008:000AB468       SMGR_init
 0008:000AB46C       SMGR_alloc
 0008:000AB770       SHM_freeObj
 0008:000AB7DC       SHM_getObj
 0008:000AB8D8       __aeabi_memclr
 0008:000AB908       __aeabi_memcpy
 0008:000AB93C       __aeabi_memmove
 0008:000AB970       __aeabi_memset
 0008:000AB9A4       __aeabi_memcpy4
 0008:000AB9D8       __aeabi_memclr4
 0008:000ABA04       __aeabi_memmove4
 0008:000ABA38       ia_enhaacplus_enc_QCMain
 0008:000ABF18       ia_enhaacplus_enc_spreadingMax
 0008:000AC044       IRESMAN_ADDRSPACE_getProtocolName
 0008:000AC08C       IRESMAN_ADDRSPACE_getProtocolRevision
 0008:000AC0D4       IRESMAN_ADDRSPACE_init
 0008:000AC140       IRESMAN_ADDRSPACE_exit
 0008:000AC170       ADDRSPACE_getIresmanFxns
 0008:000AC18C       ADDRSPACE_getDefaultParams
 0008:000AC1B0       IRESMAN_ADDRSPACE_freeHandle
 0008:000AC260       IRESMAN_ADDRSPACE_getHandles
 0008:000AC4D0       IRES_ADDRSPACE_getName
 0008:000AC4EC       IRES_ADDRSPACE_getRevision
 0008:000AC508       IRES_ADDRSPACE_getMemRecs
 0008:000AC530       IRES_ADDRSPACE_getNumMemRecs
 0008:000AC538       IRES_ADDRSPACE_constructHandle
 0008:000AC5A0       IRES_ADDRSPACE_getStaticProperties
 0008:000AC5A4       IRES_ADDRSPACE_destructHandle
 0008:000AC5AC       MEMUTILS_cacheWbInv
 0008:000AC5D8       MEMUTILS_cacheWb
 0008:000AC604       MEMUTILS_cacheInv
 0008:000AC630       MEMUTILS_getPhysicalAddr
 0008:000AC654       G711ENC_SUN_alloc
 0008:000AC69C       G711ENC_SUN_free
 0008:000AC6AC       G711ENC_SUN_initObj
 0008:000AC744       G711ENC_SUN_encode
 0008:000AC80C       G711ENC_SUN_control
 0008:000AC97C       search
 0008:000AC9D4       G711_SUN_linear2alaw
 0008:000ACA5C       G711_SUN_alaw2linear
 0008:000ACABC       G711_SUN_linear2ulaw
 0008:000ACB54       G711_SUN_ulaw2linear
 0008:000ACB9C       G711_SUN_alaw2ulaw
 0008:000ACBE8       G711_SUN_ulaw2alaw
 0008:000ACC50       validate_init
 0008:000ACCEC       CMEM_exit
 0008:000ACD3C       CMEM_getNumBlocks
 0008:000ACD9C       getBlock
 0008:000ACE2C       CMEM_getBlockAttrs
 0008:000ACE34       CMEM_getBlock
 0008:000ACE44       CMEM_getVersion
 0008:000ACEAC       CMEM_cacheInv
 0008:000ACF2C       CMEM_cacheWbInv
 0008:000ACFAC       CMEM_cacheWb
 0008:000AD02C       CMEM_getPhys
 0008:000AD09C       getPoolFromBlock
 0008:000AD11C       CMEM_getPool2
 0008:000AD120       CMEM_getPool
 0008:000AD12C       CMEM_free
 0008:000AD1EC       CMEM_unregister
 0008:000AD1F0       allocFromPool
 0008:000AD2EC       allocPool
 0008:000AD32C       CMEM_allocPool2
 0008:000AD330       CMEM_allocPool
 0008:000AD340       CMEM_registerAlloc
 0008:000AD418       allocFromHeap
 0008:000AD520       alloc
 0008:000AD5A4       CMEM_alloc2
 0008:000AD5A8       CMEM_alloc
 0008:000AD5B8       CMEM_init
 0008:000AD768       EDMA_freeResource
 0008:000AD7E4       EDMA_unregister
 0008:000AD7E8       EDMA_registerResource
 0008:000AD858       EDMA_getResource
 0008:000AD910       EDMA_getVersion
 0008:000AD978       EDMA_mapBaseAddress
 0008:000ADA4C       EDMA_exit
 0008:000ADAB4       EDMA_init
 0008:000ADCB8       validate_init_0
 0008:000ADD60       VICP_done
 0008:000ADDD8       VICP_wait
 0008:000ADE44       VICP_unregister
 0008:000ADECC       VICP_register
 0008:000ADF78       VICP_exit
 0008:000ADFE8       VICP_init
 0008:000AE0F0       __udivsi3
 0008:000AE2DC       __aeabi_uidivmod
 0008:000AE2FC       __divsi3
 0008:000AE304       .divsi3_nodiv0
 0008:000AE51C       __aeabi_idivmod
 0008:000AE53C       __aeabi_drsub
 0008:000AE544       __subdf3
 0008:000AE548       __aeabi_dadd
 0008:000AE7F4       __floatunsidf
 0008:000AE818       __floatsidf
 0008:000AE840       __extendsfdf2
 0008:000AE880       __floatundidf
 0008:000AE894       __floatdidf
 0008:000AE8F4       __muldf3
 0008:000AEB60       __divdf3
 0008:000AED64       __gtdf2
 0008:000AED6C       __ltdf2
 0008:000AED74       __nedf2
 0008:000AEDFC       __aeabi_cdrcmple
 0008:000AEE18       __aeabi_cdcmple
 0008:000AEE2C       __aeabi_dcmpeq
 0008:000AEE40       __aeabi_dcmplt
 0008:000AEE54       __aeabi_dcmple
 0008:000AEE68       __aeabi_dcmpge
 0008:000AEE7C       __aeabi_dcmpgt
 0008:000AEE90       __fixdfsi
 0008:000AEEEC       __fixunsdfsi
 0008:000AEF40       __truncdfsf2
 0008:000AEFE0       __aeabi_frsub
 0008:000AEFE8       __subsf3
 0008:000AEFEC       __aeabi_fadd
 0008:000AF17C       __floatunsisf
 0008:000AF184       __floatsisf
 0008:000AF1A4       __floatundisf
 0008:000AF1B4       __floatdisf
 0008:000AF230       __mulsf3
 0008:000AF3C8       __divsf3
 0008:000AF528       __fixsfsi
 0008:000AF584       __aeabi_ldivmod
 0008:000AF5C8       __aeabi_uldivmod
 0008:000AF604       __aeabi_ldiv0
 0008:000AF614       __gnu_uldivmod_helper
 0008:000AF650       __gnu_ldivmod_helper
 0008:000AF68C       __divdi3
 0008:000AFC2C       __udivdi3
 0008:000B0154       __libc_csu_fini
 0008:000B0158       __libc_csu_init
 0008:000B01C4       atexit
 0009:000B01EC       ia_enhaacplus_enc_aac_enc_pers_size
 0009:000B0230       ia_enhaacplus_enc_aac_enc_scr_size
 0009:000B0238       ia_enhaacplus_enc_aacInitDefaultConfig
 0009:000B027C       ia_enhaacplus_enc_aac_set_scratch_ptr
 0009:000B0284       ia_enhaacplus_enc_init_aac_tables
 0009:000B02B0       ia_enhaacplus_enc_aac_set_persist_buf
 0009:000B041C       ia_enhaacplus_enc_aacEncClose
 0009:000B0450       ia_enhaacplus_enc_aacEncOpen
 0009:000B0914       ia_enhaacplus_enc_initBlockSwitching
 0009:000B09C0       ia_enhaacplus_enc_initElementInfo
 0009:000B0A5C       ia_enhaacplus_enc_initElementBits
 0009:000B0B14       ia_enhaacplus_enc_freqToBandWithRounding
 0009:000B0B90       ia_enhaacplus_enc_initTnsConfiguration
 0009:000B0D3C       ia_enhaacplus_enc_initTnsConfigurationShort
 0009:000B0EE8       ia_enhaacplus_enc_calcGaussWindow_fix
 0009:000B1050       ia_enhaacplus_enc_getTnsParam
 0009:000B1188       ia_enhaacplus_enc_getTnsMaxBands
 000A:000B1208       ia_enhaacplus_enc_aacEncEncode
 000A:000B1444       ia_enhaacplus_enc_bits2pe_fix
 000A:000B145C       ia_enhaacplus_enc_calcPe
 000A:000B15E0       ia_enhaacplus_enc_reduceThresholds
 000A:000B1854       ia_enhaacplus_enc_adaptThresholdsToPe
 000A:000B2D90       ia_enhaacplus_enc_adjThrInit
 000A:000B30FC       ia_enhaacplus_enc_adjustThresholds
 000A:000B3E60       ia_enhaacplus_enc_adjThrUpdate
 000A:000B3E68       ia_enhaacplus_enc_initAvoidHoleFlag
 000A:000B471C       ia_enhaacplus_enc_allowMoreHoles
 000A:000B5000       ia_enhaacplus_enc_createBitBuffer
 000A:000B5040       ia_enhaacplus_enc_deleteBitBuffer
 000A:000B504C       ia_enhaacplus_enc_resetBitBuf
 000A:000B507C       ia_enhaacplus_enc_copyBitBuf_to_and_fro
 000A:000B5144       ia_enhaacplus_enc_copyBitBuf
 000A:000B51AC       ia_enhaacplus_enc_getBitsAvail
 000A:000B51B4       ia_enhaacplus_enc_readBits
 000A:000B524C       ia_enhaacplus_enc_windBitBufferBidirectional
 000A:000B52E4       ia_enhaacplus_enc_count3_4_5_6_7_8_9_10_11
 000A:000B5560       ia_enhaacplus_enc_count5_6_7_8_9_10_11
 000A:000B56B8       ia_enhaacplus_enc_count7_8_9_10_11
 000A:000B57D0       ia_enhaacplus_enc_count9_10_11
 000A:000B58C0       ia_enhaacplus_enc_count11
 000A:000B5984       ia_enhaacplus_enc_countEsc
 000A:000B5AB4       ia_enhaacplus_enc_bitCount
 000A:000B5AF0       ia_enhaacplus_enc_codeValues
 000A:000B6348       ia_enhaacplus_enc_codeScalefactorDelta
 000A:000B6390       ia_enhaacplus_enc_writeIndividualChannelStream
 000A:000B68F0       ia_enhaacplus_enc_writeBitstream
 000A:000B6FE8       ia_enhaacplus_enc_blockSwitching
 000A:000B73B4       ia_enhaacplus_enc_syncBlockSwitching
 000A:000B74E0       ia_enhaacplus_enc_calcBandEnergy
 000A:000B7514       LOOP1
 000A:000B7538       NORM_ARR
 000A:000B7558       CALC_BAND_ENERGY
 000A:000B7580       ZERO_BAND
 000A:000B75B4       CALC_SUM_ENERGY
 000A:000B75CC       EXIT
 000A:000B75F8       L1.320
 000A:000B7614       ia_enhaacplus_enc_calcExpSpec
 000A:000B7630       FOR_LOOP
 000A:000B7684       EXIT_0
 000A:000B768C       ia_enhaacplus_enc_calcSpecPeDiff
 000A:000B770C       LOOP1_0
 000A:000B7788       COND1END
 000A:000B7810       CALCSPECEND
 000A:000B7828       LOOP1END
 000A:000B786C       ia_enhaacplus_enc_dynBitCount
 000A:000B7B6C       ia_enhaacplus_enc_BCInit
 000A:000B7BEC       ia_enhaacplus_enc_noiselessCounter
 000A:000B8260       sizeof_delay_buffer
 000A:000B8268       ia_eaacplusenc_get_version
 000A:000B8308       ia_eaacplus_enc_set_default_config_params
 000A:000B836C       ia_eaacplus_enc_init
 000A:000B8500       ia_enhaacplus_enc_execute
 000A:000B8894       ia_eaacplus_encoder_get_mem
 000A:000B88B4       ia_enhaacplus_enc_findMaxQforExpSpec
 000A:000B88D0       L1.28
 000A:000B8924       L1.168
 000A:000B894C       L1.208
 000A:000B8978       ia_enhaacplus_enc_analysisFilterLattice_fix
 000A:000B89B4       LOOP1_1
 000A:000B89D0       LOOP2
 000A:000B8A14       ia_enhaacplus_enc_calcBandEnergyMS
 000A:000B8A34       LOOP1_2
 000A:000B8A50       FOR1
 000A:000B8AC0       WHIL1
 000A:000B8AF4       WHIL2
 000A:000B8B28       COND1
 000A:000B8B38       WHIL3
 000A:000B8B6C       WHIL4
 000A:000B8B9C       CONDEND
 000A:000B8BFC       COND2
 000A:000B8C10       COND2END
 000A:000B8C7C       LOOP2_0
 000A:000B8C94       ENDLOOP2
 000A:000B8C9C       ia_enhaacplus_enc_putBit
 000A:000B8D90       ia_enhaacplus_enc_GetSRIndex
 000A:000B8E44       ia_enhaacplus_enc_WriteADIFHeader
 000A:000B93B8       ia_enhaacplus_enc_WriteADTSHeader
 000A:000B9594       ia_enhaacplus_enc_buildInterface
 000A:000B978C       ia_enhaacplus_enc_postModulationDCT_fix
 000A:000B97BC       LOOP1_3
 000A:000B9818       SHIFTONE
 000A:000B9884       ia_enhaacplus_enc_initPreEchoControl
 000A:000B98C0       ia_enhaacplus_enc_preEchoControl
 000A:000B9A1C       ia_enhaacplus_enc_preModulationDCT_fix
 000A:000B9A2C       LOOP1_4
 000A:000B9AA0       ia_enhaacplus_enc_atan_approx_fix
 000A:000B9BA8       ia_enhaacplus_enc_power2
 000A:000B9C10       ia_enhaacplus_enc_initSpreading
 000A:000B9F44       ia_enhaacplus_enc_initMinSnr
 000A:000BA2A4       ia_enhaacplus_enc_initPsyConfiguration
 000A:000BA4BC       ia_enhaacplus_enc_initPsyConfigurationShort
 000A:000BA6BC       ia_enhaacplus_enc_initThrQuiet
 000A:000BA848       ia_enhaacplus_enc_initBarcValues
 000A:000BA9FC       ia_enhaacplus_enc_psyNew
 000A:000BAAB0       ia_enhaacplus_enc_psyDelete
 000A:000BAAB8       ia_enhaacplus_enc_psyOutNew
 000A:000BAAC0       ia_enhaacplus_enc_psyOutDelete
 000A:000BAAC8       ia_enhaacplus_enc_psyMainInit
 000A:000BABF4       ia_enhaacplus_enc_psyMain
 000A:000BBBD4       ia_enhaacplus_enc_QCOutDelete
 000A:000BBBD8       ia_enhaacplus_enc_QCOutNew
 000A:000BBCB8       ia_enhaacplus_enc_QCNew
 000A:000BBD64       ia_enhaacplus_enc_QCDelete
 000A:000BBD68       ia_enhaacplus_enc_QCInit
 000A:000BBE30       ia_enhaacplus_enc_updateBitres
 000A:000BBE98       ia_enhaacplus_enc_finalizeBitConsumption
 000A:000BC014       ia_enhaacplus_enc_adjustBitrate
 000A:000BC0C0       ia_enhaacplus_enc_quantizeLines
 000A:000BC144       ia_enhaacplus_enc_quantizeSpectrum
 000A:000BC23C       ia_enhaacplus_enc_fft
 000A:000BC4E4       ia_enhaacplus_enc_radix4_bfly
 000A:000BC504       LOOP_FFT_OUTER
 000A:000BC508       LOOP_FFT_INNER
 000A:000BC624       ia_enhaacplus_enc_sqrtFix_interpolate
 000A:000BC6C8       ia_enhaacplus_enc_sqrtFix
 000A:000BC738       ia_enhaacplus_enc_countStaticBitdemand
 000A:000BC97C       ia_enhaacplus_enc_countTnsBits
 000A:000BCAC8       ia_enhaacplus_enc_initStereoPreProcessing
 000A:000BCD60       ia_enhaacplus_enc_applyStereoPreProcess
 000A:000BDAC4       ia_enhaacplus_enc_updateStereoPreProcess
 000A:000BDB84       ia_enhaacplus_enc_calcTnsFilter
 000A:000BDEF4       ia_enhaacplus_enc_tnsDetect
 000A:000BE1D4       ia_enhaacplus_enc_tnsSync
 000A:000BE37C       ia_enhaacplus_enc_tnsEncode
 000A:000BE724       ia_enhaacplus_enc_applyTnsMultTableToRatios
 000B:000BE750       ia_enhaacplus_enc_autoCorrelation_fix
 000B:000BE768       LOOP1_5
 000B:000BE77C       LOOP2_1
 000B:000BE7CC       NOTODD
 000B:000BE7D4       EXIT_1
 000B:000BE7D8       ia_enhaacplus_enc_calcFormFactorChannel
 000B:000BE834       OUTER_LOOP
 000B:000BE844       INNER_LOOP
 000B:000BE87C       Q_DIFF_NEG
 000B:000BE88C       FLAG_SET
 000B:000BE8D4       SFBWIDTH_LOOP
 000B:000BE914       SKIP_MULT
 000B:000BE920       CAL_TEMP
 000B:000BE948       Q_DIFF_POS
 000B:000BE954       SKIP_SFB_WIDTH_LOOP
 000B:000BEA28       STORE_ZEROES_ELSE
 000B:000BEA5C       NEXT_ITER
 000B:000BEA98       ia_enhaacplus_enc_calcSfbDist
 000B:000BEB18       LOOP1_6
 000B:000BEB58       COND1_0
 000B:000BEBC0       COND2_0
 000B:000BEBD0       COND2END_0
 000B:000BEC3C       ia_enhaacplus_enc_div32_lp
 000B:000BED4C       ia_enhaacplus_enc_count1_2_3_4_5_6_7_8_9_10_11
 000B:000BED70       LOOP1_7
 000B:000BEF6C       ia_enhaacplus_enc_groupShortData
 000B:000BEF8C       LOOP1_8
 000B:000BEF94       LOOP1_IN1
 000B:000BEFA8       LOOP1_IN2
 000B:000BEFC8       ENDLOOP2_0
 000B:000BF008       LOOP2_2
 000B:000BF01C       LOOP2_IN1
 000B:000BF084       LOOP3
 000B:000BF0A4       LOOP3_IN1
 000B:000BF0FC       LOOP3_IN2
 000B:000BF120       COND1_1
 000B:000BF128       END_COND1
 000B:000BF150       COND2_1
 000B:000BF158       END_COND2
 000B:000BF17C       COND3
 000B:000BF180       END_COND3
 000B:000BF1A8       COND4
 000B:000BF1B0       END_COND4
 000B:000BF1B8       END_LOOP3_IN2
 000B:000BF258       LOOP4
 000B:000BF260       LOOP4_IN1
 000B:000BF26C       LOOP4_IN2
 000B:000BF274       LOOP4_IN3
 000B:000BF2B8       ia_enhaacplus_enc_IIRFilter_fix
 000B:000BF2FC       LOOP11
 000B:000BF348       SHIFTSEVEN1
 000B:000BF390       ia_enhaacplus_enc_post_radix4_bfly
 000B:000BF3AC       LOOP1_9
 000B:000BF524       ia_enhaacplus_enc_writeBits
 000B:000BF554       LOOP1_10
 000B:000BF588       COND1_2
 000B:000BF5C4       OUTLOOP1
 000B:000BF5CC       ia_enhaacplus_enc_calcSfbPe
 000B:000BF954       ia_enhaacplus_enc_msStereoProcessing
 000B:000C0078       ia_enhaacplus_enc_estimateScaleFactorsChannel
 000B:000C0F94       ia_enhaacplus_enc_estimateScaleFactors
 000B:000C1094       ia_enhaacplus_enc_assimilateSingleScf
 000B:000C19EC       ia_enhaacplus_enc_calcWeightedSpectrum
 000B:000C1DB4       ia_enhaacplus_enc_post_radix2_bfly
 000B:000C2010       ia_enhaacplus_enc_DSP_fft32x32s
 000B:000C20E0       ia_enhaacplus_enc_mdct_fix
 000B:000C2200       ia_enhaacplus_enc_transform_Real
 000B:000C2588       ia_enhaacplus_enc_shiftMdctDelayBuffer
 000C:000C2654       EAACPLUSENC_ITTIAM_activate
 000D:000C2658       EAACPLUSENC_ITTIAM_numAlloc
 000D:000C2660       eaacplus_enc_get_memtab_info
 000D:000C26DC       eaacplus_enc_get_tables_info
 000D:000C2764       eaacplus_enc_get_tables_init_ptrs
 000D:000C2798       eaacplus_enc_copy_params
 000E:000C28F8       EAACPLUSENC_ITTIAM_alloc
 000E:000C2A64       eaacplus_enc_get_tablestatus
 000E:000C2A98       eaacplus_enc_set_tablestatus
 000F:000C2AFC       EAACPLUSENC_ITTIAM_control
 0010:000C2B04       EAACPLUSENC_ITTIAM_deactivate
 0011:000C2B08       EAACPLUSENC_ITTIAM_exit
 0012:000C2B0C       EAACPLUSENC_ITTIAM_free
 0013:000C2C98       EAACPLUSENC_ITTIAM_init
 0013:000C2C9C       ia_eaacplus_encoder_check_valid_samp_freq
 0013:000C2D8C       ia_eaacplus_encoder_check_valid_bitrate
 0013:000C2DC8       eaacplus_enc_get_tables_copy_data
 0013:000C2E50       eaacplus_enc_get_num_channels_and_channel_mask
 0014:000C2FA0       EAACPLUSENC_ITTIAM_initObj
 0015:000C3310       EAACPLUSENC_ITTIAM_moved
 0015:000C3410       ITTIAM_EAACPLUSENC_control
 0015:000C36BC       ITTIAM_EAACPLUSENC_process
 0016:000C3E40       .term_proc
 0017:000C3E48       _IO_stdin_used
 0017:000C3E4C       __PRETTY_FUNCTION__.6545
 0017:000C3E60       aUint32Bufptr0x
 0017:000C3E80       aCaptureC
 0017:000C3E8C       aErrorUnsupport
 0017:000C3EC8       aErrorFailedToC
 0017:000C3F04       aErrorUserResol
 0017:000C3F48       aErrorFailedToC_0
 0017:000C3F78       aErrorFailedToC_1
 0017:000C3F98       aErrorFailedToC_2
 0017:000C3FDC       aErrorFailedToF
 0017:000C4004       aErrorFailedToS
 0017:000C4034       aErrorFailedToG
 0017:000C405C       aErrorFailedToP
 0017:000C4084       aErrorFailedToG_0
 0017:000C40B4       aAac
 0017:000C40BC       aAacenc
 0017:000C40C4       aAaclcEncoder
 0017:000C40D4       aG711
 0017:000C40DC       aG711enc
 0017:000C40E4       aG711Speech
 0017:000C40F4       aMpeg4
 0017:000C40FC       aM4v
 0017:000C4104       a264_0
 0017:000C410C       aMpeg2
 0017:000C4114       aM2v
 0017:000C411C       aMpeg4enc
 0017:000C4128       aMpeg4Video
 0017:000C4134       aH264enc
 0017:000C413C       aH264Hp
 0017:000C4148       aMpeg2enc
 0017:000C4154       aMpeg2_0
 0017:000C415C       aEncode_1
 0017:000C4164       a04x
 0017:000C416C       aInptvd04x
 0017:000C417C       aUsbDeviceGoDow
 0017:000C41A8       aReboot
 0017:000C41B0       aProcBusUsbDevi
 0017:000C41C8       aRt
 0017:000C41CC       aCanTNotOpenThe
 0017:000C41F0       aP
 0017:000C41F4       aSSSSS
 0017:000C4204       aS_1
 0017:000C4210       aDevMem_0
 0017:000C421C       aErrorFailedToG_1
 0017:000C423C       aGetfpgastatusE
 0017:000C4250       aFpgaDDDDFD
 0017:000C426C       aHdmiStatusIsD
 0017:000C4280       a2D
 0017:000C4294       a222222S
 0017:000C42A0       a3
 0017:000C42B0       aVideoLost
 0017:000C42BC       aLibusbSendErro
 0017:000C42D4       aUsblinkStatusC
 0017:000C42FC       aGetfpgastatusE_0
 0017:000C4310       aA9InDownloadMo
 0017:000C4334       aNoUsbDeviceIdX
 0017:000C434C       aTryReset68013
 0017:000C4364       aReinitLibusbFa
 0017:000C4380       aUsbSendErrorDo
 0017:000C43B0       aUsbHostErrorNe
 0017:000C43E4       aErrorFailedToG_2
 0017:000C4408       a2d2d2d
 0017:000C4418       aDDKhzSampRate
 0017:000C442C       aDKhzSampRate
 0017:000C4440       aDxD
 0017:000C4448       aD_0
 0017:000C4450       aDFps
 0017:000C4458       aDKbps
 0017:000C4460       aMsgactionS
 0017:000C4470       aMsgactionSkipM
 0017:000C4498       aMsgactionSizeo
 0017:000C44CC       aMsgactionVideo
 0017:000C44EC       aErrorSelectFai
 0017:000C4510       aPlay
 0017:000C4518       aPause
 0017:000C4520       aStop
 0017:000C4528       aInc
 0017:000C452C       aDec
 0017:000C4530       aHide
 0017:000C4538       aHelp
 0017:000C4540       aAvailableComma
 0017:000C4644       aUnknownCommand
 0017:000C4660       aCommandHelpFor
 0017:000C4680       C.60.7153
 0017:000C4698       aOsdthrfxnProce
 0017:000C46C4       aEncode
 0017:000C46CC       aErrorFailedToO
 0017:000C46F4       aErrorFailedToC_3
 0017:000C4718       C.65.7194
 0017:000C4730       aCtrlthrfxnProc
 0017:000C475C       aUsbBusErrorDec
 0017:000C4778       aEntryEncryptQu
 0017:000C4790       aEncryptPassed
 0017:000C47A0       aGpio45
 0017:000C47A8       aGpio46
 0017:000C47B0       aDevDm365Gpio
 0017:000C47C0       aOpenDevDm365Gp
 0017:000C47DC       aGpio23
 0017:000C47E4       aGpio35
 0017:000C47EC       aEncodeUsbV02x0
 0017:000C4818       aNov32015
 0017:000C4824       a112352
 0017:000C4830       aUsageEncodeOpt
 0017:000C4D50       aVideofile
 0017:000C4D5C       aDisplayStandar
 0017:000C4D70       aResolution
 0017:000C4D7C       aVideobitrate
 0017:000C4D8C       aGopinterval
 0017:000C4D98       aWatchdogDisabl
 0017:000C4DAC       aWriteDisable
 0017:000C4DBC       aVideoInput
 0017:000C4DC8       aNooutput
 0017:000C4DD4       aMode_0
 0017:000C4DDC       aAutodetect
 0017:000C4DE8       aSerialdata_0
 0017:000C4DF4       aHelp_0
 0017:000C4DFC       longOptions.7909
 0017:000C4EDC       a264
 0017:000C4EE4       aVideoFileWitho
 0017:000C4F08       aUnknownVideoFi
 0017:000C4F2C       aD1Ntsc
 0017:000C4F34       aD1Pal
 0017:000C4F3C       a720p30hz
 0017:000C4F48       a720p50hz
 0017:000C4F54       a720p60hz
 0017:000C4F60       a1080i50hz
 0017:000C4F6C       a1080i60hz
 0017:000C4F78       a1080p25hz
 0017:000C4F84       a1080p30hz
 0017:000C4F90       a1080p50hz
 0017:000C4F9C       a1080p60hz
 0017:000C4FA8       aUnknownDisplay
 0017:000C4FC4       aUnknownVideoIn
 0017:000C4FDC       aLdxLd
 0017:000C4FE4       aInvalidResolut
 0017:000C5008       aVideoResolutio
 0017:000C503C       aVYRBGWfiNtMash
 0017:000C5054       aInvalidVideoIn
 0017:000C5080       aThisCombinatio
 0017:000C50C8       aSVideo
 0017:000C50D0       aComposite
 0017:000C50DC       aComponent
 0017:000C50E8       aCamera
 0017:000C50F0       aHdmiYuv
 0017:000C50FC       aCannotOpenSS
 0017:000C5114       aSInputNotFound
 0017:000C5130       aDefaultVideoIn
 0017:000C5154       aFailedToSetVid
 0017:000C517C       aFailedToRetrie
 0017:000C51A4       aAttemptedToSet
 0017:000C51EC       aHdmiInputIsNot
 0017:000C520C       aSettingVideoSt
 0017:000C5230       aVidiocSStdFail
 0017:000C5250       aNotSupportedVi
 0017:000C5288       aCaptureInputSe
 0017:000C52A4       aDetcting
 0017:000C52B0       aVideostdDVideo
 0017:000C52CC       aDetectedVideoD
 0017:000C52E4       aGotNothingFrom
 0017:000C52FC       aEncode_0
 0017:000C5304       aNA
 0017:000C5308       C.71.8271
 0017:000C534C       aEncodeUsbInitp
 0017:000C536C       aErrorFailedToI
 0017:000C5398       aErrorFailedToS_0
 0017:000C53D0       aErrorFailedToS_1
 0017:000C5400       aErrorFailedToC_4
 0017:000C5428       aErrorFailedToC_5
 0017:000C5450       aMqEncoder
 0017:000C545C       aMqServer
 0017:000C5468       aInitLibusbFail
 0017:000C547C       aErrorFailedToC_6
 0017:000C54A4       aErrorFailedToC_7
 0017:000C54D0       aOptDjiEtcConfi
 0017:000C54E4       aR
 0017:000C54E8       aRmOptDjiEtcCon
 0017:000C5500       aAutoToDetectVi
 0017:000C5524       aNotSurpportedV
 0017:000C5540       aErrorFailedToO_0
 0017:000C5568       aErrorFailedToS_2
 0017:000C5594       aErrorFailedToC_8
 0017:000C55BC       aErrorFailedToC_9
 0017:000C55E4       aErrorFailedToC_10
 0017:000C5608       aErrorFailedToE
 0017:000C562C       aSync
 0017:000C5634       aEcho3ProcSysVm
 0017:000C5658       aBadUiItemValue
 0017:000C566C       aErrorFailedToG_3
 0017:000C569C       aErrorFailedToP_0
 0017:000C56C4       aErrorFailedToA
 0017:000C56F4       aErrorFailedToC_11
 0017:000C5728       aErrorMaximumNu
 0017:000C5760       aErrorSelectErr
 0017:000C5778       aSS
 0017:000C5784       aSerialdata
 0017:000C5794       a02x
 0017:000C57A0       aPkill10EncodeU
 0017:000C57CC       aSendSliceDataE
 0017:000C57EC       C.44.7700
 0017:000C581C       C.43.7699
 0017:000C584C       aVideoframerate
 0017:000C5874       aW
 0017:000C5878       aErrorFailedToO_1
 0017:000C58A0       aErrorFailedToO_2
 0017:000C58C8       aErrorFailedToC_12
 0017:000C58F4       aGopIntervalDOu
 0017:000C594C       aErrorFailedToA_0
 0017:000C597C       aErrorFailedToS_3
 0017:000C59AC       aErrorFailedToG_4
 0017:000C59E0       aErrorFailedToS_4
 0017:000C5A10       aFailedToGetBuf
 0017:000C5A38       aErr1
 0017:000C5A40       aErrorFailedToG_5
 0017:000C5A70       a1765Push68013S
 0017:000C5A94       aGetfpgastatusE_1
 0017:000C5AA8       aA9Sw68013ToA9S
 0017:000C5AC4       aA9Sw68013To368
 0017:000C5AE0       aErrorFailedToE_0
 0017:000C5B08       aLibusbSenddata
 0017:000C5B24       aFrmaeDPsliceDI
 0017:000C5B50       aLibusbSendErro_0
 0017:000C5B68       aDevTtys1
 0017:000C5B74       aPkill10EncodeU_0
 0017:000C5B8C       aUpdateDD
 0017:000C5B9C       aUpdate68013DD
 0017:000C5BB0       aReboot_0
 0017:000C5BB8       aTDDRDHDLDUsbDB
 0017:000C5BEC       aFailedToGetOsT
 0017:000C5C04       aEtcKeyBin
 0017:000C5C14       aCeDebug
 0017:000C5C20       a67Ce3GtTime0Gt
 0017:000C5C44       a67GtPrefix1235
 0017:000C5C64       a01234567Ce3TiS
 0017:000C5CBC       a01234567Cr67Ti
 0017:000C5D0C       a01234567Ce3GtT
 0017:000C5D38       a01234567GtPref
 0017:000C5D60       aCeCheck
 0017:000C5D6C       a7
 0017:000C5D70       aCeTrace
 0017:000C5D7C       aPackageGnuTarg
 0017:000C5E28       aPackageTiSdoLi
 0017:000C5ED4       aPackageTiSdoLi_0
 0017:000C5F80       aPackageTiSdoLi_1
 0017:000C602C       aPackageTiXdais
 0017:000C60E0       aPackageTiSdoFc
 0017:000C6188       aPackageTiSdoFc_0
 0017:000C6234       aPackageTiSdoFc_1
 0017:000C62E4       aPackageTiXdais_0
 0017:000C6370       aPackageTiSdoFc_2
 0017:000C642C       aPackageIttiamC
 0017:000C64D4       aPackageTiSdoFc_3
 0017:000C657C       aPackageTiSdoFc_4
 0017:000C6630       aPackageTiSdoFc_5
 0017:000C66E4       aPackageTiSdoUt
 0017:000C6794       aPackageTiSdoFc_6
 0017:000C6848       aPackageTiSdoCo
 0017:000C68F4       aPackageTiSdoCo_0
 0017:000C69A4       aPackageTiSdoFc_7
 0017:000C6A64       aPackageTiSdoFc_8
 0017:000C6B0C       aPackageTiSdoFc_9
 0017:000C6BB4       aPackageTiSdoFc_10
 0017:000C6C70       aPackageTiSdoFc_11
 0017:000C6D2C       aPackageTiSdoFc_12
 0017:000C6DDC       aPackageTiSdoFc_13
 0017:000C6E8C       aPackageTiSdoCo_1
 0017:000C6F3C       aPackageTiSdoCe
 0017:000C6FE0       aPackageTiXdais_1
 0017:000C7070       aPackageTiSdoCe_0
 0017:000C7118       aPackageTiSdoCe_1
 0017:000C71B8       aPackageTiSdoFc_14
 0017:000C7260       aPackageTiSdoFc_15
 0017:000C7308       aPackageGnuTarg_0
 0017:000C739C       aPackageGnuTarg_1
 0017:000C743C       aPackageTiCatal
 0017:000C74D8       aPackageTiCatal_0
 0017:000C756C       aPackageTiPlatf
 0017:000C7614       aPackageTiSdoCe_2
 0017:000C76B4       aPackageTiSdoCe_3
 0017:000C7760       aPackageTiSdoCe_4
 0017:000C77FC       aPackageTiSdoCe_5
 0017:000C78A4       aPackageTiSdoCe_6
 0017:000C7940       aPackageTiSdoCe_7
 0017:000C79D4       aPackageTiSdoCe_8
 0017:000C7A78       aPackageTiSdoCe_9
 0017:000C7B1C       aPackageTiSdoCe_10
 0017:000C7BBC       aPackageTiSdoCe_11
 0017:000C7C60       aPackageTiSdoCe_12
 0017:000C7D00       aPackageTiSdoCe_13
 0017:000C7DA4       aPackageTiSdoCe_14
 0017:000C7E48       aPackageTiSdoCe_15
 0017:000C7EE8       aPackageTiSdoCe_16
 0017:000C7F8C       aPackageTiSdoDm
 0017:000C801C       aPackageTiSdoCo_2
 0017:000C80D0       aPackageTiSdoCo_3
 0017:000C8184       aPackageTiSdoCo_4
 0017:000C8238       aPackageTiSdoCe_17
 0017:000C82F8       aPackageIttiamC_0
 0017:000C83A8       aPackageEncodeU
 0017:000C841C       aLocal
 0017:000C8424       aEncode_2
 0017:000C842C       aMpeg4enc_0
 0017:000C8438       aTiSdoCeVideo1I
 0017:000C8454       aH264enc_0
 0017:000C845C       aMpeg2enc_0
 0017:000C8468       aG711enc_0
 0017:000C8470       aTiSdoCeSpeech1
 0017:000C848C       aAacenc_0
 0017:000C8494       aTiSdoCeAudio1I
 0017:000C84B0       aFe4c1376
 0017:000C84BC       aTiSdoFcIresAdd
 0017:000C84D8       Buffer_Memory_Params_DEFAULT
 0017:000C84E8       Buffer_Attrs_DEFAULT
 0017:000C8500       aBufferMustProv
 0017:000C8520       aBufferUnknownB
 0017:000C8544       aBufferFailedTo
 0017:000C857C       aFailedToAlloca
 0017:000C8598       aBufferAllocBuf
 0017:000C85D0       __PRETTY_FUNCTION__.2818
 0017:000C85E0       aHbuf
 0017:000C85E8       aBufferC
 0017:000C85F4       aAttrs
 0017:000C85FC       aBufferFailedTo_0
 0017:000C8630       aYes
 0017:000C8634       aNo
 0017:000C8638       aD0xX0xXPhysNum
 0017:000C8684       aWidthDHeightDL
 0017:000C86AC       aWidthDDHeightD
 0017:000C86E8       __PRETTY_FUNCTION__.2896
 0017:000C86FC       __PRETTY_FUNCTION__.2909
 0017:000C8710       __PRETTY_FUNCTION__.2915
 0017:000C8724       __PRETTY_FUNCTION__.2922
 0017:000C8738       __PRETTY_FUNCTION__.2930
 0017:000C8748       __PRETTY_FUNCTION__.2938
 0017:000C8758       __PRETTY_FUNCTION__.2946
 0017:000C876C       __PRETTY_FUNCTION__.2954
 0017:000C8784       __PRETTY_FUNCTION__.2962
 0017:000C8794       __PRETTY_FUNCTION__.2975
 0017:000C87AC       __PRETTY_FUNCTION__.2983
 0017:000C87BC       __PRETTY_FUNCTION__.2991
 0017:000C87D4       __PRETTY_FUNCTION__.3000
 0017:000C87EC       __PRETTY_FUNCTION__.3007
 0017:000C87FC       __PRETTY_FUNCTION__.3014
 0017:000C880C       __PRETTY_FUNCTION__.3021
 0017:000C8820       __PRETTY_FUNCTION__.3028
 0017:000C8834       aBufferSetUserP
 0017:000C8864       __PRETTY_FUNCTION__.3059
 0017:000C8874       __PRETTY_FUNCTION__.3071
 0017:000C888C       __PRETTY_FUNCTION__.3079
 0017:000C88A0       __PRETTY_FUNCTION__.3087
 0017:000C88B4       aBufferFreeBuff
 0017:000C88EC       __PRETTY_FUNCTION__.3132
 0017:000C88F8       aHsrcbuf
 0017:000C8900       aHdstbuf
 0017:000C8908       aHsrcbufTypeBuf
 0017:000C8954       aBufferCannotCo
 0017:000C8980       BufferGfx_Attrs_DEFAULT
 0017:000C89B0       __PRETTY_FUNCTION__.2729
 0017:000C89C8       aHbuf_0
 0017:000C89D0       aBuffergfxC
 0017:000C89DC       __PRETTY_FUNCTION__.2789
 0017:000C89F8       aDimptr
 0017:000C8A00       __PRETTY_FUNCTION__.2808
 0017:000C8A1C       __PRETTY_FUNCTION__.2826
 0017:000C8A34       aGfxobjectptr
 0017:000C8A44       __PRETTY_FUNCTION__.2837
 0017:000C8A5C       __PRETTY_FUNCTION__.2845
 0017:000C8A74       __PRETTY_FUNCTION__.2856
 0017:000C8A8C       __PRETTY_FUNCTION__.2865
 0017:000C8AA4       __PRETTY_FUNCTION__.2884
 0017:000C8ABC       __PRETTY_FUNCTION__.2897
 0017:000C8AD8       __PRETTY_FUNCTION__.2913
 0017:000C8AF0       __PRETTY_FUNCTION__.2921
 0017:000C8B0C       __PRETTY_FUNCTION__.2931
 0017:000C8B24       __PRETTY_FUNCTION__.2943
 0017:000C8B34       aGfxobjptr
 0017:000C8B40       __PRETTY_FUNCTION__.2954_0
 0017:000C8B54       aBuftabMustProv
 0017:000C8B74       aBuftabFailedTo
 0017:000C8BAC       aBuftabAllocati
 0017:000C8BD8       aBuftabFailedTo_0
 0017:000C8C10       aBuftabFailedTo_1
 0017:000C8C3C       aBuftabFailedTo_2
 0017:000C8C70       __PRETTY_FUNCTION__.2915_0
 0017:000C8C80       aHbuftab
 0017:000C8C88       aBuftabC
 0017:000C8C94       aHbuftabNumbufs
 0017:000C8CAC       aBuftabFailedTo_3
 0017:000C8CD0       __PRETTY_FUNCTION__.3006
 0017:000C8CE0       aBufsize0
 0017:000C8CEC       aNumbufs0
 0017:000C8CF8       aBuftabBuftabAl
 0017:000C8D2C       aBuftabTryingTo
 0017:000C8D90       aBuftabFailedTo_4
 0017:000C8DBC       aBuftabNewChunk
 0017:000C8E00       __PRETTY_FUNCTION__.3134
 0017:000C8E10       __PRETTY_FUNCTION__.3190
 0017:000C8E20       aBuftab
 0017:000C8E28       __PRETTY_FUNCTION__.3203
 0017:000C8E38       __PRETTY_FUNCTION__.3216
 0017:000C8E4C       __PRETTY_FUNCTION__.3246
 0017:000C8E5C       __PRETTY_FUNCTION__.3258
 0017:000C8E70       __PRETTY_FUNCTION__.3266
 0017:000C8E80       aHbuf_1
 0017:000C8E88       aColorspaceUnkn
 0017:000C8EB8       __PRETTY_FUNCTION__.1852
 0017:000C8ED0       aWidthptr
 0017:000C8EDC       aVideostdC
 0017:000C8EE8       aHeightptr
 0017:000C8EF4       aVideostdUnknow
 0017:000C8F1C       Venc1_Params_DEFAULT
 0017:000C8F4C       Venc1_DynamicParams_DEFAULT
 0017:000C8F7C       __PRETTY_FUNCTION__.4566
 0017:000C8F90       aCeVenc1C
 0017:000C8F9C       aHinbuf
 0017:000C8FA4       aHoutbuf
 0017:000C8FAC       aBufferGetuserp
 0017:000C8FC8       aBufferGetuserp_0
 0017:000C8FE4       aBufferGetsizeH
 0017:000C8FFC       aBufferGetsizeH_0
 0017:000C9014       aBufferGettypeH
 0017:000C9044       aOffsetBufferGe
 0017:000C9064       aVenc1Unsupport
 0017:000C9098       aVenc1Videnc1Pr
 0017:000C90E0       aVenc1Videnc1Pr_0
 0017:000C911C       aVenc1CannotPas
 0017:000C9168       aVenc1FailedToA
 0017:000C919C       aVenc1CreatingE
 0017:000C91E0       aVenc1FailedToO
 0017:000C921C       aVenc1SettingDy
 0017:000C9250       aVenc1XdmSetpar
 0017:000C927C       aVenc1MadeXdmSe
 0017:000C92A8       aVenc1XdmGetbuf
 0017:000C92D0       aVenc1CMinnumou
 0017:000C9318       __PRETTY_FUNCTION__.4843
 0017:000C932C       __PRETTY_FUNCTION__.4857
 0017:000C9340       __PRETTY_FUNCTION__.4865
 0017:000C9354       __PRETTY_FUNCTION__.4873
 0017:000C9368       __PRETTY_FUNCTION__.4881
 0017:000C937C       __PRETTY_FUNCTION__.4889
 0017:000C9390       __PRETTY_FUNCTION__.4898
 0017:000C93A0       __PRETTY_FUNCTION__.4904
 0017:000C93B0       __PRETTY_FUNCTION__.4913
 0017:000C93C4       __PRETTY_FUNCTION__.4923
 0017:000C93D0       aVenc1XdmFlushC
 0017:000C93F4       aDevVideo0
 0017:000C9400       Capture_Attrs_DM6446_DM355_DEFAULT
 0017:000C9434       Capture_Attrs_DM6467_DEFAULT
 0017:000C9468       Capture_Attrs_DM365_DEFAULT
 0017:000C949C       Capture_Attrs_OMAPL138_DEFAULT
 0017:000C94D0       Capture_Attrs_OMAP3530_DEFAULT
 0017:000C9504       aDm355
 0017:000C950C       aDm365
 0017:000C9514       aDm368
 0017:000C951C       aDm6446
 0017:000C9524       aDm6467
 0017:000C952C       aDm6437
 0017:000C9534       aOmap3530
 0017:000C9540       aOmapl137
 0017:000C954C       aOmapl138
 0017:000C9558       aDm3730
 0017:000C9560       Cpu_Attrs_DEFAULT
 0017:000C9564       aCpuFailedToGet
 0017:000C9588       aProcStat
 0017:000C9594       aR_0
 0017:000C9598       aCpuProcStatNot
 0017:000C95D8       aCpu
 0017:000C95DC       a4sLuLuLuLuLuLu
 0017:000C9600       aCpuFailedToAll
 0017:000C9630       aDevFb2
 0017:000C963C       Display_Attrs_DM6446_DM355_ATTR_DEFAULT
 0017:000C9670       aDevFb0
 0017:000C967C       Display_Attrs_DM6446_DM355_OSD_DEFAULT
 0017:000C96B0       aDevFb3
 0017:000C96BC       Display_Attrs_DM6446_DM355_VID_DEFAULT
 0017:000C96F0       aDevFb0_0
 0017:000C96FC       Display_Attrs_OMAPL137_OSD_DEFAULT
 0017:000C9730       Display_Attrs_OMAPL138_OSD_DEFAULT
 0017:000C9764       aDevVideo2_0
 0017:000C9770       Display_Attrs_OMAPL138_VID_DEFAULT
 0017:000C97A4       Display_Attrs_DM6467_VID_DEFAULT
 0017:000C97D8       Display_Attrs_DM365_VID_DEFAULT
 0017:000C980C       Display_Attrs_DM365_OSD_DEFAULT
 0017:000C9840       Display_Attrs_DM365_ATTR_DEFAULT
 0017:000C9874       aDevVideo1
 0017:000C9880       Display_Attrs_O3530_VID_DEFAULT
 0017:000C98B4       Display_Attrs_O3530_OSD_DEFAULT
 0017:000C98E8       aDisplayDelayst
 0017:000C9928       aTiSdoDmai
 0017:000C9938       aTiSdoDmai67
 0017:000C9948       aTiSdoDmai01234
 0017:000C9960       aDmaiLogLevelSe
 0017:000C9980       aDmaiUsingLogLe
 0017:000C99AC       aTiSdoDmai_0
 0017:000C99B8       aDmaiDebug
 0017:000C99C4       aDmaiDmaiLogLev
 0017:000C9A50       Fifo_Attrs_DEFAULT
 0017:000C9A54       aFifoNullAttrsN
 0017:000C9A78       aFifoFailedToAl
 0017:000C9AAC       __PRETTY_FUNCTION__.3329
 0017:000C9AB8       aHfifo
 0017:000C9AC0       aLinuxFifoC
 0017:000C9AD0       aPtrptr
 0017:000C9AD8       __PRETTY_FUNCTION__.3360
 0017:000C9AE4       __PRETTY_FUNCTION__.3375
 0017:000C9AF4       __PRETTY_FUNCTION__.3395
 0017:000C9B08       Pause_Attrs_DEFAULT
 0017:000C9B0C       aPauseFailedToA
 0017:000C9B40       __PRETTY_FUNCTION__.2780
 0017:000C9B4C       aHpause
 0017:000C9B54       aLinuxPauseC
 0017:000C9B64       __PRETTY_FUNCTION__.2793
 0017:000C9B70       __PRETTY_FUNCTION__.2801
 0017:000C9B7C       Rendezvous_Attrs_DEFAULT
 0017:000C9B80       aRendezvousNull
 0017:000C9BA8       aRendezvousCoun
 0017:000C9BD0       aRendezvousFail
 0017:000C9C10       __PRETTY_FUNCTION__.2808_0
 0017:000C9C24       aLinuxRendezvou
 0017:000C9C38       __PRETTY_FUNCTION__.2834
 0017:000C9C4C       __PRETTY_FUNCTION__.2843
 0017:000C9C60       __PRETTY_FUNCTION__.2852
 0017:000C9C7C       aSVideo_0
 0017:000C9C84       aComposite_0
 0017:000C9C90       aComponent_0
 0017:000C9C9C       aCamera_0
 0017:000C9CA4       aHdmiYuv_0
 0017:000C9CB0       aCaptureVidiocS
 0017:000C9CD8       aCaptureFailedT
 0017:000C9D04       aCaptureFailedT_0
 0017:000C9D34       __PRETTY_FUNCTION__.4254
 0017:000C9D44       aAttrs_0
 0017:000C9D4C       aLinuxDm365Capt
 0017:000C9D64       aCaptureFailedT_1
 0017:000C9D9C       aCaptureUnableT
 0017:000C9DC4       aCaptureCannotO
 0017:000C9DE4       aCaptureVideost
 0017:000C9E00       aCaptureNewVide
 0017:000C9E28       aCaptureForcing
 0017:000C9E5C       aCaptureFailedT_2
 0017:000C9E9C       aCaptureCapture
 0017:000C9ECC       aCaptureSIsNoV4
 0017:000C9EEC       aCaptureFailedV
 0017:000C9F1C       aCaptureSIsNotA
 0017:000C9F48       aCaptureSDoesNo
 0017:000C9F78       aCaptureFailedV_0
 0017:000C9FA4       aCaptureUnsuppo
 0017:000C9FCC       aCaptureVidiocS_0
 0017:000C9FF0       aCaptureFailedV_1
 0017:000CA01C       aCaptureFailedV_2
 0017:000CA048       aCaptureFailedT_3
 0017:000CA080       aCaptureVideoIn
 0017:000CA0B8       aCaptureSetting
 0017:000CA0E8       aCaptureVidiocQ
 0017:000CA110       aCaptureVideoSt
 0017:000CA14C       aCaptureVidiocS_1
 0017:000CA174       aCaptureVidiocG
 0017:000CA19C       aCaptureCouldNo
 0017:000CA1D0       aCaptureVidiocC
 0017:000CA1FC       aCaptureCropWid
 0017:000CA22C       aCaptureSetting_0
 0017:000CA264       aCaptureVidiocS_2
 0017:000CA290       aCaptureFailedT_4
 0017:000CA2CC       aCaptureFailedT_5
 0017:000CA308       aCaptureVidiocS_3
 0017:000CA338       __PRETTY_FUNCTION__.4851
 0017:000CA350       aVideostdptr
 0017:000CA35C       aCaptureInvalid
 0017:000CA38C       aCaptureSInputN
 0017:000CA3B0       aCaptureSInputS
 0017:000CA3D0       aCaptureFailedT_6
 0017:000CA400       aCaptureFailedT_7
 0017:000CA434       aCaptureAttempt
 0017:000CA484       aCaptureCheckin
 0017:000CA4A8       aCaptureVidiocQ_0
 0017:000CA4E8       aCaptureSetting_1
 0017:000CA514       aCaptureVidiocS_4
 0017:000CA540       aCaptureUnknown
 0017:000CA578       aCaptureCapture_0
 0017:000CA5A0       __PRETTY_FUNCTION__.5165
 0017:000CA5AC       aHcapture
 0017:000CA5B8       aHbufptr
 0017:000CA5C0       aCaptureVidiocD
 0017:000CA5E4       __PRETTY_FUNCTION__.5212
 0017:000CA5F0       aHbuf_2
 0017:000CA5F8       aCaptureYouMust
 0017:000CA638       aCaptureVidiocQ_1
 0017:000CA65C       aDisplayFailedF
 0017:000CA688       aDisplayFailedF_0
 0017:000CA6B0       aDisplayFailedF_1
 0017:000CA6DC       aDisplayFailedI
 0017:000CA710       aDisplayMustSup
 0017:000CA734       aDisplayFbdevDi
 0017:000CA774       aDisplayFailedT
 0017:000CA7AC       aDisplayFailedT_0
 0017:000CA7D8       aDisplayFailedF_2
 0017:000CA80C       aDisplayFailedF_3
 0017:000CA840       aDisplayFoundWi
 0017:000CA898       aDisplaySetting
 0017:000CA8E0       aDisplayFailedF_4
 0017:000CA914       aDisplayNewWidt
 0017:000CA968       aDisplayFailedT_1
 0017:000CA9A4       aDisplayFailedM
 0017:000CA9C8       aDisplayDisplay
 0017:000CAA10       aDisplayDisplay_0
 0017:000CAA54       aDisplayErrorEn
 0017:000CAA74       __PRETTY_FUNCTION__.4840
 0017:000CAA88       aHdisplay
 0017:000CAA94       aLinuxDm365Disp
 0017:000CAAB0       aHbufptr_0
 0017:000CAAB8       aDisplayFailedF_5
 0017:000CAAE4       __PRETTY_FUNCTION__.4870
 0017:000CAAF8       aHbuf_3
 0017:000CAB00       aDisplayVidiocS
 0017:000CAB28       aDisplayFailedT_2
 0017:000CAB54       aDisplayFailedT_3
 0017:000CAB84       __PRETTY_FUNCTION__.4408
 0017:000CAB98       aAttrs_1
 0017:000CABA0       aLinuxDm365Disp_0
 0017:000CABBC       aDisplayFailedT_4
 0017:000CABF4       aDevVideo2
 0017:000CAC00       aDevVideo3
 0017:000CAC0C       aDisplaySNotADi
 0017:000CAC30       aDisplayCannotO
 0017:000CAC50       aDisplayFailedT_5
 0017:000CAC84       aDisplayUnsuppo
 0017:000CACAC       aDisplayVideoOu
 0017:000CACEC       aDisplayFailedV
 0017:000CAD18       aDisplayFailedT_6
 0017:000CAD54       aDisplayFailedT_7
 0017:000CAD90       aDisplayVidiocS_0
 0017:000CADC0       aDisplayVidiocG
 0017:000CADE8       aDisplaySetting_0
 0017:000CAE20       aDisplayVidiocS_1
 0017:000CAE48       aDisplayDriverD
 0017:000CAE7C       __PRETTY_FUNCTION__.4751
 0017:000CAE90       aHdisplay_0
 0017:000CAE9C       aHbufptr_1
 0017:000CAEA4       aDisplayVidiocD
 0017:000CAEC8       __PRETTY_FUNCTION__.4792
 0017:000CAEDC       aHbuf_4
 0017:000CAEE4       aDisplayFailedT_8
 0017:000CAF1C       aDisplayNoV4l2B
 0017:000CAF44       aDisplayVidiocQ
 0017:000CAF68       aDisplayVidiocS_2
 0017:000CAF90       aDisplayVidiocS_3
 0017:000CAFB8       aDisplayYdoffse
 0017:000CAFEC       aDisplayVidiocS_4
 0017:000CB014       Resize_Attrs_DEFAULT
 0017:000CB028       __PRETTY_FUNCTION__.4393
 0017:000CB038       aAttrs_2
 0017:000CB040       aLinuxDm365Resi
 0017:000CB058       aResizeFailedTo
 0017:000CB090       aDevDavinciResi
 0017:000CB0A8       aResizeFailedTo_0
 0017:000CB0C4       aResizeResizerC
 0017:000CB0F0       aResizeResizerC_0
 0017:000CB11C       aResizeResizerC_1
 0017:000CB164       aResizeResizeHa
 0017:000CB198       aResizeSourceBu
 0017:000CB1CC       aResizeDestinat
 0017:000CB204       aResizeSrcAndDs
 0017:000CB240       aResizeDestinat_0
 0017:000CB280       aResizeDestinat_1
 0017:000CB2C0       aResizeSourceBu_0
 0017:000CB300       aResizeDestinat_2
 0017:000CB344       aResizeHorizont
 0017:000CB378       aResizeHorizont_0
 0017:000CB3B0       aResizeVertical
 0017:000CB3E4       aResizeVertical_0
 0017:000CB41C       aResizeErrorInS
 0017:000CB464       aResizeErrorInG
 0017:000CB4AC       aResizeErrorInG_0
 0017:000CB4E4       __PRETTY_FUNCTION__.4685
 0017:000CB4F4       aHresize
 0017:000CB4FC       aHsrcbuf_0
 0017:000CB504       aHdstbuf_0
 0017:000CB50C       aRszInBuffOffse
 0017:000CB530       aRszOutBuff1Off
 0017:000CB554       aResizeFailedRs
 0017:000CB570       aErrorInSetting
 0017:000CB5B0       aErrorInGetting
 0017:000CB5EC       aErrorInGetting_0
 0017:000CB618       aErrorInDoingYP
 0017:000CB634       aErrorInDoingCP
 0017:000CB650       __PRETTY_FUNCTION__.4904_0
 0017:000CB664       aSrcdimyLdSrcdi
 0017:000CB6CC       aInBuffOffsetXO
 0017:000CB6F4       aResizeCannotOp
 0017:000CB71C       aResizeCanTSetO
 0017:000CB744       aResizeCanTGetO
 0017:000CB76C       aResizeSuccessf
 0017:000CB7A8       aResizeFailedTo_1
 0017:000CB7E0       aResizeErrorInS_0
 0017:000CB824       aResizeErrorInG_1
 0017:000CB868       aResizeErrorInS_1
 0017:000CB8A0       aResizeResizerI
 0017:000CB8C0       aDevDavinciPrev
 0017:000CB8D8       aResizeCannotOp_0
 0017:000CB900       aResizeCanTSetO_0
 0017:000CB938       aResizeCanTGetO_0
 0017:000CB970       aResizeOperatin
 0017:000CB9BC       aResizeFailedTo_2
 0017:000CB9F4       aResizeErrorInS_2
 0017:000CBA34       aResizeSettingR
 0017:000CBA58       aResizeSettingD
 0017:000CBA7C       aResizeErrorInS_3
 0017:000CBAB0       aResizePreviewe
 0017:000CBAD0       aResizeFailedTo_3
 0017:000CBB00       aResizeFailedTo_4
 0017:000CBB30       aSvideo
 0017:000CBB38       aComposite_1
 0017:000CBB44       aComponent_1
 0017:000CBB50       aLcd
 0017:000CBB54       aDvi
 0017:000CBB58       aVga
 0017:000CBB5C       aNtsc
 0017:000CBB64       aPal
 0017:000CBB68       a480p60
 0017:000CBB70       a576p50
 0017:000CBB78       a720p60
 0017:000CBB80       a720p50
 0017:000CBB88       a720p30
 0017:000CBB90       a1080i30
 0017:000CBB9C       aR_1
 0017:000CBBA0       aDmaiFailedToOp
 0017:000CBBC8       aDmaiFailedToRe
 0017:000CBBFC       aDmaiFailedToAl
 0017:000CBC34       aW_0
 0017:000CBC38       aDmaiFailedToOp_0
 0017:000CBC60       aDmaiFailedToWr
 0017:000CBC90       aDmaiFailedToVe
 0017:000CBCCC       aSysClassDavinc
 0017:000CBCF4       aDmaiSettingVid
 0017:000CBD1C       aDmaiUnsupporte
 0017:000CBD40       aMode
 0017:000CBD48       aDmaiSettingVid_0
 0017:000CBD70       aDmaiUnsupporte_0
 0017:000CBD98       __PRETTY_FUNCTION__.4187
 0017:000CBDA8       aUint32Bufptr0x_0
 0017:000CBDC8       aLinuxDm365Vide
 0017:000CBDE0       aDmaiUnsupporte_1
 0017:000CBE1C       aDmaiCouldNotAl
 0017:000CBE50       aDmaiInsufficie
 0017:000CBE84       aDmaiFailedToAl_0
 0017:000CBEBC       aDmaiFailedToGe
 0017:000CBEF4       aDmaiBufferSupp
 0017:000CBF30       aDmaiViodicQbuf
 0017:000CBF50       aDmaiVidiocGFmt
 0017:000CBF74       aDmaiVidiocReqb
 0017:000CBF98       aDmaiFailedVidi
 0017:000CBFBC       aDmaiFailedToMm
 0017:000CBFE0       aDmaiDriverBuff
 0017:000CC024       aDmaiViodiocQbu
 0017:000CC048       aInargs
 0017:000CC050       aOutargs
 0017:000CC058       aVidenc1Process_0
 0017:000CC0B4       aVidenc1Process_1
 0017:000CC0C4       aErrorAppProvid
 0017:000CC118       aOutbufs
 0017:000CC120       aErrorCodec0xXR
 0017:000CC15C       aErrorCodec0xXM
 0017:000CC194       aVidenc1Process
 0017:000CC1C8       aVidenc1DeleteE
 0017:000CC1F0       aVidenc1DeleteR
 0017:000CC208       aTiSdoCeVideo1V_0
 0017:000CC224       aVidenc1CreateE
 0017:000CC264       aVidenc1CreateR
 0017:000CC284       aDynparams
 0017:000CC290       aStatus
 0017:000CC298       aVidenc1Control_0
 0017:000CC2FC       aVidenc1Control_1
 0017:000CC30C       aErrorCodec0xXM_1
 0017:000CC348       aErrorCodec0xXM_2
 0017:000CC384       aErrorCodec0xXM_0
 0017:000CC3C8       aVidenc1Control
 0017:000CC3FC       aServerSettrace
 0017:000CC41C       aAssertionViola
 0017:000CC440       aServerC
 0017:000CC44C       aServerRestoreh
 0017:000CC46C       aServerRedefine
 0017:000CC49C       aCs
 0017:000CC4A0       aServerInit
 0017:000CC4B0       aServerInitGlob
 0017:000CC4DC       aServerGetnumme
 0017:000CC500       aServerGetnumal
 0017:000CC524       aServerGetmemst
 0017:000CC54C       aServerGetcpulo
 0017:000CC568       aServerGetalgin
 0017:000CC590       aServerFwritetr
 0017:000CC5B8       aServerDisconne_0
 0017:000CC5E0       aServerDisconne
 0017:000CC604       aServerConnectt_0
 0017:000CC628       aServerConnectt
 0017:000CC654       __PRETTY_FUNCTION__.5265
 0017:000CC660       __PRETTY_FUNCTION__.5117
 0017:000CC66C       serverTabInit.5309
 0017:000CC678       __PRETTY_FUNCTION__.4226
 0017:000CC68C       C.264.5646
 0017:000CC698       aEngineC
 0017:000CC6A4       aEngineGetserve_1
 0017:000CC6CC       aEngineGetserve
 0017:000CC738       aEngineGetserve_0
 0017:000CC764       aEngineGetserve_2
 0017:000CC780       aEngineCtrlnode_0
 0017:000CC7A4       aEngineCtrlnode
 0017:000CC7C8       aStatus0
 0017:000CC7D4       aEngineSettrace_1
 0017:000CC804       aEngineSettrace_0
 0017:000CC854       aEngineSettrace_2
 0017:000CC884       aEngineSettrace
 0017:000CC8A4       aEngineGetusedm
 0017:000CC8C0       aEngineRestoreh_0
 0017:000CC8DC       aEngineRestoreh
 0017:000CC914       aEngineRedefine_0
 0017:000CC93C       aEngineRedefine
 0017:000CC974       aEngineGetcpulo
 0017:000CC990       aEngineGetcpulo_0
 0017:000CC9C4       aEngineGetalgnu_0
 0017:000CC9E8       aEngineGetalgnu
 0017:000CCA0C       aEngineGetalgme_0
 0017:000CCA3C       aEngineGetalgme_1
 0017:000CCAB8       aEngineGetalgme
 0017:000CCADC       aEngineGetnumme_0
 0017:000CCB00       aEngineGetnumme
 0017:000CCB38       aEngineGetnumse_0
 0017:000CCB60       aEngineGetnumse
 0017:000CCB98       aEngineGetnumse_1
 0017:000CCBD4       aEngineGetnumse_2
 0017:000CCC08       aEngineGetnumse_3
 0017:000CCC2C       aEngineGetmemst_0
 0017:000CCC54       aEngineGetmemst
 0017:000CCC8C       aEngineGetnumal
 0017:000CCCAC       aEngineGetnumal_0
 0017:000CCCD4       aEngineGetalgin_0
 0017:000CCD04       aEngineGetalgin
 0017:000CCD7C       aEngineGetalgin_1
 0017:000CCDC8       aEngineGetalgin_3
 0017:000CCDF0       aEngineGetalgin_2
 0017:000CCE64       aEngineFreeserv_1
 0017:000CCE88       aEngineFreeserv_0
 0017:000CCEBC       aEngineFreeserv
 0017:000CCEDC       aEngineAddstubf
 0017:000CCF0C       aCe
 0017:000CCF10       aEngineInitCeDe
 0017:000CCF6C       aServerlockVoid
 0017:000CCF88       aTracelockVoid0
 0017:000CCFA4       aEnginelockVoid
 0017:000CCFC0       aEngineInitDesc
 0017:000CD028       aEngineFwritetr
 0017:000CD050       aEngineFwritetr_0
 0017:000CD07C       aEngineFwritetr_1
 0017:000CD0A0       aEngineFwritetr_2
 0017:000CD0D8       aEngineFwritetr_3
 0017:000CD124       aArmWarningLost
 0017:000CD200       aEngineFwritetr_4
 0017:000CD22C       aDsp
 0017:000CD234       aEngineInitfrom_0
 0017:000CD254       aEngineInitfrom
 0017:000CD27C       aEngineInitfrom_1
 0017:000CD2C8       aEngineInitfrom_8
 0017:000CD308       aEngineInitfrom_7
 0017:000CD35C       aEngineInitfrom_14
 0017:000CD3BC       aEngineInitfrom_10
 0017:000CD408       aEngineInitfrom_12
 0017:000CD44C       aEngineInitfrom_11
 0017:000CD498       aEngineInitfrom_13
 0017:000CD4D4       aEngineInitfrom_4
 0017:000CD514       aEngineInitfrom_9
 0017:000CD560       aEngineInitfrom_3
 0017:000CD5BC       aEngineInitfrom_16
 0017:000CD5F0       aEngineInitfrom_15
 0017:000CD634       aEngineInitfrom_6
 0017:000CD6C4       aEngineInitfrom_5
 0017:000CD784       aEngineInitfrom_2
 0017:000CD7B4       aEngineDeleteno
 0017:000CD7D0       aEngineDeleteno_0
 0017:000CD834       aEngineCreateno_0
 0017:000CD870       aEngineCreateno_1
 0017:000CD8C0       aEngineCreateno_2
 0017:000CD8F8       aEngineAllocnod
 0017:000CD92C       aGppfromnodeLuU
 0017:000CD940       aEngineAllocnod_0
 0017:000CD97C       aEngineAllocnod_1
 0017:000CD9B8       aEngineCreateno_3
 0017:000CD9E4       aEngineCreateno_4
 0017:000CDA1C       aEngineCreateno_5
 0017:000CDA54       aEngineCreateno_6
 0017:000CDA84       aEngineCreateno_7
 0017:000CDAF8       aEngineCreateno_8
 0017:000CDB1C       aEngineCreateno
 0017:000CDB50       aEngineClose0xL
 0017:000CDB68       aRserverclose0x_0
 0017:000CDB8C       aRserverclose0x
 0017:000CDBA8       aEngineCloseExi
 0017:000CDBBC       aEngineOpenEnte
 0017:000CDBE4       aRserveropenSCo
 0017:000CDC04       aRserveropenCan_0
 0017:000CDC3C       aRserveropenCan
 0017:000CDC74       aRserveropenS0x
 0017:000CDC94       aSLuU
 0017:000CDCA0       aRmsq
 0017:000CDCA8       aCheckserver0xL_0
 0017:000CDCBC       aGetserverkey0x
 0017:000CDCE8       aServerMajorDSo
 0017:000CDD20       aEngineMajorDSo
 0017:000CDD58       aCheckserver0xL
 0017:000CDD94       aCeDsp0trace
 0017:000CDDA4       aRmsinitRmsInit
 0017:000CDDF0       aRmsinit0xLxSet
 0017:000CDE20       aEngineOpenEngi
 0017:000CDE44       aEngineOpenWarn
 0017:000CDEA4       aEngineOpenRetu
 0017:000CDEC0       aEngineGetfxnsU
 0017:000CDEEC       aEngineGetconst
 0017:000CDF2C       __PRETTY_FUNCTION__.4438
 0017:000CDF3C       aVisaGetmaxmsgs
 0017:000CDF68       aVisaAllocmsgAl
 0017:000CDFA0       aVisaAllocmsgFa
 0017:000CDFF4       aVisaCmdVisaCmd
 0017:000CE024       aVisaC
 0017:000CE02C       aVisaFreemsg0xX
 0017:000CE070       aVisaFreemsgFai
 0017:000CE098       aVisaExitVisa0x
 0017:000CE0C0       aCodecHandle0xX
 0017:000CE0E4       aCodecHandle0xX_0
 0017:000CE108       aVisaEnterVisa0
 0017:000CE134       aThreadid0xXCod
 0017:000CE164       aVisaDelete0xX
 0017:000CE178       aVisaDeleteDele
 0017:000CE1BC       aVisaDeleteDele_0
 0017:000CE1E0       aVisaDeleteEngi
 0017:000CE220       aVisaWaitVisa0x
 0017:000CE244       aVisaWaitEngine
 0017:000CE28C       aVisaWaitComple_0
 0017:000CE2CC       aVisaWaitComple
 0017:000CE314       aVisaCallasyncV
 0017:000CE35C       aVisaCallasyncC
 0017:000CE3A4       aVisaCallVisa0x
 0017:000CE3E4       aVisaCallComple
 0017:000CE42C       aCv
 0017:000CE430       aVisaCreate20xX
 0017:000CE464       aVisaCreate2Nam_0
 0017:000CE4C8       aVisaCreate2Nam
 0017:000CE510       aVisaCreate2Una
 0017:000CE53C       aVisaCreate2Fai_0
 0017:000CE5B0       aVisaCreate2Fai_1
 0017:000CE5E0       aVisaCreateLoca
 0017:000CE61C       aVisaCreate2Fai_2
 0017:000CE64C       aVisaCreate2Fai
 0017:000CE67C       aVisaCreate2Fai_3
 0017:000CE6B4       aVisaCreateRemo
 0017:000CE70C       aVisaCreate0xXS
 0017:000CE738       a106
 0017:000CE740       aTiSdoCeVersion_0
 0017:000CE7A0       aAlgorithmRemov_0
 0017:000CE7CC       aAlgorithmRemov
 0017:000CE7EC       aTiSdoCeAlgAlgo
 0017:000CE804       aAlgorithmNoosC
 0017:000CE818       aAlgorithmDelet_1
 0017:000CE83C       aAlgorithmDelet_0
 0017:000CE884       aAlgorithmDelet
 0017:000CE89C       aAlgorithmDeact_0
 0017:000CE8C4       aAlgorithmDeact
 0017:000CE8E0       aAlgorithmCreat_2
 0017:000CE940       aAlgorithmCreat_1
 0017:000CE968       aAlgorithmCreat_0
 0017:000CE9AC       aAlgorithmCreat_5
 0017:000CEA54       aAlgorithmCreat_3
 0017:000CEAA8       aAlgorithmCreat_4
 0017:000CEAF4       aAlgorithmCreat
 0017:000CEB18       aAlgorithmAddgr_0
 0017:000CEB40       aAlgorithmAddgr
 0017:000CEB68       aAlgorithmActiv_0
 0017:000CEB90       aAlgorithmActiv
 0017:000CEBAC       aAlgorithmRelea_0
 0017:000CEBE0       aAlgorithmRelea
 0017:000CEC00       aAlgorithmAcqui_0
 0017:000CEC34       aAlgorithmAcqui
 0017:000CEC54       aAlgCreateEnter
 0017:000CECB0       aAlgCreateAlgnu
 0017:000CECD8       aAlgCreateAlgSA
 0017:000CED20       aAlgCreateAlgal
 0017:000CED4C       aAlgCreateMemor
 0017:000CEDA8       aAlgCreateAlgin
 0017:000CEDD0       aAlgCreateExitA
 0017:000CEDF4       aAlgCreateAlgin_0
 0017:000CEE18       aAlgCreateExitA_0
 0017:000CEE3C       aAlgFreememory2
 0017:000CEE74       aAlgAllocmemory
 0017:000CEEA8       aAlgFreememoryM
 0017:000CEECC       aAlgAllocmemory_0
 0017:000CEF04       aAlgAllocmemory_2
 0017:000CEF3C       aAlgAllocmemory_1
 0017:000CEF64       aAlgAllocmemory_3
 0017:000CEF8C       aAlgRemovegroup_1
 0017:000CEFB4       aAlgRemovegroup_0
 0017:000CEFE0       aAlgRemovegroup
 0017:000CEFF8       aTiSdoCeAlg
 0017:000CF008       aAlgInitEnter
 0017:000CF01C       aAlgInitExit
 0017:000CF02C       aAlgAddgroupEnt
 0017:000CF050       aAlgAddgroupGro
 0017:000CF078       aAlgAddgroupFai
 0017:000CF0B4       aAlgAddgroupExi
 0017:000CF0D8       aAlgMallocC
 0017:000CF0E8       aOp
 0017:000CF0EC       aProcessorDelet_0
 0017:000CF110       aProcessorDelet_1
 0017:000CF13C       aProcessorDelet
 0017:000CF158       aProcessorCreat_0
 0017:000CF190       aProcessorCreat_2
 0017:000CF1C0       aProcessorCreat_1
 0017:000CF1E0       aProcessorCreat
 0017:000CF204       aDsp0
 0017:000CF20C       aCommPosixC
 0017:000CF21C       aCommReleaseEnt
 0017:000CF240       aNametoidEnterN
 0017:000CF25C       aNametoidExitId
 0017:000CF278       aCommLocateEnte
 0017:000CF2A8       aCommLocateMsgg
 0017:000CF2BC       aOc
 0017:000CF2C0       aLogname
 0017:000CF2C8       aCommFreeEnterM
 0017:000CF2E8       aCommPutEnterQu
 0017:000CF310       aCommPut
 0017:000CF31C       aCommDeleteEnte
 0017:000CF33C       aCommDeleteRetu
 0017:000CF354       aCommAllocEnter
 0017:000CF388       aCommAllocReque
 0017:000CF3D0       aCommAllocMsg0x
 0017:000CF3F8       aCommGetEnterQu
 0017:000CF42C       aCommGet
 0017:000CF438       aCommCreateEnte
 0017:000CF474       aMsggetKey0xX
 0017:000CF488       aCommCreateMsgg
 0017:000CF49C       aCommCreateRetu
 0017:000CF4B8       aLockmpPosixC
 0017:000CF4C8       aEnteredLockmpR
 0017:000CF4EC       aLeavingLockmpR
 0017:000CF510       aTiSdoCeOsalLoc
 0017:000CF528       aEnteredLockmpD
 0017:000CF54C       aLeavingLockmpD
 0017:000CF564       aLockmpCreateKe
 0017:000CF594       aLockmpCreateMe
 0017:000CF5B8       aLockmpCreateSe
 0017:000CF5DC       aLeavingLockmpC
 0017:000CF600       aEnteredLockmpA
 0017:000CF624       aLeavingLockmpA
 0017:000CF648       aError
 0017:000CF650       __PRETTY_FUNCTION__.3908
 0017:000CF65C       aMemoryDumpknow
 0017:000CF6AC       aVirt0x08lxSize
 0017:000CF6E0       aMemoryCachewbi
 0017:000CF700       aMemoryCachewbi_0
 0017:000CF720       aMemorySegstatE
 0017:000CF744       aMemoryGetbuffe_1
 0017:000CF784       aMemoryGetbuffe_0
 0017:000CF7C8       aMemoryGetvirtu
 0017:000CF804       aMemoryGetvirtu_1
 0017:000CF850       aMemoryGetvirtu_2
 0017:000CF900       aMemoryGetvirtu_0
 0017:000CF934       aMemoryGetbuffe
 0017:000CF964       aMemoryGetbuffe_3
 0017:000CF9A4       aMemoryGetbuffe_4
 0017:000CF9E8       aMemoryGetphysi_0
 0017:000CFA24       aMemoryGetphysi_1
 0017:000CFA7C       aMemoryGetphysi
 0017:000CFAB4       aMemoryGetbuffe_6
 0017:000CFAF4       aMemoryGetbuffe_5
 0017:000CFB54       aMemoryGetbuffe_2
 0017:000CFB84       aOm
 0017:000CFB88       aMemoryInitErro_0
 0017:000CFBC0       a0
 0017:000CFBC4       aMemoryCmemC
 0017:000CFBD4       aMemoryInitErro
 0017:000CFC04       aProcessorCreat_3
 0017:000CFC34       aMemoryFreeEnte
 0017:000CFC58       aMemoryFreeRetu
 0017:000CFC74       aMemoryRemoveco
 0017:000CFCAC       aMemoryRemoveco_0
 0017:000CFCFC       aMemoryRemoveco_1
 0017:000CFD38       aMemoryUnregist
 0017:000CFD98       aMemoryContigfr_0
 0017:000CFDC4       aMemoryContigfr_2
 0017:000CFDF8       aMemoryContigfr_1
 0017:000CFE4C       aMemoryContigfr
 0017:000CFE70       aMemoryAllocErr
 0017:000CFEAC       aMemoryAllocEnt
 0017:000CFEC8       aMemoryAllocPar
 0017:000CFF2C       aMemoryAllocRet
 0017:000CFF4C       aMemoryAddconti
 0017:000CFF90       aMemoryAddconti_2
 0017:000CFFD4       aMemoryAddconti_3
 0017:000D0018       aMemoryAddconti_4
 0017:000D005C       aMemoryAddconti_5
 0017:000D00A0       aMemoryAddconti_1
 0017:000D00D8       aMemoryAddconti_0
 0017:000D0124       aMemoryAddconti_6
 0017:000D014C       aTrue
 0017:000D0154       aFalse
 0017:000D015C       aMemoryContigal
 0017:000D01A8       aMemoryContigal_4
 0017:000D0204       aMemoryContigal_1
 0017:000D0278       aMemoryContigal_2
 0017:000D02A4       aMemoryContigal_3
 0017:000D02D4       aMemoryContigal_6
 0017:000D0330       aMemoryContigal_5
 0017:000D0360       aMemoryContigal_0
 0017:000D0384       aOg
 0017:000D0388       aGlobalInitThis
 0017:000D03CC       aGlobalExitEnte
 0017:000D03E0       aGlobalExitCall
 0017:000D040C       aGlobalAtexitEn
 0017:000D0430       aGlobalAbort
 0017:000D0458       aThreadPosixC
 0017:000D0468       aThreadJoinEnte
 0017:000D0488       aThreadJoinExit
 0017:000D04A8       aOt
 0017:000D04AC       aThreadDeleteEn
 0017:000D04D0       aThreadDeletePt_0
 0017:000D04F8       aThreadDeletePt
 0017:000D051C       aThreadDeleteEx
 0017:000D0540       aThreadCreateEn
 0017:000D0570       aThreadCreate
 0017:000D0580       aThreadCreateEx
 0017:000D05A4       aCeTracefile
 0017:000D05B4       aCeTracefilefla
 0017:000D05C8       aWarningCouldNo
 0017:000D060C       aSemmpPosixC
 0017:000D061C       aEnteredSemmpPo
 0017:000D063C       aSemmpPost0xXFa
 0017:000D0658       aLeavingSemmpPo
 0017:000D0678       aEnteredSemmpPe
 0017:000D06A8       aSemmpPend0xXFa
 0017:000D06C4       aLeavingSemmpPe
 0017:000D06F0       aTiSdoCeOsalSem
 0017:000D0708       aEnteredExitcsI
 0017:000D0724       aExitcsSemctlD0
 0017:000D0754       aLeavingExitcs
 0017:000D0764       aEnteredEntercs
 0017:000D0780       aEntercsTimingO
 0017:000D07C4       aLeavingEntercs
 0017:000D07E0       aEnteredSemmpDe
 0017:000D0804       aSemmpDeleteSem
 0017:000D082C       aFailedToDecrem
 0017:000D0860       aSemmpDeleteFai
 0017:000D0890       aSemmpDeleteDel
 0017:000D08B8       aSemmpDeleteSem_0
 0017:000D08F0       aLeavingSemmpDe
 0017:000D0908       aSemmpCreateKey
 0017:000D092C       aSemmpCreateMem
 0017:000D0950       aSemmpCreateSem_1
 0017:000D0974       aSemmpCreateFai_0
 0017:000D09A0       aSemmpCreateSem_0
 0017:000D09D4       aSemmpCreateFai_1
 0017:000D0A04       aSemmpCreateFai
 0017:000D0A3C       aSemmpCreateSem
 0017:000D0A64       aLeavingSemmpCr
 0017:000D0A88       aSemPosixC
 0017:000D0A94       aEnteredSemPost
 0017:000D0AB4       aLeavingSemPost
 0017:000D0AD4       aEnteredSemPend
 0017:000D0B00       aLeavingSemPend
 0017:000D0B28       aTiSdoCeOsalSem_0
 0017:000D0B3C       aSemGetcountSem
 0017:000D0B64       aEnteredSemDele
 0017:000D0B84       aLeavingSemDele
 0017:000D0B9C       aSemCreateCount
 0017:000D0BB4       aSemCreateMemor
 0017:000D0BD8       aSemCreateSemIn
 0017:000D0BF8       aLeavingSemCrea
 0017:000D0C18       aXdmutilsValida
 0017:000D0C5C       aErrorIvideoBuf
 0017:000D0C88       aErrorSNumbufsD
 0017:000D0CAC       aErrorSNumbufsI
 0017:000D0CE8       aErrorSBufdescD
 0017:000D0D20       aXdmutilsValida_0
 0017:000D0D50       aXdmutilsValida_1
 0017:000D0D90       aErrorSNumbufsI_0
 0017:000D0DC8       aErrorSBufsizes
 0017:000D0DFC       aXdmutilsValida_2
 0017:000D0E2C       aXdmutilsValida_3
 0017:000D0E6C       aErrorBufdescSP
 0017:000D0E94       aErrorInvalidBu
 0017:000D0EE0       aXdmutilsValida_4
 0017:000D0F10       aXdmutilsValida_5
 0017:000D0F50       aXdmutilsValida_6
 0017:000D0F80       aXdmutilsValida_8
 0017:000D0FD0       aErrorExtendedS
 0017:000D0FF8       aErrorInvalidEx
 0017:000D1054       aXdmutilsValida_7
 0017:000D1084       aXu
 0017:000D1088       aTiSdoFcIresVic
 0017:000D10A0       aTiSdoFcIresEdm
 0017:000D10BC       HWSET_imx_MPEGEncRot0Cmd_16x16avg_nounpack
 0017:000D10E4       HWSET_imx_MPEGEncRot0Cmd_16x16avg
 0017:000D1148       HWSET_imx_MPEGEncRot90Cmd_16x16avg_420SP
 0017:000D119C       HWSET_imx_MPEGEncRot180Cmd_16x16avg_420SP
 0017:000D11F0       HWSET_imx_MPEGEncRot270Cmd_16x16avg_420SP
 0017:000D1244       HWSET_imx_MPEGEncRot90Cmd_8x8avg_420SP
 0017:000D1300       HWSET_imx_MPEGEncRot180Cmd_8x8avg_420SP
 0017:000D13BC       HWSET_imx_MPEGEncRot270Cmd_8x8avg_420SP
 0017:000D1478       HWSET_imx_MPEGEncRot90Cmd_16x16avg
 0017:000D15EC       HWSET_imx_MPEGEncRot180Cmd_16x16avg
 0017:000D1760       HWSET_imx_MPEGEncRot270Cmd_16x16avg
 0017:000D18D4       HWSET_imx_MPEGEncRot0Cmd_8x8avg_nounpack
 0017:000D1964       HWSET_imx_MPEGEncRot0Cmd_8x8avg
 0017:000D1A2C       HWSET_imx_MPEGEncRot90Cmd_8x8avg
 0017:000D1C04       HWSET_imx_MPEGEncRot180Cmd_8x8avg
 0017:000D1DDC       HWSET_imx_MPEGEncRot270Cmd_8x8avg
 0017:000D1FB4       HWSET_Bimx_MPEGEncAlgo0Round0ME7Cmd
 0017:000D2288       HWSET_Bimx_MPEGEncAlgo1Round0ME7Cmd
 0017:000D2560       HWSET_Bimx_MPEGEncAlgo0Round0ME31Cmd
 0017:000D2868       HWSET_Bimx_MPEGEncAlgo1Round0ME31Cmd
 0017:000D2B74       HWSET_Bimx_MPEGEncAlgo0Round0ME7_IIDC_Cmd
 0017:000D2E6C       HWSET_Bimx_MPEGEncAlgo0Round0ME31_IIDC_Cmd
 0017:000D3194       HWSET_Bimx_MPEGEncAlgo1Round0ME7_IIDC_Cmd
 0017:000D348C       HWSET_Bimx_MPEGEncAlgo1Round0ME31_IIDC_Cmd
 0017:000D37B4       HWSET_Bimx_MPEGEncAlgo1Round0ME7_IIDC_Pskip_Cmd
 0017:000D3B1C       HWSET_Bimx_MPEGEncAlgo1Round0ME31_IIDC_Pskip_Cmd
 0017:000D3EB4       HWSET_Bimx_MPEGEncAlgo1Round0ME7_Pskip_Cmd
 0017:000D4200       HWSET_Bimx_MPEGEncAlgo1Round0ME31_Pskip_Cmd
 0017:000D457C       HWSET_Bimx_MPEGEncAlgo0Round0ME31_ME44421H_Cmd
 0017:000D4914       HWSET_Bimx_MPEGEncAlgo0Round0ME31_ME44421H_IIDC_Cmd
 0017:000D4CD0       HWSET_Bimx_MPEGEncAlgo1Round0ME31_ME44421H_Cmd
 0017:000D5070       HWSET_Bimx_MPEGEncAlgo1Round0ME31_ME44421H_IIDC_Cmd
 0017:000D542C       HWSET_Bimx_MPEGEncAlgo1Round0ME31_ME44421H_PS_Cmd
 0017:000D583C       HWSET_Bimx_MPEGEncAlgo1Round0ME31_ME44421H_PS_IIDC_Cmd
 0017:000D5C68       HWSET_Bimx_MPEGEncAlgo1Round0ME31_UMV_Cmd
 0017:000D5FF8       HWSET_Bimx_MPEGEncAlgo1Round0ME31_IIDC_UMV_Cmd
 0017:000D63A4       HWSET_Bimx_MPEGEncAlgo1Round0ME31_IIDC_Pskip_UMV_Cmd
 0017:000D67C0       HWSET_Bimx_MPEGEncAlgo1Round0ME31_Pskip_UMV_Cmd
 0017:000D6BC0       HWSET_Bimx_MPEGEncAlgo1Round0ME31_ME44421H_UMV_Cmd
 0017:000D6F68       HWSET_Bimx_MPEGEncAlgo1Round0ME31_ME44421H_IIDC_UMV_Cmd
 0017:000D732C       HWSET_Bimx_MPEGEncAlgo1Round0ME31_ME44421H_PS_UMV_Cmd
 0017:000D7744       HWSET_Bimx_MPEGEncAlgo1Round0ME31_ME44421H_PS_IIDC_UMV_Cmd
 0017:000D7B78       HWSET_Bimx_MPEGEncAlgo0Round0ME31_UMV_Cmd
 0017:000D7F2C       HWSET_Bimx_MPEGEncAlgo0Round0ME31_IIDC_UMV_Cmd
 0017:000D8300       HWSET_Bimx_MPEGEncAlgo0Round0ME31_ME44421H_UMV_Cmd
 0017:000D86C8       HWSET_Bimx_MPEGEncAlgo0Round0ME31_ME44421H_IIDC_UMV_Cmd
 0017:000D8AB4       HWSET_Bimx_MPEGEncAlgo1Round0ME7_UMV_Cmd
 0017:000D8E10       HWSET_Bimx_MPEGEncAlgo1Round0ME7_IIDC_UMV_Cmd
 0017:000D918C       HWSET_Bimx_MPEGEncAlgo1Round0ME7_IIDC_Pskip_UMV_Cmd
 0017:000D9578       HWSET_Bimx_MPEGEncAlgo1Round0ME7_Pskip_UMV_Cmd
 0017:000D9948       HWSET_Bimx_MPEGEncAlgo0Round0ME7_UMV_Cmd
 0017:000D9CC8       HWSET_Bimx_MPEGEncAlgo0Round0ME7_IIDC_UMV_Cmd
 0017:000DA06C       HWSET_Bimx_MPEGEncAlgo0Round0ME31_ME84221H_Cmd
 0017:000DA48C       HWSET_Bimx_MPEGEncAlgo0Round0ME31_ME84221H_IIDC_Cmd
 0017:000DA8CC       HWSET_Bimx_MPEGEncAlgo1Round0ME31_ME84221H_Cmd
 0017:000DACC4       HWSET_Bimx_MPEGEncAlgo1Round0ME31_ME84221H_IIDC_Cmd
 0017:000DB0DC       HWSET_Bimx_MPEGEncAlgo1Round0ME31_ME84221H_PS_Cmd
 0017:000DB548       HWSET_Bimx_MPEGEncAlgo1Round0ME31_ME84221H_PS_IIDC_Cmd
 0017:000DB9D4       HWSET_Bimx_MPEGEncAlgo1Round0ME31_ME84221H_UMV_Cmd
 0017:000DBD90       HWSET_Bimx_MPEGEncAlgo1Round0ME31_ME84221H_IIDC_UMV_Cmd
 0017:000DC168       HWSET_Bimx_MPEGEncAlgo1Round0ME31_ME84221H_PS_UMV_Cmd
 0017:000DC594       HWSET_Bimx_MPEGEncAlgo1Round0ME31_ME84221H_PS_IIDC_UMV_Cmd
 0017:000DC9E0       HWSET_Bimx_MPEGEncAlgo0Round0ME31_ME84221H_UMV_Cmd
 0017:000DCDC4       HWSET_Bimx_MPEGEncAlgo0Round0ME31_ME84221H_IIDC_UMV_Cmd
 0017:000DD1C4       MPEG4_dc_size_lum
 0017:000DD1D8       MPEG4_dc_size_chro
 0017:000DD1EC       MPEG4_INTER_DCT_TAB
 0017:000DD2BC       MPEG4_INTRA_DCT_TAB
 0017:000DD38C       IVIDENC1_TI_DEFDYNPARAMS
 0017:000DD3BC       C.31.7018
 0017:000DD3C0       MP4VENC_Table_LumDCScaler
 0017:000DD400       MP4VENC_Table_ChrDCScaler
 0017:000DD440       mpeg4_intra_q_mat
 0017:000DD4C0       mpeg4_inter_q_mat
 0017:000DD540       mpeg4_intra_inv_q_mat
 0017:000DD5C0       mpeg4_inter_inv_q_mat
 0017:000DD640       MP4VENC_qinv_tab
 0017:000DD740       aCodecmsgErrorV
 0017:000DD760       aCodecmsgErrorC
 0017:000DD788       bit_stuffing
 0017:000DD79C       mask32
 0017:000DD820       C.50.5629
 0017:000DD840       C.49.5628
 0017:000DD860       C.40.5578
 0017:000DD880       C.39.5577
 0017:000DD8A0       C.32.5454
 0017:000DD8C0       C.31.5453
 0017:000DD8E0       C.30.5413
 0017:000DD900       C.28.5384
 0017:000DD920       C.27.5383
 0017:000DD940       C.25.5356
 0017:000DD960       C.24.5355
 0017:000DD980       C.18.4948
 0017:000DD9A0       aDevMem
 0017:000DD9AC       aTiSdoFcIresExa
 0017:000DD9DC       C.50.2518
 0017:000DD9E4       aTiSdoFcIresExa_0
 0017:000DDA10       MPEG2VENC_TI_edma_lgl_to_tc_map
 0017:000DDB10       aTiSdoFcIresEdm_0
 0017:000DDB2C       aTiSdoFcIresHdv_0
 0017:000DDB44       aTiSdoFcIresAdd_0
 0017:000DDB60       MPEG2VENC_TI_version
 0017:000DDBD4       IMP2VENC_DYNAMICPARAMS
 0017:000DDC2C       aReturningImpeg
 0017:000DDC58       aReturningImpeg_0
 0017:000DDC8C       aReturningImpeg_1
 0017:000DDCB4       aReturningImpeg_2
 0017:000DDCDC       aReturningImpeg_3
 0017:000DDD04       MPEG2VENC_TI_SECTION0
 0017:000DDD24       MPEG2VENC_TI_SECTION1
 0017:000E4AD4       MPEG2VENC_TI_SECTION2
 0017:000E5B8F       MPEG2VENC_TI_SECTION3
 0017:000E5BBF       MPEG2VENC_TI_mpeg2_qcode_to_qscale_tab
 0017:000E5BFF       MPEG2VENC_TI_mpeg2_qscale_to_qcode_tab
 0017:000E5CFF       MPEG2VENC_TI_ciEstCoefQ8
 0017:000E5D08       H264VENC_TI_edma_max_linked_HQ
 0017:000E5E08       H264VENC_TI_edma_max_linked
 0017:000E5F08       H264VENC_TI_edma_max_linked_GW
 0017:000E6008       aTiSdoFcIresEdm_1
 0017:000E6024       aTiSdoFcIresVic_0
 0017:000E603C       aTiSdoFcIresHdv_1
 0017:000E6054       aTiSdoFcIresAdd_1
 0017:000E6070       aTiSdoFcIresExa_2
 0017:000E609C       H264VENC_TI_edma_lgl_to_tc_map
 0017:000E619C       H264VENC_TI_edma_lgl_to_tc_map_LITE
 0017:000E629C       H264VENC_TI_edma_lgl_to_tc_map_LITE_GW
 0017:000E639C       H264VENC_TI_edma_lgl_to_tc_map_LITE_IFrame
 0017:000E649C       H264VENC_TI_edma_tc_priority
 0017:000E64AC       H264VENC_TI_edma_tc_priority_Lite
 0017:000E64BC       H264VENC_TI_edma_tc_priority_Lite_GW
 0017:000E64CC       H264VENC_TI_levelLimitTable
 0017:000E66C4       H264VENC_TI_AspectRatio
 0017:000E66F8       H264VENC_TI_scalingListinput4x4_Intra_low
 0017:000E6708       H264VENC_TI_scalingListinput4x4_Inter_low
 0017:000E6718       H264VENC_TI_scalingListinput8x8_Intra_low
 0017:000E6758       H264VENC_TI_scalingListinput8x8_Inter_low
 0017:000E6798       H264VENC_TI_scalingListinput4x4_Intra_mod
 0017:000E67A8       H264VENC_TI_scalingListinput4x4_Inter_mod
 0017:000E67B8       H264VENC_TI_scalingListinput8x8_Intra_mod
 0017:000E67F8       H264VENC_TI_scalingListinput8x8_Inter_mod
 0017:000E6838       H264VENC_TI_scalingListinput4x4_Intra_high
 0017:000E6848       H264VENC_TI_scalingListinput4x4_Inter_high
 0017:000E6858       H264VENC_TI_scalingListinput8x8_Intra_high
 0017:000E6898       H264VENC_TI_scalingListinput8x8_Inter_high
 0017:000E68D8       H264VENC_TI_version
 0017:000E6948       H264VENC_TI_Q_TABLE
 0017:000E69B0       H264VENC_TI_oneByDenomQ16
 0017:000E6DB4       H264VENC_TI_QUANT_ADJUST_TABLE_Q8
 0017:000E6DE6       H264VENC_TI_QSCALE_TO_QP_TABLE
 0017:000E6FE6       H264VENC_TI_QSCALE_TO_QP_FINE_TABLE
 0017:000E7058       HDVICP_TI_IpeCmdsFrame
 0017:000E71E0       HDVICP_TI_MeCmds_Prog
 0017:000E8198       HDVICP_TI_McCmds_Prog
 0017:000E84B8       HDVICP_TI_CalcInitCmds
 0017:000E9020       HDVICP_TI_SeqScale_Matrices
 0017:000E9AA0       HDVICP_TI_CalcInitSclQiqCmds
 0017:000E9AB0       HDVICP_TI_CalcMbCmd
 0017:000E9BB0       HDVICP_TI_CalcMbAddressSet
 0017:000E9CD0       HDVICP_TI_CalcQuantMatrix4x4
 0017:000E9E50       HDVICP_TI_CalcQuantMatrix8x8
 0017:000EA450       HDVICP_TI_ECDnonavaildata
 0017:000EA580       HDVICP_TI_ECDWorkBuffinit
 0017:000EA6D0       HDVICP_TI_EcdCmds_Prog_PicAff
 0017:000EAF60       HDVICP_TI_Ecd_MBInfo_host
 0017:000EB420       HDVICP_TI_BsCmds_Prog
 0017:000EB4F0       HDVICP_TI_LpfCmds_Prog
 0017:000EC470       HDVICP_TI_CABACInitContexts
 0017:000F80F0       H264VENC_TI_SECTION0
 0017:000F8110       H264VENC_TI_SECTION1
 0017:001031CC       H264VENC_TI_SECTION2
 0017:00104164       H264VENC_TI_SECTION3
 0017:001041D8       H264VENC_TI_1_SECTION0
 0017:001041F8       H264VENC_TI_1_SECTION1
 0017:0010FF08       H264VENC_TI_1_SECTION2
 0017:00110CEC       H264VENC_TI_1_SECTION3
 0017:00110D1C       H264VENC_TI_2_SECTION0
 0017:00110D3C       H264VENC_TI_2_SECTION1
 0017:0011C984       H264VENC_TI_2_SECTION2
 0017:0011D7B8       H264VENC_TI_2_SECTION3
 0017:0011D82C       H264VENC_TI_3_SECTION0
 0017:0011D84C       H264VENC_TI_3_SECTION1
 0017:0012964C       H264VENC_TI_3_SECTION2
 0017:0012A684       H264VENC_TI_3_SECTION3
 0017:0012A724       H264VENC_TI_4_SECTION0
 0017:0012A744       H264VENC_TI_4_SECTION1
 0017:00136604       H264VENC_TI_4_SECTION2
 0017:001373D0       H264VENC_TI_4_SECTION3
 0017:00137444       ZZ_SCAN
 0017:00137454       ZZ_SCAN8
 0017:00137494       C.67.8676
 0017:001374BC       C.66.8675
 0017:001374E0       C.65.8674
 0017:00137504       H264VENC_TI_Scale_Factor
 0017:00137528       aGtS
 0017:00137530       aIllegalTraceMa
 0017:00137544       a0x08xT0x08xS
 0017:00137560       a03d03dusDT0x08
 0017:00137584       aD03d03dusDT0x0
 0017:001375AC       aD03dsDT0x08xS
 0017:001375EC       aS
 0017:001375F4       a0x08xDT0x08xS
 0017:00137614       aDT0x08xS
 0017:0013762C       aDT0x08x
 0017:00137640       aDS
 0017:0013764C       aS_0
 0017:0013765C       a03d03dus
 0017:0013766C       aD03d03dus
 0017:00137680       aD03ds
 0017:0013768C       aD03d03dtk
 0017:001376A0       a0x08x
 0017:001376B0       aD
 0017:001376B4       aT0x08x
 0017:001376C0       aS0x08x
 0017:001376CC       aMemoryAllocFor
 0017:001376F4       aMemoryAllocFor_0
 0017:00137724       aGtPrefix
 0017:00137730       aGtTime
 0017:00137740       aTiSdoFcIresExa_1
 0017:0013776C       aTiSdoFcIresHdv
 0017:00137784       a1000000
 0017:0013778F       _a2u
 0017:0013780F       _u2a
 0017:00137890       aCmemErrorCmemE
 0017:0013790C       aCmemErrorCmemI
 0017:00137964       aCmemErrorCmemF
 0017:001379E0       aCmemErrorGetbl
 0017:00137A2C       aCmemErrorGetbl_0
 0017:00137A88       aCmemErrorGetve
 0017:00137AD0       aCmemErrorCache
 0017:00137B00       aCmemErrorCache_0
 0017:00137B40       aCmemErrorCache_1
 0017:00137B70       aCmemErrorGetph
 0017:00137BAC       aCmemErrorGetpo
 0017:00137BEC       aCmemErrorFreeF_0
 0017:00137C14       aCmemErrorFreeF
 0017:00137C3C       aCmemIocallocca
 0017:00137C50       aCmemIocalloc
 0017:00137C60       aCmemErrorAlloc
 0017:00137C9C       aCmemErrorAlloc_0
 0017:00137CE4       aCmemErrorFreei
 0017:00137D10       aCmemErrorRegis
 0017:00137D60       aCmemErrorRegis_0
 0017:00137DAC       aCmemErrorUnreg
 0017:00137DE4       aCmemIocalloche
 0017:00137DFC       aCmemIocalloche_0
 0017:00137E10       aCmemErrorAlloc_1
 0017:00137E3C       aCmemErrorAlloc_2
 0017:00137E84       aDevCmem
 0017:00137E90       aCmemErrorInitF_0
 0017:00137EC4       aCmemErrorInitM
 0017:00137F0C       aCmemErrorNeeds
 0017:00137F40       aCmemErrorInitM_0
 0017:00137F88       aCmemErrorNeeds_0
 0017:00137FF4       aCmemErrorInitF
 0017:00138024       aEdmaErrorEdmaI
 0017:0013804C       aEdmaErrorEdmaI_0
 0017:00138070       aEdmaErrorEdmaI_1
 0017:00138098       aEdmaErrorGetve
 0017:001380E0       aDevEdma
 0017:001380EC       aEdmaErrorInitF
 0017:00138120       aEdmaErrorInitF_0
 0017:00138154       aEdmaErrorInitM
 0017:0013819C       aEdmaErrorNeeds
 0017:001381D0       aEdmaErrorInitD_0
 0017:0013820C       aEdmaErrorInitD
 0017:00138244       aVicpErrorVicpE
 0017:001382C0       aVicpErrorVicpI
 0017:00138318       aVicpErrorIrqkF
 0017:00138394       aVicpErrorVicpD
 0017:001383C0       aVicpErrorVicpW
 0017:001383EC       aVicpErrorVicpU
 0017:0013841C       aVicpErrorVicpR
 0017:0013844C       aDevIrqk
 0017:00138458       aVicpErrorInitF_0
 0017:0013848C       aVicpErrorInitF
 0017:001384BC       __clz_tab
 0018:001385BC       __ASM__
 0018:00138634       __ISA__
 0018:00138648       __PLAT__
 0018:00138670       __TARG__
 0019:00138698       ia_enhaacplus_enc_mdct_tab
 0019:0013AC9C       ia_enhaacplus_enc_huff_tab
 0019:0013C454       ia_enhaacplus_enc_psycho_tab
 0019:0013CA28       ia_enhaacplus_enc_quant_tab
 0019:0013D444       ia_enhaacplus_enc_tns_tab
 0019:0013D6FC       ia_enhaacplus_enc_common_tab
 001A:0013EF5C       rmask@ia_enhaacplus_enc_encodeTnsData_0
 001A:0013EF70       .constdata$1_0
 001A:0013EF78       ia_enhaacplus_enc_suggestedGroupingTable
 001A:0013EFF8       ia_enhaacplus_enc_synchronizedBlockTypeTable
 001A:0013F038       .constdata$1_1
 001A:0013F044       aArm9eRev3500
 001A:0013F058       ia_enhaacplus_enc_m_log2_table
 001D:0014062C       __FRAME_END__
 001E:00148630       __frame_dummy_init_array_entry
 001F:00148634       __do_global_dtors_aux_fini_array_entry
 0020:00148638       __JCR_LIST__
 0021:0014863C       separator
 0004:00148640       _DYNAMIC
 0022:00148760       _GLOBAL_OFFSET_TABLE_
 0022:0014876C       open_ptr
 0022:00148770       strerror_ptr
 0022:00148774       CalCrc16_ptr
 0022:00148778       fileno_ptr
 0022:0014877C       reInit_libusb_ptr
 0022:00148780       mmap_ptr
 0022:00148784       GetRandomData_ptr
 0022:00148788       abort_ptr
 0022:0014878C       localtime_ptr
 0022:00148790       pthread_attr_getschedparam_ptr
 0022:00148794       memcmp_ptr
 0022:00148798       pthread_exit_ptr
 0022:0014879C       __libc_start_main_ptr
 0022:001487A0       signal_ptr
 0022:001487A4       msgget_ptr
 0022:001487A8       pthread_attr_setschedpolicy_ptr
 0022:001487AC       __gmon_start___ptr
 0022:001487B0       GetFileSize_ptr
 0022:001487B4       GetCurrentTime_ptr
 0022:001487B8       sched_yield_ptr
 0022:001487BC       InitProcMsg_ptr
 0022:001487C0       pthread_mutexattr_settype_ptr
 0022:001487C4       pow_ptr
 0022:001487C8       Queue_Create_ptr
 0022:001487CC       strncpy_ptr
 0022:001487D0       fclose_ptr
 0022:001487D4       fgets_ptr
 0022:001487D8       getenv_ptr
 0022:001487DC       system_ptr
 0022:001487E0       strchr_ptr
 0022:001487E4       semop_ptr
 0022:001487E8       UnInit_libusb_ptr
 0022:001487EC       putchar_ptr
 0022:001487F0       __cxa_atexit_ptr
 0022:001487F4       msgctl_ptr
 0022:001487F8       CalCrc8_ptr
 0022:001487FC       sem_getvalue_ptr
 0022:00148800       calloc_ptr
 0022:00148804       pthread_cond_wait_ptr
 0022:00148808       sem_init_ptr
 0022:0014880C       fopen_ptr
 0022:00148810       shmat_ptr
 0022:00148814       Watchdog_Init_ptr
 0022:00148818       sched_get_priority_max_ptr
 0022:0014881C       __strtol_internal_ptr
 0022:00148820       libusb_Send_ptr
 0022:00148824       memset_ptr
 0022:00148828       sem_destroy_ptr
 0022:0014882C       pthread_cond_timedwait_ptr
 0022:00148830       Queue_GetData_ptr
 0022:00148834       GetHardwareVersion_ptr
 0022:00148838       pthread_attr_setschedparam_ptr
 0022:0014883C       perror_ptr
 0022:00148840       GetINT32LittleEnd_ptr
 0022:00148844       DJI_Frame_Cap_ptr
 0022:00148848       floor_ptr
 0022:0014884C       __assert_fail_ptr
 0022:00148850       pthread_cond_broadcast_ptr
 0022:00148854       shmdt_ptr
 0022:00148858       usleep_ptr
 0022:0014885C       msgsnd_ptr
 0022:00148860       free_ptr
 0022:00148864       read_ptr
 0022:00148868       write_ptr
 0022:0014886C       DataBuff_Delete_ptr
 0022:00148870       getopt_long_ptr
 0022:00148874       PutINT32LittleEnd_ptr
 0022:00148878       pthread_getspecific_ptr
 0022:0014887C       gettimeofday_ptr
 0022:00148880       setpriority_ptr
 0022:00148884       Serial_Create_ptr
 0022:00148888       Serial_Delete_ptr
 0022:0014888C       pthread_mutex_unlock_ptr
 0022:00148890       fflush_ptr
 0022:00148894       pthread_setschedparam_ptr
 0022:00148898       ioctl_ptr
 0022:0014889C       pthread_key_delete_ptr
 0022:001488A0       CalMac_ptr
 0022:001488A4       pthread_mutexattr_destroy_ptr
 0022:001488A8       pthread_mutex_lock_ptr
 0022:001488AC       strlen_ptr
 0022:001488B0       sscanf_ptr
 0022:001488B4       DataBuff_Create_ptr
 0022:001488B8       pthread_create_ptr
 0022:001488BC       mq_open_ptr
 0022:001488C0       execv_ptr
 0022:001488C4       memcpy_ptr
 0022:001488C8       pthread_cond_signal_ptr
 0022:001488CC       pthread_attr_getstacksize_ptr
 0022:001488D0       PutINT16LittleEnd_ptr
 0022:001488D4       Serial_WriteData_ptr
 0022:001488D8       fgetc_ptr
 0022:001488DC       Update_Fill_Version_ptr
 0022:001488E0       pthread_attr_setinheritsched_ptr
 0022:001488E4       strcpy_ptr
 0022:001488E8       sem_post_ptr
 0022:001488EC       waitpid_ptr
 0022:001488F0       pthread_cond_destroy_ptr
 0022:001488F4       pthread_mutex_destroy_ptr
 0022:001488F8       printf_ptr
 0022:001488FC       raise_ptr
 0022:00148900       atoi_ptr
 0022:00148904       SetHardwareVersion_ptr
 0022:00148908       pthread_mutex_init_ptr
 0022:0014890C       pthread_setspecific_ptr
 0022:00148910       select_ptr
 0022:00148914       close_ptr
 0022:00148918       fwrite_ptr
 0022:0014891C       semctl_ptr
 0022:00148920       setvbuf_ptr
 0022:00148924       fprintf_ptr
 0022:00148928       malloc_ptr
 0022:0014892C       rindex_ptr
 0022:00148930       pthread_attr_init_ptr
 0022:00148934       IsTimeOut_ptr
 0022:00148938       fputc_ptr
 0022:0014893C       strtok_ptr
 0022:00148940       AesDecryptFromFile_ptr
 0022:00148944       CalMD5_ptr
 0022:00148948       sleep_ptr
 0022:0014894C       strcat_ptr
 0022:00148950       init_libusb_ptr
 0022:00148954       memmove_ptr
 0022:00148958       Queue_Delete_ptr
 0022:0014895C       puts_ptr
 0022:00148960       getpid_ptr
 0022:00148964       fcntl_ptr
 0022:00148968       bzero_ptr
 0022:0014896C       fork_ptr
 0022:00148970       shmctl_ptr
 0022:00148974       Get68013HardwareVersion_ptr
 0022:00148978       munmap_ptr
 0022:0014897C       vfprintf_ptr
 0022:00148980       ProcMsgSend_ptr
 0022:00148984       fread_ptr
 0022:00148988       pthread_cond_init_ptr
 0022:0014898C       strncmp_ptr
 0022:00148990       msgrcv_ptr
 0022:00148994       kill_ptr
 0022:00148998       Set68013HardwareVersion_ptr
 0022:0014899C       Serial_ReadData_ptr
 0022:001489A0       AesEncryptToFile_ptr
 0022:001489A4       DJI_ProStruct_Init_ptr
 0022:001489A8       pipe_ptr
 0022:001489AC       syscall_ptr
 0022:001489B0       pthread_mutexattr_init_ptr
 0022:001489B4       Watchdog_Feed_ptr
 0022:001489B8       sem_wait_ptr
 0022:001489BC       strcmp_ptr
 0022:001489C0       exit_ptr
 0022:001489C4       pthread_setcanceltype_ptr
 0022:001489C8       __errno_location_ptr
 0022:001489CC       pthread_self_ptr
 0022:001489D0       pthread_cancel_ptr
 0022:001489D4       Queue_PutData_ptr
 0022:001489D8       Update_Fill_68013_Version_ptr
 0022:001489DC       ceil_ptr
 0022:001489E0       sprintf_ptr
 0022:001489E4       pthread_join_ptr
 0022:001489E8       pthread_key_create_ptr
 0022:001489EC       Watchdog_Delete_ptr
 0022:001489F0       fscanf_ptr
 0022:001489F4       fputs_ptr
 0022:001489F8       semget_ptr
 0022:001489FC       shmget_ptr
 0022:00148A00       _VICP2_ipcKeyBase_ptr
 0022:00148A04       ti_sdo_ce_alg_ipcKey_ptr
 0022:00148A08       Global_useLinkArbiter_ptr
 0022:00148A0C       IRES_ADDRSPACE_getStaticProperties_ptr
 0022:00148A10       Memory_DEFAULTPARAMS_ptr
 0022:00148A14       GT_ptr
 0022:00148A18       Algorithm_exit_ptr
 0022:00148A1C       _RMAN_lock_ptr
 0022:00148A20       IRESMAN_GROUPUTILS_CONSTRUCTFXNS_ptr
 0022:00148A24       G711ENC_SUN_PARAMS_ptr
 0022:00148A28       ti_sdo_fc_ires_grouputils_GROUPUTILS_semPostFxn_ptr
 0022:00148A2C       IRESMAN_VICP2_ptr
 0022:00148A30       IRESMAN_MEMTCM_CONSTRUCTFXNS_ptr
 0022:00148A34       G711_SUN_linear2ulaw_ptr
 0022:00148A38       _Algorithm_lockOwner_ptr
 0022:00148A3C       Engine_ALGCREATEATTRS_ptr
 0022:00148A40       IRESMAN_EDMA3CHAN_CONSTRUCTFXNS_ptr
 0022:00148A44       __gmon_start___ptr_0
 0022:00148A48       _HDVICP_NUMRESOURCES_ptr
 0022:00148A4C       IRES_MEMTCM_getStaticProperties_ptr
 0022:00148A50       RMAN_registryResmanArgs_ptr
 0022:00148A54       MEMTCM_ipcKeyBase_ptr
 0022:00148A58       __clz_tab_ptr
 0022:00148A5C       ti_sdo_ce_alg_ALG_useHeap_ptr
 0022:00148A60       ti_sdo_fc_edma3_EDMA3_MAXEDMAREQUESTS_ptr
 0022:00148A64       VISA_checked_ptr
 0022:00148A68       IRESMAN_MEMTCM_ptr
 0022:00148A6C       IRESMAN_GROUPUTILS_DEFAULTPARAM_ptr
 0022:00148A70       RMAN_PARAMS_ptr
 0022:00148A74       IRESMAN_ADDRSPACE_ptr
 0022:00148A78       RMAN_numRegistryEntries_ptr
 0022:00148A7C       _VICP2_buffLens_ptr
 0022:00148A80       ti_sdo_fc_ires_grouputils_GROUPUTILS_semDeleteFxn_ptr
 0022:00148A84       Global_exit_ptr
 0022:00148A88       Comm_ATTRS_ptr
 0022:00148A8C       ti_sdo_ce__versionString_ptr
 0022:00148A90       Engine_alwaysCollectDspTrace_ptr
 0022:00148A94       IRES_EDMA3CHAN_getStaticProperties_ptr
 0022:00148A98       Processor_ATTRS_ptr
 0022:00148A9C       RMAN_FREE_ENTRIES_ptr
 0022:00148AA0       Thread_ATTRS_ptr
 0022:00148AA4       IRES_GROUPUTILS_getStaticProperties_ptr
 0022:00148AA8       IRES_VICP2_getStaticProperties_ptr
 0022:00148AAC       GT_config_traceOutStream_ptr
 0022:00148AB0       _VICP2_bufSize_ptr
 0022:00148AB4       _ALG_groupRefCount_ptr
 0022:00148AB8       _VICP2_buffOffsets_ptr
 0022:00148ABC       ti_sdo_ce_Engine_noCommName_ptr
 0022:00148AC0       ti_sdo_fc_ires_grouputils_GROUPUTILS_semCreateFxn_ptr
 0022:00148AC4       _ALG_sems_ptr
 0022:00148AC8       ti_sdo_fc_ires_grouputils_unlockGroup_ptr
 0022:00148ACC       _VICP2_regSize_ptr
 0022:00148AD0       IRESMAN_HDVICP_CONSTRUCTFXNS_ptr
 0022:00148AD4       IRES_HDVICP_getStaticProperties_ptr
 0022:00148AD8       RMAN_TABLE_ptr
 0022:00148ADC       ti_sdo_ce_dvtLog_ptr
 0022:00148AE0       IRESMAN_GROUPUTILS_ptr
 0022:00148AE4       IRESMAN_HDVICP_DEFAULTPARAM_ptr
 0022:00148AE8       ti_sdo_fc_ires_grouputils_GROUPUTILS_semPendFxn_ptr
 0022:00148AEC       ti_sdo_fc_edma3_EDMA3_physicalId_ptr
 0022:00148AF0       Global_buildInfo_ptr
 0022:00148AF4       IRESMAN_MEMTCM_DEFAULTPARAM_ptr
 0022:00148AF8       Memory_maxCbListSize_ptr
 0022:00148AFC       MEMTCM_blockId_ptr
 0022:00148B00       __dso_handle_ptr
 0022:00148B04       _VICP2_dm355_ptr
 0022:00148B08       _VICP2_imcopConfigBase_ptr
 0022:00148B0C       _ALG_groupUsed_ptr
 0022:00148B10       IRESMAN_NULLRES_ptr
 0022:00148B14       _GROUPUTILS_ipcKeyBase_ptr
 0022:00148B18       ADDRSPACE_noTranslation_ptr
 0022:00148B1C       Engine_config_ptr
 0022:00148B20       MEMTCM_size_ptr
 0022:00148B24       IRESMAN_HDVICP_ptr
 0022:00148B28       _VICP2_dm365_ptr
 0022:00148B2C       ti_sdo_fc_ires_grouputils_lockGroup_ptr
 0022:00148B30       IRESMAN_ADDRSPACE_CONSTRUCTFXNS_ptr
 0022:00148B34       _HDVICP_MEMBASEADDR_ptr
 0022:00148B38       IRESMAN_EDMA3CHAN_ptr
 0022:00148B3C       Engine_ceDebugDspTraceMask_ptr
 0022:00148B40       IRESMAN_EDMA3CHAN_DEFAULTPARAM_ptr
 0022:00148B44       _VICPSYNC_dm365_ptr
 0022:00148B48       stdout@@GLIBC_2.4_ptr
 0022:00148B4C       Memory_skipVirtualAddressTranslation_ptr
 0022:00148B50       Lock_system_ptr
 0022:00148B54       _EDMA3_ipcKeyBase_ptr
 0022:00148B58       IRESMAN_ADDRSPACE_DEFAULTPARAM_ptr
 0022:00148B5C       ti_sdo_ce_alg_GTMask_ptr
 0022:00148B60       ti_sdo_ce_alg_ALG_maxGroups_ptr
 0022:00148B64       RMAN_registryEntries_ptr
 0022:00148B68       IRESMAN_VICP2_CONSTRUCTFXNS_ptr
 0022:00148B6C       stderr@@GLIBC_2.4_ptr
 0022:00148B70       ti_sdo_ce_video1_VIDENC1_curTrace_ptr
 0022:00148B74       _HDVICP_ipcKeyBase_ptr
 0022:00148B78       g_protocolArgs_ptr
 0022:00148B7C       IRESMAN_VICP2_DEFAULTPARAM_ptr
 0022:00148B80       G711_SUN_linear2alaw_ptr
 0022:00148B84       ti_sdo_ce_osal_linux_SemMP_ipcKey_ptr
 0022:00148B88       _HDVICP_REGBASEADDR_ptr
 0022:00148B8C       ti_sdo_ce_alg_ALG_useCache_ptr
 0022:00148B90       Server_holdingTraceToken_ptr
 0023:00148B98       __data_start
 0023:00148B9C       __dso_handle
 0023:00148BA0       aacExtensions
 0023:00148BA8       audioEncoders
 0023:00148BD0       g711Extensions
 0023:00148BD8       speechEncoders
 0023:00148C00       mpeg4Extensions
 0023:00148C0C       h264Extensions
 0023:00148C14       mpeg2Extensions
 0023:00148C20       videoEncoders
 0023:00148C70       encodeEngine
 0023:00148C8C       engine
 0023:00148C90       noVideoStream
 0023:0014B564       gbl
 0023:0014B5AC       captureInputString
 0023:0014B5C0       stringAttrs
 0023:0014CC18       delimiterNALU
 0023:0014CC24       s_atEncSerialProtocolCmd
 0023:0014CCC4       s_aucMagic.7432
 0023:0014CCCC       ti_sdo_codecs_mpeg2enc_ce_MPEG2ENC_codecClassConfig
 0023:0014CD0C       ti_sdo_codecs_mpeg4enc_ce_MPEG4ENC_codecClassConfig
 0023:0014CD4C       ti_sdo_codecs_h264enc_ce_H264ENC_codecClassConfig
 0023:0014CD8C       _EDMA3_ipcKeyBase
 0023:0014CD90       ti_sdo_fc_edma3_EDMA3_MAXEDMAREQUESTS
 0023:0014CD94       _HDVICP_REGBASEADDR
 0023:0014CD98       _HDVICP_MEMBASEADDR
 0023:0014CD9C       _HDVICP_NUMRESOURCES
 0023:0014CDA0       _HDVICP_ipcKeyBase
 0023:0014CDA4       _VICP2_imcopConfigBase
 0023:0014CDA8       _VICP2_ipcKeyBase
 0023:0014CDAC       _VICP2_dm365
 0023:0014CDAE       _VICPSYNC_dm365
 0023:0014CDB0       MEMTCM_blockId
 0023:0014CDB4       MEMTCM_size
 0023:0014CDB8       MEMTCM_ipcKeyBase
 0023:0014CDBC       ti_sdo_fc_multiProcess
 0023:0014CDC0       _GROUPUTILS_ipcKeyBase
 0023:0014CDC4       ti_sdo_ce_alg_ALG_maxGroups
 0023:0014CDC8       ti_sdo_ce_alg_ipcKey
 0023:0014CDCC       _ALG_groupUsed
 0023:0014CE1C       ti_sdo_ce_osal_linux_SemMP_ipcKey
 0023:0014CE20       Memory_maxCbListSize
 0023:0014CE24       Global_buildInfo
 0023:0014CF14       Engine_config
 0023:0014CF1C       engineTab
 0023:0014CF58       typeTab_MP4VENC_TI_IMP4VENC
 0023:0014CF60       typeTab_H264VENC_TI_IH264VENC
 0023:0014CF68       typeTab_MPEG2VENC_TI_IMPEG2VENC
 0023:0014CF70       typeTab_G711ENC_SUN_IG711ENC
 0023:0014CF78       typeTab_EAACPLUSENCODER_ITTIAM_IEAACPLUSENCODER
 0023:0014CF80       RMAN_PARAMS
 0023:0014CF94       EDMA3_PARAMS
 0023:0014CFB4       _ti_sdo_utils_trace_GT_params
 0023:0014CFDC       GT
 0023:0014CFE0       ti_sdo_fc_ires_grouputils_lockGroup
 0023:0014CFE4       ti_sdo_fc_ires_grouputils_unlockGroup
 0023:0014CFE8       ti_sdo_fc_ires_grouputils_GROUPUTILS_semCreateFxn
 0023:0014CFEC       ti_sdo_fc_ires_grouputils_GROUPUTILS_semDeleteFxn
 0023:0014CFF0       ti_sdo_fc_ires_grouputils_GROUPUTILS_semPendFxn
 0023:0014CFF4       ti_sdo_fc_ires_grouputils_GROUPUTILS_semPostFxn
 0023:0014CFF8       engineAlgs0
 0023:0014D118       IRES_ADDRSPACE_PROTOCOLREVISION
 0023:0014D124       AUDCDC_ITTIAM_IRES
 0023:0014D14C       deviceName
 0023:0014D174       createFxns
 0023:0014D17C       deleteFxns
 0023:0014D184       getFxns
 0023:0014D18C       putFxns
 0023:0014D194       controlFxns
 0023:0014D1A0       captureInputString_0
 0023:0014D1B8       stds
 0023:0014D260       outputStrings
 0023:0014D278       modeStrings
 0023:0014D2CC       Engine_ALGCREATEATTRS
 0023:0014D2D4       Engine_ceDebugDspTraceMask
 0023:0014D2D8       ti_sdo_ce__versionNumArray
 0023:0014D2E4       ti_sdo_ce__versionString
 0023:0014D2E8       ti_sdo_ce__whatString
 0023:0014D2EC       Processor_ATTRS
 0023:0014D2F8       argv
 0023:0014D300       userName
 0023:0014D304       Memory_DEFAULTPARAMS
 0023:0014D314       doRegisterAtExit
 0023:0014D318       Thread_ATTRS
 0023:0014D32C       MP4VENC_TI_IRES
 0023:0014D354       IRES_VICP2_PROTOCOLREVISION
 0023:0014D360       IRES_EDMA3CHAN_PROTOCOLREVISION
 0023:0014D36C       IRES_ADDRSPACE_PROTOCOLREVISION_0
 0023:0014D378       MP4VENC_TI_IMP4VENC
 0023:0014D3A4       MP4VENC_TI_IALG
 0023:0014D3C8       IRESMAN_VICP2
 0023:0014D3E0       memfd
 0023:0014D3E4       IRES_VICP2_PROTOCOLREVISION_0
 0023:0014D3F0       IRESMAN_VICP2_CONSTRUCTFXNS
 0023:0014D408       IRESMAN_GROUPUTILS
 0023:0014D420       IRES_GROUPUTILS_PROTOCOLREVISION
 0023:0014D42C       IRESMAN_GROUPUTILS_CONSTRUCTFXNS
 0023:0014D444       IRESMAN_EDMA3CHAN
 0023:0014D45C       IRES_EDMA3CHAN_PROTOCOLREVISION_0
 0023:0014D468       IRESMAN_EDMA3CHAN_CONSTRUCTFXNS
 0023:0014D480       initStatus
 0023:0014D484       IRES_NULLRES_PROTOCOLREVISION
 0023:0014D490       IRESMAN_NULLRES
 0023:0014D4A8       MPEG2VENC_TI_IMPEG2VENC
 0023:0014D4D4       MPEG2VENC_TI_IALG
 0023:0014D4F8       IRES_EDMA3CHAN_PROTOCOLREVISION_1
 0023:0014D504       IRES_VICP2_PROTOCOLREVISION_1
 0023:0014D510       IRES_HDVICP_PROTOCOLREVISION
 0023:0014D51C       IRES_ADDRSPACE_PROTOCOLREVISION_1
 0023:0014D528       edma_max_linked
 0023:0014D628       edma_tcc_array_default
 0023:0014D728       MPEG2VENC_TI_edma_tcc_array
 0023:0014D790       MPEG2VENC_TI_IRES
 0023:0014D7B8       IRES_EDMA3CHAN_PROTOCOLREVISION_2
 0023:0014D7C4       IRES_VICP2_PROTOCOLREVISION_2
 0023:0014D7D0       IRES_HDVICP_PROTOCOLREVISION_0
 0023:0014D7DC       IRES_ADDRSPACE_PROTOCOLREVISION_2
 0023:0014D7E8       IRES_HDVICP_PROTOCOLREVISION_1
 0023:0014D7F4       IRES_VICP2_PROTOCOLREVISION_3
 0023:0014D800       IRES_EDMA3CHAN_PROTOCOLREVISION_3
 0023:0014D80C       IRES_ADDRSPACE_PROTOCOLREVISION_3
 0023:0014D818       IRES_EDMA3CHAN_PROTOCOLREVISION_4
 0023:0014D824       IRES_VICP2_PROTOCOLREVISION_4
 0023:0014D830       IRES_HDVICP_PROTOCOLREVISION_2
 0023:0014D83C       IRES_ADDRSPACE_PROTOCOLREVISION_4
 0023:0014D848       IRES_EDMA3CHAN_PROTOCOLREVISION_5
 0023:0014D854       IRES_VICP2_PROTOCOLREVISION_5
 0023:0014D860       IRES_HDVICP_PROTOCOLREVISION_3
 0023:0014D86C       IRES_ADDRSPACE_PROTOCOLREVISION_5
 0023:0014D878       IRES_EDMA3CHAN_PROTOCOLREVISION_6
 0023:0014D884       IRES_VICP2_PROTOCOLREVISION_6
 0023:0014D890       IRES_HDVICP_PROTOCOLREVISION_4
 0023:0014D89C       IRES_ADDRSPACE_PROTOCOLREVISION_6
 0023:0014D8A8       IRES_EDMA3CHAN_PROTOCOLREVISION_7
 0023:0014D8B4       IRES_VICP2_PROTOCOLREVISION_7
 0023:0014D8C0       IRES_HDVICP_PROTOCOLREVISION_5
 0023:0014D8CC       IRES_ADDRSPACE_PROTOCOLREVISION_7
 0023:0014D8D8       MPEG2VENC_TI_MP2VENC_PARAMS
 0023:0014D924       IRES_EDMA3CHAN_PROTOCOLREVISION_8
 0023:0014D930       IRES_VICP2_PROTOCOLREVISION_8
 0023:0014D93C       IRES_HDVICP_PROTOCOLREVISION_6
 0023:0014D948       IRES_ADDRSPACE_PROTOCOLREVISION_8
 0023:0014D954       IRES_EDMA3CHAN_PROTOCOLREVISION_9
 0023:0014D960       IRES_VICP2_PROTOCOLREVISION_9
 0023:0014D96C       IRES_HDVICP_PROTOCOLREVISION_7
 0023:0014D978       IRES_ADDRSPACE_PROTOCOLREVISION_9
 0023:0014D984       IRES_EDMA3CHAN_PROTOCOLREVISION_10
 0023:0014D990       IRES_HDVICP_PROTOCOLREVISION_8
 0023:0014D99C       IRES_VICP2_PROTOCOLREVISION_10
 0023:0014D9A8       IRES_EDMA3CHAN_PROTOCOLREVISION_11
 0023:0014D9B4       IRES_ADDRSPACE_PROTOCOLREVISION_10
 0023:0014D9C0       IRES_MEMTCM_PROTOCOLREVISION
 0023:0014D9CC       H264VENC_TI_IH264VENC
 0023:0014D9F8       H264VENC_TI_IALG
 0023:0014DA1C       IRES_EDMA3CHAN_PROTOCOLREVISION_12
 0023:0014DA28       IRES_VICP2_PROTOCOLREVISION_11
 0023:0014DA34       IRES_HDVICP_PROTOCOLREVISION_9
 0023:0014DA40       IRES_ADDRSPACE_PROTOCOLREVISION_11
 0023:0014DA4C       IRES_MEMTCM_PROTOCOLREVISION_0
 0023:0014DA58       H264VENC_TI_IRES
 0023:0014DA80       H264VENC_TI_VUIPARAMBUFFER
 0023:0014DAC4       H264VENC_TI_CUSTOMSCALINGMATRIX
 0023:0014DBA8       IH264VENC_PARAMS
 0023:0014DC24       H264VENC_TI_IH264VENC_DYNAMICPARAMS
 0023:0014DCF8       IRES_EDMA3CHAN_PROTOCOLREVISION_13
 0023:0014DD04       IRES_HDVICP_PROTOCOLREVISION_10
 0023:0014DD10       IRES_VICP2_PROTOCOLREVISION_12
 0023:0014DD1C       IRES_ADDRSPACE_PROTOCOLREVISION_12
 0023:0014DD28       IRES_MEMTCM_PROTOCOLREVISION_1
 0023:0014DD34       H264VENC_TI_CustomSeqScaleMatrix
 0023:0014DE18       IRES_EDMA3CHAN_PROTOCOLREVISION_14
 0023:0014DE24       HDVICP_TI_CustomSeqScale_Matrices
 0023:0014E1A4       IRES_EDMA3CHAN_PROTOCOLREVISION_15
 0023:0014E1B0       IRES_EDMA3CHAN_PROTOCOLREVISION_16
 0023:0014E1BC       IRES_EDMA3CHAN_PROTOCOLREVISION_17
 0023:0014E1C8       IRES_EDMA3CHAN_PROTOCOLREVISION_18
 0023:0014E1D4       IRES_EDMA3CHAN_PROTOCOLREVISION_19
 0023:0014E1E0       IRES_EDMA3CHAN_PROTOCOLREVISION_20
 0023:0014E1EC       IRES_EDMA3CHAN_PROTOCOLREVISION_21
 0023:0014E1F8       IRES_EDMA3CHAN_PROTOCOLREVISION_22
 0023:0014E204       IRES_EDMA3CHAN_PROTOCOLREVISION_23
 0023:0014E210       IRES_EDMA3CHAN_PROTOCOLREVISION_24
 0023:0014E21C       idForDisabledThread
 0023:0014E220       prefixMask
 0023:0014E224       IRESMAN_MEMTCM
 0023:0014E23C       IRES_MEMTCM_PROTOCOLREVISION_2
 0023:0014E248       IRESMAN_MEMTCM_CONSTRUCTFXNS
 0023:0014E260       IRESMAN_HDVICP
 0023:0014E278       memfd_0
 0023:0014E27C       IRES_HDVICP_PROTOCOLREVISION_11
 0023:0014E288       IRESMAN_HDVICP_CONSTRUCTFXNS
 0023:0014E2A0       ia_enhaacplus_enc_countFuncTable
 0023:0014E2E4       EAACPLUSENCODER_ITTIAM_IEAACPLUSENCODER
 0023:0014E310       EAACPLUSENCODER_ITTIAM_IALG
 0023:0014E334       EAACPLUSENCODER_ITTIAM_PARAMS
 0023:0014E3A4       ia_enhaacplus_enc_blockType2windowShape
 0023:0014E3B4       INV_2_POW
 0023:0014E3C4       memfd_1
 0023:0014E3C8       IRESMAN_ADDRSPACE
 0023:0014E3E0       IRES_ADDRSPACE_PROTOCOLREVISION_13
 0023:0014E3EC       IRESMAN_ADDRSPACE_CONSTRUCTFXNS
 0023:0014E404       G711ENC_SUN_PARAMS
 0023:0014E418       G711ENC_SUN_IG711ENC
 0023:0014E444       G711ENC_SUN_IALG
 0023:0014E488       cmem_fd
 0023:0014E48C       CMEM_DEFAULTPARAMS
 0023:0014E498       EDMA_dmaops_fd
 0023:0014E49C       EDMA_memfd
 0023:0014E4A0       VICP_irqk_fd
 0024:0014E4A8       stdin@@GLIBC_2.4
 0024:0014E4AC       stdout@@GLIBC_2.4
 0024:0014E4B0       stderr@@GLIBC_2.4
 0024:0014E4B8       optarg@@GLIBC_2.4
 0024:0014E4BC       completed.5904
 0024:0014E4C0       usbError
 0024:0014E4C4       videoLost
 0024:0014E4C8       usbreset
 0024:0014E4CC       usbsatus
 0024:0014E4D0       ledFd
 0024:0014E4D4       ledOff
 0024:0014E4D8       ledColor
 0024:0014E4DC       i.5349
 0024:0014E4E0       configStrings
 0024:0014EEE0       hCapture
 0024:0014EEE4       extslice
 0024:0014EEE8       Pslice
 0024:0014EEEC       Islice
 0024:0014EEF0       EncSize
 0024:0014EEF4       outBuf
 0024:0014EEF8       outFile
 0024:0014EEFC       nooutput
 0024:0014EF00       usbErr
 0024:0014EF04       osdDataCnt
 0024:0014EF08       maxEncSize
 0024:0014EF0C       nostream
 0024:0014EF10       nofifo
 0024:0014EF14       oldPhy
 0024:0014EF18       s_SerialHandleMutex
 0024:0014EF30       s_CmdQueueMutex
 0024:0014EF48       s_StatusMutex
 0024:0014EF60       s_ABDM368StateMutex
 0024:0014EF78       s_ABDM368SelfCheckMutex
 0024:0014EF90       s_CmdSendArrayMutex
 0024:0014EFA8       s_slEncodeMode
 0024:0014EFAC       s_EncSerialProtocolCmdMutex
 0024:0014EFC4       s_bInit.6812
 0024:0014EFC8       s_tFrameCapture.6811
 0024:0014EFF0       s_bPassed
 0024:0014EFF4       s_ptSerialHandle
 0024:0014EFF8       s_tpRecBuff
 0024:0014EFFC       s_tpSendBuff
 0024:0014F000       s_tEncSerialProtocolData
 0024:0014F020       s_ptCmdQueue
 0024:0014F024       s_tCommManagement
 0024:0014F040       s_slTaskCnt
 0024:0014F044       s_tStatus
 0024:0014F049       s_bStatusValid
 0024:0014F04A       s_tABDM368State
 0024:0014F058       s_tABDM368SelfCheck
 0024:0014F05C       s_atCmdSendArray
 0024:0014F084       s_bStreamDisable
 0024:0014F088       _entries
 0024:0014F0A4       _params
 0024:0014F0C0       ti_sdo_ce_dvtLog
 0024:0014F0C4       Memory_skipVirtualAddressTranslation
 0024:0014F0C6       ti_sdo_ce_Engine_noCommName
 0024:0014F0C8       Global_useLinkArbiter
 0024:0014F0CC       VISA_checked
 0024:0014F0CE       RMAN_numRegistryEntries
 0024:0014F0D0       RMAN_registryEntries
 0024:0014F0D4       RMAN_registryResmanArgs
 0024:0014F0D8       ti_sdo_fc_edma3_EDMA3_physicalId
 0024:0014F0DC       _VICP2_dm355
 0024:0014F0DE       _VICPSYNC_dm355
 0024:0014F0E0       ADDRSPACE_noTranslation
 0024:0014F0E4       ti_sdo_ce_alg_ALG_useHeap
 0024:0014F0E8       ti_sdo_ce_alg_ALG_useCache
 0024:0014F0EC       _ALG_groupRefCount
 0024:0014F13C       _Algorithm_lockOwner
 0024:0014F18C       engineAlgs1
 0024:0014F1BC       ti_sdo_dmai_GTMask
 0024:0014F1C4       logLevelSetByEnv
 0024:0014F1C8       curInit.3764
 0024:0014F1CC       ti_sdo_ce_video1_VIDENC1_curTrace
 0024:0014F1D4       init
 0024:0014F1D8       curTrace
 0024:0014F1E0       Server_holdingTraceToken
 0024:0014F1E4       curTrace_0
 0024:0014F1EC       stubFxnsList
 0024:0014F1F4       curInit
 0024:0014F1F8       engineList
 0024:0014F200       serverLock
 0024:0014F204       traceLock
 0024:0014F208       engineLock
 0024:0014F20C       gppCommId
 0024:0014F210       serverTab
 0024:0014F21C       localEngine
 0024:0014F220       traceToken
 0024:0014F224       Engine_alwaysCollectDspTrace
 0024:0014F228       curTrace_1
 0024:0014F230       curTrace_2
 0024:0014F238       curInit_0
 0024:0014F23C       curInit_1
 0024:0014F240       curInit.3668
 0024:0014F244       curTrace_3
 0024:0014F24C       curInit_2
 0024:0014F250       curTrace_4
 0024:0014F258       Comm_ATTRS
 0024:0014F264       curInit_3
 0024:0014F268       curTrace_5
 0024:0014F270       mut
 0024:0014F288       curTrace_6
 0024:0014F290       contigBufList
 0024:0014F294       moduleLock
 0024:0014F298       curInit_4
 0024:0014F29A       cmemInitialized
 0024:0014F29C       numCmemBlocks
 0024:0014F2A0       curInit_5
 0024:0014F2A4       curTrace_7
 0024:0014F2AC       exitFxnList
 0024:0014F2B0       curInit_6
 0024:0014F2B4       taskKey
 0024:0014F2B8       curTrace_8
 0024:0014F2C0       curInit_7
 0024:0014F2C4       Lock_system
 0024:0014F2C8       Lock_ATTRS
 0024:0014F2CC       mutex
 0024:0014F2E4       GTConfig_gettimeofdayInit
 0024:0014F2E8       initTime
 0024:0014F2EC       curInit_8
 0024:0014F2F0       traceOutStreamOpenedHere
 0024:0014F2F4       mattrs
 0024:0014F2F8       GT_config_traceOutStream
 0024:0014F2FC       curInit_9
 0024:0014F300       curTrace_9
 0024:0014F308       curInit_10
 0024:0014F30C       curTrace_10
 0024:0014F314       curTrace_11
 0024:0014F31C       curInit_11
 0024:0014F320       Qaccum.3453
 0024:0014F324       prev_Q.3408
 0024:0014F328       prev_Bj.3387
 0024:0014F32C       prev_Q.3431
 0024:0014F330       dat_copcmbx
 0024:0014F334       dat_modmbx
 0024:0014F338       dat_sttime
 0024:0014F33C       dat_stbufsw
 0024:0014F340       dat_tab_addrmod
 0024:0014F344       dat_tab_addrmodDst
 0024:0014F348       dat_tmp_irq2
 0024:0014F34C       dat_tmp_irq1A
 0024:0014F350       dat_tmp_irq1B
 0024:0014F354       dat_tmp_irq1C
 0024:0014F358       dat_tmp_irq1P1
 0024:0014F35C       dat_tmp_irq1P2
 0024:0014F360       dat_tmp_irq0
 0024:0014F364       dat_int_arm
 0024:0014F368       dat_int_copc
 0024:0014F36C       dat_int_bp
 0024:0014F370       dat_copcrun
 0024:0014F374       dat_tmp1
 0024:0014F378       dat_StoreP2
 0024:0014F37C       dat_CCNT
 0024:0014F380       dat_CCNT_rev
 0024:0014F384       dat_state_1
 0024:0014F388       dat_cnt_1
 0024:0014F38C       dat_Delta
 0024:0014F390       dat_oddmbdelta
 0024:0014F394       dat_sign
 0024:0014F398       dat_AddrMod
 0024:0014F39C       dat_Ofst
 0024:0014F3A0       dat_mbHalfSizeX
 0024:0014F3A4       dat_RefCnt
 0024:0014F3A8       dat_RefParam
 0024:0014F3AC       dat_RefParam2
 0024:0014F3B0       dat_RefFlag
 0024:0014F3B4       dat_stat
 0024:0014F3B8       dat_tscounter
 0024:0014F3BC       dat_addrA
 0024:0014F3C0       dat_addrB
 0024:0014F3C4       dat_addrC
 0024:0014F3C8       dat_copcMBX
 0024:0014F3CC       dat_mbSizeX
 0024:0014F3D0       junk
 0024:0014F3D4       dat_refY
 0024:0014F3D8       dat_refChrom_center
 0024:0014F3DC       dat_SAD8
 0024:0014F3E0       dat_flag
 0024:0014F3E4       dat_MVH8
 0024:0014F3E8       dat_MVV8
 0024:0014F3EC       dat_copcMBXMV
 0024:0014F3F0       dat_MVmem
 0024:0014F3F4       dat_storeMVbase
 0024:0014F3F8       dat_temp
 0024:0014F3FC       dat_temp1
 0024:0014F400       dat_temp2
 0024:0014F404       dat_intradump
 0024:0014F408       dat_pSkipdump
 0024:0014F40C       dat_tmpBreg
 0024:0014F410       dat_tmpCreg
 0024:0014F414       dat_tmpMBCtr
 0024:0014F418       temporal_reference.4249
 0024:0014F41C       _resmanInternalState
 0024:0014F420       smgr
 0024:0014F424       _freeFxn
 0024:0014F428       _allocFxn
 0024:0014F42C       _VICP2_lock
 0024:0014F430       gtInit
 0024:0014F434       _VICP2_pscBase
 0024:0014F438       _VICP2_dmaViewConfigBase
 0024:0014F43C       _VICP2_configBase
 0024:0014F440       _initialized
 0024:0014F444       _GROUPUTILS_sem
 0024:0014F448       gtInit_0
 0024:0014F44C       _resmanInternalState_0
 0024:0014F454       _GROUPUTILS_sem_0
 0024:0014F458       currentAlg
 0024:0014F45C       _initialized_0
 0024:0014F460       _freeFxn_0
 0024:0014F464       _dchmapExists
 0024:0014F468       _allocFxn_0
 0024:0014F46C       gtInit_1
 0024:0014F470       internalState
 0024:0014F474       pResMgrObj
 0024:0014F478       pResTable
 0024:0014F47C       _EDMA3_baseAddress
 0024:0014F480       _EDMA3_pOpens
 0024:0014F484       _EDMA3_lock
 0024:0014F488       rmanInit
 0024:0014F48A       resTable
 0024:0014F490       rmanYieldArgs
 0024:0014F538       _initialized_1
 0024:0014F53C       _resmanInternalState_1
 0024:0014F544       total_time.9579
 0024:0014F548       frame_count.9578
 0024:0014F54C       timeMask
 0024:0014F550       lastTime.2219
 0024:0014F554       initModFlags
 0024:0014F558       modNameList
 0024:0014F55C       curInit_12
 0024:0014F560       _initialized_2
 0024:0014F564       _resmanInternalState_2
 0024:0014F568       smgr_0
 0024:0014F56C       _freeFxn_1
 0024:0014F570       _allocFxn_1
 0024:0014F574       armtcmAddr
 0024:0014F578       _MEMTCM_lock
 0024:0014F57C       gtInit_2
 0024:0014F580       _initialized_3
 0024:0014F584       _HDVICP_lock
 0024:0014F588       gtInit_3
 0024:0014F58C       allocFxn
 0024:0014F590       freeFxn
 0024:0014F594       _resmanInternalState_3
 0024:0014F598       registerBaseAddress
 0024:0014F59C       pscBaseAddress
 0024:0014F5A0       memoryBaseAddress
 0024:0014F5A4       gtInit_4
 0024:0014F5A8       shmTotal
 0024:0014F5AC       shmCount
 0024:0014F5B0       shmAddrs
 0024:0014F600       shmIndex
 0024:0014F650       curInit_13
 0024:0014F654       _initialized_4
 0024:0014F658       gtInit_5
 0024:0014F65C       _resmanInternalState_4
 0024:0014F664       ref_count
 0024:0014F668       EDMA_basePhysAddr
 0024:0014F66C       EDMA_refCount
 0024:0014F670       VICP_refCount
 0024:0014F674       resource_registered
 0024:0014F68C       ahCapture
 0024:0014F690       tSelfCheckData
 0024:0014F694       tStatusInfo
 0024:0014F6A4       hSendOutFifo
 0024:0014F6A8       hDstBuf
 0024:0014F6AC       hSendInFifo
 0024:0014F6B0       hCapBuf
 0024:0014F6B4       sliceEnc
 0024:0014F6F4       timeStamp
 0024:0014F774       RMAN_FREE_ENTRIES
 0024:0014F78C       _ALG_sems
 0024:0014F7DC       RMAN_TABLE
 0024:0014F808       g_protocolArgs
 0024:0014F81C       hSndBuf
 0024:0014F820       ti_sdo_ce__dummy__
 0024:0014F824       ti_sdo_ce_alg_GTMask
 0024:0014F82C       Queue_ATTRS
 0024:0014F830       VICPSYNC_PARAMS
 0024:0014F834       _VICP2_buffLens
 0024:0014F874       _VICP2_bufSize
 0024:0014F878       _VICP2_buffOffsets
 0024:0014F8B8       _VICP2_regSize
 0024:0014F8BC       ti_sdo_fc_ires_vicp2_GTMask
 0024:0014F8C4       IRESMAN_VICP2_DEFAULTPARAM
 0024:0014F8D0       ti_sdo_fc_ires_grouputils_GTMask
 0024:0014F8D8       IRESMAN_GROUPUTILS_DEFAULTPARAM
 0024:0014F8E4       ti_sdo_fc_ires_edma3chan_GTMask
 0024:0014F8EC       IRESMAN_EDMA3CHAN_DEFAULTPARAM
 0024:0014F8F8       ti_sdo_fc_edma3_GTMask
 0024:0014F900       _RMAN_lock
 0024:0014F904       ti_sdo_fc_rman_GTMask
 0024:0014F90C       ti_sdo_fc_ires_nullres_GTMask
 0024:0014F914       gPatternMaskingSEQBUFs
 0024:0014F916       gPatternMaskingOthers
 0024:0014F918       gPatternMaskingIMGBUFs
 0024:0014F91C       arm968_time
 0024:0014F920       HDVICPSYNC_PARAMS
 0024:0014F924       IRESMAN_MEMTCM_DEFAULTPARAM
 0024:0014F930       ti_sdo_fc_ires_memtcm_GTMask
 0024:0014F938       IRESMAN_HDVICP_DEFAULTPARAM
 0024:0014F94C       ti_sdo_fc_ires_hdvicp_GTMask
 0024:0014F954       ti_sdo_fc_utils_sharedMem_sharedMemory_GTMask
 0024:0014F95C       ti_sdo_fc_ires_addrspace_GTMask
 0024:0014F964       IRESMAN_ADDRSPACE_DEFAULTPARAM
 0025:0014F970       _end_0
 0000:00000000 Abs   BuildAttributes$$ARM_ISAv5$M$E$P$PE$A:L22$X:L11$S22$IEEE1$IW$USESV6$_STKCKD$USESV7$_SHL$OTIME$EBA8$REQ8$PRES8$EABIv2
 0000:00000000 Abs   BuildAttributes$$ARM_ISAv5$M$E$P$PE$A:L22$X:L11$S22$IEEE1$IW$USESV6$_STKCKD$USESV7$_SHL$OSPACE$EBA8$EABIv2
 0000:00000000 Abs   BuildAttributes$$ARM_ISAv5$M$E$P$PE$A:L22$X:L11$S22$IEEE1$IW$USESV6$_STKCKD$USESV7$_SHL$OSPACE$EBA8$PRES8$EABIv2
 0000:00000000 Abs   BuildAttributes$$ARM_ISAv5$M$E$P$PE$A:L22$X:L11$S22$IEEE1$IW$USESV6$_STKCKD$USESV7$_SHL$OTIME$EBA8$PRES8$EABIv2
 0000:00000000 Abs   shift
 0000:0014E4A4 Abs   __bss_start__
 0000:0014062C Abs   __exidx_end
 0000:0014F970 Abs   __end__
 0000:0014F970 Abs   __bss_end__
 0000:0014E4A4 Abs   __bss_start
 0000:0014F970 Abs   _bss_end__
 0000:0014F970 Abs   _end
 0000:0014E4A4 Abs   _edata
 0000:0013FC6C Abs   __exidx_start

Program entry point at 0008:00000000
