
 Start         Length     Name                   Class
 0003:00000000 000484024H .text                  CODE
 0004:00000000 000452E1CH .data                  DATA
 0005:00000000 0057291C0H .bss                   BSS
 0001:00000000 000000008H EXIDX                  DATA


  Address         Publics by Value

 0003:0E600000       start
 0003:0E60D9B0       nullsub_45
 0003:0E60EE10       nullsub_46
 0003:0E60F958       nullsub_47
 0003:0E6106E8       nullsub_48
 0003:0E612CBC       nullsub_49
 0003:0E6187C8       nullsub_50
 0003:0E619EB0       nullsub_51
 0003:0E61CC84       nullsub_1
 0003:0E628138       aDjiAdjGetNoDat
 0003:0E62815C       aDecidePivadjta
 0003:0E628174       aS_0
 0003:0E628190       aStillmodeDShin
 0003:0E6281D4       aAmbaAdjpivcont
 0003:0E6281FC       aSStart_0
 0003:0E628208       aSWbgainGainr5d
 0003:0E628240       aPivStillmodeDS
 0003:0E628288       aSEnd
 0003:0E628294       aLoadbin
 0003:0E62829C       aSavebin
 0003:0E6282A4       aSize6dTypeDAdd
 0003:0E6282E0       aEnablebintest
 0003:0E6282F0       aVideo
 0003:0E6282F8       aUsageTImgprocA
 0003:0E628318       aSavebinVideoPh
 0003:0E628364       aLoadbinVideoPh
 0003:0E6283CC       aDjiaudiodemuxg
 0003:0E6283EC       aSUGetTheAudioR
 0003:0E628414       aDjiaudiodecget
 0003:0E628430       aBeepplaybackta
 0003:0E628444       aPlay
 0003:0E62844C       aStop_2
 0003:0E628454       aWorngSettingFo
 0003:0E628480       aWrongAudioDebu
 0003:0E6284B4       aBeep
 0003:0E6284BC       aDebug_0
 0003:0E6284C4       aWorngSettingFo_0
 0003:0E6284EC       aSetoutput
 0003:0E6284F8       aAucodecSetAudi
 0003:0E62852C       aSetinput
 0003:0E628538       aAucodecSetAudi_0
 0003:0E628568       aWrite
 0003:0E628570       aAucodecAmbaaud
 0003:0E628594       aRead
 0003:0E62859C       aAucodecAmbaaud_0
 0003:0E6285CC       aAmbadspTotalca
 0003:0E6285EC       aAmbadspTotalno
 0003:0E628610       aDspDebugLogDat
 0003:0E62862C       a3x32BitOsdBuff
 0003:0E628654       aBufferForImage
 0003:0E628674       aBufferForImage_0
 0003:0E628690       aBufferForAudio
 0003:0E6286C0       aBufferForAudio_0
 0003:0E6286EC       aDspWorkAreaD
 0003:0E628700       aPhotoLiveview
 0003:0E628710       aAmbadspStillca
 0003:0E628738       aMoveRec
 0003:0E628744       aAmbadspVideore
 0003:0E62876C       aStillPlayback
 0003:0E62877C       aAmbadspStillpb
 0003:0E6287A4       aVideoPlayback
 0003:0E6287B4       aAmbadspVideopb
 0003:0E6287DC       aXcode_1
 0003:0E6287E4       aAmbadspVideoxc
 0003:0E628810       aTuing
 0003:0E628818       aAmbadspVideotu
 0003:0E628844       aBufferForUserc
 0003:0E628864       aAmbadspTotalus_0
 0003:0E628888       aAmbabufferinit
 0003:0E628898       aKAssertAtSD_14
 0003:0E6288AC       aDjinoncachedbu
 0003:0E6288C4       aSFreeMemorySpa
 0003:0E6288EC       aSAllocateNonca
 0003:0E6289B0       aPhotopredictqp
 0003:0E6289C8       aErrSNbppOverDs
 0003:0E6289F4       aBppUNbppU
 0003:0E628A1C       aNoDataPrgbdata
 0003:0E628A44       aTbppUAfdatafv2
 0003:0E628B3C       a5m2592x1944
 0003:0E628B4C       a9m4000x2250
 0003:0E628B5C       a6m3264x1836
 0003:0E628B6C       a4m2592x1458
 0003:0E628B7C       a4096x2160p25
 0003:0E628B8C       a4096x2160p24
 0003:0E628B9C       a4k2kp30
 0003:0E628BA4       a4k2kp25
 0003:0E628BAC       a4k2kp24
 0003:0E628BB4       a1440p60
 0003:0E628BBC       a3840x1920p30
 0003:0E628BCC       a1520p30
 0003:0E628BD4       a1520p25
 0003:0E628BDC       a1520p24
 0003:0E628BE4       a1080p120
 0003:0E628BF0       a1080p60
 0003:0E628BF8       a1080p50
 0003:0E628C00       a1080p48
 0003:0E628C08       a1080p30_0
 0003:0E628C10       a1080p25
 0003:0E628C18       a1080p24
 0003:0E628C20       a1920x960p60
 0003:0E628C2C       a1920x960p30
 0003:0E628C38       a720p240
 0003:0E628C40       a720p120
 0003:0E628C48       a720p60
 0003:0E628C50       a720p50
 0003:0E628C58       a720p48
 0003:0E628C60       a720p30_0
 0003:0E628C68       a720p25
 0003:0E628C70       a720p24
 0003:0E628D98       aDjiJpegQuality
 0003:0E628DAC       aJpggentaskentr
 0003:0E628DBC       aJpggenProcessY
 0003:0E628DDC       aBaoDbgInJpggen
 0003:0E628E28       aBaoDbgInJpggen_0
 0003:0E628ECC       aBaoDbgYuvSendi
 0003:0E628F08       aBaoDbgYuvCntDA
 0003:0E628F4C       aBaoDbgYuvIpcRe
 0003:0E628F80       aDSvnViewA9sCam_2
 0003:0E62901C       aBaoDbgYuvAmbai
 0003:0E629068       aBaoDbgYuvSleep
 0003:0E629088       aBaoDbgYuvGetBa
 0003:0E6290C8       aBaoDbgYuvLinux
 0003:0E629100       aBaoDbgYuvNotCl
 0003:0E629140       aBaoDbgYuvNotCl_0
 0003:0E629190       aBaoDbgYuvNotCl_1
 0003:0E6291D8       aBaoDbgYuvNotCl_2
 0003:0E629218       aErrSTargetbppO
 0003:0E629248       aStartGenerateT
 0003:0E629268       aReleaseThmBufD
 0003:0E62927C       aSUStartToHoriz
 0003:0E6292B8       aEndGenerateThu
 0003:0E6292D0       aYuvinfoPitchUY
 0003:0E629310       aDownscaleSpent
 0003:0E629340       aStartGenerateS
 0003:0E629360       aReleaseScrBufD
 0003:0E629374       aEndGenerateScr
 0003:0E62938C       aStartGenerateM
 0003:0E6293A4       aReleaseMainBuf
 0003:0E6293B8       aEndGenerateMai
 0003:0E6293CC       aJpegcntD
 0003:0E6293D8       aJpegbitsRemain
 0003:0E6293F4       aStorageEventha
 0003:0E62940C       aSDPjpeginfoPic
 0003:0E62944C       aJpegBitstreamO
 0003:0E62949C       aSentToJpeginfo
 0003:0E6294B8       aSetGAmbastorag
 0003:0E6294DC       aErrAmbastorage
 0003:0E629500       aErrTakeGAmbast
 0003:0E629528       aFrametypeRawPi
 0003:0E629550       aFrametypeClean
 0003:0E629580       aFrametypeMainY
 0003:0E6295AC       aFrametypeMainU
 0003:0E6295D8       aFrametypeScrPi
 0003:0E62961C       aFrametypeMainP
 0003:0E629660       aAmbakalMsgqueu_1
 0003:0E629698       aDjiexifgenerat
 0003:0E6296FC       aSDTheWbGainrUG
 0003:0E629760       aSUGetDjiUstPho
 0003:0E629788       aStoragetaskent
 0003:0E6297A4       aAmbakalMsgqueu_2
 0003:0E6297E4       aFrametypeMainP_0
 0003:0E62982C       aFrametypeThmPi
 0003:0E629874       aFrametypeScrPi_0
 0003:0E6298BC       aMovieThumbnail
 0003:0E6298D4       aSDSdCardIsFull
 0003:0E6298F0       aSDDjipanofname
 0003:0E629914       aSDAmbadcfCreat
 0003:0E629940       aStillFileNameS
 0003:0E629954       a4d02d02d02d02d
 0003:0E629974       aSTheCurrentTim
 0003:0E629990       aSU1gCaptureNul
 0003:0E6299C4       aSU2gCaptureNul
 0003:0E6299F8       aSavedYMovieThu
 0003:0E629A18       aErrWriteYMovie
 0003:0E629A3C       aSavedUvMovieTh
 0003:0E629A60       aErrWriteUvMovi
 0003:0E629A84       aSOpenFileSFail
 0003:0E629AB4       aSUErrPexiffmti
 0003:0E629AE8       aBaoDbgJpgtypeT
 0003:0E629B78       aBaoDbgExifUUUU
 0003:0E629BC0       aBaoDbgStoraget
 0003:0E629C08       aBaoDbgStoraget_0
 0003:0E629C48       aBaoDbgSendingH
 0003:0E629C7C       aBaoDbgCntDAmba
 0003:0E629CBC       aBaoDbgIpcRetur
 0003:0E629CEC       aDSvnViewA9sCam_0
 0003:0E629D88       aBaoDbgAmbaipcC
 0003:0E629DD0       aBaoDbgSleeping
 0003:0E629DEC       aBaoDbgGetBackH
 0003:0E629E38       aBaoDbgLinuxHdr
 0003:0E629E68       aBaoDbgNotClear
 0003:0E629EA4       aBaoDbgNotClear_0
 0003:0E629EF0       aBaoDbgNotClear_1
 0003:0E629F34       aBaoDbgSaveThum
 0003:0E629F54       aBaoDbgImageSto
 0003:0E629F8C       aBaoDbgClearHdr
 0003:0E629FD4       aSavedJpegS
 0003:0E629FE4       aSetTheDngInfoF
 0003:0E62A000       aCorrectTheDngB
 0003:0E62A020       aStoreTheDngSFa
 0003:0E62A03C       aGetFileExtPosE
 0003:0E62A054       aDng_2
 0003:0E62A05C       aSaveJpegFail
 0003:0E62A070       aCreateJpegFail
 0003:0E62A09C       aCreateJpegFail_0
 0003:0E62A0B4       aSavedJpegS_0
 0003:0E62A0C8       aSaveJpegFail_0
 0003:0E62A0DC       aCreateJpegFail_1
 0003:0E62A108       aCreateJpegFail_2
 0003:0E62A120       aSetTheDngInfoF_0
 0003:0E62A13C       aCorrectTheDngB_0
 0003:0E62A15C       aStoreTheDngSFa_0
 0003:0E62A178       aInvaidUserSett
 0003:0E62A1A4       aBaoDbgClearHdr_0
 0003:0E62A1D8       aErrCreatingGAm
 0003:0E62A204       aAmbacapturesto
 0003:0E62A21C       aBurstStop
 0003:0E62A228       aNumcaptureD
 0003:0E62A238       aCurrentModeDoe
 0003:0E62A25C       aCaptureStart
 0003:0E62A270       aActiveRawHDVD
 0003:0E62A28C       aTotalCaptureNu
 0003:0E62A2B8       aDjiAllocateRaw
 0003:0E62A2E8       aCaptureDFrameS
 0003:0E62A2FC       aErrStillCaptur
 0003:0E62A328       aErrStillCaptur_0
 0003:0E62A358       aSendCaptureSta
 0003:0E62A374       aSBeyondProcess
 0003:0E62A394       aRawDataReadyAd
 0003:0E62A3B0       aAmbakalMsgqueu
 0003:0E62A3E8       aRawcapcntD
 0003:0E62A3F8       aStillCfa3aData
 0003:0E62A414       aStillRgb3aData
 0003:0E62A430       aGetLcdQvYuvDat
 0003:0E62A444       aGetTvQvYuvData
 0003:0E62A458       aGetThmYuvData
 0003:0E62A46C       aAmbakalMsgqueu_0
 0003:0E62A4A4       aGetScrYuvData
 0003:0E62A4B8       aGetMainYuvData
 0003:0E62A4CC       aNotEncodeModeS
 0003:0E62A4E8       aSetGCaptureEve
 0003:0E62A50C       aInLiveviewCmdL_0
 0003:0E62A528       aOutLiveviewCmd_0
 0003:0E62A540       aInAmbapllSetop_1
 0003:0E62A55C       aOutAmbapllSeto_2
 0003:0E62A57C       aStartSensorCon_0
 0003:0E62A59C       aEndSensorConfi_0
 0003:0E62A5B8       aShutterTimeDMs
 0003:0E62A5D0       aBackToLiveview
 0003:0E62A5E8       aBackToLiveview_0
 0003:0E62A5FC       aBackToLiveview_1
 0003:0E62A628       aBackToLiveview_2
 0003:0E62A64C       aInAmbapllSetid
 0003:0E62A664       aOutAmbapllSeti
 0003:0E62A680       aSetPhotoLivevi
 0003:0E62A69C       aLeaveAmbacaptu
 0003:0E62A6C4       aCaptureDone_0
 0003:0E62A6D4       aQuickviewtimeu
 0003:0E62A6E4       aReceicedCaptur
 0003:0E62A704       aGCaptureQvcntD
 0003:0E62A718       aReleaseLcdBufD
 0003:0E62A72C       aReleaseTvBufD
 0003:0E62A740       aStillCapturePr
 0003:0E62A760       aKeydetectD
 0003:0E62A780       aSensorstillcon
 0003:0E62A7A0       aSensorstillcon_0
 0003:0E62A7C0       aRawcapstartD
 0003:0E62A7E0       aRawcapdoneD
 0003:0E62A800       aSensorliveview
 0003:0E62A820       aSensorliveview_0
 0003:0E62A840       aDspliveviewsta
 0003:0E62A860       aDspliveviewdon
 0003:0E62A880       aRaw2rawstartD
 0003:0E62A8A0       aRaw2rawdoneD
 0003:0E62A8C0       aRaw2yuvstartD
 0003:0E62A8E0       aMainyuvdoneD
 0003:0E62A900       aLcdqvyuvdoneD
 0003:0E62A920       aTvqvyuvdoneD
 0003:0E62A940       aThmyuvstartD
 0003:0E62A960       aThmyuvdoneD
 0003:0E62A980       aScryuvstartD
 0003:0E62A9A0       aScryuvdoneD
 0003:0E62A9C0       aMainjpegstartD
 0003:0E62A9E0       aMainjpegdoneD
 0003:0E62AA00       aThmjpegstartD
 0003:0E62AA20       aThmjpegdoneD
 0003:0E62AA40       aScrjpegstartD
 0003:0E62AA60       aScrjpegdoneD
 0003:0E62AA80       aStoragestartD
 0003:0E62AAA0       aStoragedoneD
 0003:0E62AAE4       aSensorStillCon
 0003:0E62AB04       aRawCaptureD
 0003:0E62AB24       aSensorLiveview
 0003:0E62AB44       aDspBackToLivev
 0003:0E62AB64       aR2r3aGeneratio
 0003:0E62AB84       aTotalYuvGenera
 0003:0E62ABA4       aTotalJpegGener
 0003:0E62ABC4       aSspTotalProces
 0003:0E62ABE4       aStorageD
 0003:0E62AC04       aAmbacaptureTas
 0003:0E62AC1C       aSFailToCreateE_0
 0003:0E62AC3C       aSFailToCreateR
 0003:0E62AC60       aSFailToCreateY
 0003:0E62AC84       aSFailToCreateY_0
 0003:0E62ACA8       aAmbacaptureman
 0003:0E62ACC0       aAmbacaptureyuv
 0003:0E62ACD8       aAmbacapturejpg
 0003:0E62ACF0       aDjiquickviewti
 0003:0E62AD08       aSTimerChangeIn
 0003:0E62AD38       aSTimerChangeFa
 0003:0E62AD78       aPreparecleanra
 0003:0E62AD90       a2225S
 0003:0E62ADC4       aSrcctxPipeD_0
 0003:0E62ADD8       aSAmbadspImgini
 0003:0E62ADF4       aSAmbadspImgini_0
 0003:0E62AE10       aErrorAllocateN
 0003:0E62AE40       aPreparestatist
 0003:0E62AE58       a2226S
 0003:0E62AE8C       aPreparefastmod
 0003:0E62AEAC       a2227S
 0003:0E62AEE0       aGetWarpCompens_3
 0003:0E62AF04       aAmputcalibbpcM_1
 0003:0E62AF20       aAmputcalibvigM_0
 0003:0E62AF3C       aPreparelisofil
 0003:0E62AF58       a2228S
 0003:0E62AF8C       aLisoCurrentWid
 0003:0E62AFA4       aCurrentHeightD_0
 0003:0E62AFBC       aCurrentStartxD_0
 0003:0E62AFD4       aCurrentStartyD_0
 0003:0E62B034       aDjiDspImgFirDa
 0003:0E62B058       aDjiDspImgFirDa_0
 0003:0E62B0B4       aDjiDspImgFirDa_1
 0003:0E62B110       aDjiDspImgFirDa_2
 0003:0E62B168       aDjiDspImgFirDa_3
 0003:0E62B190       aDjiDspImgFirDa_4
 0003:0E62B1B8       aDjiDspImgFirDa_5
 0003:0E62B1E0       aDjiDspImgFirDa_6
 0003:0E62B20C       aPreparehisofil
 0003:0E62B228       aStartPrepareHi
 0003:0E62B24C       a2229S
 0003:0E62B280       aHisoCurrentWid
 0003:0E62B298       aCurrentHeightD_1
 0003:0E62B2AC       aCurrentStartxD_1
 0003:0E62B2C0       aCurrentStartyD_1
 0003:0E62B2D8       aImgsensorinfoS
 0003:0E62B300       aYuvgentaskentr
 0003:0E62B310       aSSkipForRawBuf
 0003:0E62B32C       aDisableBackgro
 0003:0E62B354       aTakeLcdBufD
 0003:0E62B364       aTakeTvBufD
 0003:0E62B374       aGenerateThmFor
 0003:0E62B3AC       aMovieFormatU
 0003:0E62B3BC       aQvLcdWidthDQvL
 0003:0E62B3E4       aTakeThmBufD
 0003:0E62B3F4       aTakeScrBufD
 0003:0E62B404       aQvTvWindowWidt
 0003:0E62B434       aTakeMainBufD
 0003:0E62B448       aSSkipForRawBuf_0
 0003:0E62B464       aStartR2yD
 0003:0E62B474       aYuvgenProcessY
 0003:0E62B494       aSSkipForRawBuf_1
 0003:0E62B4B0       aStartGenerateT_0
 0003:0E62B4D4       aGeneratingThum
 0003:0E62B4F0       aEndGenerateThu_0
 0003:0E62B50C       aStartGenerateS_0
 0003:0E62B530       aTakeSrcBufD
 0003:0E62B540       aEndGenerateScr_0
 0003:0E62B55C       aSSkipForRawBuf_2
 0003:0E62B578       aCurrentModeDoe_0
 0003:0E62B59C       aThereIsNoSuppo
 0003:0E62B5CC       aNoVcapIsr
 0003:0E62B5D8       aDbgCaptureTest
 0003:0E62B5EC       aStart_3
 0003:0E62B5F4       aDbgcaptestNumo
 0003:0E62B614       aDbgcaptestTime
 0003:0E62B634       aDbgcaptestDzoo
 0003:0E62B654       aStop_4
 0003:0E62B65C       aDcim
 0003:0E62B664       aMedia
 0003:0E62B66C       aDji_0
 0003:0E62B674       aDjidcfDmfmodeg
 0003:0E62B688       aSDjiustuserset
 0003:0E62B6B8       aDjidcfDmffidse
 0003:0E62B6CC       aSDjiromdatamis
 0003:0E62B704       aDjidcfDmffidge
 0003:0E62B718       aSDjiromdatamis_0
 0003:0E62B750       aSDjidcfDmfmode
 0003:0E62B770       aSDjidcfDmffidg
 0003:0E62B790       aMov_1
 0003:0E62B798       aMp4_1
 0003:0E62B7A4       aRootdriveShoul
 0003:0E62B7C4       aSetTheDcfOverf
 0003:0E62B7E4       aClearTheDcfOve
 0003:0E62B808       aWrongFileType
 0003:0E62B818       aPleaseEnterFul
 0003:0E62B830       aCanNotFindTheF
 0003:0E62B84C       aFileTypeIsConf
 0003:0E62B864       aIllegalDirname
 0003:0E62B87C       aIllegalDirnoD
 0003:0E62B890       aThisIsNotAVali
 0003:0E62B8B4       aIllegalFilenam
 0003:0E62B8CC       aIllegalFilenoD
 0003:0E62B8E0       aThisIsNotAVali_0
 0003:0E62B904       aCanNotFindTheF_0
 0003:0E62B920       aCanNotFindTheF_1
 0003:0E62B93C       aCanNotFindTheL
 0003:0E62B958       aThereIsNoValid
 0003:0E62B988       aCanNotFindTheP
 0003:0E62B9A8       aCanNotFindTheN
 0003:0E62B9C4       aInvalidFiletyp
 0003:0E62B9D8       aAlreadyReachTh
 0003:0E62BA08       aCanNotCreateNe
 0003:0E62BA20       aBeginToUpdateT
 0003:0E62BA50       aAmbadcfDeletef_2
 0003:0E62BA64       aAmbadcfDeletef
 0003:0E62BA7C       aAmbadcfDeletef_0
 0003:0E62BA94       aThisFileIsRead
 0003:0E62BAAC       aAmbadcfDeletef_1
 0003:0E62BAC4       aCanNotDeleteFi
 0003:0E62BAE4       aSFailedToRemov
 0003:0E62BB18       aDng_1
 0003:0E62BB20       aSUCurrentFileN
 0003:0E62BB54       aSrt_0
 0003:0E62BB5C       aSUCurrentFileN_0
 0003:0E62BB90       aHtml_0
 0003:0E62BB98       aBeginToDeleteP
 0003:0E62BBB8       aCanNotDeleteDi
 0003:0E62BBE0       aJpg_1
 0003:0E62BBF0       aCanNotUpdateCu
 0003:0E62BC08       aCanNotUpdatePr
 0003:0E62BC24       aCanNotUpdateNe
 0003:0E62BC3C       aInvalidDirNo
 0003:0E62BC4C       aInvalidFileNo
 0003:0E62BC60       aSDirnoUFilenoU
 0003:0E62BC78       aSInfo
 0003:0E62BC9C       a05u05u0x02x0x0
 0003:0E62BCF8       aS_10
 0003:0E62BD00       a05u05u
 0003:0E62BD10       a0x02x
 0003:0E62BD18       aSDirUInfo
 0003:0E62BD44       aJpegbittable
 0003:0E62BD54       aMovbittable
 0003:0E62BD60       aAudiobittable
 0003:0E62BD70       aValidfiletable
 0003:0E62BD80       aDirUTotalAmoun
 0003:0E62BDC0       aEndOfUDirInfo
 0003:0E62BDF0       aDumpTheRootSta
 0003:0E62BE44       aDirectoryInfo
 0003:0E62BE74       aTotalDirMountU
 0003:0E62BE8C       aDirbittable
 0003:0E62BE98       aValiddirtable
 0003:0E62BEA8       aDirImageMountU
 0003:0E62BEC0       aDirVideoMountU
 0003:0E62BED8       aDirAudioMountU
 0003:0E62BEF0       aDirAllMountU
 0003:0E62BF04       aDirPostfixS
 0003:0E62BF18       aFilesInfo
 0003:0E62BF44       aTotalAmountJpe
 0003:0E62BF7C       aCurjpegfileid
 0003:0E62BF8C       aCurmovfileid
 0003:0E62BF9C       aCuraudiofileid
 0003:0E62BFAC       aCurfileid
 0003:0E62BFB8       aMaxfileid
 0003:0E62BFC4       aEndOfTheRootSt
 0003:0E62C01C       aCurdir
 0003:0E62C024       aDjidcfFirstfil
 0003:0E62C03C       aDjiDcfSLUInput
 0003:0E62C068       aDjiDcfSLUCanNo
 0003:0E62C098       aDjiDcfSLUScanT
 0003:0E62C0C4       aDjidcfLastfile
 0003:0E62C0DC       aDjiDcfSLUCanNo_0
 0003:0E62C10C       aDjidcfCurfilei
 0003:0E62C124       aDjiDcfSLUInval_0
 0003:0E62C14C       aDjiDcfSLUInval
 0003:0E62C18C       aDjiDcfSLUInval_1
 0003:0E62C1CC       aDjiDcfSLUDirUI
 0003:0E62C1F0       aDjiDcfSLUDirUH
 0003:0E62C218       aDjiDcfSLUCanNo_1
 0003:0E62C258       aDjidcfPrefilei
 0003:0E62C270       aDjiDcfSLUCanTG
 0003:0E62C2AC       aDjiDcfSLUCanNo_2
 0003:0E62C2E0       aDjiDcfSLUInval_2
 0003:0E62C310       aDjidcfNextfile
 0003:0E62C328       aDjiDcfSLUCanNo_3
 0003:0E62C358       aDjidcfFnameget
 0003:0E62C370       aDjiDcfSLUInval_3
 0003:0E62C398       aDjiDcfSLUInval_4
 0003:0E62C3C0       aDjiDcfSLUGetFu
 0003:0E62C410       aDjidcfFileidxg
 0003:0E62C42C       aDjiDcfSLUGetFi
 0003:0E62C45C       aDjiDcfSLUIlleg
 0003:0E62C484       aDjiDcfSLUIlleg_0
 0003:0E62C4AC       aDjiDcfSLUThisI
 0003:0E62C4E4       aDjiDcfSLUIlleg_1
 0003:0E62C510       aDjidcfGetfullf
 0003:0E62C528       aDjidcfFsinfoge
 0003:0E62C53C       aDjiDcfSLUTheIn
 0003:0E62C56C       aDjidcfFileidxg_0
 0003:0E62C588       aDjiDcfSLUInval_5
 0003:0E62C5B8       aDjiDcfSLUInval_6
 0003:0E62C5E8       aDjiDcfSLUFirst
 0003:0E62C628       aDjiDcfSLUCanno
 0003:0E62C674       aDjidcfRootpath
 0003:0E62C688       aDjiDcfSLUTheIn_0
 0003:0E62C6C0       a4d2d2d2d2d2d
 0003:0E62C6E0       aAmbaexifformat
 0003:0E62C6F4       aSDAllocateifdF
 0003:0E62C710       aSDPutexifheade
 0003:0E62C72C       aSDWritestreamE
 0003:0E62C748       aSDPutmpfheader
 0003:0E62C764       aSDWritestreamF
 0003:0E62C780       aExifmuxDetectT
 0003:0E62C7E8       aPutexifheader
 0003:0E62C7F8       aSDPutexifheade_0
 0003:0E62C83C       aSDPutexifheade_1
 0003:0E62C87C       aPutmpfheader
 0003:0E62C88C       aSDPutmpfheader_0
 0003:0E62C8CC       aSDPutmpfheader_1
 0003:0E62C90C       aWritestream
 0003:0E62C918       aWritestreamIma
 0003:0E62C948       aSDWritestreamW
 0003:0E62C980       aSDWritestreamW_0
 0003:0E62C9B8       aSDWritestreamW_1
 0003:0E62C9F0       aSDWritestreamW_2
 0003:0E62CA1C       aSDWritestreamW_3
 0003:0E62CA50       aSDWritestreamW_4
 0003:0E62CA80       aSDWritestreamW_5
 0003:0E62CAB0       aSDWritestreamW_6
 0003:0E62CAE0       aSDWritestreamW_7
 0003:0E62CB10       aSDWritestreamW_8
 0003:0E62CB40       aAmbafileopGetb
 0003:0E62CB54       aSFioReadDataEr
 0003:0E62CB74       aAmbafileopGetl
 0003:0E62CB88       aAmbafileopGetl_0
 0003:0E62CB9C       aAmbafileopGetb_0
 0003:0E62CBB0       aAmbafileopGetb_1
 0003:0E62CBC4       aSFioReadDataEr_0
 0003:0E62CBF4       aSFioReadDataEr_1
 0003:0E62CC1C       aAmbafsGeterror
 0003:0E62CC3C       aAmbafsFeofRetu
 0003:0E62CC58       aSPcurbufXIsOut
 0003:0E62CC90       aAmbafileopFile
 0003:0E62CCAC       aSFioWriteDataE
 0003:0E62CCCC       aAmbafileopCirc
 0003:0E62CCE8       aFilewritetask
 0003:0E62CCF8       aAmbafilewriteF
 0003:0E62CD0C       aSStreamidD
 0003:0E62CD24       aThereIsNoSuppo_0
 0003:0E62CD54       aErrorCannotLoa
 0003:0E62CD7C       aAmbaguitask
 0003:0E62CDA0       aSlowCard
 0003:0E62CDAC       aLinuxIsWarmBoo
 0003:0E62CDC4       aLinuxIsHiberna
 0003:0E62CDE0       aLinuxIsColdBoo
 0003:0E62CDF8       aUsageTSCommand
 0003:0E62CEF0       aSuspend_0
 0003:0E62CEF8       aAmbaipcLinkctr
 0003:0E62CF18       aStandby
 0003:0E62CF20       aReturn
 0003:0E62CF28       aResume_0
 0003:0E62CF30       aWipeout
 0003:0E62CF38       aBoottype
 0003:0E62CF44       aStress
 0003:0E62CF4C       aHiber
 0003:0E62CF54       aSensorAgcDelay
 0003:0E62CF6C       aAmbaDgcBoth
 0003:0E62CF7C       aSensorDgcDelay
 0003:0E62CF94       aDspDgcDelay1
 0003:0E62CFA8       aSensorAdvEofD
 0003:0E62CFBC       aSensorSsTypeD
 0003:0E62CFD0       aSensorPixelSiz
 0003:0E62CFF0       aSensorModeD
 0003:0E62D004       aSensorPixelBit
 0003:0E62D01C       aSensorFirstPix
 0003:0E62D03C       aSensorWidthD
 0003:0E62D050       aSensorHeightD
 0003:0E62D064       aSensorMaxBinni
 0003:0E62D07C       aSensorMaxSlowS
 0003:0E62D09C       aSensorShutterM
 0003:0E62D0B8       aSensorFrameTvD
 0003:0E62D0D0       aSensorFrameTot
 0003:0E62D0F0       aSensorFrameTot_0
 0003:0E62D118       aSensorFrameTot_1
 0003:0E62D13C       aSensorFrameTot_2
 0003:0E62D168       aSensorFrameRat
 0003:0E62D180       aSensorFrameTim
 0003:0E62D198       aSensorFrameBin
 0003:0E62D1B4       aOpModeD
 0003:0E62D1C4       aVideoDelayMode_1
 0003:0E62D1DC       aCaptureLineD
 0003:0E62D1F0       aStitchD
 0003:0E62D1FC       aLowDelayD
 0003:0E62D20C       aStatisticsDela
 0003:0E62D224       aLedStartShiftT
 0003:0E62D244       aXenonCentralTr
 0003:0E62D270       aXenonTriggerSw
 0003:0E62D298       aXenonRearTrigg
 0003:0E62D2C4       aXenonFrontTrig
 0003:0E62D2F0       aMechShutterDel
 0003:0E62D314       aSensorwinwidth
 0003:0E62D328       aSensorwinheigh
 0003:0E62D340       aVincapturewidt
 0003:0E62D358       aVincaptureheig
 0003:0E62D370       aMainoutputwidt
 0003:0E62D388       aMainoutputheig
 0003:0E62D3A0       aFramerateD_0
 0003:0E62D3B0       aOversamplingD
 0003:0E62D3C4       aHorizontalbinn
 0003:0E62D3E0       aHorizontalbinn_0
 0003:0E62D3FC       aVerticalbinnin
 0003:0E62D414       aVerticalbinnin_0
 0003:0E62D42C       aAeControlInfoD
 0003:0E62D448       aCaptureState0x
 0003:0E62D46C       aIsSnapAebD
 0003:0E62D480       aVinCapWinDD
 0003:0E62D498       aPipeOutWinDD
 0003:0E62D4B0       aMsgIrisUser0x0
 0003:0E62D4CC       aMsgIrisMsgDDD
 0003:0E62D4EC       aMsgLedUser0x08
 0003:0E62D508       aMsgLedMsgDDD
 0003:0E62D524       aMsgXenonUser0x
 0003:0E62D544       aMsgXenonMsgDDD
 0003:0E62D564       aAmbaimagemaina_6
 0003:0E62D57C       aAmbaimagemaina
 0003:0E62D590       aAmbaimagemaina_0
 0003:0E62D5A8       aSMwIpGetMultiA
 0003:0E62D5D8       aTtAeinfoAgcgai
 0003:0E62D5F8       aTtAeinfoShutte
 0003:0E62D61C       aTtStstillaeinf
 0003:0E62D644       aTtStstillaeinf_0
 0003:0E62D670       aTtAeinfoDgainD
 0003:0E62D68C       aTtStstillaeinf_1
 0003:0E62D6B4       aAmbaimagemaina_2
 0003:0E62D6CC       aStillaeinfo0Ag
 0003:0E62D708       aStillAeInfoAgc
 0003:0E62D758       aAeNoEffectInAe
 0003:0E62D78C       aMIdxDAgcgainFS
 0003:0E62D7D8       aSIdxDAgcgainFS
 0003:0E62D824       aPAScnIdxDAgcga
 0003:0E62D878       aMAebExifinfoEx
 0003:0E62D8A4       aMAebExifinfoEx_0
 0003:0E62D8D0       aMAebExifinfoSh
 0003:0E62D8FC       aMAebExifinfoSh_0
 0003:0E62D928       aMAebExifinfoIs
 0003:0E62D950       aMAebExifinfoEx_1
 0003:0E62D980       aMAebExifinfoEx_2
 0003:0E62D9B0       aAmbaimagemaina_1
 0003:0E62D9E4       aPAebExifinfoEx
 0003:0E62DA10       aPAebExifinfoEx_0
 0003:0E62DA3C       aPAebExifinfoSh
 0003:0E62DA68       aPAebExifinfoSh_0
 0003:0E62DA94       aPAebExifinfoIs
 0003:0E62DABC       aPAebExifinfoEx_1
 0003:0E62DAEC       aPAebExifinfoEx_2
 0003:0E62DB24       aSIsomodeD
 0003:0E62DB38       aAmbaimagemaina_3
 0003:0E62DB54       aIdxDDgain5d
 0003:0E62DB70       a4d02d02d02d02d_0
 0003:0E62DCC8       aAmbaimagemaina_5
 0003:0E62DCDC       aAmbaimagemaina_4
 0003:0E62DD0C       aAmbaeisTaskcre
 0003:0E62DD20       aSFailToCreateE
 0003:0E62DD40       aAmbaeistask
 0003:0E62DD4C       aAmbaeisActive
 0003:0E62DD64       aItunerrawencRa
 0003:0E62DD88       aAmbakalMsgqueu_6
 0003:0E62DDA8       aItunerrawencYu
 0003:0E62DDCC       aItunerrawencJp
 0003:0E62DDF0       aStillRawEncode
 0003:0E62DE18       aStillRawEncode_0
 0003:0E62DE40       aItunerS
 0003:0E62DE4C       aItunerrawencIs
 0003:0E62DE64       aInitializeImag
 0003:0E62DE84       aInitializeImag_0
 0003:0E62DEA8       aSDDDDDDD
 0003:0E62DEC8       aExecuteItunerF
 0003:0E62DEE0       aGetAeInformati
 0003:0E62DEFC       aSDSetAeInfoFai
 0003:0E62DF18       aGetWbSimInform
 0003:0E62DF38       aSDSetWbSimInfo
 0003:0E62DF5C       aGetWarpCompens_1
 0003:0E62DF7C       aSetSizeInforma
 0003:0E62DFA8       aLoadRawDataFro
 0003:0E62DFC4       aExecuteIsoConf
 0003:0E62DFE4       aSetupQuickView
 0003:0E62DFFC       aRaw2yuvRawPitc
 0003:0E62E028       aRaw2yuvRawWidt
 0003:0E62E054       aRaw2yuvRawHeig
 0003:0E62E080       aRaw2yuvRawPbas
 0003:0E62E0AC       aRaw2yuvYuvData
 0003:0E62E0D8       aRaw2yuvYuvWidt
 0003:0E62E104       aRaw2yuvYuvHeig
 0003:0E62E130       aRaw2yuvYuvPbas
 0003:0E62E15C       aRaw2yuvYuvPbas_0
 0003:0E62E188       aRaw2yuvQuickVi
 0003:0E62E1B4       aRaw2yuvQuickVi_0
 0003:0E62E1E0       aRaw2yuvQuickVi_1
 0003:0E62E20C       aRaw2yuvQuickVi_2
 0003:0E62E238       aRaw2yuvQuickVi_3
 0003:0E62E264       aRaw2yuvQuickVi_4
 0003:0E62E290       aSetupTvDefault
 0003:0E62E2B0       aSwitchTvVoutSo
 0003:0E62E2D0       aTheDefaultImag
 0003:0E62E30C       aJpegEncodeSetu
 0003:0E62E328       aSetupJpegEncod
 0003:0E62E34C       aYuv2jpgYuvData
 0003:0E62E36C       aYuv2jpgYuvPitc
 0003:0E62E38C       aYuv2jpgYuvWidt
 0003:0E62E3AC       aYuv2jpgYuvHeig
 0003:0E62E3CC       aYuv2jpgYuvPbas
 0003:0E62E3F0       aYuv2jpgYuvPbas_0
 0003:0E62E414       aYuv2jpgJpegWid
 0003:0E62E434       aYuv2jpgJpegHei
 0003:0E62E454       aYuv2jpgJpegQta
 0003:0E62E474       aYuv2jpgJpegQua
 0003:0E62E494       aSS_7
 0003:0E62E49C       aJpg_4
 0003:0E62E4A4       aSaveJpegS
 0003:0E62E4B4       aCreateJpegFail_3
 0003:0E62E4C8       aFrametypeSPics
 0003:0E62E508       aFullview
 0003:0E62E514       aTheRawDataIsOu
 0003:0E62E538       aShutterTimeDMs_0
 0003:0E62E550       aRawDataReady
 0003:0E62E564       aRawdatareadyRa
 0003:0E62E588       aRawdatareadyRa_0
 0003:0E62E5AC       aRawdatareadyRa_1
 0003:0E62E5D0       aRawdatareadyRa_2
 0003:0E62E5F4       aRawdatareadyRa_3
 0003:0E62E61C       aRawToYuvFail
 0003:0E62E630       aLcdYuvDataRead
 0003:0E62E648       aSetQuickviewLc
 0003:0E62E664       aTvYuvDataReady
 0003:0E62E678       aSetQuickviewTv
 0003:0E62E690       aEnableDebugMod
 0003:0E62E6A4       aMainYuvDataRea
 0003:0E62E6BC       aYuvdatareadyYu
 0003:0E62E6E0       aYuvdatareadyYu_0
 0003:0E62E704       aYuvdatareadyYu_1
 0003:0E62E728       aYuvdatareadyYu_2
 0003:0E62E74C       aYuvdatareadyYu_3
 0003:0E62E774       aYuvdatareadyYu_4
 0003:0E62E79C       aSaveMainYuvFai
 0003:0E62E7B4       aCompressJpegFa
 0003:0E62E7CC       aJpegDataReady
 0003:0E62E7E0       aJpgdatareadyJp
 0003:0E62E808       aJpgdatareadyJp_0
 0003:0E62E830       aJpgdatareadyJp_1
 0003:0E62E858       aJpgdatareadyJp_2
 0003:0E62E880       aJpgdatareadyJp_3
 0003:0E62E8A8       aJpgdatareadyJp_4
 0003:0E62E8D0       aJpgdatareadyJp_5
 0003:0E62E8F8       aJpgdatareadyJp_6
 0003:0E62E920       aSaveJpegFail_1
 0003:0E62E934       aItunerrawencTa
 0003:0E62E94C       aSFailToCreateR_0
 0003:0E62E970       aSFailToCreateY_1
 0003:0E62E994       aSFailToCreateJ
 0003:0E62E9B8       aSinglecapturet
 0003:0E62E9CC       aInitializeItun
 0003:0E62E9FC       aInitializeAlgo
 0003:0E62EA2C       aInitializeIdsp
 0003:0E62EA5C       aInitializeIdsp_0
 0003:0E62EA8C       aInitializeIdsp_1
 0003:0E62EABC       aInitializeIdsp_2
 0003:0E62EAEC       aInitializeVinS
 0003:0E62EB1C       aInitializeVinP
 0003:0E62EB4C       aInitializeVinW
 0003:0E62EB7C       aInitializeVinH
 0003:0E62EBAC       aInitializeQuic
 0003:0E62EBDC       aInitializeQuic_0
 0003:0E62EC0C       aInitializeQuic_1
 0003:0E62EC3C       aInitializeQuic_2
 0003:0E62EC6C       aInitializeQuic_3
 0003:0E62EC9C       aInitializeQuic_4
 0003:0E62ECCC       aInitializeEncw
 0003:0E62ECFC       aInitializeEncw_0
 0003:0E62ED2C       aInitializeEncw_1
 0003:0E62ED5C       aInitializeEncw_2
 0003:0E62ED8C       aInitializeEncw_3
 0003:0E62EDBC       aInitializeFile
 0003:0E62EDEC       aDisableSingleC
 0003:0E62EE14       aDisableStillSt
 0003:0E62EE38       aEnableItunerRa
 0003:0E62EE60       aStopLiveviewFa_0
 0003:0E62EE78       aSwitchSensorMo
 0003:0E62EE94       aRawCaptureFail_0
 0003:0E62EEA8       aWaitCaptureDon
 0003:0E62EEC8       aBackToLiveview_4
 0003:0E62EEE0       aDisableItunerR
 0003:0E62EF0C       aEnableSingleCa
 0003:0E62EF30       aEnableStillSto
 0003:0E62EF54       aAmbaimgprocTes
 0003:0E62EF70       aChno
 0003:0E62EF78       aVer
 0003:0E62EF80       aAmbaImgprocLib
 0003:0E62EFAC       aSetmode
 0003:0E62EFB8       aGetmode
 0003:0E62EFC4       aCurrmodeDNextm
 0003:0E62EFEC       aGet3astatus
 0003:0E62EFFC       aVideostatusDDD
 0003:0E62F020       aStillstatusDDD
 0003:0E62F044       aSet3astatus
 0003:0E62F054       aVideo_6
 0003:0E62F05C       aAmbaAeLibVeris
 0003:0E62F084       aAmbaAwbLibVeri
 0003:0E62F0AC       aAmbaAdjLibVeri
 0003:0E62F0D4       aAeopDAwbopDAdj
 0003:0E62F10C       aAwb_0
 0003:0E62F114       aAdj
 0003:0E62F11C       aExif_0
 0003:0E62F124       aWbSim
 0003:0E62F12C       aLumaidxD
 0003:0E62F13C       aOutdooridxD
 0003:0E62F14C       aHighlightidxD
 0003:0E62F160       aLowlightidxD
 0003:0E62F174       aAwbratio0D
 0003:0E62F188       aAwbratio1D
 0003:0E62F19C       aExifDbg
 0003:0E62F1A8       aCurrentExifDeb
 0003:0E62F1C4       aModeDShttimeFA
 0003:0E62F20C       aMwb
 0003:0E62F214       aModeDGainr5dGa
 0003:0E62F248       aEvbias
 0003:0E62F250       aSharp
 0003:0E62F258       aContrast
 0003:0E62F264       aSlowshutter
 0003:0E62F274       aEnableaeb
 0003:0E62F280       aAdjapptest
 0003:0E62F28C       aLiveviewinfo
 0003:0E62F29C       aLiveviewinfoMa
 0003:0E62F2BC       aLiveviewinfoMa_0
 0003:0E62F2DC       aLiveviewinfoFr
 0003:0E62F304       aLiveviewinfoOv
 0003:0E62F330       aLiveviewinfoBi
 0003:0E62F358       aLiveviewinfoBi_0
 0003:0E62F380       aLiveviewinfoBi_1
 0003:0E62F3A8       aLiveviewinfoBi_2
 0003:0E62F3D0       aAebinfo
 0003:0E62F3DC       aEvlut
 0003:0E62F3E4       aVideoshutterma
 0003:0E62F408       aFlkmode
 0003:0E62F414       aFliker
 0003:0E62F41C       aTestidx
 0003:0E62F428       a1NfindexDEvind
 0003:0E62F460       a2ShutterindexD
 0003:0E62F4B8       aUsageTImgproc
 0003:0E62F4CC       aVer_0
 0003:0E62F4DC       a3aOnOff
 0003:0E62F4FC       a3aVer
 0003:0E62F510       aAeOnOff
 0003:0E62F530       aAeInfoChno
 0003:0E62F54C       aAwbOnOff
 0003:0E62F56C       aAwbInfoChno
 0003:0E62F588       aAdjOnOff
 0003:0E62F5A8       aExifDbg01
 0003:0E62F5C4       aMeVideoStill01
 0003:0E62F62C       aMwbVideoStill0
 0003:0E62F678       aSlowshutterVid
 0003:0E62F6C8       aSharpLevel06
 0003:0E62F6EC       aAdjapptestSave
 0003:0E62F730       aAdjapptestLoad
 0003:0E62F77C       aErrorGyroOpenF
 0003:0E62F798       aInvensenseGyro
 0003:0E62F7C8       aErrorInvensens
 0003:0E62F800       aErrorCannotOpe
 0003:0E62F824       aSlock
 0003:0E62F82C       aMutex
 0003:0E62F834       aRpmsg
 0003:0E62F858       aTest_5
 0003:0E62F860       aSupportedTestC
 0003:0E62F87C       aSlockNLockN
 0003:0E62F894       aSlockNUnlockN
 0003:0E62F8B0       aSlockNLockAndT
 0003:0E62F8E0       aTrySpinlockD
 0003:0E62F8F4       aDone_0
 0003:0E62F8FC       aSpinlockDIsLoc
 0003:0E62F914       aSpinlockDIsUnl
 0003:0E62F930       aMutexNTimeoutL
 0003:0E62F954       aMutexNUnlockN
 0003:0E62F970       aMutexNLockAndT
 0003:0E62F9A0       aTryMutexD
 0003:0E62F9B0       aMutexDIsLocked
 0003:0E62F9C4       aTimedOut
 0003:0E62F9D0       aMutexDIsUnlock
 0003:0E62F9E8       aSvcEchoS
 0003:0E62F9F8       aRpcListListReg
 0003:0E62FA24       aRpcSvcProgName
 0003:0E62FA54       aRpcSvcProgName_0
 0003:0E62FA84       aSupportedProgr
 0003:0E62FAC0       aExecExecuteCom
 0003:0E62FB04       aRpcClntTest1St
 0003:0E62FB2C       aRpcClntTest2AC
 0003:0E62FB54       aRpcClntExec1Co
 0003:0E62FBA4       aRpcClntExec2Co
 0003:0E62FBE0       aRpcProfileStar
 0003:0E62FBF8       aRpcProfileStop
 0003:0E62FC10       aList
 0003:0E62FC18       aInvalidInputFo
 0003:0E62FC30       aTestRpcSvc
 0003:0E62FC40       aClnt
 0003:0E62FC48       aExec1
 0003:0E62FC50       aExec2
 0003:0E62FC58       aClientCreation
 0003:0E62FC70       aReturnValueIsD
 0003:0E62FC88       aExecuteExec1Fa
 0003:0E62FCAC       aProfile_0
 0003:0E62FCB4       aStart_2
 0003:0E62FCBC       aStop_3
 0003:0E62FCC4       aUnknownCommand
 0003:0E62FCDC       aRecvMessageS
 0003:0E62FCF0       aSupportedRpmsg
 0003:0E62FD0C       aRpmsgTestSend8
 0003:0E62FD40       aRpmsgTestStrCo
 0003:0E62FD94       aRpmsgProfileSt
 0003:0E62FDB0       aRpmsgProfileSt_0
 0003:0E62FDC8       aHelloLinux
 0003:0E62FDD8       aCountIsD
 0003:0E62FDE8       aSD_2
 0003:0E62FDF0       aSendMessageS
 0003:0E62FE04       aSThroughputUBi
 0003:0E62FE1C       aLargeFileWrite_0
 0003:0E62FE44       aLargeFileWrite
 0003:0E62FE6C       aBsDD
 0003:0E62FE80       aFopenFailedD
 0003:0E62FE94       aFwriteFailedD
 0003:0E62FEA8       aFseekFailedD
 0003:0E62FEBC       aFcloseFailedD
 0003:0E62FED0       aBsDWroteDBytes
 0003:0E62FEE8       aBsDWriteTimeEl
 0003:0E62FF10       aBsDWriteThroug
 0003:0E62FF38       aLargeFileReadW
 0003:0E62FF5C       aLargeFileReadW_0
 0003:0E62FF84       aFreadFailedD
 0003:0E62FF98       aBsDReadDBytes
 0003:0E62FFB0       aBsDReadTimeEla
 0003:0E62FFD4       aBsDReadThrough
 0003:0E62FFFC       aSThruputTxt
 0003:0E63000C       aLargeFileWrite_1
 0003:0E630034       aLargeFileReadW_1
 0003:0E63005C       aLen0xXErrCnt0x
 0003:0E63007C       aSTest
 0003:0E630084       aGetdevErrorD
 0003:0E630098       aDFilesWithRand
 0003:0E6300C4       aSTestD
 0003:0E6300D0       aSTestDTestDPat
 0003:0E6300EC       aWriteDBytesRan
 0003:0E63011C       aFopenSFailedD
 0003:0E630134       aFailedWroteDBy
 0003:0E630154       aFailedReadDByt
 0003:0E630174       aWriteRandomPat_0
 0003:0E6301AC       aWriteRandomPat
 0003:0E6301D0       aDFilesWithRand_0
 0003:0E630200       aTestFioprfRand
 0003:0E630224       aS_13
 0003:0E63022C       aReadTimeElapse
 0003:0E63024C       aRfsThruputPath
 0003:0E630264       aRfsRandvrfyPat
 0003:0E630280       aRfsListDir
 0003:0E630294       aThruput
 0003:0E63029C       aInvalidInputFo_0
 0003:0E6302B8       aTestFioprfThru
 0003:0E6302D8       aRandvrfy
 0003:0E6302E4       aInvalidInputFo_1
 0003:0E630300       aTestFioprfRand_0
 0003:0E630324       aInvalidInputFo_2
 0003:0E63033C       aCommandFormatE
 0003:0E630354       aUsbOwner01
 0003:0E63036C       a0OwnerIsRtos
 0003:0E630388       a1OwnerIsLinux
 0003:0E6303A4       aIpcRpmsgTest
 0003:0E6303B4       aS_14
 0003:0E6303BC       aNeedPara
 0003:0E6303C8       aAlloc
 0003:0E6303D0       aFree_0
 0003:0E6303D8       aSend
 0003:0E6303E0       aSTotalLenU
 0003:0E6303F4       aSendsyn
 0003:0E6303FC       aSSendUByteToCh
 0003:0E63042C       aSynReturnDResu
 0003:0E630444       aShow_1
 0003:0E63044C       aHostState0xX
 0003:0E630460       a68013State0xX
 0003:0E630474       aWifiState0xX
 0003:0E630488       aTestCommand
 0003:0E630498       aUnknowCommand
 0003:0E6304A8       aSupportedRpmsg_0
 0003:0E6304C4       aRpmsgAllocChnn
 0003:0E6304E0       aRpmsgFreeChnid
 0003:0E6304F8       aRpmsgSendChnid
 0003:0E630518       aRpmsgSendsynCh
 0003:0E630544       aRpmsgShow
 0003:0E630554       aIpcRpcTest
 0003:0E630564       aTotalLenU
 0003:0E630574       aSupportedRpcCo
 0003:0E63058C       aRpcAllocChnnam
 0003:0E6305BC       aRpcFreeChnid
 0003:0E6305D4       aRpcSendChnidLe
 0003:0E6305F8       aRpcSendsynChni
 0003:0E630620       aRpcShow
 0003:0E630630       aTest_8
 0003:0E630638       aSupportedTrans
 0003:0E630654       aTransRpc
 0003:0E630664       aTransRpmsg
 0003:0E630678       aReadUByteLog
 0003:0E63068C       aSetDebugFlag0x_0
 0003:0E6306A4       aProduceAListTr
 0003:0E6306D8       aProduceAFileTr
 0003:0E63070C       aProduceAThumbn
 0003:0E630744       aProduceAScreen
 0003:0E63077C       aProduceAStream
 0003:0E6307B0       aSetBandwidthTo
 0003:0E6307DC       a68013Version0x
 0003:0E630800       a68013FwPathS
 0003:0E630814       a68013UpdateRet
 0003:0E63082C       aSetPbDownloadB
 0003:0E630854       aUnknowTestComm
 0003:0E63086C       aTIpcTestCmdCmd
 0003:0E63089C       aSupportedTestC_0
 0003:0E6308B8       aS_15
 0003:0E6308C0       aAmbaipcTestini
 0003:0E6308D4       aDjiApp
 0003:0E6308DC       aDjiSock
 0003:0E6308E8       aDjiUsbdrv
 0003:0E6308F4       aDjiTest
 0003:0E630900       aEchoCortex
 0003:0E63090C       aSAmbaipcAllocF_4
 0003:0E630928       aA9CcRegBin
 0003:0E630938       aImgDefault_0
 0003:0E630944       aAaaDefault_0
 0003:0E630950       aAdjStillDefaul_0
 0003:0E630968       aAdjStillDefaul_1
 0003:0E630980       aAdjHisoStillDe_0
 0003:0E63099C       aAdjVideoDefaul_0
 0003:0E6309B4       aAdjVideoDefaul_1
 0003:0E6309CC       aAdjPhotoDefaul_0
 0003:0E6309E4       aAdjPhotoDefaul_1
 0003:0E6309FC       aAdjStillIdx_0
 0003:0E630A0C       aSceneDataS01_0
 0003:0E630A1C       aSceneDataS02_0
 0003:0E630A2C       aSceneDataS03_0
 0003:0E630A3C       aSceneDataS04_0
 0003:0E630A4C       aSceneDataS05_0
 0003:0E630A5C       aDeDefaultVideo_0
 0003:0E630A70       aDeDefaultStill_0
 0003:0E630A84       aAdjTableParamD_0
 0003:0E630A9C       aAdjCalibParam_0
 0003:0E630AAC       aDigitalEffectD_0
 0003:0E630ADC       aDigitalEffectC
 0003:0E630AFC       aAmbaiqparamGet
 0003:0E630B24       aImx117CcVideo0
 0003:0E630B3C       aImx117CcVideo1
 0003:0E630B54       aImx117CcVideo2
 0003:0E630B6C       aImx117CcVideo3
 0003:0E630B84       aImx117CcVideo4
 0003:0E630B9C       aImx117CcStill0
 0003:0E630BB4       aImx117CcStill1
 0003:0E630BCC       aImx117CcStill2
 0003:0E630BE4       aImx117CcStill3
 0003:0E630BFC       aImx117CcStill4
 0003:0E630C14       aCc3dCcBwGammaL
 0003:0E630C34       aCc3dCcBwGammaL_0
 0003:0E630C54       aImx117CcVideo0_0
 0003:0E630C74       aImx117CcVideo1_0
 0003:0E630C94       aImx117CcVideo2_0
 0003:0E630CB4       aImx117CcVideo3_0
 0003:0E630CD4       aImx117CcVideo4_0
 0003:0E630CF4       aImx117CcStill0_0
 0003:0E630D14       aImx117CcStill1_0
 0003:0E630D34       aImx117CcStill2_0
 0003:0E630D54       aImx117CcStill3_0
 0003:0E630D74       aImx117CcStill4_0
 0003:0E630D94       aImx117CcVideo0_1
 0003:0E630DB4       aImx117CcVideo1_1
 0003:0E630DD4       aImx117CcVideo2_1
 0003:0E630DF4       aImx117CcVideo3_1
 0003:0E630E14       aImx117CcVideo4_1
 0003:0E630E34       aImx117CcStill0_1
 0003:0E630E54       aImx117CcStill1_1
 0003:0E630E74       aImx117CcStill2_1
 0003:0E630E94       aImx117CcStill3_1
 0003:0E630EB4       aImx117CcStill4_1
 0003:0E630ED4       aImx117CcVideo0_2
 0003:0E630EF4       aImx117CcVideo1_2
 0003:0E630F14       aImx117CcVideo2_2
 0003:0E630F34       aImx117CcVideo3_2
 0003:0E630F54       aImx117CcVideo4_2
 0003:0E630F74       aImx117CcStill0_2
 0003:0E630F94       aImx117CcStill1_2
 0003:0E630FB4       aImx117CcStill2_2
 0003:0E630FD4       aImx117CcStill3_2
 0003:0E630FF4       aImx117CcStill4_2
 0003:0E631014       aAmbaiqparamimx
 0003:0E631040       aSTableAddrIsNu
 0003:0E63105C       aAmbaiqparamimx_0
 0003:0E631088       aAmbaiqparamimx_1
 0003:0E6310BC       aAmbaiqparamimx_2
 0003:0E6310F0       aAmbaiqparamimx_3
 0003:0E631114       aImx117A9
 0003:0E631120       a09138
 0003:0E6311BC       aParamsizeD
 0003:0E6311CC       aParam_0
 0003:0E6311D8       a02x_1
 0003:0E6311E0       aMsgBlkInfo
 0003:0E6311F0       aPriorityX
 0003:0E631200       aSrcmqidX
 0003:0E631210       aRpcMsgReceiver
 0003:0E63122C       aRpcMsgReceiver_0
 0003:0E631258       aParam1XParam2X
 0003:0E631270       aUnknownMessage
 0003:0E631284       aSupportedTestC_1
 0003:0E6312A0       aSendStringSend
 0003:0E6312D0       aRpcLuMsgfwSend
 0003:0E6312E8       aSupportedTestC_2
 0003:0E631304       aS_16
 0003:0E63130C       aAmbalinkRpcini
 0003:0E631338       aAmbaRpc
 0003:0E631344       aReserved
 0003:0E631350       aDmt065943640x4
 0003:0E631380       a480p43720x480p
 0003:0E6313B0       a480pWide169720
 0003:0E6313E0       a720p601691280x
 0003:0E631410       a1080i601691920
 0003:0E631440       a480i6043720144
 0003:0E631470       a480iWide169720
 0003:0E6314A0       a240p437201440X
 0003:0E6314D0       a240pWide169720
 0003:0E631500       a480i4x432880X4
 0003:0E631530       a480i4xWide1692
 0003:0E631560       a240p4x432880X2
 0003:0E631590       a240p4xWide1692
 0003:0E6315C0       a480p2x431440x4
 0003:0E6315F0       a480p2xWide1691
 0003:0E631620       a1080p601691920
 0003:0E631650       a576p43720x576p
 0003:0E63167C       a576pWide169720
 0003:0E6316A8       a720p501691280x
 0003:0E6316D4       a1080i251691920
 0003:0E631700       a576i437201440X
 0003:0E63172C       a576iWide169720
 0003:0E631758       a288p437201440X
 0003:0E631784       a288pWide169720
 0003:0E6317B0       a576i4x432880X5
 0003:0E6317D8       a576i4xWide1692
 0003:0E631800       a288p4x432880X2
 0003:0E631828       a288p4xWide1692
 0003:0E631850       a576p2x431440x5
 0003:0E631878       a576p2xWide1691
 0003:0E6318A0       a1080p501691920
 0003:0E6318C8       a1080p241691920
 0003:0E6318F8       a1080p251691920
 0003:0E631920       a1080p301691920
 0003:0E631950       a480p4x432880X4
 0003:0E631984       a480p4xWide1692
 0003:0E6319B8       a576p4x432880X5
 0003:0E6319E4       a576p4xWide1692
 0003:0E631A10       a1080i25As16919
 0003:0E631A3C       a1080i501691920
 0003:0E631A68       a720p1001691280
 0003:0E631A94       a576p10043720x5
 0003:0E631AC0       a576p100Wide169
 0003:0E631AEC       a576i5043720144
 0003:0E631B18       a576i50Wide1697
 0003:0E631B44       a1080i601691920_0
 0003:0E631B78       a720p1201691280
 0003:0E631BAC       a480p11943720x4
 0003:0E631BE0       a480p119Wide169
 0003:0E631C14       a480i5943720144
 0003:0E631C48       a480i59Wide1697
 0003:0E631C7C       a576p20043720x5
 0003:0E631CA8       a576p200Wide169
 0003:0E631CD4       a576i1004372014
 0003:0E631D00       a576i100Wide169
 0003:0E631D2C       a480p23943720x4
 0003:0E631D60       a480p239Wide169
 0003:0E631D94       a480i1194372014
 0003:0E631DC8       a480i119Wide169
 0003:0E631DFC       a720p241691280x
 0003:0E631E30       a720p251691280x
 0003:0E631E5C       a720p301691280x
 0003:0E631E90       a1080p120169192
 0003:0E631EC4       a1080p100169192
 0003:0E631EF4       aHdmiExt
 0003:0E631F00       a2160p301693840
 0003:0E631F34       a2160p251693840
 0003:0E631F64       a2160p241693840
 0003:0E631F98       a2160p24Smpte16
 0003:0E631FD0       aUnrecognizedFo
 0003:0E632000       aPrevcfaXNowX
 0003:0E632018       aPrevrgbXNowX
 0003:0E632030       aErrLoadMultiCh
 0003:0E632068       aV
 0003:0E632098       aNoLcdLiveview
 0003:0E6320A8       aLiveviewSuperv
 0003:0E6320C8       aSDGetNonCatchM
 0003:0E632100       aCreateNonCatch
 0003:0E632140       aSDGetMemoryToV
 0003:0E63216C       aCreateNonCatch_0
 0003:0E6321AC       aSDLoadSuperVie
 0003:0E6321DC       aLoadSuperViewH
 0003:0E632204       aSDLoadSuperVie_0
 0003:0E632230       aLoadSuperViewV
 0003:0E632254       aLiveviewSuperv_0
 0003:0E632278       aSetupWarpBypas
 0003:0E63228C       aSDSetupWarpByp
 0003:0E6322B0       aErrorAllocateD
 0003:0E6322DC       aUniforminputfo
 0003:0E6322FC       aErrorLoadImage
 0003:0E63233C       aMctftableBin
 0003:0E63234C       aErrorLoadImage_0
 0003:0E63237C       aMctfcmprBin
 0003:0E63238C       aErrorLoadImage_1
 0003:0E6323BC       aMctfsecccBin
 0003:0E6323CC       aErrorLoadImage_2
 0003:0E6323FC       aHisol4cedgemct
 0003:0E632418       aErrorLoadImage_3
 0003:0E632454       aHisomix124xmct
 0003:0E632470       aErrorLoadImage_4
 0003:0E6324CC       aDjiustusersett_5
 0003:0E632510       aNtsc
 0003:0E632518       aVideomodetable
 0003:0E632540       aDjiPrintOrigin
 0003:0E632578       aDjiPrintAdjust
 0003:0E632618       aAmbaliveviewSe
 0003:0E632658       aStartSensorCon
 0003:0E63267C       aEndSensorConfi
 0003:0E63269C       aInputWindowWid
 0003:0E6326BC       aInputWindowHei
 0003:0E6326DC       aMainWindowHeig
 0003:0E6326FC       aCfaOutputWindo
 0003:0E63271C       aCfaOutputWindo_0
 0003:0E63273C       aAmbaliveviewLo
 0003:0E632758       aSAmbaTvOutputE
 0003:0E632774       aSFramerateTime
 0003:0E632790       aAmbaliveviewLi
 0003:0E6327B0       aMcD
 0003:0E6327B8       aInAmbapllSetop
 0003:0E6327D4       aOutAmbapllSeto
 0003:0E6327F4       aAllocateFovRaw
 0003:0E632814       aOutAmbapllSeto_0
 0003:0E632830       aStartxDStartyD
 0003:0E632860       aHFactornumDHFa
 0003:0E6328A8       aTimescaleDNumu
 0003:0E6328CC       aFramelengthlin
 0003:0E6328E4       aSCurrentOpMode
 0003:0E632920       aAllocateFovRaw_0
 0003:0E63294C       aFreeFovRawData
 0003:0E632968       aFreeFovRawDeco
 0003:0E632990       aFreeFovRawDeco_0
 0003:0E6329B8       aSUCurrentRotat
 0003:0E6329EC       aEnableeis
 0003:0E632A00       aDspLiveviewSta
 0003:0E632A14       aDspLiveviewDon
 0003:0E632A30       aZoomRatioGX
 0003:0E632A44       aPixelshxFPixel
 0003:0E632A74       a222aS
 0003:0E632AA8       aSrcctxPipeD
 0003:0E632ABC       aLiveviewtask
 0003:0E632ACC       aLiveviewsyncta
 0003:0E632AE0       aAmbafovrawdeco
 0003:0E632AFC       aDjiustvideosta
 0003:0E632B44       aDjiustvideosta_0
 0003:0E632B90       aAmbamonitorAdc
 0003:0E632BA0       aAmbamonitorHdm
 0003:0E632BB4       aDjiisejectset
 0003:0E632BC4       aSUTakeMutexFai
 0003:0E632BE0       aDjiisejectget
 0003:0E632BF0       aDjisd1insertha
 0003:0E632C04       aKAssertAtSD_16
 0003:0E632C18       aSUTheSd0IsnTIn
 0003:0E632C38       aSUAfterRetryTh
 0003:0E632C68       aScmSlotSd0Inse
 0003:0E632C80       aTryToReinitThe
 0003:0E632C9C       aAmbasdInitcard_0
 0003:0E632CC4       aAmbasdInitcard_1
 0003:0E632CE0       aAmbadcfInitSdC
 0003:0E632CFC       aSUnsupportedSd
 0003:0E632D20       aAmbasdInitcard_2
 0003:0E632D40       aSBeginToDelete
 0003:0E632D68       aSEndToDeleteTh
 0003:0E632D90       aSBeginToRepair
 0003:0E632DC8       aSRepairTheVide
 0003:0E632DEC       aSRepairTheVide_0
 0003:0E632E24       aSCurrentSdClus
 0003:0E632E54       aDjisd1ejecthan
 0003:0E632E68       aSUTheSd0IsInSl
 0003:0E632E9C       aScmSlotSd0Ejec
 0003:0E632EB4       aCardMonitorMou
 0003:0E632ED0       aCardMonitorMou_0
 0003:0E632EF4       aCardMonitorUnm
 0003:0E632F14       aCardMonitorUnm_0
 0003:0E632F38       aCurrentRetrycn
 0003:0E632F50       aAmbamonitorSdi
 0003:0E632F64       aSCreateMutexFa
 0003:0E632F7C       aAmbamonitorSdi_0
 0003:0E632F94       aAmbamonitorSdo
 0003:0E632FA8       aAmbamovdemuxer
 0003:0E632FB8       aSAmbafsReadFai
 0003:0E632FD0       aSAmbafsFseekFa
 0003:0E632FE8       aAmbamovparseke
 0003:0E633000       aSTrakOffset0xX
 0003:0E633018       aSStcoOffset0xX
 0003:0E633030       aSKeyOffset0xX
 0003:0E633048       aSStszOffset0xX
 0003:0E633060       aSFrameSize0xX
 0003:0E633078       aSStsdOffset0xX
 0003:0E633090       aSWidthHeightDD_0
 0003:0E6330A8       aSNalulensizeD
 0003:0E6330BC       aSSpssizeD
 0003:0E6330CC       aSSpsoffset0xX
 0003:0E6330E0       aSPpssizeD
 0003:0E6330F0       aSPpsoffset0xX
 0003:0E633104       aAmbamovloadkey
 0003:0E633118       aSBufferSizeIsT
 0003:0E633140       aSExceedTheBuff
 0003:0E633178       aSExceedTheFile
 0003:0E6331B8       aSPbuf0xXBuffer
 0003:0E6331E8       aMoov_0
 0003:0E6331F4       aTkhd_0
 0003:0E633200       aWidthHeightDD
 0003:0E633218       aMdhdTimescaleD
 0003:0E633230       aHdlrVideArxAry
 0003:0E633250       aHdlrSoun
 0003:0E633260       aFrametype
 0003:0E633270       aMNIdrcountIpbb
 0003:0E633294       aFrametype00xX
 0003:0E6332AC       aFrametypeU0xX
 0003:0E6332C4       aMovieplaybackt
 0003:0E6332DC       aMoviePlaybackF
 0003:0E6332FC       aMoviePlaybackF_0
 0003:0E63331C       aMoviePlaybackF_1
 0003:0E63333C       aSFailedToOpenD
 0003:0E633368       aSFailedToStart
 0003:0E63338C       a1Errorstatus0x
 0003:0E6333A4       aVideoErrorstat
 0003:0E6333C8       aForceToStop
 0003:0E6333D8       aReachEofPtsLlu
 0003:0E6333F0       aMoviePlaybackF_3
 0003:0E633424       aRateFFps
 0003:0E633434       aMoviePlaybackF_2
 0003:0E633454       aAmbamovieplayb
 0003:0E633474       aSUNormalPlayba
 0003:0E633494       aSFailToGetAudi_1
 0003:0E6334BC       aSFailToCreateT_3
 0003:0E6334DC       aAmbaaudioDecta_4
 0003:0E6334FC       aSFailToCreateM
 0003:0E633520       aMovieplaybackt_0
 0003:0E633534       aSFailToCreateT_4
 0003:0E63354C       aSSuccess_1
 0003:0E633558       aAmbamovieplayb_0
 0003:0E633578       aSFailedToTermi_1
 0003:0E633598       aSFailedToDelet_2
 0003:0E6335B4       aSFailedToDelet_3
 0003:0E6335D8       aSFailedToDelet_4
 0003:0E633600       aSFailToDeleteT
 0003:0E633620       aAmbamovieplayb_1
 0003:0E633638       aSFailedToOpenS
 0003:0E633650       aSFailedToParse
 0003:0E633668       aSWidthHeightDD
 0003:0E633680       aXcodeSrcWidthH
 0003:0E6336B4       aXcodeDstWidthH
 0003:0E6336E8       aAmbamovieplayb_2
 0003:0E633700       aAmbamovieplayb_3
 0003:0E633718       aSMovieplayback
 0003:0E633740       aSFailedToSetup
 0003:0E633764       aSUMovieplaybac
 0003:0E633790       aSAudioDecoderR
 0003:0E6337A8       aAmbaaudioDecop
 0003:0E6337CC       aAmbaaudiooutpu
 0003:0E6337E8       aAmbamovieplayb_4
 0003:0E633800       aSFailedToStopA
 0003:0E633828       aSAudioOutputGe
 0003:0E633844       aSFailedToCallA
 0003:0E63386C       aSBeginToStopAu
 0003:0E633890       aAmbamovieplayb_5
 0003:0E6338A8       aSBeginToPauseA
 0003:0E6338CC       aAmbamovieplayb_6
 0003:0E6338E8       aSBeginToResume
 0003:0E63390C       aAmbamovieplayb_7
 0003:0E633928       aSFeedcaseFeedi
 0003:0E633954       aAmbamovieplayb_8
 0003:0E633970       aSPstartptsLlu
 0003:0E633988       aSVbwdfeedsidxU
 0003:0E6339B4       aAmbamovieplayb_9
 0003:0E6339D4       aPstartpts0x08x
 0003:0E633A34       aSVfeedidxUPsta
 0003:0E633A5C       aReceiveAudioRe
 0003:0E633A78       aMovieplaybackA
 0003:0E633A9C       aSReceiveAudioG
 0003:0E633AC4       aMovieplaybackF
 0003:0E633AE0       aAmbafsFseekErr_0
 0003:0E633B0C       aSEof
 0003:0E633B20       aMovieplaybackF_0
 0003:0E633B38       aSEndOfFile
 0003:0E633B48       aSAudioEnd
 0003:0E633B58       aDjimovietransf
 0003:0E633B70       aSUDjiaudiodemu
 0003:0E633B9C       aDjimovierecord_2
 0003:0E633BB8       aA1TotalEncoded
 0003:0E633BF4       aSUAmbaaudioDec
 0003:0E633C24       aMovieplaybackS
 0003:0E633C3C       aSAfeedidxU
 0003:0E633C50       aUnsupportSpeed
 0003:0E633C64       aMovieplaybackC
 0003:0E633C80       aSLatestdtsLlu
 0003:0E633C98       aMovieplaybackC_0
 0003:0E633CB4       aSLastPtsLlu
 0003:0E633CC8       aMovieplaybackP
 0003:0E633CE0       aSLineD
 0003:0E633CEC       aMovieplaybackR
 0003:0E633D08       aSLatestptsAfee
 0003:0E633D28       aDjimovieplayba
 0003:0E633D48       aTmpLluPmplyVfe
 0003:0E633D80       aPstartptsLluPm
 0003:0E633E10       aAmbamovierecor_3
 0003:0E633E28       aSFailToCreateT_0
 0003:0E633E48       aSFailToCreateK
 0003:0E633E68       aMovierecordkey
 0003:0E633E7C       aSFailToCreateT_1
 0003:0E633E94       aSFailToGetAudi
 0003:0E633EBC       aSFailToGetAudi_0
 0003:0E633EE4       aSFailToCombine
 0003:0E633F08       aAmbamovierecor_4
 0003:0E633F20       aSFailedToOpenE
 0003:0E633F4C       aFailToStartAud
 0003:0E633F6C       aWaitAvSync
 0003:0E633F7C       aWaitAvsyncRead
 0003:0E633F90       aSSuccess_0
 0003:0E633F9C       aAmbamovierecor_5
 0003:0E633FB4       aFailToStopAudi
 0003:0E633FD4       aSTimeoutSometh
 0003:0E634010       aSForceStopping
 0003:0E634030       aFailToStopAudi_0
 0003:0E634050       aAmbamovierecor_8
 0003:0E634068       aAmbamovierecor_6
 0003:0E634080       aAmbamovierecor_7
 0003:0E6340A4       aMessageCode0xX
 0003:0E6340B8       aH264BitstreamB
 0003:0E634110       aJpegBitstreamB
 0003:0E63413C       aMovierecordkey_0
 0003:0E634154       aSActualFlags0x
 0003:0E63416C       aSCardNotReady
 0003:0E634180       aEmergentStop
 0003:0E634198       aStopRec
 0003:0E6341A8       aStartRec
 0003:0E6341BC       aToggleRec
 0003:0E6341D0       aSSkipFlags
 0003:0E6341E0       aFreeSpaceLluBy
 0003:0E6341FC       aFreeSpaceMustB
 0003:0E634224       aSFailToCreateA
 0003:0E63424C       aSAmbadcfCreate
 0003:0E634270       aSFailedToDelet_0
 0003:0E634298       aSAmbamoviereco
 0003:0E6342BC       aStartMovieReco
 0003:0E6342D0       aStopMovieRecor
 0003:0E6342E4       aFailToOpenInpu
 0003:0E634300       aFailToStartAud_0
 0003:0E634320       aAvSync
 0003:0E634328       aMovierecordvid_0
 0003:0E634340       aSTranscodeFail
 0003:0E634360       aMovierecordvid_1
 0003:0E634378       aSThumbnailFlag
 0003:0E634390       a2VideoBufferFu
 0003:0E6343A8       aV2Eos
 0003:0E6343B4       a2VideoQueueFul
 0003:0E6343C8       aA2Eos
 0003:0E6343D4       a2AudioQueueFul
 0003:0E6343E8       a2ForceOut
 0003:0E6343F8       a2BufferOrQueue
 0003:0E634414       a2OverThreshold
 0003:0E634428       aM2TotalEncoded
 0003:0E634464       a2FreeSpaceIsnT
 0003:0E634480       aA2TotalEncoded
 0003:0E6344BC       a2EmergentStop
 0003:0E6344D0       aAmbamovierecor_9
 0003:0E6344F0       aSFailToCreateV_0
 0003:0E634510       aMovierecord2nd
 0003:0E634524       aSFailToCreateT_5
 0003:0E63453C       aSSuccess_2
 0003:0E634548       aAmbamovierecor_10
 0003:0E634568       aSFailedToTermi_2
 0003:0E634588       aSFailedToDelet_5
 0003:0E6345A4       aAmbamovierecor_11
 0003:0E6345C0       aThm_0
 0003:0E6345C8       aMuxDOpenS_0
 0003:0E6345D8       aSTimescaleNumu_0
 0003:0E634608       aAmbamovierecor_12
 0003:0E634628       aMuxDFileIsClos_0
 0003:0E634640       aMovierecordvid
 0003:0E634660       a1VideoBufferFu
 0003:0E634678       aV1Eos
 0003:0E634684       a1VideoQueueFul
 0003:0E634698       aSUFlag0x08xDat
 0003:0E6346BC       aA1Eos
 0003:0E6346C8       a1AudioQueueFul
 0003:0E6346DC       a1FreeSpaceIsnT
 0003:0E6346F8       aMovierecordtas_0
 0003:0E634710       a1ForceOut
 0003:0E634720       a1BufferOrQueue
 0003:0E63473C       aStopRecord
 0003:0E63474C       aDjiPrintRecSto
 0003:0E634780       aM1TotalEncoded
 0003:0E6347BC       a1OverThreshold
 0003:0E6347D0       aSSetTheAmbaMov
 0003:0E634800       aA1TotalEncoded_0
 0003:0E63483C       a1FreeSpaceIsnT_0
 0003:0E634888       a1EmergentStop
 0003:0E63489C       aAmbamovierecor
 0003:0E6348B8       aSFailToCreateV
 0003:0E6348D8       aMovierecordtas
 0003:0E6348E8       aSFailToCreateT
 0003:0E634900       aSSuccess
 0003:0E63490C       aAmbamovierecor_0
 0003:0E634928       aSFailedToTermi
 0003:0E634948       aSFailedToDelet
 0003:0E634964       aAmbamovierecor_1
 0003:0E634980       aSUCreateMovieM
 0003:0E6349A8       aMuxDOpenS
 0003:0E6349B8       aSTimescaleNumu
 0003:0E6349E8       aAmbamovierecor_2
 0003:0E634A04       aMuxDFileIsClos
 0003:0E634A1C       aDjixcodeexeent
 0003:0E634A34       aDjiXcodeSLUTak
 0003:0E634A5C       aDjiXcodeSLUInv
 0003:0E634A88       aDjixcodeexeent_0
 0003:0E634AA0       aDjiXcodeSLUThe
 0003:0E634ACC       aDjixcodeexeent_1
 0003:0E634AE8       aDjixcodeftreei
 0003:0E634AFC       aDjixcodeftreeu
 0003:0E634B10       aDjiXcodeSLUInv_0
 0003:0E634B50       aDjixcodeftreee
 0003:0E634B68       aDjixcodeftreee_0
 0003:0E634B84       aDjixcodeftrees
 0003:0E634BA4       aDjiXcodeSLUInv_1
 0003:0E634BD0       aDjixcodeexeent_2
 0003:0E634BE8       aDjiXcodeSLUTak_0
 0003:0E634C24       aDjictrlentryge
 0003:0E634C34       aDjiXcodeSLUSTa
 0003:0E634C74       aDjiPrintDjictr
 0003:0E634CC0       aDjictrlentrycl
 0003:0E634CD0       aDjiXcodeSLUInv_2
 0003:0E634D04       aDjictrlentryfu
 0003:0E634D18       aAmbamovietrans
 0003:0E634D34       aSUTimevalDMs
 0003:0E634D70       aDjimovietransc
 0003:0E634D88       aDjiXcodeSLUInp
 0003:0E634DB8       aDjiXcodeSLUDji
 0003:0E634DF4       aDjiXcodeSLUDji_0
 0003:0E634E2C       aDjiXcodeSLUDji_1
 0003:0E634E60       aDjiXcodeSLUDji_2
 0003:0E634E9C       aDjiXcodeSLUDji_3
 0003:0E634ED4       aC1Mov
 0003:0E634EE0       aDjimovietransc_0
 0003:0E634EFC       aDjiXcodeSLUPau
 0003:0E634F34       aDjimovietransc_1
 0003:0E634F50       aDjiXcodeSLURes
 0003:0E634F88       aDjitranscodest
 0003:0E634FA0       aDjiXcodeSLUTak_1
 0003:0E634FDC       aDjixcodefile
 0003:0E634FEC       aSStart_5
 0003:0E634FF8       aSEnd_4
 0003:0E635000       aDjitranscodere
 0003:0E635018       aDjiXcodeSLUInv_3
 0003:0E635054       aDjitranscodere_0
 0003:0E635068       aDjiXcodeSLUInv_4
 0003:0E635098       aDjiXcodeSLUUns
 0003:0E6350C8       aDjiXcodeSLUSTa_0
 0003:0E635108       aDjitranscodere_1
 0003:0E63511C       aDjitranscodesr
 0003:0E635138       aDjitranscodede
 0003:0E635150       aDjiXcodeSLUInv_5
 0003:0E63518C       aDjitranscodecl
 0003:0E6351A4       aDjiXcodeSLUSDj
 0003:0E6351E0       aDjitranscodest_0
 0003:0E6351F8       aDjiXcodeSLUFps
 0003:0E635248       aDjitranscodefp
 0003:0E63525C       aDjixcodefnumse
 0003:0E63526C       aDjiXcodeSLUSTa_1
 0003:0E6352B4       aDjixcodedfnumi
 0003:0E6352CC       aReceiveStopCur
 0003:0E635310       aReceiveStopAll
 0003:0E635350       aDjixcodetasken
 0003:0E635364       aDjiXcodeSLUDeq
 0003:0E635394       aDjiXcodeSLUDji_4
 0003:0E6353C8       aDjiXcodeSLUGet
 0003:0E635414       aDjiXcodeSLUDji_5
 0003:0E635450       aDjiXcodeSLUDji_6
 0003:0E635490       aDjiXcodeSLUDji_7
 0003:0E6354C4       aDjiXcodeSLUUui
 0003:0E635504       aDjiXcodeSLUThe_0
 0003:0E635548       aDjiXcodeSLUThe_1
 0003:0E635588       aDjiXcodeSLUGet_0
 0003:0E6355C4       aStopTheCurrent
 0003:0E6355E8       aDjixcodectrlta
 0003:0E635600       aDjiXcodeSLUMsg
 0003:0E635654       aDjiXcodeSLURes_0
 0003:0E635690       aDjiPrintSRecei
 0003:0E6356C0       aDjiXcodeSLUCli
 0003:0E6356FC       aDjiXcodeSLUCle
 0003:0E635738       aDjiXcodeSLUDji_8
 0003:0E635770       aDjiXcodeSLUGet_1
 0003:0E6357B0       aDjiXcodeSLUIns
 0003:0E6357F8       aDjiXcodeSLUEnq
 0003:0E635844       aDjiXcodeSLUGiv
 0003:0E635888       aDjiXcodeSLUInv_6
 0003:0E6358B4       aDjixcodecomman
 0003:0E6358CC       aDjiXcodeSLUDji_9
 0003:0E635904       aDjiXcodeSLUSen
 0003:0E635940       aDjiXcodeSLUSen_0
 0003:0E6359A4       aDjientriesctrl
 0003:0E6359B8       aDjiXcodeSLUAll
 0003:0E6359F0       aDjiXcodeSLUCre
 0003:0E635A18       aDjiqueuectrlhe
 0003:0E635A30       aDjiXcodeSLUCre_0
 0003:0E635A64       aDjiXcodeSLUCre_1
 0003:0E635AA4       aDjixcodeinit
 0003:0E635AB4       aDjiXcodeSLUMut
 0003:0E635AF0       aDjiXcodeSLU2Mu
 0003:0E635B2C       aDjiXcodeSLU3Mu
 0003:0E635B70       aDjiXcodeSLUAll_0
 0003:0E635BB4       aDjiXcodeSLUDji_10
 0003:0E635BE8       aDjiXcodeSLUAll_1
 0003:0E635C2C       aDjiXcodeSLUIni
 0003:0E635C64       aDjixcodetask
 0003:0E635C74       aDjiXcodeSLUFai
 0003:0E635CA8       aDjiXcodeSLUCre_2
 0003:0E635CEC       aDjiXcodeSLUCre_3
 0003:0E635D38       aDjixcodectrlta_0
 0003:0E635D4C       aDjiXcodeSLUFai_0
 0003:0E635D88       aDjiTranscodeIn
 0003:0E635DA0       aDjiPrintStateF
 0003:0E635DD0       aAmbamovmuxerCr
 0003:0E635DE4       aSMuxidDFileNam
 0003:0E635E00       aSUOpenFileSFai
 0003:0E635E34       aMdat
 0003:0E635E3C       aAmbamovmuxerDe
 0003:0E635E54       aSBeginToCloseT
 0003:0E635E78       aTotalmdatsize0
 0003:0E635EA0       aSLDThisIsAnErr
 0003:0E635EC0       aAmbamovmuxerWr
 0003:0E635ED4       aSBufferFull
 0003:0E635EE4       aInvalidH264Str
 0003:0E635F7C       aCUcodeOrccodeB
 0003:0E635F94       aCUcodeOrcmeBin
 0003:0E635FA8       aCUcodeOrcmdxfB
 0003:0E635FC0       aCUcodeDefaultB
 0003:0E635FDC       aLoadSTo0x08xSi
 0003:0E635FFC       aLoadDspUcodeTi
 0003:0E636018       aPleaseLoadUcod
 0003:0E636040       aAndHitAnyKeyWh
 0003:0E63606C       aDjiopmodeinit
 0003:0E63607C       aSOpmodeValueDU
 0003:0E6360B4       aSChangeOperati
 0003:0E6360E0       aAmbaprefLoadDo
 0003:0E6360F4       a1111S
 0003:0E636128       aAmbadspImgarch
 0003:0E636148       aAmbadspImgarch_0
 0003:0E636168       aAmbadspImgarch_1
 0003:0E63618C       aAmbadspImgarch_2
 0003:0E6361B0       aAmbadspImgarch_3
 0003:0E6361D4       aAmbadspImgarch_4
 0003:0E6361FC       aAmbadspImgarch_5
 0003:0E636224       a1111E
 0003:0E636258       aJapanesefontTt
 0003:0E63626C       aKeyEvent0xX
 0003:0E636280       aBeforeAmbalive
 0003:0E6362A8       aSameMode
 0003:0E6362BC       aAmbaopmodectrl
 0003:0E6362D0       aVerifyingImage
 0003:0E636300       aVerifyingImage_0
 0003:0E636320       aCheckingBst
 0003:0E636330       aCheckingPba
 0003:0E636340       aCannotReadFwIm
 0003:0E636360       aInvalidCrc32Co
 0003:0E636374       aLengthD_0
 0003:0E636384       aCrc320x08x
 0003:0E636394       aVerNumDD
 0003:0E6363A4       aVerDateDDD
 0003:0E6363B8       aImgLenD
 0003:0E6363C8       aMemAddr0x08x
 0003:0E6363DC       aFirmwareFileSD
 0003:0E6363FC       aCanTGetPtbEras_0
 0003:0E636414       aFopenSFail
 0003:0E636424       aCannotSeekFirm
 0003:0E636440       aCanTReadFirmwa
 0003:0E63645C       aCheckFirmwareI
 0003:0E636478       aCannotFwImageS
 0003:0E6364AC       aFirmwareImageR
 0003:0E6364C8       aProgramBstToNa
 0003:0E6364E8       aProgramPbaToNa
 0003:0E636508       aFailed
 0003:0E636510       aUnableToUpdate_0
 0003:0E63652C       aDone
 0003:0E636534       aFirmwareModelN
 0003:0E636558       aFc300x_4
 0003:0E636560       aImageSIsFound
 0003:0E636578       aImageSIsIncorr
 0003:0E636594       aCanTSeekFirmwa
 0003:0E6365AC       aNoPartitionInf
 0003:0E6365CC       aFirmwareHeader
 0003:0E6365E8       aStartFirmwareC
 0003:0E636608       aCheckingS
 0003:0E636618       aPicdisptaskXSt_0
 0003:0E636630       aNotInPlaybackM_0
 0003:0E636654       aThumbnialViewS
 0003:0E63666C       aVideoPlayState
 0003:0E636680       aXcodeDisplaySt
 0003:0E636694       aSingleViewStat
 0003:0E6366A8       aPicdisptaskXSt
 0003:0E6366C4       aPicdisptaskXEn
 0003:0E6366D8       aAmbapicturedis
 0003:0E6366F8       aPictureDisplay
 0003:0E636710       aInAmbapllSetop_0
 0003:0E636728       aOutAmbapllSeto_1
 0003:0E636748       aAmbadcfGetfile_3
 0003:0E63679C       aFileamountD
 0003:0E6367D4       aAmbapicturedis_0
 0003:0E6367F8       aReturnNgAtSSD
 0003:0E636814       aDSvnViewA9sCam
 0003:0E636870       aFileinfoDD
 0003:0E636880       aPicdispDecodes
 0003:0E63689C       aDjidcfGetfilet_1
 0003:0E6368F0       aDecodeSreennai_0
 0003:0E63690C       aDjidngLocinfog
 0003:0E636934       aDecodeSreennai
 0003:0E636950       aPicdispParsefi
 0003:0E636964       aSFileIsDngType
 0003:0E636984       aAmbapicturedis_1
 0003:0E6369A4       aSSOptionD
 0003:0E6369B8       aAmbagdmaWaitco
 0003:0E6369D8       aES
 0003:0E6369E0       aXcodedisplayHa
 0003:0E6369F8       aSStart_3
 0003:0E636A04       aSEnd_2
 0003:0E636A0C       aImx117Enable
 0003:0E6372A4       aCalibMgr1RvalD
 0003:0E6372BC       aOutputStringS
 0003:0E6372D0       aPath
 0003:0E6372D8       aTCalMgrCmdCali
 0003:0E637348       aCalibMgr2RvalD
 0003:0E637360       aCalibTestComma
 0003:0E637378       aSiteInitCalibr
 0003:0E63739C       aMgrForDoingCal
 0003:0E6373BC       aBpcAmbaBadPixe
 0003:0E6373E0       aVncAmbaVignett
 0003:0E637404       aBlcAmbaBlackLe
 0003:0E637428       aWbAmbaBlackLev
 0003:0E63744C       aWarpWarpCalibr
 0003:0E637468       aAmbacalibTestc
 0003:0E63747C       aSCmdS
 0003:0E637488       aSiteInit
 0003:0E637494       aWarp_1
 0003:0E63749C       aDjiCalMgrRetD
 0003:0E6374B4       aInit_4
 0003:0E6374BC       aInitImageKerne
 0003:0E6374D0       aSinfo
 0003:0E6374D8       aVinSensorInfo
 0003:0E6374E8       aBlc
 0003:0E6374F0       aBlackLevelCorr
 0003:0E63752C       aRgbToYuvSetup
 0003:0E637544       aColorCorrectio_0
 0003:0E63755C       aTone
 0003:0E637564       aToneCurveSetup
 0003:0E637578       aDpc
 0003:0E637580       aDynamicBadPixe_1
 0003:0E6375A4       aFpn
 0003:0E6375AC       aFpnCorrectionS
 0003:0E6375C8       aAntialisingSet
 0003:0E6375E0       aLeakageFilterS
 0003:0E6375F8       aCnf
 0003:0E637600       aCfaNoiseFilter_2
 0003:0E637618       aVnc
 0003:0E637620       aVignetteCompen_0
 0003:0E63763C       aLe
 0003:0E637640       aLocalExposureS
 0003:0E63765C       aChromaScaleSet
 0003:0E637670       aCmf
 0003:0E637678       aChromaMedianFi_0
 0003:0E637694       aCcReg
 0003:0E63769C       aColorCorrectio_1
 0003:0E6376BC       aShp
 0003:0E6376C4       aHarpeningFilte
 0003:0E6376DC       aDms
 0003:0E6376E4       aDemosaicSetup
 0003:0E6376F4       aMctf_1
 0003:0E6376FC       aMctfConfigurat
 0003:0E637720       aCdnr_0
 0003:0E637728       aColorDependent
 0003:0E637750       aAsf
 0003:0E637758       aAdvanceSpatial
 0003:0E637778       aDefblc
 0003:0E637780       aDzoom
 0003:0E637788       aDzoomSetup
 0003:0E637794       aWarp_2
 0003:0E63779C       aWarpSetup
 0003:0E6377BC       aStat
 0003:0E6377C4       aAaaStatisticsS_2
 0003:0E6377DC       aFloat
 0003:0E6377E4       aFloatingAaaSta
 0003:0E637804       aIdsp
 0003:0E63780C       aIdspDebugUtili
 0003:0E637824       aRawenc
 0003:0E63782C       aRawEncode
 0003:0E637838       aRaw
 0003:0E637840       aRawCapture
 0003:0E63784C       aLowiso
 0003:0E637854       aLowIsoVerifica
 0003:0E637874       aItuner
 0003:0E63787C       aItunerVerifica
 0003:0E63789C       aMsc
 0003:0E6378A4       aConfigMsc
 0003:0E6378B0       aClean_0
 0003:0E6378BC       aChromaFilterSe
 0003:0E6378D0       aMode_2
 0003:0E6378D8       aTestModeSetup
 0003:0E6378E8       aHighiso
 0003:0E6378F4       aHighIsoVerific
 0003:0E637914       aIdspcfg
 0003:0E637920       aIdspConfigurat
 0003:0E637938       aRash
 0003:0E637940       aRecursiveAmbaS
 0003:0E637958       aFlow
 0003:0E637960       aChangeModeAndC
 0003:0E637980       aVrawenc
 0003:0E63798C       aVideoRawEncode
 0003:0E6379A0       aShowCmd
 0003:0E6379AC       aShowImageParam
 0003:0E6379D4       aStatEx
 0003:0E6379E0       aAaaStatisticsE
 0003:0E637A00       aGmv
 0003:0E637A08       aGmvSetup
 0003:0E637A14       aTestIs2InitTot
 0003:0E637A40       aTestIs2InitAmb
 0003:0E637A74       aTestIs2InitAmb_0
 0003:0E637AC4       aCurrentVinSens
 0003:0E637B18       aUsageTSSinfoGe
 0003:0E637B50       aCurrentModePip
 0003:0E637BAC       aUsageTSModeGet
 0003:0E637C40       aCurrentBlackLe
 0003:0E637C64       aUsageTSBlcGetT
 0003:0E637CE4       aCurrentWbGainR
 0003:0E637D08       aUsageTSWbGetTh
 0003:0E637D7C       aCurrentR2yMatr
 0003:0E637D9C       a4d4d4d
 0003:0E637DB4       aCurrentYuvOffs
 0003:0E637DDC       aUsageTSR2yGetT
 0003:0E637E70       aSDCallAmbashel
 0003:0E637E98       aTestIs2Rash
 0003:0E637EA8       aSDStackDepthIs
 0003:0E637ECC       aSDCallAmbashel_0
 0003:0E637F08       aStackOverflow
 0003:0E637F18       aStackUnderflow
 0003:0E637F28       aTImgRash
 0003:0E637F34       aAmbshSCommandN_0
 0003:0E637F58       aUsageTSRashAsh
 0003:0E638064       aVideoRawEncPro
 0003:0E638088       aSDErrorShouldN
 0003:0E6380D8       aYuvDataPostPro
 0003:0E6380F0       aSDFrameidxDDD
 0003:0E638110       aSSDxDSFrameDY
 0003:0E63812C       aSDPathS
 0003:0E638140       aSDCallAmbafsFo
 0003:0E638164       aSSDxDSFrameDUv
 0003:0E638180       aSDDumpYuvFinis
 0003:0E63819C       aFeedDataPrePro
 0003:0E6381B4       aSDRaw
 0003:0E6381C0       aSDFrameidxDDXD
 0003:0E6381F0       aSDReplaceRawFi
 0003:0E63820C       aTestIs2VideoRa
 0003:0E638224       aInit_3
 0003:0E63822C       aUninit
 0003:0E638234       aWaitYuv
 0003:0E638240       aSDWithoutEnabl
 0003:0E638268       aSDWaitYuvSemTi
 0003:0E638288       aHYuvDataReady
 0003:0E63829C       aWaitVideo
 0003:0E6382A8       aSDWaitVideoEnc
 0003:0E6382C8       aFeedRaw
 0003:0E6382D4       aSetRawSrc
 0003:0E6382E0       aSDSetRawpathS
 0003:0E6382FC       aProgRaw
 0003:0E638308       aSDProgramFull
 0003:0E638320       aSDErrorDS
 0003:0E638338       aSDVtunerHdlrRa
 0003:0E638370       aFlowCtrl
 0003:0E63837C       aDumpYuv
 0003:0E638388       aUsageTSSInitIn
 0003:0E6383DC       aUsageTSSUninit
 0003:0E638434       aUsageTSSFlowCt
 0003:0E638490       aEnable01
 0003:0E6384A8       aUsageTSSDumpYu
 0003:0E638538       aDestFolderPath
 0003:0E638578       aFilenamePrefix
 0003:0E6385F4       aUsageTSSWaitYu
 0003:0E638638       aUsageTSSWaitVi
 0003:0E638684       aUsageTSSFeedRa
 0003:0E6386D0       aUsageTSSSetRaw
 0003:0E63870C       aUsageTSSProgRa
 0003:0E63875C       aRawfilepathpre
 0003:0E6387DC       aProgramAllowUs
 0003:0E638838       aSwMode
 0003:0E638840       aStillCap
 0003:0E63884C       aVtune
 0003:0E638864       aSwOpt
 0003:0E63886C       a4k2kLv
 0003:0E638874       aVidRawCap
 0003:0E638880       aVidTune
 0003:0E6388A4       aUsageTSFlowSwM
 0003:0E6388CC       aAppModeStillCa
 0003:0E6388F0       aUsageTSFlowSwO
 0003:0E638914       aAppOpt4k2kLvVi
 0003:0E638948       aCurrentCc3dTab
 0003:0E63896C       aLoad_0
 0003:0E638974       aUsageTSCcGetTh
 0003:0E6389F8       aRed_0
 0003:0E6389FE       aGreen_0
 0003:0E638A04       aBlue
 0003:0E638A0C       aCurrentToneCur
 0003:0E638A24       a4d_0
 0003:0E638A2C       aSetLinear
 0003:0E638A38       aUsageTSToneGet
 0003:0E638AD8       aCurrentDynamic
 0003:0E638B38       aUsageTSDpcGetT
 0003:0E638BE0       aWarnTypeDoesnT
 0003:0E638BFC       aHighlight
 0003:0E638C08       aFpnHighlightMo
 0003:0E638C1C       aDebug_5
 0003:0E638C24       aFpnSizeInfoFpn
 0003:0E638C54       aFpnBypassMode
 0003:0E638C64       aUsageTSFpnGetT
 0003:0E638DBC       aCurrentAntiali
 0003:0E638DE0       aUsageTSAaGetTh
 0003:0E638E5C       aCurrentLeakage
 0003:0E638EC8       aUsageTSLkGetTh
 0003:0E638F68       aUsageTSMscGetT
 0003:0E638FEC       aCurrentCfaNois
 0003:0E63901C       aNoiseLevelRDGD
 0003:0E639038       aOriginalBlendS
 0003:0E63905C       aExtentRegularR
 0003:0E63907C       aExtentFineRDGD
 0003:0E639098       aStrengthFineRD
 0003:0E6390B8       aSelectivityReg
 0003:0E6390E4       aDefault_0
 0003:0E6390EC       aUsageTSCnfGetT
 0003:0E639194       aTest_6
 0003:0E63919C       aBypasstest
 0003:0E6391A8       aColumnDGainD
 0003:0E6391BC       aRowDGainD
 0003:0E6391D0       aPgainDD
 0003:0E6391E0       aUsageTSVncGetT
 0003:0E6395B8       aCurrentLocalEx
 0003:0E639644       aCurrentGainCur
 0003:0E639660       aUsingDefaultLe
 0003:0E639678       aUsageTSLeGetTh
 0003:0E63974C       aCurrentChromaS
 0003:0E639778       aUsingDefaultCh
 0003:0E63979C       aUsageTSCsGetTh
 0003:0E639830       aCurrentChromaM
 0003:0E639928       aUsageTSCmfGetT
 0003:0E639A04       aCurrentCcRegTa
 0003:0E639A28       aUsageTSCcRegGe
 0003:0E639AB0       aCurrentMctfSet
 0003:0E639AC8       aEnableDYcombin
 0003:0E639AEC       aChanInfoD
 0003:0E639AFC       aTemporalalpha0_0
 0003:0E639B14       aTemporalalpha1
 0003:0E639B2C       aTemporalalpha2
 0003:0E639B44       aTemporalalpha3
 0003:0E639B5C       aTemporalt0D
 0003:0E639B70       aTemporalt1D
 0003:0E639B84       aTemporalt2D
 0003:0E639B98       aTemporalt3D
 0003:0E639BAC       aTemporalmaxcha_0
 0003:0E639BC8       aRadiusD_0
 0003:0E639BD8       aStrengththreed_0
 0003:0E639BF0       aStrengthspatia_0
 0003:0E639C08       aLeveladjustD_0
 0003:0E639C1C       aFileOpenedErro
 0003:0E639C4C       aSave_0
 0003:0E639C54       aCurrentmctfcfg
 0003:0E639C70       aFileOpenedErro_0
 0003:0E639CA0       aEnable_4
 0003:0E639CA8       aEnableD_7
 0003:0E639CB4       aCmprEn
 0003:0E639CBC       aZmvEn
 0003:0E639CC4       aZmvEnableD
 0003:0E639CD4       aGhost
 0003:0E639CDC       aUsageTSMctfGet
 0003:0E639D14       aTSMctfEnableEn
 0003:0E639D58       aTSMctfSaveMctf
 0003:0E639DA0       aTSMctfZmvEnEna
 0003:0E639DE4       aTSMctfLoadMctf
 0003:0E639E3C       aCurrentColorDe
 0003:0E639E8C       aUsageTSCdnrGet
 0003:0E639F38       aUsageTSAsfGetT
 0003:0E63A04C       aCurrentDefBlcS
 0003:0E63A084       aUsageTSDefblcG
 0003:0E63A0F8       aDmyRange
 0003:0E63A104       aExtVerRange
 0003:0E63A114       aUsageTIs2Dzoom
 0003:0E63A560       aWarpSizeInfoVc
 0003:0E63A5A8       aCurrentWarpInf
 0003:0E63A5C0       aVert
 0003:0E63A5C8       aWindowinfo
 0003:0E63A5D4       aWarpwininfoDzo
 0003:0E63A5FC       aWarpwininfoDzo_0
 0003:0E63A624       aWarpwininfoDzo_1
 0003:0E63A64C       aWarpwininfoDzo_2
 0003:0E63A674       aWarpwininfoAct
 0003:0E63A69C       aWarpwininfoAct_0
 0003:0E63A6C4       aWarpwininfoAct_1
 0003:0E63A6EC       aWarpwininfoAct_2
 0003:0E63A714       aWarpwininfoDmy
 0003:0E63A73C       aWarpwininfoDmy_0
 0003:0E63A764       aWarpwininfoDmy_1
 0003:0E63A78C       aWarpwininfoDmy_2
 0003:0E63A7B4       aWarpwininfoCfa
 0003:0E63A7DC       aWarpwininfoCfa_0
 0003:0E63A804       aWarpwininfoMai
 0003:0E63A82C       aWarpwininfoMai_0
 0003:0E63A854       aWarpcoretrasnf
 0003:0E63A868       aVinsensorgeoSt
 0003:0E63A888       aVinsensorgeoSt_0
 0003:0E63A8A8       aVinsensorgeoWi
 0003:0E63A8C8       aVinsensorgeoHe
 0003:0E63A8E8       aVinsensorgeoHs
 0003:0E63A908       aVinsensorgeoVs
 0003:0E63A928       aDzoominfoZoomx
 0003:0E63A940       aDzoominfoZoomy
 0003:0E63A958       aDzoominfoShift
 0003:0E63A970       aDzoominfoShift_0
 0003:0E63A988       aDmyrangeBottom
 0003:0E63A9A0       aDmyrangeTopD
 0003:0E63A9B8       aDmyrangeLeftD
 0003:0E63A9D0       aDmyrangeRightD
 0003:0E63A9E8       aMainwindimWidt_0
 0003:0E63AA00       aMainwindimHeig_0
 0003:0E63AA20       aEisHorskewphas
 0003:0E63AA3C       aEisVerskewphas
 0003:0E63AA58       aOutput_1
 0003:0E63AA7C       aWindowinfoActw_3
 0003:0E63AAA4       aWindowinfoActw_4
 0003:0E63AACC       aWindowinfoActw_5
 0003:0E63AAF4       aWindowinfoActw_6
 0003:0E63AB1C       aWindowinfoDmyw_3
 0003:0E63AB40       aWindowinfoDmyw_4
 0003:0E63AB64       aWindowinfoDmyw_5
 0003:0E63AB88       aWindowinfoDmyw_6
 0003:0E63ABAC       aWindowinfoCfaw
 0003:0E63ABD0       aWindowinfoCfaw_0
 0003:0E63ABF4       aForceToNonstit
 0003:0E63AC10       aErrorCalcGridN_0
 0003:0E63AC4C       aTestHorVerWarp
 0003:0E63AC68       aDD
 0003:0E63AC74       aTest2xDzoom
 0003:0E63AC84       aTest2xDzoomWit
 0003:0E63ACAC       aTest1xDzoom
 0003:0E63ACBC       aTestOnly2xDzoo
 0003:0E63ACE0       aExtraEffectRot
 0003:0E63ACFC       aCalcGridNumber_0
 0003:0E63AD34       aPDD
 0003:0E63AD40       aExtraEffect
 0003:0E63AD70       aTmpchannelinde
 0003:0E63AD88       aImgmodeBatchid
 0003:0E63ADA0       aNoThisPattern
 0003:0E63ADB4       aUsageTSWarpGet
 0003:0E63AF20       aCawarpSizeInfo
 0003:0E63AF68       aCurrentCawarpI
 0003:0E63AF84       aTestHorVerCawa
 0003:0E63AFB8       aCalcGridNumber
 0003:0E63AFD4       aUsageTSCaGetCa
 0003:0E63B104       aTestIs2Stat
 0003:0E63B114       aTestCommandGet
 0003:0E63B14C       aCurrentAwbStat
 0003:0E63B174       aAwbTileNumColD
 0003:0E63B188       aAwbTileNumRowD
 0003:0E63B19C       aAwbTileColStar_0
 0003:0E63B1B4       aAwbTileRowStar_0
 0003:0E63B1CC       aAwbTileWidthD
 0003:0E63B1E0       aAwbTileHeightD
 0003:0E63B1F4       aAwbTileActiveW_0
 0003:0E63B210       aAwbTileActiveH_0
 0003:0E63B22C       aAwbPixMinValue_0
 0003:0E63B244       aAwbPixMaxValue_0
 0003:0E63B25C       aCurrentAeStati
 0003:0E63B284       aAeTileNumColD
 0003:0E63B298       aAeTileNumRowD
 0003:0E63B2AC       aAeTileColStart_0
 0003:0E63B2C4       aAeTileRowStart_0
 0003:0E63B2DC       aAeTileWidthD
 0003:0E63B2F0       aAeTileHeightD
 0003:0E63B304       aAePixMinValueD
 0003:0E63B318       aAePixMaxValueD
 0003:0E63B32C       aCurrentAfStati
 0003:0E63B354       aAfTileNumColD
 0003:0E63B368       aAfTileNumRowD
 0003:0E63B37C       aAfTileColStart_0
 0003:0E63B394       aAfTileRowStart_0
 0003:0E63B3AC       aAfTileWidthD
 0003:0E63B3C0       aAfTileHeightD
 0003:0E63B3D4       aAfTileActiveWi_0
 0003:0E63B3EC       aAfTileActiveHe_0
 0003:0E63B408       aCurrentAfStati_0
 0003:0E63B434       aAfhorizontalfi
 0003:0E63B450       aAfhorizontalfi_0
 0003:0E63B470       aAfhorizontalfi_1
 0003:0E63B490       aAfhorizontalfi_2
 0003:0E63B4B0       aAfhorizontalfi_3
 0003:0E63B4D0       aAfhorizontalfi_4
 0003:0E63B4F0       aAfhorizontalfi_5
 0003:0E63B510       aAfhorizontalfi_6
 0003:0E63B530       aAfverticalfilt
 0003:0E63B54C       aAfhorizontalfi_7
 0003:0E63B568       aAfhorizontalfi_8
 0003:0E63B588       aAfhorizontalfi_9
 0003:0E63B5A8       aAfhorizontalfi_10
 0003:0E63B5C8       aAfhorizontalfi_11
 0003:0E63B5E8       aAfhorizontalfi_12
 0003:0E63B608       aAfhorizontalfi_13
 0003:0E63B628       aAfhorizontalfi_14
 0003:0E63B648       aAfverticalfilt_0
 0003:0E63B664       aAftilefv1horiz
 0003:0E63B680       aAftilefv1verti
 0003:0E63B69C       aAftilefv1horiz_0
 0003:0E63B6BC       aAftilefv1verti_0
 0003:0E63B6D8       aAftilefv2horiz
 0003:0E63B6F4       aAftilefv2verti
 0003:0E63B710       aAftilefv2horiz_0
 0003:0E63B730       aAftilefv2verti_0
 0003:0E63B74C       aConfig
 0003:0E63B754       aFlag3aTest1
 0003:0E63B768       aCurrentCfaAeSt
 0003:0E63B7AC       a6d_1
 0003:0E63B7B4       aCurrentCfaAeCo
 0003:0E63B7D0       aCurrentCfaAeCo_0
 0003:0E63B7EC       aCurrentCfaAeTi
 0003:0E63B814       aCurrentCfaAeTi_0
 0003:0E63B838       aCurrentCfaAeTi_1
 0003:0E63B858       aCurrentCfaAeTi_2
 0003:0E63B87C       aCurrentCfaAeLi
 0003:0E63B8A0       aCurrentRgbAeSt
 0003:0E63B8E4       aCurrentRgbAeTi
 0003:0E63B90C       aCurrentRgbAeTi_0
 0003:0E63B930       aCurrentRgbAeTi_1
 0003:0E63B950       aCurrentRgbAeTi_2
 0003:0E63B974       aCurrentRgbAeYS
 0003:0E63B994       aCurrentCfaAwbS
 0003:0E63B9D8       aRedStatistics
 0003:0E63B9F4       aGreenStatistic
 0003:0E63BA14       aBlueStatistics
 0003:0E63BA34       aCountMin
 0003:0E63BA4C       aCountMax
 0003:0E63BA64       aCurrentCfaAwbT
 0003:0E63BA8C       aCurrentCfaAwbT_0
 0003:0E63BAB4       aCurrentCfaAwbT_1
 0003:0E63BADC       aCurrentCfaAwbT_2
 0003:0E63BB04       aCurrentCfaAwbR
 0003:0E63BB28       aCurrentCfaAfSt
 0003:0E63BB6C       aYStatistics
 0003:0E63BB88       aFv1Statistics
 0003:0E63BBA8       aFv2Statistics
 0003:0E63BBC8       aCurrentCfaAfTi
 0003:0E63BBEC       aCurrentCfaAfTi_0
 0003:0E63BC10       aCurrentCfaAfTi_1
 0003:0E63BC34       aCurrentCfaAfTi_2
 0003:0E63BC5C       aCurrentCfaAfYS
 0003:0E63BC7C       aCurrentRgbAfSt
 0003:0E63BCC0       aCurrentRgbAfTi
 0003:0E63BCE8       aCurrentRgbAfTi_0
 0003:0E63BD0C       aCurrentRgbAfTi_1
 0003:0E63BD30       aCurrentRgbAfTi_2
 0003:0E63BD58       aCurrentRgbAfYS
 0003:0E63BD78       aSDSaveStatFile
 0003:0E63BDA0       aShow_2
 0003:0E63BDA8       aHeader
 0003:0E63BDB0       aRgbHeader
 0003:0E63BDBC       aCfaHeader
 0003:0E63BDC8       aAwbtilecolstar_1
 0003:0E63BDDC       aAwbtilerowstar_1
 0003:0E63BDF0       aAwbtilewidthD_1
 0003:0E63BE00       aAwbtileheightD_1
 0003:0E63BE14       aAwbtileactivew_1
 0003:0E63BE2C       aAwbtileactiveh_1
 0003:0E63BE44       aAwbrgbshiftD_1
 0003:0E63BE54       aAwbyshiftD_1
 0003:0E63BE64       aAwbminmaxshift_1
 0003:0E63BE78       aAetilecolstart_1
 0003:0E63BE8C       aAetilerowstart_1
 0003:0E63BEA0       aAetilewidthD_1
 0003:0E63BEB0       aAetileheightD_1
 0003:0E63BEC0       aAeyshiftD_1
 0003:0E63BECC       aAelinearyshift_1
 0003:0E63BEE0       aAftilecolstart_1
 0003:0E63BEF4       aAftilerowstart_1
 0003:0E63BF08       aAftilewidthD_1
 0003:0E63BF18       aAftileheightD_1
 0003:0E63BF28       aAftileactivewi_1
 0003:0E63BF40       aAftileactivehe_1
 0003:0E63BF58       aAfyshiftD_1
 0003:0E63BF64       aAfcfayshiftD_1
 0003:0E63BF74       aAwbtilenumcolD_2
 0003:0E63BF88       aAwbtilenumrowD_1
 0003:0E63BF9C       aAetilenumcolD_1
 0003:0E63BFAC       aAetilenumrowD_1
 0003:0E63BFBC       aAftilenumcolD_1
 0003:0E63BFCC       aAftilenumrowD_1
 0003:0E63BFDC       aTotalslicesxD_1
 0003:0E63BFEC       aTotalslicesyD_1
 0003:0E63BFFC       aSliceindexxD_1
 0003:0E63C00C       aSliceindexyD_1
 0003:0E63C01C       aSlicewidthD_1
 0003:0E63C02C       aSliceheightD_1
 0003:0E63C03C       aSlicestartxD_1
 0003:0E63C04C       aSlicestartyD_1
 0003:0E63C060       aCurrentCfaAeCo_1
 0003:0E63C07C       aCurrentCfaAeCo_2
 0003:0E63C098       aCurrentCfaAeTi_3
 0003:0E63C0BC       aCurrentRgbAeTi_3
 0003:0E63C0E0       aGreenStatistic_0
 0003:0E63C100       aBlueStatistics_0
 0003:0E63C120       aCountMin_0
 0003:0E63C138       aFv1Statistics_0
 0003:0E63C154       aFv2Statistics_0
 0003:0E63C170       aCurrentRgbAfTi_3
 0003:0E63C194       aHist
 0003:0E63C19C       aCurrentCfaHist
 0003:0E63C1C0       aRHistogram
 0003:0E63C1DC       a12d
 0003:0E63C1E4       aGHistogram
 0003:0E63C200       aBHistogram
 0003:0E63C21C       aYHistogram
 0003:0E63C238       aCurrentRgbHist
 0003:0E63C25C       aDump_1
 0003:0E63C264       aWriteRgbStatis
 0003:0E63C280       aWriteCfaStatis
 0003:0E63C29C       aUsageTSStatGet
 0003:0E63C2DC       aTSStatConfigAe
 0003:0E63C364       aTSStatConfigAw
 0003:0E63C3FC       aTSStatConfigAf
 0003:0E63C480       aTSStatShowAeAw
 0003:0E63C4D0       aTSStatDumpRgbP
 0003:0E63C524       aTSStatSaveTxtP
 0003:0E63C564       aFloatAaaInfoFr
 0003:0E63C584       aFloatAaaInfoNu
 0003:0E63C5A8       aDFloatTileColS
 0003:0E63C5C8       aDFloatTileRowS
 0003:0E63C5E8       aDFloatTileWidt
 0003:0E63C604       aDFloatTileHeig
 0003:0E63C620       aDFloatTileShif
 0003:0E63C63C       aFloatTileDColS
 0003:0E63C684       aCfaAeStatistic
 0003:0E63C6C0       aRgbAeStatistic
 0003:0E63C6E0       aCfaAwbStatisti
 0003:0E63C734       aCfaAfStatistic
 0003:0E63C764       aRgbAfStatistic
 0003:0E63C7B4       aUsageTSFloatGe
 0003:0E63C8F0       aPseudoY
 0003:0E63C8FC       aCurrentPseudoY
 0003:0E63C918       aModeDSumshiftD
 0003:0E63C930       aPixelweightDDD
 0003:0E63C950       aTonecurveDD
 0003:0E63C964       aTImgStatExPseu
 0003:0E63C9D4       aEarlyWb
 0003:0E63C9E0       aCurrentEarlyWb
 0003:0E63CA00       aRedmultiplierD
 0003:0E63CA14       aGreenmultiplie
 0003:0E63CA30       aGreenmultiplie_0
 0003:0E63CA48       aBluemultiplier
 0003:0E63CA5C       aEnableaewbgain
 0003:0E63CA70       aEnableafwbgain
 0003:0E63CA84       aEnablehistogra
 0003:0E63CAA0       aRedwbmultiplie
 0003:0E63CAB8       aGreenwbmultipl
 0003:0E63CAD4       aGreenwbmultipl_0
 0003:0E63CAF0       aBluewbmultipli
 0003:0E63CB08       aTImgStatExEarl
 0003:0E63CBFC       aUsageTSStatExP
 0003:0E63CD50       aIdspDumpAddres
 0003:0E63CD78       aDspIsHaltedDum
 0003:0E63CDB0       aIdsp0Bin
 0003:0E63CDBC       aSec2idspLBin
 0003:0E63CDCC       aSec2idspRBin
 0003:0E63CDDC       aSec3idspLBin
 0003:0E63CDEC       aSec3idspRBin
 0003:0E63CDFC       aWarnNotSupport
 0003:0E63CE20       aCSS
 0003:0E63CE2C       aFileOpenFailSk
 0003:0E63CE58       aIdspSec2DumpSu
 0003:0E63CEA0       aIdspSec2DumpIn
 0003:0E63CEEC       aIdspSec2DumpSu_0
 0003:0E63CF34       aIdspSec2DumpIn_0
 0003:0E63CF84       aIdspSec3DumpSu
 0003:0E63CFCC       aIdspSec3DumpIn
 0003:0E63D018       aIdspSec3DumpSu_0
 0003:0E63D060       aIdspSec3DumpIn_0
 0003:0E63D0B0       aIdspDumpAddr08
 0003:0E63D0C8       aCS_5
 0003:0E63D0D0       aMulti
 0003:0E63D0D8       aDbgthd_0
 0003:0E63D0E0       aFlush_0
 0003:0E63D0E8       aIdspMemoryFlus
 0003:0E63D108       aClean
 0003:0E63D110       aIdspMemoryClea
 0003:0E63D130       aUsageTImgIdspD
 0003:0E63D17C       aTImgIdspDump10
 0003:0E63D1E0       aTImgIdspDumpFi
 0003:0E63D22C       aTImgIdspDebugM
 0003:0E63D28C       aTImgIdspDbgthd
 0003:0E63D2E0       aTestIs2Raw
 0003:0E63D2F0       aImgModeVideo_1
 0003:0E63D300       aSingleShot_2
 0003:0E63D30C       aImgModeLowIsoS_1
 0003:0E63D324       aImgModeHighIso_3
 0003:0E63D33C       aImgModeMidIsoS
 0003:0E63D37C       aSDCallAmbatune
 0003:0E63D3A0       aTCalRawModeCou
 0003:0E63D49C       aTestIs2Rawenc
 0003:0E63D4AC       aSDCallAmbatune_0
 0003:0E63D4E0       aTCalRawencFile
 0003:0E63D53C       aCurrentLowisoD
 0003:0E63D56C       aUsageTSLowisoD
 0003:0E63D638       aTestIs2Ituner
 0003:0E63D648       aSDCallAmbatune_1
 0003:0E63D67C       aSDCallAmbatune_2
 0003:0E63D6AC       aSDCallAmbatune_3
 0003:0E63D6D8       aSDCallAmbatune_4
 0003:0E63D70C       aTCalItunerLoad
 0003:0E63D768       aNoSdCardPresen
 0003:0E63D798       aCanTCleanAllFi
 0003:0E63D7B4       aCleanAllFilesI
 0003:0E63D7CC       aUsageTSCleanDi
 0003:0E63D7F0       aCurrentChromaF
 0003:0E63D810       aEnableD_8
 0003:0E63D81C       aNoiselevelCbDN
 0003:0E63D84C       aOriginalblends_1
 0003:0E63D888       aRadiusD_1
 0003:0E63D894       aUsageTSCfGetTh
 0003:0E63D948       aStill_3
 0003:0E63D950       aVideo_7
 0003:0E63D958       aPleaseSetPipeV
 0003:0E63D978       aWarningTileidx
 0003:0E63D9A8       aCurrentHighiso
 0003:0E63D9E0       aCurrentHighiso_0
 0003:0E63DA18       aDebugBinary
 0003:0E63DA28       aUsageTSHighiso
 0003:0E63DB18       aTotalvideoslic
 0003:0E63DB34       aTotalvideoslic_0
 0003:0E63DB50       aSliceinfoD
 0003:0E63DB60       aSlicenumberxD
 0003:0E63DB7C       aSlicenumberyD
 0003:0E63DB98       aRawfrndmainfoO
 0003:0E63DBB8       aRawfrndmainfoO_0
 0003:0E63DBD8       aRawfrndmainfoW
 0003:0E63DBF8       aRawfrndmainfoH
 0003:0E63DC18       aCfascaleroutin
 0003:0E63DC3C       aCfascaleroutin_0
 0003:0E63DC60       aCfascaleroutin_1
 0003:0E63DC84       aCfascaleroutin_2
 0003:0E63DCA8       aMctfoutwinOffs
 0003:0E63DCC4       aMctfoutwinOffs_0
 0003:0E63DCE0       aMctfoutwinWidt
 0003:0E63DCFC       aMctfoutwinHeig
 0003:0E63DD18       aMctfoutcfgaddr
 0003:0E63DD34       aSec2cfgwinOffs
 0003:0E63DD50       aSec2cfgwinOffs_0
 0003:0E63DD6C       aSec2cfgwinWidt
 0003:0E63DD88       aSec2cfgwinHeig
 0003:0E63DDA4       aSec2cfgaddr0xX
 0003:0E63DDC4       aSec3cfgwinOffs
 0003:0E63DDE0       aSec3cfgwinOffs_0
 0003:0E63DDFC       aSec3cfgwinWidt
 0003:0E63DE18       aSec3cfgwinHeig
 0003:0E63DE34       aSec3cfgaddr0xX
 0003:0E63DE54       aCVSec2idspChDT
 0003:0E63DE74       aCVSec3idspChDT
 0003:0E63DE94       aVcapwinWidthD
 0003:0E63DEA8       aVcapwinHeightD
 0003:0E63DEBC       aEncwinWidthD
 0003:0E63DED0       aEncwinHeightD
 0003:0E63DEE4       aTotalstillslic
 0003:0E63DF00       aTotalstillslic_0
 0003:0E63DF1C       aCSSec2idspTile
 0003:0E63DF38       aCSSec3idspTile
 0003:0E63DF54       aUsageTSIdspcfg
 0003:0E63DF94       aWarp_0
 0003:0E63DF9C       aCcreg
 0003:0E63DFA4       aGbgr
 0003:0E63DFAC       aFirstmode
 0003:0E63DFB8       aCdnr
 0003:0E63DFC0       aMctf_0
 0003:0E63DFC8       aFirstshp
 0003:0E63DFD4       aFinalshp
 0003:0E63DFE0       aHiAa
 0003:0E63DFE8       aHiLk
 0003:0E63DFF0       aHiDbc
 0003:0E63DFF8       aHiCfa
 0003:0E63E000       aHiGbgr
 0003:0E63E008       aHiDms
 0003:0E63E010       aHiCmf
 0003:0E63E018       aHiCdnr
 0003:0E63E020       aHiDcc
 0003:0E63E028       aHiAsf
 0003:0E63E030       aHiHighasf
 0003:0E63E03C       aHiLowasf
 0003:0E63E048       aHiM1asf
 0003:0E63E054       aHiM2asf
 0003:0E63E060       aHiLi2asf
 0003:0E63E06C       aHiCasf
 0003:0E63E074       aHiCfhigh
 0003:0E63E080       aHiCflvlow
 0003:0E63E08C       aHiCfpre
 0003:0E63E098       aHiCfmed
 0003:0E63E0A4       aHiCflow
 0003:0E63E0B0       aHiCfvlow
 0003:0E63E0BC       aHiCfmcb
 0003:0E63E0C8       aHiCflcb
 0003:0E63E0D4       aHiCfvlcb
 0003:0E63E0E0       aHiLncb
 0003:0E63E0E8       aHiLasfcb
 0003:0E63E0F4       aHiCb
 0003:0E63E0FC       aHiFr
 0003:0E63E104       aHiLb
 0003:0E63E10C       aHiBll
 0003:0E63E114       aHiHighshp
 0003:0E63E120       aHiMedshp
 0003:0E63E12C       aHiLi1shp
 0003:0E63E138       aHiLi2shp
 0003:0E63E144       aUsageTImgShowC
 0003:0E63E184       aUsageTImgShowC_0
 0003:0E63E1C4       aUsageTImgShowC_1
 0003:0E63E204       aUsageTImgShowC_2
 0003:0E63E248       aFilter
 0003:0E63E254       aStaticbadpixel
 0003:0E63E274       aVignettecompen
 0003:0E63E294       aWarpcompensati
 0003:0E63E2B4       aCawarpcompensa
 0003:0E63E2D4       aColorcorrectio_1
 0003:0E63E2F4       aColorcorrectio_2
 0003:0E63E318       aStaticblacklev
 0003:0E63E338       aDeferredblackl
 0003:0E63E358       aDynamicbadpixe
 0003:0E63E378       aCfaleakagefilt_1
 0003:0E63E398       aCfanoisefilter_1
 0003:0E63E3B8       aAntialiasingAa
 0003:0E63E3D8       aWbgainWb
 0003:0E63E3F8       aDgainsaturatio
 0003:0E63E418       aLocalexposureL
 0003:0E63E438       aTonecurveTc
 0003:0E63E458       aRgbtoyuvmatrix_1
 0003:0E63E478       aChromascaleCs
 0003:0E63E498       aChromamedianfi_1
 0003:0E63E4B8       aDemosaicDms
 0003:0E63E4D8       aGbgrmismatchGb
 0003:0E63E4F8       aFirstlumaproce
 0003:0E63E520       aColordependent_1
 0003:0E63E544       aChromafilterCf
 0003:0E63E564       aAdvancespatial
 0003:0E63E584       aVideomctfMctf
 0003:0E63E5A4       aVideomctfmbtem
 0003:0E63E5C4       aFirstsharpenno
 0003:0E63E5E8       aFinalsharpenno
 0003:0E63E60C       aHisoantialiasi
 0003:0E63E630       aHisocfaleakage
 0003:0E63E654       aHisodynamicbad
 0003:0E63E67C       aHisocfanoisefi
 0003:0E63E6A0       aHisogbgrmismat
 0003:0E63E6C4       aHisodemosaicHi
 0003:0E63E6E8       aHisochromamedi
 0003:0E63E70C       aHisocolordepen
 0003:0E63E73C       aHisodefercolor_0
 0003:0E63E760       aHisoadvancespa
 0003:0E63E784       aHisohighadvanc
 0003:0E63E7B0       aHisolowadvance
 0003:0E63E7DC       aHisomed1advanc
 0003:0E63E804       aHisomed2advanc
 0003:0E63E82C       aHisoli2ndadvan
 0003:0E63E858       aHisochromaadva
 0003:0E63E880       aHisochromafilt_8
 0003:0E63E8AC       aHisochromafilt_9
 0003:0E63E8D8       aHisochromafilt_10
 0003:0E63E900       aHisochromafilt_11
 0003:0E63E928       aHisochromafilt_12
 0003:0E63E950       aHisochromafilt_13
 0003:0E63E97C       aHisochromafilt_14
 0003:0E63E9A4       aHisochromafilt_15
 0003:0E63E9CC       aHisochromafilt_16
 0003:0E63E9F8       aHisolumanoisec
 0003:0E63EA20       aHisolowasfcomb_0
 0003:0E63EA4C       aHisocombineHiC
 0003:0E63EA74       aHisofreqrecove
 0003:0E63EA9C       aHisolumablendH
 0003:0E63EAC4       aHisoblendlumal
 0003:0E63EAEC       aHisohighsharpe
 0003:0E63EB18       aHisomedsharpen
 0003:0E63EB44       aHisoliso1sharp
 0003:0E63EB70       aHisoliso2sharp
 0003:0E63EB9C       aCurrentGmvSett
 0003:0E63EBD0       aUsageTSGmvTSGm
 0003:0E63EC24       aAsciicodeD
 0003:0E63EC34       aHelp
 0003:0E63EC3C       aHelp_0
 0003:0E63EC44       aUsageTSOptionV
 0003:0E63EC78       aSS_8
 0003:0E63EC84       aTryTSOptionHel
 0003:0E63ECB8       aAmbaimgTestcmd
 0003:0E63ECD0       aMyTestAmbaimgT
 0003:0E63ECEC       aS1
 0003:0E63ED10       aLeft
 0003:0E63ED18       aRight
 0003:0E63ED24       aNotInRecordMod
 0003:0E63ED3C       aMaximumCardFul
 0003:0E63ED60       aDonTHaveEnough
 0003:0E63ED94       aLongTermTaskEn
 0003:0E63EDAC       aDeleteS
 0003:0E63EDB8       aThm
 0003:0E63EDC0       aDonTHaveEnough_0
 0003:0E63EDDC       aTimeUStart
 0003:0E63EDF0       aTimeUStop
 0003:0E63EE04       aLongTermTaskEx
 0003:0E63EE50       aLivLiveviewRel
 0003:0E63EE78       aCapStillCaptur
 0003:0E63EEA4       aEncEncodeRelat
 0003:0E63EEC8       aDecDecodeRelat
 0003:0E63EEEC       aKeyKeyEventRel
 0003:0E63EF14       aMemShowMemoryU
 0003:0E63EF2C       aVoutVoutRelate
 0003:0E63EF50       aSdscanReScanSd
 0003:0E63EF7C       aPrefUserPrefer
 0003:0E63EFAC       aAudioAudioRela
 0003:0E63EFD0       aAucodecAudioCo
 0003:0E63EFFC       aSensorSensorIn
 0003:0E63F028       aWdtForWdtTest
 0003:0E63F03C       aOffDisableLive
 0003:0E63F054       aOnEnableLivevi
 0003:0E63F06C       aZoomInOutDzoom
 0003:0E63F09C       a3aOnOff3aContr
 0003:0E63F0B8       aMctfModeOnOffT
 0003:0E63F0E0       aMctfcmprOnOffM
 0003:0E63F110       aLcdOnOffTurnOn
 0003:0E63F138       aClkShowAllClco
 0003:0E63F150       aSensorVflipOnO
 0003:0E63F18C       aVinFlipVerHorO
 0003:0E63F1D4       aSetclkMoviefor
 0003:0E63F234       aSuspendResumeS
 0003:0E63F25C       aBngcrctHorizon
 0003:0E63F2B4       aLowDelayOff0Vo
 0003:0E63F328       aNumSliceSliceN
 0003:0E63F370       aIrCycleRefresh
 0003:0E63F3B8       aBurstOnOffEnab
 0003:0E63F3E0       aPesOption0Stop
 0003:0E63F404       aPivtestInterva
 0003:0E63F458       aBgOnOffEnableS
 0003:0E63F498       aQvOnOffEnableQ
 0003:0E63F4B8       aStatusShowSing
 0003:0E63F4E8       aRawcapOnOffEna
 0003:0E63F534       aCleanrawOnOffE
 0003:0E63F56C       aR2rOnOffEnable
 0003:0E63F59C       aIsoMode0SetToL
 0003:0E63F5D4       aProfileShowTim
 0003:0E63F604       aLockAeShutterT
 0003:0E63F654       aUnlockAeUnLock
 0003:0E63F674       aNullWrite10Ena
 0003:0E63F6AC       aGopStreamMNIdr
 0003:0E63F6DC       aBlendOnOffEnab
 0003:0E63F70C       aFrateChgStream
 0003:0E63F73C       aFrateResetShow
 0003:0E63F764       aBrateChgStream
 0003:0E63F794       aBrateResetShow
 0003:0E63F7B8       aVbrOnOffEnable
 0003:0E63F7DC       aIntCapOnOffRec
 0003:0E63F80C       aSshCtrlUpsampl
 0003:0E63F84C       aPausePauseEnco
 0003:0E63F864       aResumeResumeEn
 0003:0E63F87C       aRotate0None
 0003:0E63F890       a1HFlip
 0003:0E63F8A4       a2Rotate90
 0003:0E63F8BC       a3Rotate90VFlip
 0003:0E63F8DC       a4HFlipVFlip
 0003:0E63F8F8       a5VFlip
 0003:0E63F90C       a6Rotate90VFlip
 0003:0E63F934       a7Rotate90HFlip
 0003:0E63F954       aVideoTypeStrea
 0003:0E63F990       aAudioTypeStrea
 0003:0E63F9C4       aQueStatShowQue
 0003:0E63F9E4       aLongTestStartS
 0003:0E63FA24       aSyncpivOnOffSy
 0003:0E63FA58       aVidthmOnOffGet
 0003:0E63FA94       aEmergStopSimul
 0003:0E63FACC       aDemandIdr0Main
 0003:0E63FB10       aMjpegQualitySe
 0003:0E63FB40       aBlkDecOnOffEna
 0003:0E63FB78       aBlendBlendingT
 0003:0E63FBA4       aTkplyPauseResu
 0003:0E63FBD4       aFwdSpeedForwar
 0003:0E63FBF4       aBwdSpeedBackwa
 0003:0E63FC14       aTmSearchSecTim
 0003:0E63FC3C       aFadeOnOffEnabl
 0003:0E63FC7C       aSwitchInOutSwi
 0003:0E63FCB8       aCvbsOnOffEnabl
 0003:0E63FCDC       aSaveSavePrefer
 0003:0E63FD08       aLoadLoadPrefer
 0003:0E63FD40       aEraseErasePref
 0003:0E63FD6C       aDumpDumpPrefer
 0003:0E63FDA4       aMscSwitchUsbCl
 0003:0E63FDC4       aMtpSwitchUsbCl
 0003:0E63FDE4       aDetailSensorMo
 0003:0E63FE2C       aGainFactorSetG
 0003:0E63FE4C       aShrExposureTim
 0003:0E63FE7C       aStartModeTimeo
 0003:0E63FECC       aRestart
 0003:0E63FED8       aStop_0
 0003:0E63FEE0       aGetMode
 0003:0E63FEEC       aGetTimeout
 0003:0E63FEFC       aClearTimeout
 0003:0E63FF0C       aZoom
 0003:0E63FF14       aReset
 0003:0E63FF1C       aFactor
 0003:0E63FF24       aBngcrct
 0003:0E63FF30       aTestBinningCor
 0003:0E63FF6C       aMctf
 0003:0E63FF74       aMctfcmpr
 0003:0E63FF84       aMultichan
 0003:0E63FF90       aMultichan_0
 0003:0E63FF9C       aMultiChanTestE
 0003:0E63FFB4       aMultifovenc
 0003:0E63FFC0       aMultifovenc_0
 0003:0E63FFCC       aMultiFovEncTes
 0003:0E63FFE8       aTest_0
 0003:0E640020       aCortexFreqD
 0003:0E640034       aArmFreqD
 0003:0E640044       aDdrFreqD
 0003:0E640054       aCoreFreqD
 0003:0E640064       aIdspFreqD
 0003:0E640074       aAxiFreqD
 0003:0E640084       aAhbFreqD
 0003:0E640094       aApbFreqD
 0003:0E6400A4       aSensorVflip
 0003:0E6400B4       aVinFlip
 0003:0E6400C0       aCurrentVinVerf
 0003:0E6400E8       aUsageVinFlipVe
 0003:0E640138       aSetclk
 0003:0E640140       aMovieformatD
 0003:0E640150       aSetphotoclk
 0003:0E64015C       aSetPhotoClk
 0003:0E64016C       aSuspend
 0003:0E640174       aResume
 0003:0E64017C       aOffLcd
 0003:0E640184       aRotate_1
 0003:0E64018C       aSWarpRotation
 0003:0E6401A0       aEnable_1
 0003:0E6401A8       aDisable_1
 0003:0E6401B0       aLowDelay
 0003:0E6401BC       aLowdelaymodeDS
 0003:0E6401DC       aNumSlice
 0003:0E6401E8       aNumsliceShould
 0003:0E64020C       aNumsliceD
 0003:0E64021C       aIrCycle
 0003:0E640228       aIrcycleShouldB
 0003:0E64024C       aSetcsc
 0003:0E640254       aSetHdmiCscIdDS
 0003:0E640278       aPesCapture
 0003:0E640284       aPivCapture
 0003:0E640290       aBurst
 0003:0E640298       aBurstCaptureOn
 0003:0E6402AC       aBurstCaptureOf
 0003:0E6402C0       aAebCaptureOn
 0003:0E6402D0       aAebIndexD
 0003:0E6402E0       aAebDefaultInde
 0003:0E6402F8       aAebCaptureOff
 0003:0E640308       aBackgroundProc
 0003:0E640334       aBackgroundProc_0
 0003:0E640360       aBackgroundProc_1
 0003:0E64038C       aBackgroundProc_2
 0003:0E6403BC       aQuickviewIsOnF
 0003:0E6403E0       aQuickviewIsOnF_0
 0003:0E640404       aQuickviewIsOff
 0003:0E640428       aQuickviewIsOff_0
 0003:0E64044C       aStatus
 0003:0E640464       aSingleCapture
 0003:0E640474       aEnablequickvie
 0003:0E6404BC       aBurstcapCaptur
 0003:0E6404D0       aRawcap
 0003:0E6404D8       aUncompressedRa
 0003:0E6404F4       aEnableDumpStil
 0003:0E64052C       aDumpMainYuvJus
 0003:0E640558       aDumpMainYuvIsO
 0003:0E640580       aUncompressedRa_0
 0003:0E6405A0       aDisableDumpSti
 0003:0E6405C4       aDumpMainYuvIsO_0
 0003:0E6405DC       aCleanraw
 0003:0E6405E8       aPleaseEnableRa
 0003:0E640608       aCleanRawJustSu
 0003:0E640630       aCleanRawIsOnFo
 0003:0E640654       aCleanRawIsOff
 0003:0E640668       aExif
 0003:0E640670       aExifFormatterO
 0003:0E640684       aExifFormatterO_0
 0003:0E640698       aNullWrite
 0003:0E6406A4       aGCaptureNullwr
 0003:0E6406C0       aRotfip
 0003:0E6406C8       aGCaptureRotate
 0003:0E6406E4       aRatectrl
 0003:0E6406F0       aJpegRateContro
 0003:0E640708       aJpegRateContro_0
 0003:0E640720       aQlevel
 0003:0E640728       aGCaptureQtable
 0003:0E640744       aPivtiletest
 0003:0E640750       aSetToHighIsoMo
 0003:0E640768       aSetToLowIsoMod
 0003:0E64077C       aR2rIsOnForBurs
 0003:0E640798       aR2rIsOnForSing
 0003:0E6407B8       aR2rIsOffForBur
 0003:0E6407D8       aR2rIsOffForSin
 0003:0E6407F8       aPivtest
 0003:0E640800       aErrPivIsNotSup
 0003:0E640834       aErrPivTestInte
 0003:0E640858       aErrPivTestAlre
 0003:0E640878       aErrMovieRecord
 0003:0E6408A0       aPivTestStart
 0003:0E6408B0       aWaitCaptureSta
 0003:0E6408C8       aCaptureStarted
 0003:0E6408DC       aErrPivTestNotS
 0003:0E6408F8       aWaitingCapture
 0003:0E640914       aCaptureDone
 0003:0E640924       aPivTestStop
 0003:0E640934       aWarningRecordi
 0003:0E64096C       aErrPesCaptureA
 0003:0E640990       aErrPesCaptureI
 0003:0E6409B8       aPesCaptureStar
 0003:0E6409CC       aErrPesCaptureN
 0003:0E6409EC       aPesCaptureStop
 0003:0E640A04       aProfile
 0003:0E640A0C       aLockAe
 0003:0E640A1C       aSetupManualAeF
 0003:0E640A48       aSetupManualAeS
 0003:0E640A74       aLockStillAe
 0003:0E640A84       aUnlockAe
 0003:0E640A98       aPivIsoMode
 0003:0E640AA8       aCurrentPivDoes
 0003:0E640AE8       aHisoWin
 0003:0E640AF4       aUpateMaxHisoWi
 0003:0E640B14       aSvcEncodetestc
 0003:0E640B28       aStreamD
 0003:0E640B34       aMD_0
 0003:0E640B3C       aND_0
 0003:0E640B44       aIdrintervalD
 0003:0E640B58       aBlend
 0003:0E640B60       aSyncpiv
 0003:0E640B68       aSyncPivOn
 0003:0E640B74       aSyncPivOff
 0003:0E640B84       aVidthm
 0003:0E640B8C       aVideoThumbnail
 0003:0E640BA0       aVideoThumbnail_0
 0003:0E640BB4       aFrateChg
 0003:0E640BC0       aFrate
 0003:0E640BC8       aShow
 0003:0E640BD0       aFramerateLluSe
 0003:0E640BE8       a1stStream
 0003:0E640BF8       aVideoFFpsLluFr
 0003:0E640C1C       aAudioFFpsLluFr
 0003:0E640C40       a2ndStream
 0003:0E640C50       aBrateChg
 0003:0E640C5C       aBrate
 0003:0E640C64       aBitrate
 0003:0E640C70       aVideoUKbps
 0003:0E640C84       aAudioUKbps
 0003:0E640C98       aIntCap
 0003:0E640CA0       aSshCtrl
 0003:0E640CAC       aPause
 0003:0E640CB4       aVideoType
 0003:0E640CC0       aAudioType
 0003:0E640CCC       aQueStat
 0003:0E640CD8       a1stStream_0
 0003:0E640CE4       aQueueUsedTotal
 0003:0E640D00       aVideoCountMuxU
 0003:0E640D1C       aAudioCountMuxU
 0003:0E640D38       a2ndStream_0
 0003:0E640D4C       aH264BufferTota
 0003:0E640D6C       aHandledLlu
 0003:0E640D8C       aJpegBufferTota
 0003:0E640DAC       aCreate
 0003:0E640DB4       aStart_0
 0003:0E640DBC       aStop_1
 0003:0E640DC4       aDestroy
 0003:0E640DCC       aLongTest
 0003:0E640DD8       aLongtesttask
 0003:0E640DE8       aSFailToCreateT_2
 0003:0E640E00       aLongTermTestin
 0003:0E640E24       aSFailedToTermi_0
 0003:0E640E44       aSFailedToDelet_1
 0003:0E640E60       aLongTermTestin_0
 0003:0E640E84       aEmergStop
 0003:0E640E94       aDisableSensor
 0003:0E640EA8       aEmergentStopEn
 0003:0E640EC4       aDemandIdr
 0003:0E640ED0       aMjpegQuality
 0003:0E640EE0       aBlkDec
 0003:0E640EE8       aTkply
 0003:0E640EF0       aStep
 0003:0E640EF8       aTmSearch
 0003:0E640F04       aFade
 0003:0E640F0C       aDataQueueUsedT
 0003:0E640F2C       aBufferBaseLimi
 0003:0E640F4C       aFeedDecoded0xX
 0003:0E640F6C       aSwitch
 0003:0E640F74       aNoFile
 0003:0E640F7C       aHide
 0003:0E640F84       aCachememtotals
 0003:0E640FB8       aUcodeblocksize
 0003:0E640FEC       aNoncachedmemto
 0003:0E641020       aNoncachedmemus
 0003:0E641040       aNoncachedmemfr
 0003:0E641060       aKalCachedmemfr
 0003:0E6410A0       aCvbs
 0003:0E6410A8       aPleaseUnplugHd
 0003:0E6410EC       aEnableCvbsOutp
 0003:0E641100       aDisableCvbsOut
 0003:0E641114       aHdmi_0
 0003:0E64111C       a480p
 0003:0E641124       a720p30
 0003:0E64112C       a720p
 0003:0E641134       a1080p30
 0003:0E64113C       aSave
 0003:0E641144       aLoad
 0003:0E64114C       aErase
 0003:0E641154       aDump
 0003:0E641160       aDetail
 0003:0E641168       aSensorDeviceIn
 0003:0E641194       aFullViewWidthD
 0003:0E6411AC       aFullViewHeight
 0003:0E6411C4       aSensorCellWidt
 0003:0E6411E0       aSensorCellHeig
 0003:0E641200       aGeneralInfo
 0003:0E64122C       aSensorModeD_0
 0003:0E641240       aMainFrameRateF
 0003:0E64125C       aSamplingFactor
 0003:0E64127C       aSamplingFactor_0
 0003:0E64129C       aSensorOutputSt
 0003:0E6412C8       aLineLengthPckD
 0003:0E6412E8       aFrameLengthLin
 0003:0E641308       aDataBitsDBits
 0003:0E641320       aDspPhaseShiftD
 0003:0E641338       aSourceStartXD
 0003:0E64134C       aSourceStartYD
 0003:0E641360       aSourceEndXD
 0003:0E641374       aSourceEndYD
 0003:0E641388       aSourceWidthD
 0003:0E64139C       aSourceHeightD
 0003:0E6413B0       aVinWindowInPix
 0003:0E6413DC       aStartPointDD
 0003:0E6413F4       aEndPointDD
 0003:0E64140C       aCenterPointDD
 0003:0E641424       aActualFrameTim
 0003:0E641450       aPixelBitClock9
 0003:0E64146C       aPixelRateIO9fP
 0003:0E641490       aFrameRate6fFra
 0003:0E6414B0       aRowTime6fUs
 0003:0E6414C4       aVinHbTimeFUs
 0003:0E6414DC       aVinVbTimeFUs
 0003:0E6414F4       aGainInfo
 0003:0E641520       aGainFactor6f
 0003:0E641538       aShutterInfo
 0003:0E641564       aShutterExposur
 0003:0E641584       aGain
 0003:0E6415A4       aRestart_0
 0003:0E6415AC       aGetMode_0
 0003:0E6415B8       aModeD_3
 0003:0E6415C4       aGetTimeout_0
 0003:0E6415D0       aTimeoutStausD
 0003:0E6415E4       aClearTimeout_0
 0003:0E6415F4       aVout
 0003:0E6415FC       aSdscan
 0003:0E641604       aPref
 0003:0E64160C       aAudio
 0003:0E641614       aAucodec
 0003:0E64161C       aSensor
 0003:0E641624       aImgproc
 0003:0E64162C       aVtuner
 0003:0E641634       aDbgcap
 0003:0E64163C       aMsgut
 0003:0E641644       aStilldecTaskX
 0003:0E641658       aDecodeDone
 0003:0E641664       aStilldecevtErr
 0003:0E641678       aAmbastilldecTa
 0003:0E641690       aSFailedToConfi
 0003:0E6416B4       aSFailedToRegEv
 0003:0E6416D8       aSFailedToMsgqu_0
 0003:0E6416F8       aSFailToMsgqueu
 0003:0E64171C       aSFailedToEvent_1
 0003:0E64173C       aImageDecoderTa
 0003:0E641750       aAmbastilldecTa_0
 0003:0E641768       aSTaskIsNotIdle_0
 0003:0E641780       aSFailedToTaskt_0
 0003:0E6417A0       aSFailedToTaskd_0
 0003:0E6417BC       aSFailedToMsgqu_1
 0003:0E6417DC       aSFailedToEvent_2
 0003:0E6417FC       aDecodeAbortD
 0003:0E641810       aMainBufNotEnou
 0003:0E641828       aStartdecodeDDe
 0003:0E641844       aStartdecodeDLo
 0003:0E64186C       aStartblockdeco
 0003:0E641894       aStartblockdeco_0
 0003:0E6418C0       aDecodeAbort
 0003:0E6418D0       aSetbitsdatablk
 0003:0E6418F4       aStilldecLoadjp
 0003:0E641910       aStartS
 0003:0E64191C       aDjidcfGetfilet_2
 0003:0E641968       aDjidngLocinfog_0
 0003:0E641990       aAmbafsFseekRet
 0003:0E6419B4       aAmbafsFreadRet
 0003:0E6419E4       aSFileIsDngType_0
 0003:0E641A04       aEndS
 0003:0E641A0C       aStilldispTaskX
 0003:0E641A20       aSdispDispVoutD
 0003:0E641A34       aImageDisplayTa
 0003:0E641A48       aAmbastilldispT
 0003:0E641A64       aSTaskIsNotIdle
 0003:0E641A7C       aSFailedToTaskt
 0003:0E641A9C       aSFailedToTaskd
 0003:0E641AB8       aSFailedToMsgqu
 0003:0E641AD8       aSFailedToEvent
 0003:0E641AF8       aSFailedToSemde
 0003:0E641B14       aAmbastilldispS
 0003:0E641B28       aKAssertAtSD_22
 0003:0E641B3C       aAmbastilldispW
 0003:0E641B5C       aAmbathumbnaild
 0003:0E641B78       aSFailedToEvent_0
 0003:0E641B98       aThmdispEnablev
 0003:0E641BBC       aStartThmdispDi_0
 0003:0E641BE4       aThmdispGetfile
 0003:0E641C00       aFileNotExistD_0
 0003:0E641C14       aParseMovErrorD_0
 0003:0E641C28       aParseExifError_0
 0003:0E641C40       aUnsupportedYuv_0
 0003:0E641C58       aEndThmdispDisp_0
 0003:0E641C74       aStartThmdispEn
 0003:0E641CA4       aEndThmdispEnla
 0003:0E641CD0       aAmbatuneCheckM
 0003:0E641CF0       aTuneMngDebugSD
 0003:0E641D18       aAmbatuneGetMem
 0003:0E641D38       aAmbatuneChange
 0003:0E641D54       aTuneMngDebugSD_0
 0003:0E641DA4       aAmbatuneSaveId
 0003:0E641DB8       aTuneMngWarning
 0003:0E641DEC       aAmbatuneLoadId
 0003:0E641E00       aAmbatuneSaveDa
 0003:0E641E14       aAmbatuneLoadDa
 0003:0E641E28       aAmbatuneExecut
 0003:0E641E40       aAmbatuneGetSys
 0003:0E641E58       aAmbatuneSetSys
 0003:0E641E70       aAmbatuneGetAei
 0003:0E641E84       aAmbatuneSetAei
 0003:0E641E98       aAmbatuneGetWbs
 0003:0E641EB0       aAmbatuneSetWbs
 0003:0E641EC8       aAmbatuneGetItu
 0003:0E641F60       aTuneParserCrea
 0003:0E641F74       aPaserErrorSDOb
 0003:0E641F9C       aTuneParserAddR
 0003:0E641FB0       aPaserWarningSD
 0003:0E641FE4       aTuneParserSetR
 0003:0E642004       aPaserErrorSDIn
 0003:0E64202C       aTunerParserSet
 0003:0E642048       aPaserWarningSD_0
 0003:0E642070       aTuneParserGetR
 0003:0E642084       aPaserWarningSD_1
 0003:0E6420B8       aTuneParserGetP
 0003:0E6420D0       aPaserErrorSDRe
 0003:0E6420F4       aTuneParserLook
 0003:0E64210C       aPaserWarningSD_2
 0003:0E642138       aTuneParserLook_0
 0003:0E642154       aPaserWarningSD_3
 0003:0E642178       aPaserWarningSD_4
 0003:0E6421B4       aTuneParserGene
 0003:0E6421D0       aPaserWarningSD_5
 0003:0E642204       aPaserWarningSD_6
 0003:0E64223C       aStaticBadPixel
 0003:0E642260       aTuneParserGetL
 0003:0E642278       aPaserErrorSDLi
 0003:0E6422A8       aTuneParserPars
 0003:0E6422C0       aPaserErrorSDNo
 0003:0E642328       aTexthdlrGetDri
 0003:0E642344       aTextHdlrWarnin
 0003:0E642378       aTexthdlrChange
 0003:0E642398       aTextHdlrWarnin_0
 0003:0E6423CC       aCS_3
 0003:0E6423D4       aCS_4
 0003:0E6423DC       aTexthdlrLookup
 0003:0E6423FC       aTextHdlrWarnin_1
 0003:0E642434       aTexthdlrLookup_0
 0003:0E642458       aTextHdlrWarnin_2
 0003:0E642494       aReadLine_0
 0003:0E6424A0       aTextHdlrWarnin_3
 0003:0E6424DC       aTexthdlrLoadTe
 0003:0E6424F0       aTextHdlrDebug
 0003:0E642518       aTextHdlrDebugI
 0003:0E64253C       aTextHdlrDebugF
 0003:0E642560       aTextHdlrWarnin_4
 0003:0E6425A8       aTextHdlrWarnin_5
 0003:0E6425F4       aTextHdlrWarnin_6
 0003:0E642638       aTextHdlrWarnin_7
 0003:0E642670       aTextHdlrErrorS
 0003:0E6426A8       aTexthdlrLoadId
 0003:0E6426BC       aTextHdlrWarnin_86
 0003:0E6426FC       aTextHdlrWarnin_87
 0003:0E642748       aTexthdlrCheckP
 0003:0E64276C       aTextHdlrWarnin_9
 0003:0E6427A8       aTextHdlrWarnin_8
 0003:0E6427E0       aTexthdlrGetExt
 0003:0E6427FC       aTextHdlrErrorS_0
 0003:0E642848       aTextHdlrWarnin_10
 0003:0E642894       aFpnMapBin
 0003:0E6428A4       aFpnMapBypassBi
 0003:0E6428B8       aVignetteGainBi
 0003:0E6428CC       aWarpTableBin
 0003:0E6428DC       aCaTableBin
 0003:0E6428EC       aCcRegBin
 0003:0E6428F8       aCc3dBin
 0003:0E642904       aFirstSharpenTa
 0003:0E642920       aFinalSharpenTa
 0003:0E64293C       aAsfTableBin
 0003:0E64294C       aHisoAsfTableBi
 0003:0E642960       aHisoHighAsfTab
 0003:0E64297C       aHisoLowAsfTabl
 0003:0E642994       aHisoMed1AsfTab
 0003:0E6429B0       aHisoMed2AsfTab
 0003:0E6429CC       aHisoLi2ndAsfTa
 0003:0E6429E8       aHisoChromaAsfT
 0003:0E642A04       aHisoHighSharpe
 0003:0E642A24       aHisoMedSharpen
 0003:0E642A40       aHisoLiso1Sharp
 0003:0E642A60       aHisoLiso2Sharp
 0003:0E642A80       aHisoChromaMedC
 0003:0E642AA4       aHisoChromaLowC
 0003:0E642AC8       aHisoChromaVery
 0003:0E642AF0       aHisoLumaNoiseC
 0003:0E642B14       aHisoLowAsfComb
 0003:0E642B34       aHisoCombineTab
 0003:0E642B4C       aTextHdlrErrorS_1
 0003:0E642B84       aTexthdlrSaveRa
 0003:0E642B98       aTextHdlrWarnin_11
 0003:0E642BD8       aTexthdlrLoadRa
 0003:0E642BEC       aTextHdlrWarnin_12
 0003:0E642C30       aTextHdlrWarnin_13
 0003:0E642C8C       aTexthldrLoadVi
 0003:0E642CA4       aTextHdlrDebugS
 0003:0E642CD4       aTextHdlrErrorS_2
 0003:0E642D08       aTextHdlrDebugS_0
 0003:0E642D54       aTextHdlrWarnin_14
 0003:0E642DA4       aTextHdlrDebugS_1
 0003:0E642DE4       aTexthldrLoadBy
 0003:0E642E04       aTextHdlrDebugS_2
 0003:0E642E3C       aTextHdlrErrorS_3
 0003:0E642E90       aTextHdlrDebugS_3
 0003:0E642ED8       aTexthdlrLoadWa
 0003:0E642EF4       aTextHdlrDebugS_4
 0003:0E642F20       aTextHdlrErrorS_4
 0003:0E642F6C       aTextHdlrDebugS_5
 0003:0E642FA8       aTexthdlrLoadBy
 0003:0E642FD0       aTextHdlrDebugS_6
 0003:0E643008       aTextHdlrErrorS_5
 0003:0E64305C       aTextHdlrWarnin_15
 0003:0E643094       aTextHdlrWarnin_16
 0003:0E6430C8       aTextHdlrDebugS_7
 0003:0E643118       aTexthdlrLoadBy_0
 0003:0E643140       aTextHdlrDebugS_8
 0003:0E643174       aTextHdlrErrorS_6
 0003:0E6431C8       aTextHdlrDebugS_9
 0003:0E643214       aTexthdlrLoadCa
 0003:0E64322C       aTextHdlrDebugS_10
 0003:0E643258       aTextHdlrErrorS_7
 0003:0E6432A0       aTextHdlrDebugS_11
 0003:0E6432DC       aTexthldrLoadBy_0
 0003:0E643308       aTextHdlrDebugS_12
 0003:0E643344       aTextHdlrErrorS_8
 0003:0E6433A4       aTextHdlrDebugS_13
 0003:0E6433F0       aTexthdlrLoadBy_1
 0003:0E643418       aTextHdlrDebugS_14
 0003:0E643454       aTextHdlrErrorS_9
 0003:0E6434B0       aTextHdlrDebugS_15
 0003:0E6434FC       aTexthdlrLoadFp
 0003:0E643514       aTextHdlrDebugS_16
 0003:0E64353C       aTextHdlrErrorS_10
 0003:0E643584       aTextHdlrDebugS_17
 0003:0E6435C0       aTexthdlrLoadBy_2
 0003:0E6435E0       aTextHdlrDebugS_18
 0003:0E643610       aTextHdlrDebugS_19
 0003:0E643654       aTexthdlrLoadCc
 0003:0E64366C       aTextHdlrErrorS_11
 0003:0E6436B4       aTexthdlrLoadCc_0
 0003:0E6436D0       aTextHdlrErrorS_12
 0003:0E643714       aTexthdlrLoadFi
 0003:0E643740       aTextHdlrErrorS_13
 0003:0E6437A0       aTexthdlrLoadFi_0
 0003:0E6437CC       aTextHdlrErrorS_14
 0003:0E64382C       aTexthdlrLoadAs
 0003:0E64384C       aTextHdlrErrorS_15
 0003:0E6438A0       aTexthdlrLoadHi
 0003:0E6438C8       aTextHdlrErrorS_16
 0003:0E643920       aTexthdlrLoadHi_0
 0003:0E64394C       aTextHdlrErrorS_17
 0003:0E6439A8       aTexthdlrLoadHi_1
 0003:0E6439D4       aTextHdlrErrorS_18
 0003:0E643A30       aTexthdlrLoadHi_2
 0003:0E643A5C       aTextHdlrErrorS_19
 0003:0E643AB8       aTexthdlrLoadHi_3
 0003:0E643AE4       aTexthdlrLoadHi_4
 0003:0E643B10       aTextHdlrErrorS_20
 0003:0E643B6C       aTexthdlrLoadHi_5
 0003:0E643B98       aTextHdlrErrorS_21
 0003:0E643BF4       aTexthdlrLoadHi_6
 0003:0E643C24       aTextHdlrErrorS_22
 0003:0E643C88       aTexthdlrLoadHi_7
 0003:0E643CB8       aTextHdlrErrorS_23
 0003:0E643D1C       aTexthdlrLoadHi_8
 0003:0E643D4C       aTextHdlrErrorS_24
 0003:0E643DB0       aTexthdlrLoadHi_9
 0003:0E643DE0       aTextHdlrErrorS_25
 0003:0E643E44       aTexthdlrLoadHi_10
 0003:0E643E78       aTextHdlrErrorS_26
 0003:0E643EE4       aTexthdlrLoadHi_11
 0003:0E643F18       aTextHdlrErrorS_27
 0003:0E643F84       aTexthdlrLoadHi_12
 0003:0E643FBC       aTextHdlrErrorS_28
 0003:0E64402C       aTexthdlrLoadHi_13
 0003:0E644060       aTextHdlrErrorS_29
 0003:0E6440C4       aTexthdlrLoadLo
 0003:0E6440F0       aTextHdlrErrorS_30
 0003:0E644150       aTexthdlrLoadHi_14
 0003:0E64417C       aTextHdlrErrorS_31
 0003:0E6441DC       aTexthdlrSaveFp
 0003:0E6441F4       aTextHdlrDebugS_20
 0003:0E64421C       aTextHdlrDebugS_21
 0003:0E644260       aTextHdlrWarnin_17
 0003:0E6442B0       aTextHdlrWarnin_18
 0003:0E6442F4       aTextHdlrDebugS_22
 0003:0E644330       aTexthdlrSaveBy
 0003:0E644350       aTextHdlrDebugS_23
 0003:0E644380       aTextHdlrDebugS_24
 0003:0E6443CC       aTextHdlrWarnin_19
 0003:0E644418       aTextHdlrDebugS_25
 0003:0E64445C       aTexthdlrSaveVi
 0003:0E644474       aTextHdlrDebugS_26
 0003:0E6444C4       aErrorExtFileOp
 0003:0E6444E4       aTextHdlrWarnin_20
 0003:0E64453C       aTextHdlrDebugS_27
 0003:0E64457C       aTexthdlrSaveWa
 0003:0E644598       aTextHdlrDebugS_28
 0003:0E6445E0       aTextHdlrWarnin_21
 0003:0E64462C       aTextHdlrDebugS_29
 0003:0E644668       aTexthdlrSaveCa
 0003:0E644680       aTextHdlrDebugS_30
 0003:0E6446C4       aTextHdlrWarnin_22
 0003:0E64470C       aTextHdlrDebugS_31
 0003:0E644748       aTexthdlrSaveCc
 0003:0E644760       aTextHdlrDebugS_32
 0003:0E644788       aTextHdlrDebugS_33
 0003:0E6447C0       aTextHdlrWarnin_23
 0003:0E644804       aTexthdlrSaveCc_0
 0003:0E644820       aTextHdlrDebugS_34
 0003:0E64485C       aTextHdlrWarnin_24
 0003:0E6448A4       aTexthdlrSaveFi
 0003:0E6448D0       aTextHdlrDebugS_35
 0003:0E644920       aTextHdlrWarnin_25
 0003:0E64496C       aTextHdlrDebugS_36
 0003:0E6449B8       aTexthdlrSaveFi_0
 0003:0E6449E4       aTextHdlrDebugS_37
 0003:0E644A34       aTextHdlrWarnin_26
 0003:0E644A80       aTexthdlrSaveAs
 0003:0E644AA0       aTextHdlrDebugS_38
 0003:0E644AE4       aTextHdlrWarnin_27
 0003:0E644B28       aTexthdlrSaveHi
 0003:0E644B50       aTextHdlrDebugS_39
 0003:0E644B98       aTextHdlrWarnin_28
 0003:0E644BE0       aTexthdlrSaveHi_0
 0003:0E644C0C       aTextHdlrDebugS_40
 0003:0E644C58       aTextHdlrWarnin_29
 0003:0E644CA4       aTexthdlrSaveHi_1
 0003:0E644CD0       aTextHdlrDebugS_41
 0003:0E644D1C       aTextHdlrWarnin_30
 0003:0E644D68       aTexthdlrSaveHi_2
 0003:0E644D94       aTextHdlrDebugS_42
 0003:0E644DE0       aTextHdlrWarnin_31
 0003:0E644E2C       aTexthdlrSaveHi_3
 0003:0E644E58       aTextHdlrDebugS_43
 0003:0E644EA4       aTextHdlrWarnin_32
 0003:0E644EF0       aTexthdlrSaveHi_4
 0003:0E644F1C       aTextHdlrDebugS_44
 0003:0E644F68       aTextHdlrWarnin_33
 0003:0E644FB4       aTexthdlrSaveHi_5
 0003:0E644FE0       aTextHdlrDebugS_45
 0003:0E64502C       aTextHdlrWarnin_34
 0003:0E64507C       aTexthdlrSaveHi_6
 0003:0E6450AC       aTextHdlrDebugS_46
 0003:0E645100       aTextHdlrWarnin_35
 0003:0E645150       aTexthdlrSaveHi_7
 0003:0E645180       aTextHdlrDebugS_47
 0003:0E6451D4       aTextHdlrWarnin_36
 0003:0E645224       aTexthdlrSaveHi_8
 0003:0E645254       aTextHdlrDebugS_48
 0003:0E6452A8       aTextHdlrWarnin_37
 0003:0E6452F8       aTexthdlrSaveHi_9
 0003:0E645328       aTextHdlrDebugS_49
 0003:0E64537C       aTextHdlrWarnin_38
 0003:0E6453CC       aTexthdlrSaveHi_10
 0003:0E645400       aTextHdlrDebugS_50
 0003:0E64545C       aTextHdlrWarnin_39
 0003:0E6454B4       aTexthdlrSaveHi_11
 0003:0E6454E8       aTextHdlrDebugS_51
 0003:0E645544       aTextHdlrWarnin_40
 0003:0E64559C       aTexthdlrSaveHi_12
 0003:0E6455D4       aTextHdlrDebugS_52
 0003:0E645634       aTextHdlrWarnin_41
 0003:0E645690       aTexthdlrSaveHi_13
 0003:0E6456C4       aTextHdlrDebugS_53
 0003:0E645718       aTextHdlrWarnin_42
 0003:0E645770       aTexthdlrSaveLo
 0003:0E64579C       aTextHdlrDebugS_54
 0003:0E6457EC       aTextHdlrWarnin_43
 0003:0E645840       aTexthdlrSaveHi_14
 0003:0E64586C       aTextHdlrDebugS_55
 0003:0E6458BC       aTextHdlrWarnin_44
 0003:0E645908       aTexthdlrSaveJp
 0003:0E64591C       aTextHdlrDebugS_56
 0003:0E645948       aTextHdlrWarnin_45
 0003:0E64597C       aTextHdlrWarnin_46
 0003:0E6459C0       aTextHdlrWarnin_47
 0003:0E6459F4       aJpg_5
 0003:0E6459FC       aTexthdlrSaveY
 0003:0E645A10       aTexthdlrSaveUv
 0003:0E645A24       aTextHdlrWarnin_48
 0003:0E645A5C       aTextHdlrWarnin_49
 0003:0E645AA0       aTextHdlrWarnin_50
 0003:0E645AD8       aTexthdlrSaveYu
 0003:0E645AEC       aTextHdlrWarnin_51
 0003:0E645B34       aTexthdlrSaveAn
 0003:0E645B54       aTextHdlrWarnin_88
 0003:0E645B84       aTexthdlrLoadDa
 0003:0E645C24       aTextHdlrErrorS_32
 0003:0E645C58       aTexthdlrSaveDa
 0003:0E645CF8       aTexthdlrLoadEx
 0003:0E645D10       aTextHdlrWarnin_52
 0003:0E645D58       aTexthdlrSaveEx
 0003:0E645D70       aTextHdlrWarnin_53
 0003:0E645DBC       aTexthdlrFillEx
 0003:0E645DDC       aTextHdlrWarnin_54
 0003:0E645E28       aTextHdlrWarnin_55
 0003:0E645E78       aTextHdlrWarnin_56
 0003:0E645EC4       aTextHdlrWarnin_57
 0003:0E645F18       aTextHdlrWarnin_58
 0003:0E645F68       aTextHdlrWarnin_59
 0003:0E645FB8       aTextHdlrWarnin_60
 0003:0E64600C       aTextHdlrWarnin_61
 0003:0E646060       aTextHdlrWarnin_62
 0003:0E6460A8       aTextHdlrWarnin_63
 0003:0E6460F8       aTextHdlrWarnin_64
 0003:0E64614C       aTextHdlrWarnin_65
 0003:0E6461A0       aTextHdlrWarnin_66
 0003:0E6461F4       aTextHdlrWarnin_67
 0003:0E646248       aTextHdlrWarnin_68
 0003:0E64629C       aTextHdlrWarnin_69
 0003:0E6462F0       aTextHdlrWarnin_70
 0003:0E646348       aTextHdlrWarnin_71
 0003:0E6463A0       aTextHdlrWarnin_72
 0003:0E6463F8       aTextHdlrWarnin_73
 0003:0E646450       aTextHdlrWarnin_74
 0003:0E6464AC       aTextHdlrWarnin_75
 0003:0E646508       aTextHdlrWarnin_76
 0003:0E646568       aTextHdlrWarnin_77
 0003:0E6465C4       aTextHdlrWarnin_78
 0003:0E646620       aTextHdlrWarnin_79
 0003:0E646674       aTextHdlrWarnin_80
 0003:0E6466C8       aTexthdlrSaveId
 0003:0E6466DC       aTextHdlrWarnin_81
 0003:0E646724       aTextHdlrWarnin_82
 0003:0E646760       aTextHdlrWarnin_83
 0003:0E6467A8       aInternal
 0003:0E6467B4       aTextHdlrWarnin_84
 0003:0E6467E4       aTextHdlrWarnin_85
 0003:0E646810       aImgModeVideo_0
 0003:0E646830       aImgModeStill
 0003:0E646850       aImgModeLowIsoS_0
 0003:0E646870       aImgModeMidIsoS_0
 0003:0E646890       aImgModeHighIso_2
 0003:0E6468B0       aImgModeNightPo
 0003:0E6468D0       aImgModePreview_1
 0003:0E6468F0       aImgModeHighIso_1
 0003:0E646910       aSingleShot_0
 0003:0E646930       aMultiShotHdr
 0003:0E646950       aMultiShotMfHis
 0003:0E646970       aMultiShotMaHdr
 0003:0E646990       aUsbhdlrLookupT
 0003:0E6469AC       aUsbHdlrWarning
 0003:0E6469E0       aUsbhdlrLookupT_0
 0003:0E646A00       aUsbHdlrWarning_0
 0003:0E646A44       aReadLine
 0003:0E646A50       aUsbHdlrWarning_1
 0003:0E646A8C       aUsbhdlrLoadTex
 0003:0E646AA0       aUsbHdlrWarning_2
 0003:0E646AE8       aUsbHdlrWarning_3
 0003:0E646B28       aUsbHdlrErrorSD
 0003:0E646B54       aUsbhdlrSaveIds
 0003:0E646B68       aUsbHdlrWarning_7
 0003:0E646BB0       aUsbhdlrLoadRaw
 0003:0E646BC4       aUsbHdlrWarning_4
 0003:0E646C04       aUsbhldrLoadVig
 0003:0E646C1C       aUsbHdlrDebugSD
 0003:0E646C4C       aUsbHdlrErrorSD_0
 0003:0E646C7C       aUsbHdlrDebugSD_0
 0003:0E646CC8       aUsbHdlrErrorSD_1
 0003:0E646D00       aUsbHdlrDebugSD_1
 0003:0E646D40       aUsbhdlrLoadWar
 0003:0E646D5C       aUsbHdlrDebugSD_2
 0003:0E646D88       aUsbHdlrErrorSD_2
 0003:0E646DD0       aUsbHdlrErrorSD_3
 0003:0E646E04       aUsbHdlrDebugSD_3
 0003:0E646E40       aUsbhdlrLoadCaT
 0003:0E646E58       aUsbHdlrDebugSD_4
 0003:0E646E80       aUsbHdlrErrorSD_4
 0003:0E646EC8       aUsbHdlrErrorSD_5
 0003:0E646EFC       aUsbHdlrDebugSD_5
 0003:0E646F34       aUsbhdlrLoadFpn
 0003:0E646F4C       aUsbHdlrDebugSD_6
 0003:0E646F74       aUsbHdlrErrorSD_6
 0003:0E646FBC       aUsbHdlrErrorSD_7
 0003:0E646FF0       aUsbHdlrDebugSD_7
 0003:0E64702C       aUsbhdlrLoadCcR
 0003:0E647044       aUsbHdlrErrorSD_8
 0003:0E647088       aUsbHdlrErrorSD_9
 0003:0E6470BC       aUsbhdlrLoadCcT
 0003:0E6470D4       aUsbHdlrErrorSD_10
 0003:0E647118       aUsbhdlrLoadFir
 0003:0E647144       aUsbHdlrErrorSD_11
 0003:0E6471A4       aUsbhdlrLoadFin
 0003:0E6471D0       aUsbHdlrErrorSD_12
 0003:0E647230       aUsbhdlrLoadAsf
 0003:0E647250       aUsbHdlrErrorSD_13
 0003:0E6472A4       aUsbhdlrLoadHis
 0003:0E6472C8       aUsbHdlrErrorSD_14
 0003:0E647320       aUsbhdlrLoadHis_0
 0003:0E64734C       aUsbHdlrErrorSD_15
 0003:0E6473A8       aUsbhdlrLoadHis_1
 0003:0E6473D0       aUsbHdlrErrorSD_16
 0003:0E647428       aUsbhdlrLoadHis_2
 0003:0E647454       aUsbHdlrErrorSD_17
 0003:0E6474B0       aUsbhdlrLoadHis_3
 0003:0E6474DC       aUsbhdlrLoadHis_4
 0003:0E647508       aUsbHdlrErrorSD_18
 0003:0E647564       aUsbhdlrLoadHis_5
 0003:0E647590       aUsbHdlrErrorSD_19
 0003:0E6475EC       aUsbhdlrLoadHis_6
 0003:0E64761C       aUsbHdlrErrorSD_20
 0003:0E647680       aUsbhdlrLoadHis_7
 0003:0E6476AC       aUsbHdlrErrorSD_21
 0003:0E64770C       aUsbhdlrLoadHis_8
 0003:0E64773C       aUsbHdlrErrorSD_22
 0003:0E6477A0       aUsbhdlrLoadHis_9
 0003:0E6477D0       aUsbHdlrErrorSD_23
 0003:0E647834       aUsbhdlrLoadHis_10
 0003:0E647868       aUsbHdlrErrorSD_24
 0003:0E6478D0       aUsbhdlrLoadHis_11
 0003:0E647904       aUsbHdlrErrorSD_25
 0003:0E64796C       aUsbhdlrLoadHis_12
 0003:0E6479A4       aUsbHdlrErrorSD_26
 0003:0E647A10       aUsbhdlrLoadHis_13
 0003:0E647A44       aUsbHdlrErrorSD_27
 0003:0E647AA8       aUsbhdlrLoadLow
 0003:0E647AD4       aUsbHdlrErrorSD_28
 0003:0E647B34       aUsbhdlrLoadHis_14
 0003:0E647B5C       aUsbHdlrErrorSD_29
 0003:0E647BB8       aUsbhdlrSaveJpg
 0003:0E647BCC       aUsbHdlrWarning_8
 0003:0E647C04       aUsbhdlrSaveAnd
 0003:0E647C24       aUsbHdlrWarning_9
 0003:0E647C54       aUsbhdlrLoadDat
 0003:0E647CF4       aUsbHdlrErrorSD_30
 0003:0E647D28       aUsbhdlrSaveDat
 0003:0E647DC8       aColorcorrectio
 0003:0E647DDC       aUsbhdlrGetShpa
 0003:0E647DF4       aSharpeningaAsf
 0003:0E647E08       aUsbHdlrWarning_5
 0003:0E647E48       aUsbHdlrWarning_6
 0003:0E647E8C       aUsbhdlrGetShpb
 0003:0E647EA0       aSharpeningbGet
 0003:0E647EB0       aExposurecontro
 0003:0E647EC4       aBlacklevelcorr
 0003:0E647EE0       aTonecurveGet
 0003:0E647EF0       aRgbtoyuvmatrix
 0003:0E647F04       aWhitebalancega
 0003:0E647F1C       aDgainsaturaion
 0003:0E647F34       aLocalexposureG
 0003:0E647F48       aChromascaleGet
 0003:0E647F58       aFpncorrectionG
 0003:0E647F6C       aBadpixelcorrec
 0003:0E647F84       aCfaleakagefilt
 0003:0E647F9C       aAntialiasingfi
 0003:0E647FB4       aCfanoisefilter
 0003:0E647FC8       aChromamedianfi
 0003:0E647FE0       aMctfcontrol
 0003:0E647FEC       aColordependent
 0003:0E64800C       aChromanoisefil
 0003:0E648024       aConfigaaacontr
 0003:0E64803C       aDemosaicGet
 0003:0E64804C       aMismatchgrGbGe
 0003:0E648060       aJpgGet
 0003:0E648068       aDefault
 0003:0E648070       aUsbhdlrSetBinP
 0003:0E648088       aBinPkgSend
 0003:0E648098       aColorcorrectio_0
 0003:0E6480B0       aFromUsb
 0003:0E6480BC       aUsbhdlrSetWhit
 0003:0E6480D8       aWhitebalancega_0
 0003:0E6480F0       aSMwIpGetMultiA_0
 0003:0E648120       aUsbhdlrSetShpa
 0003:0E648138       aSharpeningaAsf_0
 0003:0E648150       aUsbhdlrSetShpb
 0003:0E648164       aSharpeningbSen
 0003:0E648178       aExposurecontro_0
 0003:0E648190       aTuningModeSend
 0003:0E6481A4       aVideoMode
 0003:0E6481B0       aStillMode
 0003:0E6481BC       aFpnTableMemory
 0003:0E6481E0       aImgModePreview
 0003:0E6481F4       aItunerFileSend
 0003:0E648208       aBlacklevelcorr_0
 0003:0E648224       aTonecurveSend
 0003:0E648234       aRgbtoyuvmatrix_0
 0003:0E648248       aDgainsaturaion_0
 0003:0E648264       aLocalexposureS
 0003:0E648278       aBadpixelcorrec_0
 0003:0E648290       aCfaleakagefilt_0
 0003:0E6482A8       aAntialiasingfi_0
 0003:0E6482C0       aCfanoisefilter_0
 0003:0E6482D4       aChromamedianfi_0
 0003:0E6482EC       aMctfcontrolSen
 0003:0E648300       aColordependent_0
 0003:0E648324       aChromanoisefil_0
 0003:0E64833C       aConfigaaacontr_0
 0003:0E648354       aDemosaicSend
 0003:0E648364       aMismatchgrGbSe
 0003:0E648378       aFpnSend
 0003:0E648384       aFpnMapAddr0x8x_0
 0003:0E64839C       aVignetteSend
 0003:0E6483AC       aWarpSend
 0003:0E6483B8       aChromaAberrati
 0003:0E6483D0       aRawDataSend
 0003:0E6483E0       aReceiveAmageco
 0003:0E6483FC       aP10xXP20xXP30x
 0003:0E648450       aLengthD_1
 0003:0E64845C       aImgModeVideo
 0003:0E64847C       aImgModeStill_0
 0003:0E64849C       aImgModeLowIsoS
 0003:0E6484BC       aImgModeMidIsoS_1
 0003:0E6484DC       aImgModeHighIso_0
 0003:0E6484FC       aImgModeNightPo_0
 0003:0E64851C       aImgModePreview_2
 0003:0E64853C       aImgModeHighIso
 0003:0E64855C       aSingleShot
 0003:0E64857C       aMultiShotHdr_0
 0003:0E64859C       aMultiShotMfHis_0
 0003:0E6485BC       aMultiShotMaHdr_0
 0003:0E6485DC       aVbusPostConnec
 0003:0E6485F0       aVbusPreDisConn
 0003:0E648608       aDevicesystemst
 0003:0E64861C       aDevicesystemre
 0003:0E648630       aDeviceSystemCo
 0003:0E648658       aUsbDeviceSuspe
 0003:0E648670       aUsbDeviceResum
 0003:0E648684       aUsbDeviceReset
 0003:0E648698       aNone
 0003:0E6486A0       aPict
 0003:0E6486A8       aRs232SingleIns
 0003:0E6486C0       aRs232MultipleI
 0003:0E6486DC       aCustom
 0003:0E6486E4       aStream
 0003:0E6486EC       aSimple
 0003:0E6486F4       aMixStorage
 0003:0E648700       aUnknown
 0003:0E648708       aUsbDeviceclass
 0003:0E648720       aUsbClassDS
 0003:0E648738       aSUWaitTheSdUnm
 0003:0E648760       aSVbusConnect
 0003:0E648774       aSSleepDMiliSec
 0003:0E648794       aSSetDeviceData
 0003:0E6487B8       aSVbusDisconnec
 0003:0E6487D0       aSDriverContext
 0003:0E648800       aAmbausbDevices
 0003:0E648824       aSFreeMemoryFor
 0003:0E648840       aErrorSCanTFree_0
 0003:0E648870       aErrorSCanTAllo_0
 0003:0E6488B0       aAmbausbDevices_0
 0003:0E6488CC       aErrorSCanTFree_1
 0003:0E6488F8       aAmbausbClassin
 0003:0E64890C       aSCreatDjiusbde
 0003:0E64893C       aAmbausbDevicec
 0003:0E648954       aCreatClassStar
 0003:0E648978       aErrorHeadDShou
 0003:0E6489B0       aAppcdcacmdCrea
 0003:0E6489C8       aErrorSCanNotCr
 0003:0E6489F8       aAppcdcacmdTask
 0003:0E648A08       aSStart_6
 0003:0E648A14       aSBulkSendTimeo
 0003:0E648A30       aSEnd_5
 0003:0E648A3C       aAppcdcacmdRcvt
 0003:0E648A50       aSBulkRecvTimeo
 0003:0E648A70       aAppcdcacmdStar
 0003:0E648A84       aErrorSCanNotCr_0
 0003:0E648AB4       aErrorSCanNotCr_1
 0003:0E648AE8       aCreatUsbcdcacm
 0003:0E648B10       aCreatUsbcdcacm_0
 0003:0E648B34       aCdcAcmTask
 0003:0E648B44       aCreatUsbcdcacm_1
 0003:0E648B64       aCdcAcmRcvTask
 0003:0E648B78       aCreatUsbcdcacm_2
 0003:0E648BCC       aSSwitchToCdcAc
 0003:0E648BEC       aSNoUartInputNo
 0003:0E648C08       aAppcdcacmdStop
 0003:0E648C18       aSSwitchBackToU
 0003:0E648C38       aAppcdcacmmulti_1
 0003:0E648C50       aSDReachMaxInst
 0003:0E648C78       aMsgDBytesTooLa
 0003:0E648C94       aAppcdcacmmulti
 0003:0E648CBC       aAppcdcacmmulti_0
 0003:0E648CD4       aErrorHeadDShou_0
 0003:0E648D0C       aAppcdcacmmulti_2
 0003:0E648D2C       aAppcdcacmmulti_3
 0003:0E648D4C       aErrorSCanNotCr_2
 0003:0E648D7C       aAppcdcacmmulti_4
 0003:0E648D98       aAppcdcacmmulti_5
 0003:0E648DB4       aAppcdcacmmulti_6
 0003:0E648DCC       aErrorSCanNotCr_3
 0003:0E648E0C       aErrorSCanNotCr_4
 0003:0E648E4C       aErrorSCanNotCr_5
 0003:0E648E8C       aErrorSCanNotCr_6
 0003:0E648EC8       aErrorSCanNotCr_7
 0003:0E648F04       aErrorSCreatTra
 0003:0E648F3C       aErrorSCreatMut
 0003:0E648F6C       aCdcAcmSendTask
 0003:0E648F84       aErrorSCreatSen
 0003:0E648FB8       aCdcAcmRecvTask
 0003:0E648FD0       aErrorSCreatRec
 0003:0E649034       aSSwitchToCdcAc_0
 0003:0E649054       aSNoUartInputNo_0
 0003:0E649070       aAppcdcacmmulti_7
 0003:0E649088       aSSwitchBackToU_0
 0003:0E6490A8       aAppusbdCustomG
 0003:0E6490CC       aSIndexD
 0003:0E6490E0       aGetReportFromH
 0003:0E6490F8       aReportidD_0
 0003:0E64910C       aLengthD_2
 0003:0E649120       a03d0xX_0
 0003:0E649130       aAmbahidreports
 0003:0E649148       aMixstorageAllo
 0003:0E649164       aErrorSCanNotCr_8
 0003:0E649198       aCWinisoIso
 0003:0E6491A8       aCanNotOpenS
 0003:0E6491B8       aFileCopyErrorE
 0003:0E6491EC       aReadLba0xXWith
 0003:0E649214       aReadMediaError
 0003:0E649234       aWriteLba0xXWit
 0003:0E649260       aWriteMediaErro
 0003:0E649280       aAmbausbMscDomo
 0003:0E649294       aSCanTWaitSdCar
 0003:0E6492B8       aAppmtpdParseex
 0003:0E6492D0       aSFileSNotExist
 0003:0E6492EC       aParseExifError_1
 0003:0E649300       aPicdispUnsuppo
 0003:0E649320       aParseMovError
 0003:0E649330       aFailedToFormat
 0003:0E649344       aAppmtpdCbobjec_6
 0003:0E649360       aSFormatCode0xX
 0003:0E64938C       aAppmtpdCbobjec
 0003:0E6493A4       aSObjectSendSta
 0003:0E6493D8       aSObjectLengthD
 0003:0E6493F4       aTransferCancel
 0003:0E649408       aAppmtpdCbobjec_0
 0003:0E649424       aSOpenS
 0003:0E649434       aSFailedToOpenS_0
 0003:0E64944C       aSFailedToParse_0
 0003:0E64946C       aSCanTReadOffse
 0003:0E6494A4       aAppmtpdCbobjec_1
 0003:0E6494BC       aSHandleDOffset
 0003:0E6494F8       aSOffsetMismatc
 0003:0E649528       aSCanTSeekToD
 0003:0E649540       aSCloseFile
 0003:0E649554       aAppmtpdCbobjec_2
 0003:0E649570       aSObjectInfo
 0003:0E649584       aParentobjectha
 0003:0E6495A4       aNameS
 0003:0E6495B4       aFormatcode0xX
 0003:0E6495CC       aLength0xX
 0003:0E6495E0       aSNotSupported
 0003:0E6495F4       aParentNameS
 0003:0E649608       aFullNameS
 0003:0E64961C       aSCanNotCreateS
 0003:0E649634       aSCanTAddHandle
 0003:0E649654       aSAddHandleDFor
 0003:0E649670       aAppmtpdCbobjec_3
 0003:0E64968C       aSFileIsNullBut
 0003:0E6496D4       aSCanTAllocateM_1
 0003:0E6496F4       aSCanTOpenS
 0003:0E64970C       aSFileIsNullSom
 0003:0E649734       aSOffsetIsWrong
 0003:0E649764       aSCanTWriteFile
 0003:0E64978C       aMtpAmagedatage
 0003:0E6497A0       aSDCallAmbatune_5
 0003:0E6497C4       aMtpAmagedatase
 0003:0E6497D8       aAppmtpdVendors
 0003:0E6497FC       aSActualLenD
 0003:0E649814       aSIncompleteTra
 0003:0E649840       aAppmtpdVendorg
 0003:0E649864       aAppmtpdCbvendo
 0003:0E64987C       aSOpcode0xXPara
 0003:0E6498A4       aP10xXP20xXP30x_0
 0003:0E6498D0       aSTransferResul
 0003:0E6498F0       aAppmtpdRealloc
 0003:0E64990C       aSCanTAllocateB
 0003:0E64993C       aSBufferIsNullS
 0003:0E649964       aAppmtpdAllocda
 0003:0E64997C       aSAlreadyHaving
 0003:0E6499B4       aAppmtpdInitsys
 0003:0E6499C8       aSCanTCreateBuf
 0003:0E6499FC       aMtpObjectScanT
 0003:0E649A18       aTotalObjectsD
 0003:0E649A2C       aAmbausbMtpInit
 0003:0E649A40       aSCanTWaitSdCar_0
 0003:0E649A64       aAmbarella
 0003:0E649A78       a20140603t15010
 0003:0E649A98       aA9MtpDevice
 0003:0E649AB4       aUnknown_6
 0003:0E649AC4       aDatetimeDefaul
 0003:0E649AD8       aDatetimeCurren
 0003:0E649AEC       aAppmtpdCbdevic
 0003:0E649B0C       aSValueLengthD2
 0003:0E649B38       aSValueLengthD2_0
 0003:0E649B68       aSValueLengthD2_1
 0003:0E649B9C       aSValueLengthDD
 0003:0E649BDC       aSValueLengthD4
 0003:0E649C14       aFillpropdescSh
 0003:0E649C30       aSCanTAllocateM_9
 0003:0E649C50       aFillpropdescLo
 0003:0E649C68       aFillpropdescPr
 0003:0E649C88       aSPosDLengthD
 0003:0E649CA8       aFillpropdescOb
 0003:0E649CC0       aFillpropdescPa
 0003:0E649CDC       aFillpropdescPe
 0003:0E649D0C       aFillpropdescNo
 0003:0E649D28       aFillpropdescUs
 0003:0E649D40       aFillpropdescSa
 0003:0E649D58       aFillpropdescNu
 0003:0E649D78       aFillpropdescAu
 0003:0E649D94       aFillpropdescAu_0
 0003:0E649DB0       aFillpropdescAu_1
 0003:0E649DCC       aFillpropdescWi
 0003:0E649DE0       aFillpropdescHe
 0003:0E649DF4       aFillpropdescSc
 0003:0E649E0C       aFillpropdescFo
 0003:0E649E28       aFillpropdescVi
 0003:0E649E44       aFillpropdescFr
 0003:0E649E6C       aFillpropdescKe
 0003:0E649E8C       aFillpropdescSt
 0003:0E649EA0       aSPosDLengthDFo
 0003:0E649ED0       aAppmtpdCbobjec_4
 0003:0E649EEC       aSObjectFormat0
 0003:0E649F18       aSProperty0xXWi
 0003:0E649F50       aAppmtpdCbobjec_5
 0003:0E649F70       aSCanTGetDataBu
 0003:0E649F90       aAppmtpdCheckgr
 0003:0E649FA8       aSDonTKnowHowTo
 0003:0E649FD8       aAppmtpdFillpro
 0003:0E649FFC       aSCanTGetMemory
 0003:0E64A014       aAppmtpdFillpro_0
 0003:0E64A02C       aSPropertyListI
 0003:0E64A060       aSCanTGetFilena
 0003:0E64A08C       a20140813t10143
 0003:0E64A09C       aSUnsupportedOb
 0003:0E64A0CC       aAppmtpdFillpro_1
 0003:0E64A0F4       aSCanTFillPropl
 0003:0E64A11C       aSLengthDD
 0003:0E64A134       aAppmtpdCbobjec_7
 0003:0E64A150       aSInvalidHandle
 0003:0E64A16C       aSCanTAllocateD_2
 0003:0E64A190       aSNotSupportedD
 0003:0E64A1B0       aMtppreparsethr
 0003:0E64A1C8       aSCanTAllocateM_2
 0003:0E64A1E4       aPreParseIndexD
 0003:0E64A1FC       aPreParseFinish
 0003:0E64A210       aItTakesDMs
 0003:0E64A220       aAppmtpdPrepars
 0003:0E64A240       aSFailToDeleteT_0
 0003:0E64A26C       aSFailToDeleteE
 0003:0E64A29C       aAppmtpdPrepars_0
 0003:0E64A2BC       aSFailToCreateP
 0003:0E64A2E8       aSFailToClearPr
 0003:0E64A314       aMtppreparsethr_0
 0003:0E64A328       aSFailToCreateP_0
 0003:0E64A358       aAppmtpdPrepars_1
 0003:0E64A384       aPreparseBuffer
 0003:0E64A3B4       aSCanTAllocateM_3
 0003:0E64A3F8       aAppmtpdDbgetat
 0003:0E64A41C       aSHandleDD
 0003:0E64A434       aAppmtpdDbdoubl
 0003:0E64A470       aSCanTAllocateM_4
 0003:0E64A4B0       aSCanTAllocateM_5
 0003:0E64A4F0       aSDoubleDbCapac
 0003:0E64A518       aAppmtpdDbaddha
 0003:0E64A52C       aDDSSS
 0003:0E64A53C       aSCanTCacheInde
 0003:0E64A578       aAppmtpdDbinser
 0003:0E64A5B0       aSCanTFindAnEmp
 0003:0E64A5D4       aSCanTSeekToLlu
 0003:0E64A604       aSCanTAllocateB_0
 0003:0E64A624       aDDSS
 0003:0E64A634       aSCanTOpenDbFil
 0003:0E64A664       aSCanTCacheInde_0
 0003:0E64A694       aMtpimplAddSFor
 0003:0E64A6B4       aAppmtpdDbisobj
 0003:0E64A6D4       aSHandleDMaxD
 0003:0E64A6F0       aSHandleDIsNotU
 0003:0E64A70C       aAppmtpdDbgetfi
 0003:0E64A72C       aSCanTAllocateM_6
 0003:0E64A74C       aAppmtpdDbgetfi_0
 0003:0E64A76C       aSCanTReadFileP
 0003:0E64A7A0       aAppmtpdDbgetpa
 0003:0E64A7BC       aSHandleD
 0003:0E64A7D0       aAppmtpdDbgetnu
 0003:0E64A7F0       aSNotImpl
 0003:0E64A800       aAppmtpdDbfillo
 0003:0E64A81C       aSDbDoesnTMatch
 0003:0E64A840       aAppmtpdDbscand
 0003:0E64A858       aSCanTAllocateM_7
 0003:0E64A888       aS_17
 0003:0E64A890       aSReachMaxFiles
 0003:0E64A8AC       aSS_9
 0003:0E64A8B4       aSScanDepthReac
 0003:0E64A8D4       aAppmtpdDbscan
 0003:0E64A8E8       aSCanTCreateS
 0003:0E64A900       aSCanTAllocateM_8
 0003:0E64A930       aIdParentNamePa
 0003:0E64A944       aAppmtpdDbdelet
 0003:0E64A95C       aSCanTRemoveFol
 0003:0E64A990       aSCanTRemoveFil
 0003:0E64A9C4       aSPathSHandle0x
 0003:0E64A9EC       aOpenS
 0003:0E64A9F4       aFailedToOpenS
 0003:0E64AA08       aCloseFile
 0003:0E64AA14       aCloseFileFail
 0003:0E64AA24       aAmbausbClassPi
 0003:0E64AA5C       aSimpleVendorre
 0003:0E64AA74       aSRequestIn0xXR
 0003:0E64AADC       aSRequestOut0xX
 0003:0E64AB44       aData0xX0xX
 0003:0E64AB58       aSDonTSupportSt_0
 0003:0E64AB88       aCreatTxFlagFai
 0003:0E64ABA4       aCreatRxFlagFai
 0003:0E64ABC0       aCreatUsbstream
 0003:0E64ABE4       aDjiusbclassini
 0003:0E64ABF4       aSSettingValueD
 0003:0E64AC2C       aVersionDDDS
 0003:0E64AC48       aAmbadspTotalus
 0003:0E64AC80       aAmbdspUsercame
 0003:0E64ACB4       aDjiFirmwareVer
 0003:0E64ACD0       aV01325432
 0003:0E64ACDC       aBeforeHardware
 0003:0E64AD00       aAfterHardwareS
 0003:0E64AD20       aAmbaNftlInitLo
 0003:0E64AD48       aInitStorageADr
 0003:0E64AD64       aADriveIsNotFor
 0003:0E64AD88       aDjiWaitForMode
 0003:0E64ADB8       aDjiWaitForMode_0
 0003:0E64ADE0       aUnknownAdjPara
 0003:0E64ADF8       aSceneDataS01
 0003:0E64AE08       aSceneDataS02
 0003:0E64AE18       aSceneDataS03
 0003:0E64AE28       aSceneDataS04
 0003:0E64AE38       aSceneDataS05
 0003:0E64AE48       aDeDefaultStill
 0003:0E64AE5C       aAppImageInit
 0003:0E64AE74       aImgDefault
 0003:0E64AE80       aAaaDefault
 0003:0E64AE8C       aAdjTableParamD
 0003:0E64AEA4       aAdjVideoDefaul
 0003:0E64AEBC       aAdjPhotoDefaul
 0003:0E64AED4       aAdjStillDefaul
 0003:0E64AEEC       aAdjHisoStillDe
 0003:0E64AF08       aAdjStillIdx
 0003:0E64AF18       aDeDefaultVideo
 0003:0E64AF2C       aCheckS
 0003:0E64AF90       aBlcCalibration
 0003:0E64AFBC       aBlcShuttertime
 0003:0E64AFE8       aStartToDoRawCa_1
 0003:0E64B000       aEndOfRawCaptur_1
 0003:0E64B014       aWb_1
 0003:0E64B018       aCBlccalStillDR
 0003:0E64B030       aAmputcalibblcS
 0003:0E64B04C       aAmpvigUtDumpRa_1
 0003:0E64B07C       aCBlccalVideoDR
 0003:0E64B094       aOkBlcTestDDDD
 0003:0E64B0B4       aOkBlc
 0003:0E64B0BC       aNgBlcOverThres
 0003:0E64B110       aNgBlcOverflowO
 0003:0E64B13C       aCalSiteSVersio
 0003:0E64B174       aTest_9
 0003:0E64B17C       aInit_5
 0003:0E64B184       aTCalWbInitReIn_0
 0003:0E64B1A0       aBpcIaBpcbuffer
 0003:0E64B1D4       aAmputcalibbpcB
 0003:0E64B1F0       aKAssertAtSD_21
 0003:0E64B204       aBm
 0003:0E64B208       aReadErrorInput
 0003:0E64B234       aReadErrorBitsP
 0003:0E64B25C       aReadErrorDataS
 0003:0E64B290       aReadErrorDataW
 0003:0E64B2B4       aReadErrorDataH
 0003:0E64B2D8       aReadBmpFileDon
 0003:0E64B2EC       aBm_0
 0003:0E64B2F0       aBmpFileSaved
 0003:0E64B300       aBufindexDXDYDV
 0003:0E64B328       aPbpcbufBuffera
 0003:0E64B344       aNotAllocated
 0003:0E64B354       aBadpixel_1
 0003:0E64B360       aReserved_0
 0003:0E64B378       aBpcPageInforma
 0003:0E64B3A4       aPageD
 0003:0E64B3B0       aPageSizeDPageO
 0003:0E64B3D8       aBadpixelRecord
 0003:0E64B3F8       aRecordValidDMa
 0003:0E64B454       aNumberOfBadPix
 0003:0E64B470       aBpcBufferInfor
 0003:0E64B4A0       aBufDChannelDBp
 0003:0E64B4D4       aBpcConfigInfor
 0003:0E64B504       aBufDChannelDBp_0
 0003:0E64B540       aBpcActiveBuffe
 0003:0E64B574       aSDChannelDBpcA
 0003:0E64B5A0       aBpcGeometryInf
 0003:0E64B5D0       aSDChannelDBpcB
 0003:0E64B698       aAmputcalibbpcM
 0003:0E64B6B8       aBpcmodeDChanne
 0003:0E64B6E0       aSDBpcpageDFlip
 0003:0E64B708       aBpcAppBpcChann
 0003:0E64B74C       aBpcBufferDIsLo
 0003:0E64B784       aChannelDBpcmod
 0003:0E64B7CC       aBpcAppBpcHwCon
 0003:0E64B810       aAmputcalibbpcM_0
 0003:0E64B828       aBpcmodeDModeLd
 0003:0E64B844       aNoBadPixelData
 0003:0E64B878       aBadPixelDataIs
 0003:0E64B894       aGetWarpCompens
 0003:0E64B8B4       aEnableD_6
 0003:0E64B8C0       aVersionX
 0003:0E64B8D0       aBufferAddressX
 0003:0E64B8E4       aStartxD_3
 0003:0E64B8F0       aStartyD_3
 0003:0E64B8FC       aWidthD_6
 0003:0E64B908       aHeightD_6
 0003:0E64B914       aHsubsampleFact
 0003:0E64B930       aHsubsampleFact_0
 0003:0E64B94C       aVsubsampleFact
 0003:0E64B968       aVsubsampleFact_0
 0003:0E64B984       aBpcModeD
 0003:0E64B994       aSensorModeD_1
 0003:0E64B9B0       aBadpixel
 0003:0E64B9BC       aUnsupportPageT
 0003:0E64B9D4       aErrorPageOverl
 0003:0E64BA00       aErrorPageOverf
 0003:0E64BA4C       aPageCreateBpcM
 0003:0E64BA8C       aErrorBadPixelP
 0003:0E64BACC       aErrorBadPixelB
 0003:0E64BB10       aErrorBadPixelN
 0003:0E64BB48       aErrorBadPixelT
 0003:0E64BB84       aErrorBadPixelA
 0003:0E64BBC0       aErrorBadPixelS
 0003:0E64BBFC       aErrorBadPixelP_0
 0003:0E64BC20       aErrorBadPixelP_1
 0003:0E64BC48       aBpcAppLoadOldB
 0003:0E64BC6C       aBpcAppDecompre
 0003:0E64BCB0       aBpcAppUnpacked
 0003:0E64BD14       aCMode
 0003:0E64BD28       aSensorDidnTRep
 0003:0E64BD58       aWidthDHeightD
 0003:0E64BD70       aDDRaw
 0003:0E64BD7C       aBadPixelCalibr
 0003:0E64BDAC       aTAppGetSizeDAd
 0003:0E64BDD0       aRawDataAddr0x8
 0003:0E64BDF8       aBpcAppSensorDi
 0003:0E64BE38       aBufIndexDBufhe
 0003:0E64BE64       aBpcAppPredictP
 0003:0E64BEB8       aAmputcalibbpcB_1
 0003:0E64BEDC       aAmputcalibbpcB_0
 0003:0E64BF04       aBpcPageIsnTVal
 0003:0E64BF1C       aAmputcalibbpcB_2
 0003:0E64BF60       aBpcAppBadpixel
 0003:0E64BF8C       aBpcAppPackedSD
 0003:0E64BFE4       aBpcAppBpcBpcma
 0003:0E64C018       aItunerrawcapct
 0003:0E64C048       aSensorDidnTRep_0
 0003:0E64C080       aRawAddressXDet
 0003:0E64C0AC       aStartToDoRawCa
 0003:0E64C0C4       aEndOfRawCaptur
 0003:0E64C0E0       aBpcAutoAeDelay
 0003:0E64C104       aCalaeinfoShutt
 0003:0E64C184       aDisable3a
 0003:0E64C190       aBpcCalibration
 0003:0E64C1DC       aGetSensorModeI
 0003:0E64C1F8       aRawwidthDRawhe
 0003:0E64C224       aShutterF
 0003:0E64C234       aAgcGainF
 0003:0E64C244       aDgainD
 0003:0E64C250       aAmputcalibbpcS
 0003:0E64C26C       aCModeDRaw
 0003:0E64C27C       aAmpvigUtDumpRa
 0003:0E64C2AC       aWb
 0003:0E64C2B8       aAmputcalibbpcD
 0003:0E64C2D0       aBpcAppBpcBuffe
 0003:0E64C2F0       aBpcAppClearBpc
 0003:0E64C30C       aAddressOfRawBu
 0003:0E64C328       aBufferSizeD
 0003:0E64C33C       aAmputcalibbpcA
 0003:0E64C364       aAmputcalibbpcR
 0003:0E64C390       aPictureD
 0003:0E64C39C       aNumbadpixelsD
 0003:0E64C3B0       aCSDDRaw
 0003:0E64C3C0       aErrorFpnBadPix
 0003:0E64C448       aAmputcalibbpcL
 0003:0E64C464       aBpcCalParamCha
 0003:0E64C480       aBpcCalParamFli
 0003:0E64C49C       aBpcCalParamBad
 0003:0E64C4C0       aBpcCalParamBuf
 0003:0E64C4E0       aBpcCalParamBpc
 0003:0E64C4FC       aBpcCalParamTyp
 0003:0E64C518       aBpcCalParamNum
 0003:0E64C530       aBpcCalParamThr
 0003:0E64C550       aBpcCalParamAgc
 0003:0E64C56C       aBpcCalParamInv
 0003:0E64C594       aBpcCalParamAet
 0003:0E64C5B4       aBpcCalParamFli_0
 0003:0E64C5D4       aBpcCalParamMan
 0003:0E64C5F8       aBpcCalParamBlo
 0003:0E64C614       aBpcCalParamBlo_0
 0003:0E64C630       aBpcCalParamCle
 0003:0E64C650       aBpcCalParamDeb
 0003:0E64C670       aBpcCalParamMax
 0003:0E64C690       aBpcCalParamDeb_0
 0003:0E64C6B4       aErrorDarkBadpi
 0003:0E64C6F0       aAmputcalibbpcC
 0003:0E64C790       aFpnAppClearFpn
 0003:0E64C7AC       aFpnAppLoadOldB
 0003:0E64C7D0       aFpnAppDecompre
 0003:0E64C814       aFpnAppUnpacked
 0003:0E64C874       aDDScoreD
 0003:0E64C888       aPageCreate
 0003:0E64C894       aPageReset
 0003:0E64C8A0       aPageResetPageD
 0003:0E64C8B4       aStatusReset
 0003:0E64C8C4       aResetBpcCalibr
 0003:0E64C8E8       aBadpixel_0
 0003:0E64C8F4       aBadpixelFlip
 0003:0E64C904       aBadpixelFromRa
 0003:0E64C918       aBadPixelCalibr_0
 0003:0E64C930       aErrorArgumentN
 0003:0E64C950       aErrorNumbadpix
 0003:0E64C980       aSDBadpixelNumb
 0003:0E64C9A0       aBadpixelCluste
 0003:0E64C9B8       aUnCorrectableD
 0003:0E64C9E8       aNoUnCorrectabl
 0003:0E64CA14       aStatus_0
 0003:0E64CA1C       aBpcCorrectionR
 0003:0E64CA34       aSDD_0
 0003:0E64CA40       aReload
 0003:0E64CA48       aReloadBpcBpcma
 0003:0E64CA6C       aAmputcalibbpcU
 0003:0E64CA84       aTest_10
 0003:0E64CA8C       aInit_6
 0003:0E64CA94       aMapUpdate
 0003:0E64CAA0       aInfo_5
 0003:0E64CAB0       aShutterFsAgcFd
 0003:0E64CADC       aEnable3a
 0003:0E64CAE8       aAeInfo
 0003:0E64CAF0       aSDIndexD
 0003:0E64CB00       aSetPixel
 0003:0E64CB0C       aSetRegion
 0003:0E64CB18       aSave_1
 0003:0E64CB20       aCanTCreateTheF
 0003:0E64CB3C       aWriteDByteDone
 0003:0E64CB50       aSavebmp
 0003:0E64CB58       aSizeOfBpcbufD
 0003:0E64CB70       aChannelDBpcmod_0
 0003:0E64CB98       aRdbmp
 0003:0E64CBA0       aCanTReadTheFil
 0003:0E64CBB8       aSensorCal
 0003:0E64CBC4       aCaptureFpnMode
 0003:0E64CBE4       aTCalSensorCalS
 0003:0E64CC30       aSensormodeSens
 0003:0E64CC58       aDebug_6
 0003:0E64CC60       aSensorStatus
 0003:0E64CC74       aOutputInfoStar
 0003:0E64CC8C       aOutputInfoStar_0
 0003:0E64CCA4       aOutputInfoWidt
 0003:0E64CCBC       aOutputInfoHeig
 0003:0E64CCD4       aInputInfoStart
 0003:0E64CCEC       aInputInfoStart_0
 0003:0E64CD04       aInputInfoWidth
 0003:0E64CD1C       aInputInfoHeigh
 0003:0E64CD34       aModeD_4
 0003:0E64CD40       aFlipD_3
 0003:0E64CD4C       aHFactornumD
 0003:0E64CD60       aHFactordenD
 0003:0E64CD74       aVFactornumD
 0003:0E64CD88       aVFactordenD
 0003:0E64CD9C       aNandStatus
 0003:0E64CDA8       aTestFunctionFo
 0003:0E64CDE8       aOffsetDSectorn
 0003:0E64CE04       aSensorFlip
 0003:0E64CE14       aChannelDModeDF
 0003:0E64CE38       aTCalBpcSensorF
 0003:0E64CE74       aAeTarget_0
 0003:0E64CE80       aEnable_5
 0003:0E64CE88       aTCalBpcInitReI
 0003:0E64CEBC       aTCalBpcReloadT
 0003:0E64CEEC       aTCalBpcInfoPri
 0003:0E64CF14       aTCalBpcDebug01
 0003:0E64CF54       aTCalBpcSetChan
 0003:0E64CFA4       aTCalBpcSetPixe
 0003:0E64D010       aTCalBpcSetRegi
 0003:0E64D070       aTCalBpcRdChann
 0003:0E64D0BC       aTCalBpcRdbmpCh
 0003:0E64D110       aTCalBpcSaveCha
 0003:0E64D15C       aTCalBpcMeShutt
 0003:0E64D19C       aTCalBpcSavebmp
 0003:0E64D1F0       aTCalBpcPredict
 0003:0E64D238       aTCalBpcSensorC
 0003:0E64D28C       aTCalBpcDumpBuf
 0003:0E64D304       aTCalBpcSensorF_0
 0003:0E64D338       aTCalBpcEnable0
 0003:0E64D350       aBpcmodeDReadou
 0003:0E64D3BC       aDjibpcbmpdatag
 0003:0E64D3D0       aSUInputParamet
 0003:0E64D3F4       aSUInvalidStart
 0003:0E64D410       aSUBpcmodeUChan
 0003:0E64D430       aSUInvalidBadPi
 0003:0E64D478       aSUBpcinfoUUUAn
 0003:0E64D4E8       aSUTotalBaxPixe
 0003:0E64D50C       aDjibpcmodeinfo
 0003:0E64D520       aSUInputParamet_0
 0003:0E64D544       aSUUUUU
 0003:0E64D560       aSensormodeDPho
 0003:0E64D584       aBpcmodeD
 0003:0E64D590       aXDYDCountDOffs
 0003:0E64D5C8       aBm_1
 0003:0E64D5CC       aCurbpcbmpdump
 0003:0E64D5DC       aSDjibpcmodeinf
 0003:0E64D5FC       aSUUUUUBmppadde
 0003:0E64D638       aAmputcalibbpcA_0
 0003:0E64D66C       aSUBase0x08x
 0003:0E64D680       aSDjibpcbmpdata
 0003:0E64D6A0       aBpcnumU
 0003:0E64D6AC       aSAmbafsFopenFa
 0003:0E64D6C8       aTestbpcdata
 0003:0E64D6E4       aGetBpcNumberFa
 0003:0E64D6FC       aSTmpbpcnumU
 0003:0E64D710       aSAllocateBadPi
 0003:0E64D73C       aTestbpcdataBmp
 0003:0E64D788       aBpcCountDData0
 0003:0E64D7C8       aAmputcalibcaSe
 0003:0E64D828       aHorizonalGridN_0
 0003:0E64D848       aVerticalGridNu_1
 0003:0E64D868       aBlendratioShou_0
 0003:0E64D8A0       aStrengthShould_0
 0003:0E64D8D4       aVersion0xX_2
 0003:0E64D8E4       aHorizontalGrid_0
 0003:0E64D900       aVerticalGridNu_2
 0003:0E64D91C       aTileWidthD_0
 0003:0E64D92C       aTileHeightD_0
 0003:0E64D93C       aImageWidthD_0
 0003:0E64D94C       aImageHeightD_0
 0003:0E64D960       aStartxD_10
 0003:0E64D96C       aStartyD_11
 0003:0E64D978       aHsubsampleFact_5
 0003:0E64D994       aHsubsampleFact_6
 0003:0E64D9B0       aVsubsampleFact_5
 0003:0E64D9CC       aVsubsampleFact_6
 0003:0E64D9E8       aRedscalefactor_0
 0003:0E64D9FC       aBluescalefacto_0
 0003:0E64DA10       aCaTableAddress
 0003:0E64DA28       aAmputcalibcaGe
 0003:0E64DA44       aCCalib13Bin_0
 0003:0E64DA64       aCCaTableH
 0003:0E64DA84       aCCaRawencodeBi
 0003:0E64DAAC       aStartXDStartYD_0
 0003:0E64DAC8       aAllocateFailIn_0
 0003:0E64DAE0       aAmputcalibcaEx
 0003:0E64DB0C       aAmputcalibcaRe
 0003:0E64DB38       aAmputcalibcaBl
 0003:0E64DB68       aTCalGenCaGener
 0003:0E64DBF8       aIncorrectArgum
 0003:0E64DC14       aRawEncodeTextF_0
 0003:0E64DC98       aIncorrectParam
 0003:0E64DCAC       aIncorrectParam_0
 0003:0E64DCC4       aAmbafsFopenSFa_1
 0003:0E64DCDC       aMethod
 0003:0E64DCE4       aCompensateRati_7
 0003:0E64DCF8       aCompensateRati_8
 0003:0E64DD20       aRRatio_0
 0003:0E64DD28       aRRatioMustBeBe
 0003:0E64DD48       aRedline
 0003:0E64DD50       aBlueline
 0003:0E64DD5C       aOffSensorCalib_0
 0003:0E64DD74       aErrorCenterXOu
 0003:0E64DDC0       aErrorCenterYOu
 0003:0E64DE0C       aOffSensorRawIm_0
 0003:0E64DE24       aSensor_1
 0003:0E64DE2C       aErrorCenterxOu_0
 0003:0E64DE7C       aErrorCenteryOu_0
 0003:0E64DECC       aExpect_0
 0003:0E64DED4       aZoomStep_0
 0003:0E64DEE0       aDistance
 0003:0E64DEEC       aAperture
 0003:0E64DEF8       aAmbafsFcloseFa_0
 0003:0E64DF10       aSensorParamete
 0003:0E64DF3C       aMethodParamete
 0003:0E64DF68       aCompensaterati_0
 0003:0E64DF9C       aRRatioParamete_0
 0003:0E64DFC8       aExpectParamete
 0003:0E64DFF4       aRedlineFlagPar
 0003:0E64E024       aBluelineParame
 0003:0E64E050       aAmputcalibcaCa
 0003:0E64E088       aAmputcalibcaWp
 0003:0E64E0B0       aAmputcalibcaCa_0
 0003:0E64E0DC       aRedLineIndexNu
 0003:0E64E118       aRedLineIndexNu_0
 0003:0E64E158       aIllegalParamsO
 0003:0E64E180       aSelectMethodDF
 0003:0E64E1C8       aNotFoundInterv
 0003:0E64E1FC       aAutoSelectMeth
 0003:0E64E214       aWrongValueForM
 0003:0E64E234       a1Redscalefacto
 0003:0E64E25C       aAmbafsFopenSTe
 0003:0E64E27C       aAmbafsFwriteFa_0
 0003:0E64E290       aAmbafsFcloseFa_1
 0003:0E64E2A8       aAmbafsFopenSCa
 0003:0E64E2C8       aDefineGridW
 0003:0E64E2DC       a5d_2
 0003:0E64E2E4       aDefineGridH
 0003:0E64E2F8       aInt32Calibcahe
 0003:0E64E318       a0xX_0
 0003:0E64E320       a5d_3
 0003:0E64E328       aInt16CalibCaTa
 0003:0E64E36C       aInt16CalibCaTa_0
 0003:0E64E3B0       aAmbafsFcloseFa_2
 0003:0E64E3C8       aAmbafsFcloseFa_3
 0003:0E64E3DC       aGenCaSucceed
 0003:0E64E3EC       aTest_4
 0003:0E64E3F4       aReset_1
 0003:0E64E3FC       aInit_2
 0003:0E64E404       aCaSpec
 0003:0E64E40C       aSelect_1
 0003:0E64E414       aDebug_4
 0003:0E64E41C       aTCalCaInitReIn
 0003:0E64E438       aTCalCaCaSpec0S
 0003:0E64E45C       aTCalCaSelectEn
 0003:0E64E4A8       aTCalCaDebugEna
 0003:0E64E4E4       aCalmgrCliSS
 0003:0E64E4F8       aOk
 0003:0E64E500       aNg
 0003:0E64E508       aCalibReset
 0003:0E64E518       aPartial
 0003:0E64E520       aResetCalibDNan
 0003:0E64E544       aResetCalibDNan_0
 0003:0E64E564       aResetCalibDNan_1
 0003:0E64E580       aCalibInit
 0003:0E64E58C       aReInitCalibD
 0003:0E64E5A0       aAeTarget
 0003:0E64E5AC       aDelayTimeDSeco
 0003:0E64E5EC       aSetAeTargetToD
 0003:0E64E600       aCalibSave
 0003:0E64E60C       aSaveCalibDToNa
 0003:0E64E624       aNandInit
 0003:0E64E630       aNandSave
 0003:0E64E63C       aNandToSd
 0003:0E64E648       aLoadCalibDFrom
 0003:0E64E660       aSdToNand
 0003:0E64E66C       aCalibLoad
 0003:0E64E678       aProjectName
 0003:0E64E688       aCalibProjectNa
 0003:0E64E6B8       aA9Ssp
 0003:0E64E6C0       aProjectNameS
 0003:0E64E6D0       aErrorTheProjec
 0003:0E64E6F8       aRomLoad
 0003:0E64E704       aRomLoadHead
 0003:0E64E714       aSwitchToPhoto
 0003:0E64E728       aNandLoad
 0003:0E64E734       aNandLoadHead
 0003:0E64E744       aSdSave
 0003:0E64E750       aSimpleInit
 0003:0E64E760       aSimpleLoad
 0003:0E64E770       aNand
 0003:0E64E778       aCheckSize
 0003:0E64E784       aCheckStructSiz
 0003:0E64E79C       aPrintStatus
 0003:0E64E7AC       aCalidD
 0003:0E64E7B8       aStatus0x04xVer
 0003:0E64E7DC       aSubSiteStatus
 0003:0E64E7F0       aOperationD0x04
 0003:0E64E80C       aReservedS
 0003:0E64E81C       aSiteDSStatusSV
 0003:0E64E860       aErrD
 0003:0E64E86C       aReturn1RvalDRv
 0003:0E64E89C       aReturn2RvalDRv
 0003:0E64E8CC       aAmputCalibpath
 0003:0E64E8E0       aFileOpenErrorS
 0003:0E64E8F4       aLog
 0003:0E64E8FC       aAmputCalibpath_0
 0003:0E64E918       aAmputCalibgets
 0003:0E64E934       aKAssertAtSD_19
 0003:0E64E948       aAmputCalibmemr
 0003:0E64E95C       aDBin
 0003:0E64E964       aAmputCalibrese
 0003:0E64E97C       aAmputCalibnand
 0003:0E64E99C       aOnlyBpcAndVncL
 0003:0E64E9C4       aAmputCalibnand_0
 0003:0E64E9E0       aOnlyBpcAndVncL_0
 0003:0E64EA08       aChecksumFailX
 0003:0E64EA1C       aAmputCalibnand_1
 0003:0E64EA30       aVigPageDChecks
 0003:0E64EA50       aBpcPageDChecks
 0003:0E64EA70       aCalidDChecksum
 0003:0E64EA9C       aRepeatToReadCa
 0003:0E64EAC4       aResetCalStatus
 0003:0E64EAD8       aAmputCalibsdca
 0003:0E64EAF0       aCCalib
 0003:0E64EB00       aCalibDBin
 0003:0E64EB0C       aAmputCalibnand_2
 0003:0E64EB20       aAmputCalibsdca_0
 0003:0E64EB38       aCCalib_0
 0003:0E64EB48       aAmputCalibinit
 0003:0E64EB64       aAmputCalibinit_0
 0003:0E64EB7C       aAmputCalibinit_1
 0003:0E64EBA0       aInLiveviewCmdL
 0003:0E64EBB8       aOutLiveviewCmd
 0003:0E64EBD0       aRawCaptureTime
 0003:0E64EBE8       aBpcStructureCh
 0003:0E64EC00       aVncStructureCh
 0003:0E64EC18       aWarningCalibra
 0003:0E64EC4C       aWarningCalibra_0
 0003:0E64EC80       aNotValidRotati
 0003:0E64EC9C       aVigaddrD
 0003:0E64ECAC       aViginfoIDVigne
 0003:0E64ECD4       aTheVignetteGai
 0003:0E64ED1C       aErrorVignetteS
 0003:0E64ED3C       aErrorVignetteS_0
 0003:0E64ED6C       aErrorVignettes
 0003:0E64ED98       aErrorVignetteC
 0003:0E64EDE0       aErrorVignetteS_1
 0003:0E64EE24       aActivevigstora
 0003:0E64EE4C       aVignetteMwErro
 0003:0E64EE8C       aVncVignetteBuf
 0003:0E64EED0       aGetWarpCompens_0
 0003:0E64EEF0       aEnableDChannel
 0003:0E64EF54       aVignetteinfoCh
 0003:0E64EF74       aVignetteinfoCh_0
 0003:0E64EF9C       aVignetteinfoCh_1
 0003:0E64EFC4       aTablewidthD
 0003:0E64EFD4       aTableheightD
 0003:0E64EFE8       aCalibrationWid
 0003:0E64F000       aCalibrationHei
 0003:0E64F018       aCalibrationSta
 0003:0E64F030       aCalibrationSta_0
 0003:0E64F048       aCurrentWidthD
 0003:0E64F05C       aCurrentHeightD
 0003:0E64F070       aCurrentStartxD
 0003:0E64F084       aCurrentStartyD
 0003:0E64F098       aHsubsampleFact_1
 0003:0E64F0B4       aHsubsampleFact_2
 0003:0E64F0D0       aVsubsampleFact_1
 0003:0E64F0EC       aVsubsampleFact_2
 0003:0E64F108       aTxt
 0003:0E64F110       aCVigcalGainR
 0003:0E64F124       aCVigcalGainGe
 0003:0E64F138       aCVigcalGainGo
 0003:0E64F14C       aCVigcalGainB
 0003:0E64F160       aCVigcalInfo
 0003:0E64F174       aVignetteGeomet
 0003:0E64F194       aVignetteGeomet_0
 0003:0E64F1B4       aVignetteGeomet_1
 0003:0E64F1D4       aVignetteGeomet_2
 0003:0E64F1F4       aVignetteGainSh_0
 0003:0E64F210       aVignetteIkRetu
 0003:0E64F230       aAmputcalibvigM
 0003:0E64F270       aLoadRaw
 0003:0E64F27C       aVignetteCalibr
 0003:0E64F2F4       aVignetteCalibr_0
 0003:0E64F334       aVignetteCalibr_1
 0003:0E64F384       aVignetteCalibr_2
 0003:0E64F3C8       aVignetteCalibr_3
 0003:0E64F41C       aVignetteCalibr_4
 0003:0E64F468       aVignetteCalibr_5
 0003:0E64F4C0       aVignetteCalibr_6
 0003:0E64F514       aVigCalParamCal
 0003:0E64F538       aVigCalParamCha
 0003:0E64F554       aVigCalParamDar
 0003:0E64F578       aVigCalParamDar_0
 0003:0E64F59C       aVigCalParamSav
 0003:0E64F5C0       aVigCalParamSav_0
 0003:0E64F5E4       aVigCalParamLoo
 0003:0E64F604       aVigCalParamThr
 0003:0E64F624       aVigCalParamCom
 0003:0E64F648       aVigCalParamAet
 0003:0E64F668       aVigCalParamFli
 0003:0E64F688       aVigCalParamMan
 0003:0E64F6A8       aVigCalParamInv
 0003:0E64F6D0       aVigCalParamMan_0
 0003:0E64F6F4       aVigCalParamMan_1
 0003:0E64F71C       aVigCalParamCal_0
 0003:0E64F744       aVigCalParamNum
 0003:0E64F764       aVigCalParamOzo
 0003:0E64F790       aVignetteAutoAe
 0003:0E64F7B8       a1calaeinfoShut
 0003:0E64F83C       a2calaeinfoShut
 0003:0E64F8BC       a3calaeinfoShut
 0003:0E64F93C       a4calaeinfoShut
 0003:0E64F9BC       aBlackLevelDDDD
 0003:0E64F9D8       aDisable3a_0
 0003:0E64F9E4       aVignetteCalibr_7
 0003:0E64FA2C       aCVigcalRaw
 0003:0E64FA3C       aWb_0
 0003:0E64FA40       aAmputcalibvigS
 0003:0E64FA5C       aAmpvigUtDumpRa_0
 0003:0E64FA90       aStartToDoRawCa_0
 0003:0E64FAA8       aRawCaptureFail
 0003:0E64FABC       aEndOfRawCaptur_0
 0003:0E64FAD0       aDarkCornerSize
 0003:0E64FAF0       aCVig00Bin
 0003:0E64FB04       aAmbafsFopenSVi
 0003:0E64FB2C       aCVigRaw
 0003:0E64FB48       aAmputcalibvigA
 0003:0E64FB78       aAmputcalibvigR
 0003:0E64FBA4       aDoingVignetteC
 0003:0E64FBD0       aVignetteCalibr_8
 0003:0E64FBFC       aRawDataAddr0x8_0
 0003:0E64FC24       aAmputcalibvigA_0
 0003:0E64FCA0       aAmputcalibvigA_1
 0003:0E64FCD0       aAmputcalibvigV
 0003:0E64FD00       aVignetteCalibr_9
 0003:0E64FD30       aVersionX_0
 0003:0E64FD40       aAddressOfRawBu_0
 0003:0E64FD5C       aBeforeAmpcalib
 0003:0E64FD7C       aAmputcalibvigA_2
 0003:0E64FDA4       aAfterAmpcalibV
 0003:0E64FDC4       aVignetteCalibr_10
 0003:0E64FDFC       aTest_1
 0003:0E64FE04       aInit
 0003:0E64FE0C       aSelect
 0003:0E64FE14       aDebug_1
 0003:0E64FE1C       aTCalVncInitReI
 0003:0E64FE40       aTCalVncSelectE
 0003:0E64FEA8       aTCalVncDebugEn
 0003:0E64FEE4       aGetWarpCompens_2
 0003:0E64FF04       aAmputcalibwarp
 0003:0E64FF68       aHorizonalGridN
 0003:0E64FF88       aVerticalGridNu
 0003:0E64FFA8       aBlendratioShou
 0003:0E64FFE0       aStrengthShould
 0003:0E650014       aToDisableWarpC
 0003:0E65003C       aVersion0xX_1
 0003:0E65004C       aHorizontalGrid
 0003:0E650068       aVerticalGridNu_0
 0003:0E650084       aTileWidthD
 0003:0E650094       aTileHeightD
 0003:0E6500A4       aImageWidthD
 0003:0E6500B4       aImageHeightD
 0003:0E6500C8       aStartxD_9
 0003:0E6500D4       aStartyD_10
 0003:0E6500E0       aHsubsampleFact_3
 0003:0E6500FC       aHsubsampleFact_4
 0003:0E650118       aVsubsampleFact_3
 0003:0E650134       aVsubsampleFact_4
 0003:0E650150       aWarpTableAddre
 0003:0E65016C       aAmputcalibwarp_0
 0003:0E650190       aAppwarpcontrol
 0003:0E6501AC       aAmputcalibwarp_1
 0003:0E6501D0       aAmputcalibwarp_2
 0003:0E6501F0       aCWarpBySpecH
 0003:0E650204       aCCalib6Bin
 0003:0E650224       aCWarprawencode
 0003:0E65024C       aStartXDStartYD
 0003:0E650268       aBufAllocateFai
 0003:0E650284       aAmputcalibwarp_3
 0003:0E6502B0       aToolinfoRealAl
 0003:0E6502D8       aToolinfoExpect
 0003:0E650300       aArgcD
 0003:0E65030C       aTCalWarpWarpSp
 0003:0E6503AC       aRawEncodeTextF
 0003:0E6504EC       aAmbafsFopenSFa
 0003:0E650504       aAmbafsFopenSFa_0
 0003:0E65051C       aAmbafsFcloseSF
 0003:0E650534       aFpscriptAmbafs
 0003:0E650554       aTilewidth
 0003:0E650560       aTileheight
 0003:0E65056C       aOffSensorCalib
 0003:0E650584       aErrorCenterxOu
 0003:0E6505D4       aErrorCenteryOu
 0003:0E650624       aOffSensorRawIm
 0003:0E65063C       aSensor_0
 0003:0E650644       aCellSizeFHorgr
 0003:0E650674       aReal
 0003:0E65067C       aExpect
 0003:0E650684       aCompensateRati
 0003:0E650698       aCompensateRati_0
 0003:0E6506C0       aCompensateRati_1
 0003:0E6506D8       aCompensateRati_2
 0003:0E6506F4       aCompensateRati_3
 0003:0E650720       aCompensateRati_4
 0003:0E650738       aCompensateRati_5
 0003:0E650754       aCompensateRati_6
 0003:0E650780       aRRatio
 0003:0E650788       aRRatioMustHave
 0003:0E6507A4       aZoomStep
 0003:0E6507B0       aFpscriptAmbafs_0
 0003:0E6507D0       aOffSensorParam
 0003:0E650800       aRealWarpSpecPa
 0003:0E650834       aExpectWarpSpec
 0003:0E650868       aCompensaterati
 0003:0E65089C       aRRatioParamete
 0003:0E6508C8       aRealSpecIndexN
 0003:0E650900       aTheInputRealEx
 0003:0E65093C       aToolinfoExpect_0
 0003:0E65095C       aToolinfoMwwpAl
 0003:0E650984       aApplibcalibwar
 0003:0E6509A4       aAddtablegridnu
 0003:0E6509D0       aHorgridnumDVer
 0003:0E6509F0       aToolinfoWpAllo
 0003:0E650A14       aToolinfoOldwpA
 0003:0E650A3C       aApplibcalibwar_0
 0003:0E650A68       aApplibcalibwar_1
 0003:0E650A8C       aAmbafsFopenFai_0
 0003:0E650AA0       aDefineHorgridn
 0003:0E650AB4       a5d_0
 0003:0E650ABC       aDefineVergridn
 0003:0E650AD0       aInt32CalibWarp
 0003:0E650AF4       a0xX
 0003:0E650AFC       a5d_1
 0003:0E650B04       aInt16CalibWarp
 0003:0E650B4C       aInt16CalibWarp_0
 0003:0E650B90       aAmbafsFcloseFa
 0003:0E650BA4       aAmbafsFwriteFa
 0003:0E650BB8       aHsubsamplefact
 0003:0E650BD0       aHsubsamplefact_0
 0003:0E650BE8       aVsubsamplefact
 0003:0E650C00       aWarpBySpecSucc
 0003:0E650C18       aAmputcalibwarp_4
 0003:0E650C40       aC_0
 0003:0E650C54       aC_1
 0003:0E650C74       aC_2
 0003:0E650C94       aC_3
 0003:0E650CA8       aC_4
 0003:0E650CC8       aC_5
 0003:0E650CE8       aRawencode
 0003:0E650D08       aBin
 0003:0E650D10       aH
 0003:0E650D1C       aAllocateFailIn
 0003:0E650D34       aTCalWarpTopVie
 0003:0E650EB8       aTargetPoint0
 0003:0E650EC8       aTargetPoint1
 0003:0E650ED8       aTargetPoint2
 0003:0E650EE8       aTargetPoint3
 0003:0E650EF8       aRawPoint0
 0003:0E650F04       aRawPoint1
 0003:0E650F10       aRawPoint2
 0003:0E650F1C       aRawPoint3
 0003:0E650F28       aDebug_3
 0003:0E650F30       aCenterXDCenter
 0003:0E650F4C       aErrorWrongRawT
 0003:0E650F6C       aAddtablegridnu_0
 0003:0E650F98       aHorgridnumDVer_0
 0003:0E650FB8       aSizeofToolinfo
 0003:0E651010       aAmputcalibwarp_5
 0003:0E651030       aCCalib6Bin_0
 0003:0E651050       aCCalib13Bin
 0003:0E651070       aAmputcalibwarp_6
 0003:0E651094       aWarp
 0003:0E65109C       aUnknowFormat
 0003:0E6510AC       aCanTOpenTheFil
 0003:0E6510C4       aRepeat
 0003:0E6510CC       aOffsetDNvdsize
 0003:0E6510E8       aMerge
 0003:0E6510F0       aSDBin
 0003:0E6510FC       aElse
 0003:0E651104       aTCalWarpMergeB
 0003:0E651208       aTest_3
 0003:0E651210       aReset_0
 0003:0E651218       aInit_1
 0003:0E651220       aWarpSpec
 0003:0E65122C       aTopView
 0003:0E651238       aSelect_0
 0003:0E651240       aMergeBin
 0003:0E65124C       aTCalWarpInitRe
 0003:0E65126C       aTCalWarpWarpSp_0
 0003:0E6512A8       aTCalWarpSelect
 0003:0E6512F8       aTCalWarpDebugE
 0003:0E651374       aChDWbCalResetL
 0003:0E65138C       aChDWbCalResetH
 0003:0E6513A4       aWbCalParamType
 0003:0E6513BC       aWbCalParamChan
 0003:0E6513DC       aWbCalParamFlic
 0003:0E6513FC       aWbCalParamRefR
 0003:0E651418       aWbCalParamRefB
 0003:0E651434       aWbCalParamThre
 0003:0E651454       aWbCalParamThre_0
 0003:0E651474       aWbCalParamVign
 0003:0E65149C       aWbCalParameter
 0003:0E6514B4       aWbTypeChidFlic
 0003:0E651500       aPleaseDoVignet
 0003:0E651538       aWbCalibrationN
 0003:0E65157C       aWrongWbCalMode
 0003:0E651590       aOkWbCalibratio
 0003:0E6515BC       aRDBD
 0003:0E6515CC       aCalNoWbHctCali
 0003:0E6515F8       aOkWbCalibratio_0
 0003:0E651610       aCalNoWbLctCali
 0003:0E65163C       aOkWbCalibratio_1
 0003:0E651654       aNgWbCalibratio
 0003:0E651670       aNgWbCalibratio_0
 0003:0E65169C       aNgWbCalibratio_1
 0003:0E6516C8       aCalSiteSVersio_0
 0003:0E651700       aTest_2
 0003:0E651708       aInit_0
 0003:0E651710       aInfoNand
 0003:0E65171C       aChDWbcompinfoS
 0003:0E651738       aChDWbCalLctDon
 0003:0E651750       aChDWbCalLctNon
 0003:0E651768       aChDWbCalHctDon
 0003:0E651780       aChDWbCalHctNon
 0003:0E651798       aChDWbCalLctSrc
 0003:0E6517B8       aChDWbCalLctSrc_0
 0003:0E6517D8       aChDWbCalLctSrc_1
 0003:0E6517F8       aChDWbCalHctSrc
 0003:0E651818       aChDWbCalHctSrc_0
 0003:0E651838       aChDWbCalHctSrc_1
 0003:0E651858       aChDWbCalLctTgt
 0003:0E651878       aChDWbCalLctTgt_0
 0003:0E651898       aChDWbCalLctTgt_1
 0003:0E6518B8       aChDWbCalHctTgt
 0003:0E6518D8       aChDWbCalHctTgt_0
 0003:0E6518F8       aChDWbCalHctTgt_1
 0003:0E651918       aTCalWbInitReIn
 0003:0E651988       aVigCtlStartAmb
 0003:0E6519D8       aVigCtlCurrluma
 0003:0E651A1C       aVigCtlLumatabD
 0003:0E651A78       aVigCtlEndAmbau
 0003:0E651AC8       aVigCtlStartAmb_0
 0003:0E651B08       aVigCtlPrelumaD
 0003:0E651B2C       aVigCtlTheStren
 0003:0E651B68       aVigCtlTheNewCu
 0003:0E651B88       aVigCtlSetTheSt
 0003:0E651BC0       aVigCtlEndAmbau_0
 0003:0E651BF0       aVigCtlStartAmb_1
 0003:0E651C34       aVigCtlCurrluma_0
 0003:0E651C50       aVigCtlTheStren_0
 0003:0E651C90       aVigCtlEndAmbau_1
 0003:0E651CC4       aVigCtlStartAmb_2
 0003:0E651D00       aVigCtlVignette
 0003:0E651D24       aVigCtlEndAmbau_2
 0003:0E651D50       aAdjCalibParam
 0003:0E651D60       aVigCtlStartAmb_3
 0003:0E651D8C       aVigCtlNoVignet
 0003:0E651DA8       aVigCtlGetvigca
 0003:0E651DCC       aVigCtlVersionn
 0003:0E651E0C       aVigCtlErrorCan
 0003:0E651E74       aVigCtlSetTheBl
 0003:0E651E9C       aVigCtlSetTheBl_0
 0003:0E651EC4       aVigCtlBlendCon
 0003:0E651F04       aVigCtlBlendCon_0
 0003:0E651F30       aVigCtlStrength
 0003:0E651F78       aVigCtlStrength_0
 0003:0E651FA4       aVigCtlEndAmbau_3
 0003:0E651FCC       aAmbavfsOpen
 0003:0E651FDC       aAmbafsFopenErr
 0003:0E652000       aSCardNotInited
 0003:0E652014       aAmbavfsClose
 0003:0E652024       aAmbavfsWrite
 0003:0E652034       aAmbavfsSeek
 0003:0E652044       aAmbavfsStat
 0003:0E652054       aAmbavfsRead
 0003:0E652064       aAmbavfsRename
 0003:0E652074       aAmbavfsRemove
 0003:0E652084       aAmbavfsTell
 0003:0E652094       aAmbavfsChmod
 0003:0E6520A4       aAmbavfsChdmod
 0003:0E6520B4       aAmbavfsFirstdi
 0003:0E6520C8       aAmbavfsMkdir
 0003:0E6520D8       aAmbavfsRmdir
 0003:0E6520E8       aAmbavfsFsync
 0003:0E6520F8       aAmbavfsFappend
 0003:0E652108       aAmbavfsFeof
 0003:0E652118       aVideoTunerErro
 0003:0E652138       aVideoTunerS
 0003:0E65214C       aVideoTunerWarn
 0003:0E652170       aVideoTunerRaws
 0003:0E65218C       aVideotunerRaws
 0003:0E6521A4       aRawSequanceFil
 0003:0E6521D0       aInsertNullRawC
 0003:0E6521EC       aCreateRawSeque
 0003:0E652214       aAllocateRawInf
 0003:0E652234       aCreateRawSeqQu
 0003:0E652250       aCreateMutexFai
 0003:0E652264       aCreateEventFla
 0003:0E65227C       aVideoTunerRawS
 0003:0E652298       aCreateTaskFail
 0003:0E6522AC       aCreateRawSeque_0
 0003:0E6522D0       aRawSequenceMod
 0003:0E6522F8       aInitailizedD
 0003:0E652320       aTaskstack0x08x
 0003:0E65234C       aTaskpriorityD
 0003:0E652374       aTask0x08x
 0003:0E6523A0       aTaskentry0x08x
 0003:0E6523CC       aEventflg0x08x
 0003:0E6523F8       aMutex0x08x
 0003:0E652424       aRawinfoqueid0x
 0003:0E652450       aRawinfoquememc
 0003:0E65247C       aNumofrawinfoqu
 0003:0E6524A4       aPrawinfoque0x0
 0003:0E6524D0       aWriteidxD
 0003:0E6524F8       aRawinfomemctrl
 0003:0E652524       aNumofrawbufsD
 0003:0E65254C       aPrawinfo0x08x
 0003:0E652578       aNo02dRawinfo0x
 0003:0E652598       aCompressedD
 0003:0E6525B0       aPitchD
 0003:0E6525C8       aWindowWidthD
 0003:0E6525E0       aWindowHeightD
 0003:0E6525F8       aPbaseaddr0x08x
 0003:0E652614       aVideotunerRaws_0
 0003:0E65262C       aPleaseCreateRa
 0003:0E652654       aTerminateTaskF
 0003:0E652668       aDeleteTaskFail
 0003:0E65267C       aVideotunerRaws_1
 0003:0E652694       aVideotunerRaws_2
 0003:0E6526AC       aVideotunerRaws_3
 0003:0E6526C4       aVideotunerRaws_4
 0003:0E6526E0       aReadRawDataSiz
 0003:0E652714       aWriteRawDataTo
 0003:0E652730       aAmbakalMsgqueu_3
 0003:0E652754       aPushIndex02dRa
 0003:0E652780       aUpdateRawIndex
 0003:0E6527A0       aVideotunerRaws_5
 0003:0E6527BC       aInsertNullRawI
 0003:0E6527D4       aReceiveRawData
 0003:0E6527F8       aAmbakalMsgqueu_4
 0003:0E652820       aPullIndex02dRa
 0003:0E65284C       aVideotunerRawd
 0003:0E65286C       aAmbakalMsgqueu_7
 0003:0E652894       aVideotunerRawc_11
 0003:0E6528A8       aOnlySupportVid_0
 0003:0E6528DC       aCurrentStateSC_0
 0003:0E652908       aCreateRawCaptu
 0003:0E652928       aVideotunerRawc
 0003:0E652940       aVideoTunerIsSt
 0003:0E652964       aVideoTunerRawC
 0003:0E652984       aVideoTunerSetD
 0003:0E6529BC       aUpdateTheRawCa
 0003:0E6529E0       aCalculateSenso
 0003:0E652A04       aCalculateDspMe
 0003:0E652A20       aPrintTheInfora
 0003:0E652A4C       aSwitchDspMemor
 0003:0E652A64       aStartRawCaptur
 0003:0E652A84       aVideotunerRawc_0
 0003:0E652AA4       aConfigureRawCa
 0003:0E652AD0       aConfigureRawCa_0
 0003:0E652AF0       aCVideotunerVid
 0003:0E652B0C       aCVideotuner
 0003:0E652B1C       aConfigureRawCa_1
 0003:0E652B38       aVideotunerRawc_1
 0003:0E652B58       aVideotunerRawc_2
 0003:0E652B74       aConfigureRawCa_2
 0003:0E652B94       aRawcapinfoComp
 0003:0E652BB4       aRawcapinfoPitc
 0003:0E652BD4       aRawcapinfoWind
 0003:0E652BF4       aRawcapinfoWind_0
 0003:0E652C14       aRawseqfilepath
 0003:0E652C34       aConfigureSenso
 0003:0E652C58       aSensormodeD
 0003:0E652C70       aCalculateRawBu
 0003:0E652C94       aNumberOfRawFra
 0003:0E652CB0       aRawBufferAddr0
 0003:0E652CD0       aDspWorkMemoryA
 0003:0E652CF0       aDspWorkMemoryS
 0003:0E652D0C       aVideotunerRawc_3
 0003:0E652D2C       aSelectSensorMo
 0003:0E652D54       aConfigureSenso_0
 0003:0E652D74       aNotSupportTheR
 0003:0E652D9C       aConfigureSenso_1
 0003:0E652DB8       aVideotunerRawc_4
 0003:0E652DDC       aCalculateDspMe_0
 0003:0E652E04       aCalculateMinDs
 0003:0E652E30       aDspWorkingMemo
 0003:0E652E54       aNotEnoughMemor
 0003:0E652E78       aCalculateMinDs_0
 0003:0E652EA0       aVideotunerRawc_5
 0003:0E652EC4       aSwitchDspMemor_0
 0003:0E652EEC       aSwitchDspWorki
 0003:0E652F10       aStopLiveviewFa
 0003:0E652F24       aSetupDspWorkAr
 0003:0E652F40       aBackToLiveview_3
 0003:0E652F58       aSwitchDspWorki_0
 0003:0E652F78       aVideotunerRawc_6
 0003:0E652F94       aStartRawCaptur_0
 0003:0E652FAC       aProcessRawCapt
 0003:0E652FCC       aSaveRawDataFai
 0003:0E652FE0       aVideotunerRawc_12
 0003:0E652FFC       aCreateVideoTun_2
 0003:0E653034       aCreateVideoTun_3
 0003:0E653064       aCreateRawInfoQ
 0003:0E653080       aVideoTunerRawC_2
 0003:0E65309C       aCreateVideoTun_4
 0003:0E6530C8       aCreateVideoTun_5
 0003:0E6530F0       aVideotunerRawc_7
 0003:0E65310C       aCurrentStateDD
 0003:0E653144       aTerminateVideo
 0003:0E653170       aDeleteVideoTun
 0003:0E65319C       aDeleteVideoTun_0
 0003:0E6531C4       aVideotunerRawc_8
 0003:0E6531E4       aPrepareRawCapt
 0003:0E653214       aStopCaptureMod
 0003:0E653230       aConfigureRawDa
 0003:0E653264       aRegisterRawDat
 0003:0E653298       aPrepareStillCa
 0003:0E6532BC       aVideoTunerRawC_0
 0003:0E6532E0       aVideotunerRawc_9
 0003:0E6532FC       aSaveRawFileInW
 0003:0E653320       aInsertNullRawB
 0003:0E653344       aCreateRawSequa
 0003:0E653364       aWriteDBytesIsN
 0003:0E653398       aSaveRawHeader
 0003:0E6533A8       aRawSequanceHea
 0003:0E6533CC       aNumofrawframeD
 0003:0E6533E8       aContentsCompre
 0003:0E653404       aFramepitchD
 0003:0E653420       aFramewidthD
 0003:0E65343C       aFrameheightD
 0003:0E653458       aFramesizeD
 0003:0E653474       aTheSystemShoul
 0003:0E6534B8       aSaveNo02dRawFr
 0003:0E6534D0       aNo02dRawInfo
 0003:0E6534F4       aCompressrawD
 0003:0E653508       aPitchD_0
 0003:0E65351C       aWidthD_3
 0003:0E653530       aHeightD_3
 0003:0E653544       aPbaseaddr0x08x_0
 0003:0E65355C       aSaveRawSequenc
 0003:0E653580       aVideotunerRawc_10
 0003:0E653598       aUnRegisterRawD
 0003:0E6535C8       aSetupOriginalD
 0003:0E6535E8       aVideoTunerRawC_1
 0003:0E653608       aReStartCapture
 0003:0E653628       aVideotunerVide
 0003:0E65363C       aOnlySupportVid
 0003:0E653670       aCurrentStateSC
 0003:0E6536A0       aCreateVideoEnc
 0003:0E6536C0       aVideotunerVide_0
 0003:0E6536D8       aVideoTunerIsSt_0
 0003:0E6536F8       aVideoTunerSetV
 0003:0E65372C       aUpdateVideoEnc
 0003:0E653750       aPrintVideoEnco
 0003:0E653774       aSwitchModeFail
 0003:0E653788       aCreateRawSeque_1
 0003:0E6537A8       aVideotunerVide_1
 0003:0E6537C8       aConfigureVideo
 0003:0E653800       aConfigureVideo_0
 0003:0E653824       aCVideotunerVid_0
 0003:0E653840       aCVideotunerVid_1
 0003:0E653860       aConfigureVideo_1
 0003:0E653880       aVideotunerVide_2
 0003:0E6538A0       aGetRawSequence
 0003:0E6538C8       aRawSequenceFil
 0003:0E6538EC       aOpenRawSequenc
 0003:0E65390C       aReadRawHeaderS
 0003:0E653938       aGetRawSequence_0
 0003:0E653960       aVideotunerVide_3
 0003:0E65397C       aRawSequenceFil_0
 0003:0E6539A4       aNumberoffraemD
 0003:0E6539B8       aCompressrawD_0
 0003:0E6539CC       aPitchD_1
 0003:0E6539E0       aWidthD_4
 0003:0E6539F4       aHeightD_4
 0003:0E653A08       aFramesizeD_0
 0003:0E653A1C       aVideoEncodeCon
 0003:0E653A44       aFrameratedivis
 0003:0E653A64       aDatafmtD
 0003:0E653A84       aStreamidViewzo
 0003:0E653AA4       aStreamidStream
 0003:0E653AC4       aWindowWidthD_0
 0003:0E653AE4       aWindowHeightD_0
 0003:0E653B04       aIsintervalcapD
 0003:0E653B24       aRotateconfigD
 0003:0E653B44       aFramerateInter
 0003:0E653B64       aFramerateNumun
 0003:0E653B84       aFramerateTimes
 0003:0E653BA4       aH264Setting
 0003:0E653BC0       aPbitsbufaddr0x
 0003:0E653BE4       aBitsbufsizeD
 0003:0E653C04       aMD_1
 0003:0E653C24       aND_1
 0003:0E653C44       aIscabacD
 0003:0E653C64       aQualitylevelD
 0003:0E653C84       aBitrateD_0
 0003:0E653CA4       aBitratesetting
 0003:0E653CC4       aVbrpercentD
 0003:0E653CE4       aVbrminratioD
 0003:0E653D04       aVbrmaxratioD
 0003:0E653D24       aIdrintervalD_0
 0003:0E653D44       aVideoTunerEnco
 0003:0E653D6C       aEnablereadrawd
 0003:0E653D8C       aEnablesaveyuvd
 0003:0E653DAC       aEnablesavevidd
 0003:0E653DCC       aRawseqfilepath_0
 0003:0E653DEC       aYuvseqfilepath
 0003:0E653E0C       aVidbitstreamfi
 0003:0E653E2C       aFeedRawPreProc
 0003:0E653E50       aYuvDataHdlr0x0
 0003:0E653E74       aVideoDataHdlr0
 0003:0E653E98       aVideotunerVide_4
 0003:0E653EB4       aVideoEncodeCon_0
 0003:0E653EE4       aSwitchModeDone
 0003:0E653EF8       aVideotunerVide_5
 0003:0E653F10       aPrepareVideoEn
 0003:0E653F40       aConfigureYuvDa
 0003:0E653F74       aRegisterYuvDat
 0003:0E653FA0       aConfigureVideo_2
 0003:0E653FD8       aRegisterVideoD
 0003:0E654008       aSetupVideoEnco
 0003:0E654030       aSetupVideoStre
 0003:0E654058       aStartVideoEnco
 0003:0E654074       aStartVideoTune
 0003:0E654094       aStartRawSequen
 0003:0E6540B4       aStartRawSequen_0
 0003:0E6540D4       aVideotunerVide_6
 0003:0E6540F0       aInsertNullRawD
 0003:0E654108       aProcessFeedRaw
 0003:0E654130       aProcessFeedRaw_0
 0003:0E654154       aFeedRawDataFai
 0003:0E654168       aFeedNoDRawData
 0003:0E654180       aCompressedD_0
 0003:0E654194       aPitchD_2
 0003:0E6541A8       aWidthD_5
 0003:0E6541BC       aHeightD_5
 0003:0E6541D0       aPbaseaddr0x08x_1
 0003:0E6541E8       aVideotunerVide_7
 0003:0E654200       aVideoEncodeDon
 0003:0E654228       aUnRegisterYuvD
 0003:0E654258       aUnRegisterVide
 0003:0E654288       aDeleteRawSeque
 0003:0E6542AC       aVideoTunerVide
 0003:0E6542CC       aVideotunerVide_8
 0003:0E6542F0       aWriteRawDataTo_0
 0003:0E654310       aWriteRawDataFa
 0003:0E654324       aGetRawDataFail
 0003:0E654338       aFeedRawDataFai_0
 0003:0E65434C       aVideotunerYuvd
 0003:0E65436C       aAmbakalMsgqueu_5
 0003:0E654394       aVideotunerVidd
 0003:0E6543B4       aVideotunerVide_9
 0003:0E6543D0       aConfigureVideo_3
 0003:0E6543EC       aStartVideoEnco_0
 0003:0E654404       aProcessVideoEn
 0003:0E654424       aNoDYuvDataRead
 0003:0E65443C       aYuvFormatD
 0003:0E654454       aYuvPitchD
 0003:0E65446C       aYuvWidthD
 0003:0E654484       aYuvHeightD
 0003:0E65449C       aYuvPbaseaddry0
 0003:0E6544B4       aYuvPbaseaddruv
 0003:0E6544CC       aProcessYuvData
 0003:0E6544F8       aProcessYuvData_0
 0003:0E654520       aNoDVideoDataRe
 0003:0E65453C       aChannelidD_1
 0003:0E65454C       aStreamidD
 0003:0E65455C       aFrametypeD
 0003:0E65456C       aFrmnoD
 0003:0E65457C       aPicsize0xX
 0003:0E654590       aStartaddr0xX
 0003:0E6545A4       aProcessVideoDa
 0003:0E6545D4       aProcessVideoDa_0
 0003:0E654600       aVideotunerVide_10
 0003:0E65461C       aCreateVideoTun
 0003:0E654650       aCreateEventFla_0
 0003:0E654668       aCreateVideoMes
 0003:0E654688       aVideoTunerEnco_0
 0003:0E6546A4       aCreateVideoTun_0
 0003:0E6546C8       aCreateVideoTun_1
 0003:0E6546E8       aVideotunerVide_11
 0003:0E654704       aCurrentStateDD_0
 0003:0E65473C       aTerminateVideo_0
 0003:0E654764       aDeleteVideoTun_1
 0003:0E654788       aDeleteVideoTun_2
 0003:0E6547A8       aVideotunerVide_12
 0003:0E6547C8       aVideoTunerEnco_1
 0003:0E654800       aInsertNullYuvD
 0003:0E654824       aYuv
 0003:0E65482C       aDDxDY
 0003:0E654838       aOpenYFileFailS
 0003:0E65484C       aWriteSizeDIsNo
 0003:0E654878       aSaveYDataSucce
 0003:0E654890       aOpenUvFileFail
 0003:0E6548A8       aSaveUvDataSucc
 0003:0E6548C0       aVideotunerVide_13
 0003:0E6548E4       aInsertNullVide
 0003:0E654908       aOpenVideoBitSt
 0003:0E65492C       aSaveNo02dVideo
 0003:0E65494C       aSaveVideoBitSt
 0003:0E654970       aAmbavideotuner
 0003:0E654988       aVideoTunerTask
 0003:0E6549AC       aAmbavideotuner_0
 0003:0E6549D0       aNeedToCreateVi
 0003:0E6549F4       aTheVideoTunerS
 0003:0E654A2C       aNotSupportTheE
 0003:0E654A4C       aInsertNullEven
 0003:0E654A68       aAmbavideotuner_1
 0003:0E654A90       aInsertEventHan
 0003:0E654B00       aRawOperationSe
 0003:0E654B38       aCompress100Unc
 0003:0E654B78       aWinWidthHeight
 0003:0E654BB4       aEncOperationSe
 0003:0E654BEC       aWinWidthHeight_0
 0003:0E654C2C       aBitrateValueSe
 0003:0E654C5C       aBitrateSetting
 0003:0E654C9C       aFrateTimeScale
 0003:0E654CEC       aFrateDivisorVa
 0003:0E654D28       aIdrIntervalVal
 0003:0E654D64       aMValueSetTheEn
 0003:0E654D90       aNValueSetTheEn
 0003:0E654DBC       aReadRawOnOffEn
 0003:0E654DF8       aSaveYuvOnOffEn
 0003:0E654E34       aSaveVidOnOffEn
 0003:0E654E70       aRawPathPathSet
 0003:0E654EA4       aYuvPathPathSet
 0003:0E654ECC       aVidPathPathSet
 0003:0E654EF8       aAmbavideotuner_2
 0003:0E654F10       aCompress
 0003:0E654F1C       aSetInputRawDat
 0003:0E654F38       aUncompress
 0003:0E654F44       aCompress_0
 0003:0E654F50       aSetInputRawWin
 0003:0E654F70       aStart_1
 0003:0E654F78       aStartVideoEnco_1
 0003:0E654F94       aSetEncodeWindo
 0003:0E654FB0       aBitrate_0
 0003:0E654FB8       aSetEncodeBitRa
 0003:0E654FD4       aBitrateSetting_0
 0003:0E654FE4       aFrate_0
 0003:0E654FEC       aSetFrameRateAs
 0003:0E655034       aFrateDivisor
 0003:0E655044       aSetEncodeFrame
 0003:0E655068       aIdrInterval
 0003:0E655078       aSetEncodeIdrIn
 0003:0E655098       aSetEncodeMAsD
 0003:0E6550AC       aSetEncodeNAsD
 0003:0E6550C0       aReadRaw
 0003:0E6550CC       aSReadRawDataPr
 0003:0E6550E8       aEnable_2
 0003:0E6550F0       aDisable_2
 0003:0E6550F8       aSaveYuv
 0003:0E655104       aSSaveYuvDataPr
 0003:0E655120       aSaveVid
 0003:0E65512C       aSSaveVideoData
 0003:0E655148       aRawPath
 0003:0E655154       aSetRawSequence
 0003:0E655174       aYuvPath
 0003:0E655180       aSetYuvFilePath
 0003:0E655198       aVidPath
 0003:0E6551A4       aSetVideoFilePa
 0003:0E6551BC       aAmbavideotuner_3
 0003:0E6551E0       aSetupVideoEnco_0
 0003:0E655208       aSetupVideoStre_0
 0003:0E65522C       aStartVideoEnco_2
 0003:0E655248       aAmbavideotuner_4
 0003:0E655268       aStopVideoEncod
 0003:0E655284       aRecordTime
 0003:0E655290       aRecordDelay
 0003:0E6552A0       aSaveLog
 0003:0E6552AC       aFormatSd
 0003:0E6552B8       aFormatRm
 0003:0E6552C4       aAgVideoSize
 0003:0E6552D4       aCkSdClk
 0003:0E6552E0       aCkDdr
 0003:0E6552E8       aCkTemperature
 0003:0E6552F8       aCkA9Reset
 0003:0E655304       aCkA9Die
 0003:0E655310       aCk368
 0003:0E655318       aCkM4
 0003:0E655320       aCkVideo
 0003:0E65532C       aCkPb
 0003:0E655334       aCkWifiLane
 0003:0E655344       aSaveDdr
 0003:0E655350       aRunGimbal
 0003:0E65535C       aResultSound
 0003:0E65536C       aResultRun
 0003:0E655378       aResultLed
 0003:0E655384       aCChecksd
 0003:0E655390       aSigmaOfSampleF
 0003:0E6553B8       aDm368Error1
 0003:0E6553DC       aHdmiD1765DRetD
 0003:0E655410       aDjicheckrtctes
 0003:0E655420       aSSetRtcTimeFai
 0003:0E655438       aWrite04d02d02d
 0003:0E655460       aSReadBackRtcTi
 0003:0E655480       aSReadBackCheck
 0003:0E65549C       aRead04d02d02d0
 0003:0E6554C4       aError_0
 0003:0E6554CC       aVideo_5
 0003:0E6554D4       aLvds
 0003:0E6554DC       aUartDm365
 0003:0E6554E8       aUartM4
 0003:0E6554F0       aLcdVout
 0003:0E65552C       aCheckResult
 0003:0E65553C       aCheckEnd
 0003:0E655548       aCreateDjicheck
 0003:0E655568       aDjicheckingtas
 0003:0E655578       aCreateChecking
 0003:0E65559C       aCreateDjicheck_0
 0003:0E6555B8       aDjiagingsetfun
 0003:0E6555D4       aDjiagingsetfun_0
 0003:0E6555F0       aDjiaginggetfun
 0003:0E655604       aCDjiagingfun30
 0003:0E655618       aSScriptErrorLi
 0003:0E655634       aCurreadDS
 0003:0E655644       aSScriptLineErr
 0003:0E655668       aDjiagingrecove
 0003:0E655694       aDjiagingvideog
 0003:0E6556AC       aSReadFromRomFa
 0003:0E6556CC       aCDjiboard
 0003:0E6556D8       aDjiagingcheckb
 0003:0E655704       aDjiagingcreate
 0003:0E655730       aFw
 0003:0E655738       aBoardNumIsDD
 0003:0E655758       aSendGimbalParR
 0003:0E655778       aSendRunGimbalR
 0003:0E6557B0       aSendRunGimbalR_0
 0003:0E6557E4       aSendRunGimbalR_1
 0003:0E655820       aSSendDjiIrqstU
 0003:0E655854       aDjiagingwriter
 0003:0E65587C       aDjiagingwriter_0
 0003:0E6558B0       aDjiagingwriter_1
 0003:0E6558E4       aNowTemperature
 0003:0E65591C       aDjiagingwriter_2
 0003:0E655950       aDjiagingwriter_3
 0003:0E655984       aTimeDDDDDDTemp
 0003:0E6559B8       aDjiagingwriter_4
 0003:0E6559EC       aDjiagingwriter_5
 0003:0E655A14       aA9VideoError
 0003:0E655A28       aA9VideoBufFull
 0003:0E655A3C       aA9VideoBufOrQu
 0003:0E655A58       aA9VideoQueFull
 0003:0E655A6C       aA9VideoAutoSto
 0003:0E655A8C       aA9Die
 0003:0E655A98       aA9ResetS
 0003:0E655AA8       aA9Reset
 0003:0E655AB4       aDm368Die
 0003:0E655AC0       aDm36868013Unli
 0003:0E655AD8       aDm368Reset
 0003:0E655AE8       aM4Die
 0003:0E655AF4       aTemperatureToo
 0003:0E655B0C       aPbErr
 0003:0E655B18       aWifiLaneErr
 0003:0E655B28       aUnknowReason
 0003:0E655B38       aDjiagingwriter_6
 0003:0E655B6C       aCDjicheckvideo
 0003:0E655B8C       aDjiagingDjiagi
 0003:0E655BC8       aSDS
 0003:0E655BD0       aCDjiagingresul
 0003:0E655BE4       aTxt_0
 0003:0E655BEC       aAmbafsFopenFai
 0003:0E655C00       aDjiagingloadre
 0003:0E655C30       aDjiagingDjiagi_0
 0003:0E655CC4       aDjiagingDjiagi_1
 0003:0E655D0C       aDjiagingrecove_0
 0003:0E655D3C       aDjiagingDjiagi_2
 0003:0E655D94       aCDji9798698630
 0003:0E655DA8       aCDji97986986r3
 0003:0E655DC0       aDjiagingcreate_0
 0003:0E655DFC       a0xX0xX
 0003:0E655E0C       aCanNotGetTheAg
 0003:0E655E28       aDjiagingtimeIs
 0003:0E655E50       aDjimsgstdm368r
 0003:0E655E74       aDjiagingifdm36
 0003:0E655E94       aDjiagingifdm36_0
 0003:0E655EB8       aDjiagingifdm36_1
 0003:0E655EDC       aDjiagingifdm36_2
 0003:0E655F20       aDjiagingifdm36_3
 0003:0E655F58       aDjiagingifdm36_4
 0003:0E655F94       aDjiagingifdm36_5
 0003:0E655FB4       aDjiagingifdm36_6
 0003:0E655FE0       aDjiagingifm4ok
 0003:0E655FF8       aCVideoAutoStop
 0003:0E656018       aDjiagingrecord
 0003:0E656044       aDjiagingrecord_0
 0003:0E656070       aBufFullAtDDDDD
 0003:0E656098       aQueFullAtDDDDD
 0003:0E6560C0       aBufOrQueFullAt
 0003:0E6560F0       aVideoErrorAtDD
 0003:0E65611C       aDjiagingrecord_1
 0003:0E656150       aDjiagingbakvid
 0003:0E65617C       aDjiagingrecove_1
 0003:0E6561AC       aDjiagingvideoo
 0003:0E6561BC       aDjiAgingSdCard
 0003:0E6561D8       aDjiagingGetTem
 0003:0E656214       aPlaybackCurfil
 0003:0E656230       aGetVideoDurati
 0003:0E656250       aDjiagingBeginT
 0003:0E656284       aDjiagingPlayba
 0003:0E6562B4       aTestEndRetD
 0003:0E6562CC       aDjiagingAgingR
 0003:0E6562FC       aDjiagingAgingR_0
 0003:0E656334       aErrorDjiagingT
 0003:0E656368       aErrorDjiagingD
 0003:0E6563AC       aDjiagingAmbafs
 0003:0E6563E8       aA9ResetReason0
 0003:0E65640C       aReasonUnknown
 0003:0E65641C       aReasonSoftRese
 0003:0E656430       aReasonReasonWd
 0003:0E656444       aReasonWdtActiv
 0003:0E656458       aReasonCpuExcep
 0003:0E656470       aReasonDspAsser
 0003:0E656488       aDjiagingAmbafs_0
 0003:0E6564D8       aDjiagingTimeIs
 0003:0E6564FC       aDjiagingAgingC
 0003:0E656528       aFc300xVerA
 0003:0E656538       aFc300xVerB
 0003:0E656548       aDjiagingSetDdr
 0003:0E656578       aAfterFormatSdS
 0003:0E6565B4       aBeforeRecordSd
 0003:0E6565EC       aRecordDsSdActu
 0003:0E656624       aAgingEnd
 0003:0E656664       aTestOkDdrParIs
 0003:0E656688       aTestOkDdrParIs_0
 0003:0E6566A0       aDjiagingtestre
 0003:0E6566C4       aDjiagingtestre_0
 0003:0E6566E4       aDjivideochecki
 0003:0E6566FC       aDjiagingtaskde
 0003:0E656710       aSTerminateTask
 0003:0E65672C       aSDeleteTaskFai
 0003:0E656744       aSAgingTaskDele
 0003:0E656804       a3200
 0003:0E65680C       a6400
 0003:0E656814       a12800
 0003:0E65681C       aAntiFlickerAut
 0003:0E656830       aAntiFlicker60h
 0003:0E656844       aAntiFlicker50h
 0003:0E656858       aAuto
 0003:0E656894       a13
 0003:0E6568A8       a167
 0003:0E6568B0       a625
 0003:0E6568B8       a125
 0003:0E6568FC       a1250
 0003:0E656904       a2000
 0003:0E65690C       a2500
 0003:0E656914       a4000
 0003:0E65691C       a5000
 0003:0E656924       a8000
 0003:0E656960       a13_0
 0003:0E656974       a23
 0003:0E6569CC       aAeMeterSpot
 0003:0E6569DC       aAeMeterManual
 0003:0E6569EC       aWbAutomatic
 0003:0E6569FC       aWbSunny
 0003:0E656A08       aWbCloudy
 0003:0E656A14       aWbIncandescent
 0003:0E656A24       aWbFluorescent
 0003:0E656A34       aWbD4000
 0003:0E656A40       aWbD5000
 0003:0E656A4C       aWbD9000
 0003:0E656A58       aWbD10000
 0003:0E656A64       aWbFlash
 0003:0E656A70       aWbWater
 0003:0E656A7C       aWbOutdoor
 0003:0E656A88       a2100
 0003:0E656A90       a2200
 0003:0E656A98       a2300
 0003:0E656AA0       a2400
 0003:0E656AA8       a2600
 0003:0E656AB0       a2700
 0003:0E656AB8       a2800
 0003:0E656AC0       a2900
 0003:0E656AC8       a3000
 0003:0E656AD0       a3100
 0003:0E656AD8       a3300
 0003:0E656AE0       a3400
 0003:0E656AE8       a3500
 0003:0E656AF0       a3600
 0003:0E656AF8       a3700
 0003:0E656B00       a3800
 0003:0E656B08       a3900
 0003:0E656B10       a4100
 0003:0E656B18       a4200
 0003:0E656B20       a4300
 0003:0E656B28       a4400
 0003:0E656B30       a4500
 0003:0E656B38       a4600
 0003:0E656B40       a4700
 0003:0E656B48       a4800
 0003:0E656B50       a4900
 0003:0E656B58       a5100
 0003:0E656B60       a5200
 0003:0E656B68       a5300
 0003:0E656B70       a5400
 0003:0E656B78       a5500
 0003:0E656B80       a5600
 0003:0E656B88       a5700
 0003:0E656B90       a5800
 0003:0E656B98       a5900
 0003:0E656BA0       a6000
 0003:0E656BA8       a6100
 0003:0E656BB0       a6200
 0003:0E656BB8       a6300
 0003:0E656BC0       a6500
 0003:0E656BC8       a6600
 0003:0E656BD0       a6700
 0003:0E656BD8       a6800
 0003:0E656BE0       a6900
 0003:0E656BE8       a7000
 0003:0E656BF0       a7100
 0003:0E656BF8       a7200
 0003:0E656C00       a7300
 0003:0E656C08       a7400
 0003:0E656C10       a7500
 0003:0E656C18       a7600
 0003:0E656C20       a7700
 0003:0E656C28       a7800
 0003:0E656C30       a7900
 0003:0E656C38       a8100
 0003:0E656C40       a8200
 0003:0E656C48       a8300
 0003:0E656C50       a8400
 0003:0E656C58       a8500
 0003:0E656C60       a8600
 0003:0E656C68       a8700
 0003:0E656C70       a8800
 0003:0E656C78       a8900
 0003:0E656C80       a9000
 0003:0E656C88       a9100
 0003:0E656C90       a9200
 0003:0E656C98       a9300
 0003:0E656CA0       a9400
 0003:0E656CA8       a9500
 0003:0E656CB0       a9600
 0003:0E656CB8       a9700
 0003:0E656CC0       a9800
 0003:0E656CC8       a9900
 0003:0E656CD0       a10000
 0003:0E656CD8       aDjiModeAi
 0003:0E656CE4       aDjiModeP
 0003:0E656CF0       aDjiModeM
 0003:0E656CFC       aDjiModeA
 0003:0E656D08       aDjiModeS
 0003:0E656D14       aDjiModeSceneNi
 0003:0E656D2C       aDjiModeSceneNi_0
 0003:0E656D4C       aDjiModeSceneSp
 0003:0E656D64       aDjiModeSceneLa
 0003:0E656D80       aDjiModeScenePo
 0003:0E656D98       aDjiModeSceneSu
 0003:0E656DB0       aDjiModeSceneSa
 0003:0E656DCC       aDjiModeSceneFl
 0003:0E656DE4       aDjiModeSceneFi
 0003:0E656E00       aDjiModeSceneWa
 0003:0E656E18       aDjiModeSceneBa
 0003:0E656E34       aDjiModeSceneBa_0
 0003:0E656E58       aDjiModeSceneTr
 0003:0E656E70       aDjiModeSceneBl
 0003:0E656E88       aDjiModeSceneMa
 0003:0E656EA0       aDjiModeSceneMa_0
 0003:0E656EBC       aDjiModeSceneAr
 0003:0E656ED4       aDjiModeSceneDL
 0003:0E656EF0       aDjiModeSceneMu
 0003:0E656F08       aDjiModeSceneBe
 0003:0E656F20       aDjiModeSceneCh
 0003:0E656F38       aDjiModeScenePa
 0003:0E656F50       aDjiModeSceneFi_0
 0003:0E656F68       aDjiModeSceneIn
 0003:0E656F80       aDjiModeSceneTh
 0003:0E656FA0       aDjiModeScenePa_0
 0003:0E656FB8       aDjiModeScenePh
 0003:0E656FD4       aDjiModeSceneLo
 0003:0E656FE8       aDjiModeSceneSe
 0003:0E657008       aDjiModeSceneCa
 0003:0E657020       aDjiModeSceneCa_0
 0003:0E657038       aDigitalNoEffec_0
 0003:0E65704C       aDigitalArt
 0003:0E657058       aDigitalSepia
 0003:0E657068       aDigitalNegativ
 0003:0E65707C       aDigitalBw
 0003:0E657088       aDigitalVivid
 0003:0E657098       aDigital70film
 0003:0E6570A8       aDigitalPunk
 0003:0E6570B8       aDigitalPopart
 0003:0E6570C8       aDigitalWedding
 0003:0E6570D8       aDigitalPinhole_0
 0003:0E6570E8       aDigitalMiniatu
 0003:0E6570FC       aDigitalDrawing
 0003:0E65710C       aDigitalWaterco
 0003:0E657120       aDigitalM31
 0003:0E65712C       aDigitalDelta
 0003:0E65713C       aDigitalKdx
 0003:0E657148       aDigitalDk79
 0003:0E657158       aDigitalPrismo
 0003:0E657168       aDigitalJugo
 0003:0E657178       aDigitalVision4
 0003:0E65718C       aDigitalVision6
 0003:0E6571A0       aDigitalVisionX
 0003:0E6571B4       aDigitalNeutral
 0003:0E6571C4       aN3
 0003:0E6571E0       aDjiaaascenemod
 0003:0E6571FC       aReturnNgAtSSD_0
 0003:0E657218       aDSvnViewA9sCam_1
 0003:0E657264       aModeP
 0003:0E657270       aModeM
 0003:0E65727C       aModeA
 0003:0E657288       aModeS
 0003:0E657294       aModeScn
 0003:0E6572A0       aModeErr
 0003:0E6572AC       aDjiaaastillaea
 0003:0E6572C4       aDjiaaasetaeon
 0003:0E6572DC       aDjiaaaaestatus
 0003:0E6572F4       aDjiaaasetawbon
 0003:0E65730C       aDjiaaagetmaxsh
 0003:0E657338       aDjiaaabrightne
 0003:0E65735C       aDoReallyBright
 0003:0E657380       aComputeEqualBr
 0003:0E6573A8       aShutter1FShutt
 0003:0E6573DC       aDjiaaabrightne_0
 0003:0E657400       aMshtFOffsetDSh
 0003:0E65742C       aDoReallyBright_0
 0003:0E657458       aDoEqualBrightn
 0003:0E657480       aDjiaaaexposure
 0003:0E6574A4       aF28
 0003:0E6574AC       aDjiaaaaperture
 0003:0E6574C4       aDjiAaaTestSDFs
 0003:0E6574E8       aDjiaaaaperture_0
 0003:0E6574FC       aDjiAaaTestSFnu
 0003:0E657524       aDjiaaaaperture_5
 0003:0E657540       aDjiaaafocusval
 0003:0E657554       aDjiAaaTestSSet
 0003:0E657574       aDjiaaaevindexs
 0003:0E65758C       aEi5dWbDMD
 0003:0E6575A0       aDjiaaaadjstrge
 0003:0E6575B0       aLv2dTar3dL3d
 0003:0E6575C8       aDjiaaaaestilli
 0003:0E6575E0       aDjiaaaisoget
 0003:0E6575F4       aDjiaaaisoset
 0003:0E657604       aSStart_4
 0003:0E65761C       aSetIsoOffsetDa
 0003:0E657638       aDjiaaaisosetDa
 0003:0E657654       aSEnd_3
 0003:0E657668       aDjiaaaisoTest
 0003:0E657678       aIsoTestStart
 0003:0E6576A4       aGetParamS
 0003:0E6576B4       aGetParamFailed
 0003:0E6576C8       aSetParamS
 0003:0E6576D8       aSetParamFailed
 0003:0E6576EC       aGetParamFailed_0
 0003:0E657700       aRestoreParamS
 0003:0E657714       aRestoreParamFa
 0003:0E65772C       aIsoTestEnd
 0003:0E657754       aDjiaaaisosetca
 0003:0E65776C       aDjiaaashutters
 0003:0E657788       aDjiaaashutters_0
 0003:0E6577A0       aSetShutterOffs
 0003:0E6577C4       aDataDMaxshuidx
 0003:0E6577DC       aDjiaaashutters_1
 0003:0E6577F4       aShutterspeedTe
 0003:0E657828       aStoreParamS
 0003:0E65783C       aStoreParamFail
 0003:0E657850       aShutterspeedTe_0
 0003:0E657880       aDjiaaashutters_7
 0003:0E6578A0       aDjiaaaaeevbias
 0003:0E6578B4       aDjiaaaaeevbias_0
 0003:0E6578C8       aEvbiasDataD
 0003:0E6578E0       aDjiaaaaeevbias_1
 0003:0E6578F4       aAeevbiasTestSt
 0003:0E657924       aAeevbiasTestEn
 0003:0E657954       aDjiaaaaeevbias_6
 0003:0E657970       aDjiaaaantiflic
 0003:0E65798C       aDjiaaaantiflic_0
 0003:0E6579AC       aDjiaaaantiflic_1
 0003:0E6579C8       aAntiflickerTes
 0003:0E6579FC       aAntiflickerTes_0
 0003:0E657A2C       aDjiaaaantiflic_6
 0003:0E657A50       aDjiaaaaemeteri
 0003:0E657A68       aDjiaaaaemeteri_0
 0003:0E657A84       aDjiaaaaemeteri_1
 0003:0E657AA0       aAemeteringmode
 0003:0E657AD4       aAemeteringmode_0
 0003:0E657B08       aDjiaaaaemeteri_13
 0003:0E657B28       aDjiaaaaemeteri_2
 0003:0E657B40       aDjiaaaaemeteri_3
 0003:0E657B58       aDataD
 0003:0E657B68       aDjiaaaaemeteri_4
 0003:0E657B84       aSetParamAeMete
 0003:0E657BA0       aAemeteringspot
 0003:0E657BD4       aSetParamD
 0003:0E657BE4       aGetParamD
 0003:0E657BF4       aAemeteringspot_0
 0003:0E657C28       aDjiaaawbtemper
 0003:0E657C70       aDjiaaawbtemper_0
 0003:0E657D04       aDjiaaawbscenem
 0003:0E657D34       aDjiaaawbscenem_0
 0003:0E657D64       aDjiaaaawbscene
 0003:0E657D94       aDjiaaawbnoget
 0003:0E657DA4       aDjiaaawbscenem_1
 0003:0E657DBC       aWbscenemodeTes
 0003:0E657DF0       aWbscenemodeTes_0
 0003:0E657E20       aDjiaaawbscenem_6
 0003:0E657E40       aS_21
 0003:0E657E74       aSEnd_6
 0003:0E657EA8       aDjiaaascenemod_0
 0003:0E657EBC       aSetSceneModeD1
 0003:0E657EF0       aDjiaaascenemod_1
 0003:0E657F08       aScenemodeTestS
 0003:0E657F38       aScenemodeTestE
 0003:0E657F68       aDjiaaashutters_2
 0003:0E657F88       aSetShutterOffs_0
 0003:0E657FAC       aMaxshutD
 0003:0E657FB8       aDjiaaascenemod_2
 0003:0E658110       aSRecShuttSetFi
 0003:0E65814C       aSRecShuttSetFi_0
 0003:0E658170       aDjiaaadigitale
 0003:0E658188       aDjiaaadigitale_0
 0003:0E6581A0       aDjiaaadigitale_1
 0003:0E6581BC       aDigitaleffectT
 0003:0E6581F0       aDigitaleffectT_0
 0003:0E658224       aDjiaaadigitale_6
 0003:0E658244       aDjiaaasharpnes
 0003:0E658258       aDjiaaasharpnes_0
 0003:0E65826C       aDjiaaasharpnes_1
 0003:0E658284       aSharpnessTestS
 0003:0E6582B4       aSetParamS_0
 0003:0E6582C4       aSharpnessTestE
 0003:0E6582F4       aDjiaaasharpnes_6
 0003:0E658310       aDjiaaacontrast
 0003:0E658324       aDjiaaacontrast_0
 0003:0E658338       aDjiaaacontrast_1
 0003:0E65834C       aContrastTestSt
 0003:0E65837C       aContrastTestEn
 0003:0E6583AC       aDjiaaacontrast_6
 0003:0E6583C8       aDjiaaahueget
 0003:0E6583D8       aDjiaaahueset
 0003:0E6583E8       aDjiaaahueTest
 0003:0E6583F8       aHueTestStart
 0003:0E658424       aHueTestEnd
 0003:0E65844C       aDjiaaahuesetca
 0003:0E658464       aDjiaaasaturati
 0003:0E658478       aDjiaaasaturati_0
 0003:0E65848C       aDjiaaasaturati_1
 0003:0E6584A4       aSaturationTest
 0003:0E6584D4       aSaturationTest_0
 0003:0E658504       aDjiaaasaturati_6
 0003:0E658520       aDjiaebsetcallb
 0003:0E658534       aDjiphotoaebset
 0003:0E658544       aDjiaaaRegressi
 0003:0E658578       aDjiaaaregressi
 0003:0E658590       aUsage_1
 0003:0E658598       a0Eantiflicker
 0003:0E6585A8       a1Eaeevbias
 0003:0E6585B8       a2Eaemeteringmo
 0003:0E6585CC       a3Eaemeteringsp
 0003:0E6585E0       a4Eiso
 0003:0E6585E8       a5Ewbscenemode
 0003:0E6585F8       a6Eawbscenemode
 0003:0E65860C       a7Escenemode
 0003:0E65861C       a8Eshutter
 0003:0E658628       a9Esharpness
 0003:0E658638       a10Esaturation
 0003:0E658648       a11Econtrast
 0003:0E658658       a12Ehue
 0003:0E658660       a13Edigitaleffe
 0003:0E658674       a14Emode
 0003:0E658680       a15Eprint
 0003:0E65868C       a16EhistoGammaD
 0003:0E6586B4       a17ExposureInfo
 0003:0E6586CC       a18EbrightInfoG
 0003:0E6586E0       a19EbrightInfoS
 0003:0E6586F4       a20AetargetSet
 0003:0E658704       a21Aelock
 0003:0E658710       a22Aperture
 0003:0E65871C       a23Focus
 0003:0E658728       a24Calibchange
 0003:0E658738       a25DynamicToneC
 0003:0E658750       a100Etestall
 0003:0E658760       aMoreThanTheTes
 0003:0E65877C       aDjiaaaantiflic_2
 0003:0E6587A4       aDjiaaaantiflic_3
 0003:0E6587D0       aDjiaaaantiflic_4
 0003:0E6587F8       aDjiaaaantiflic_5
 0003:0E658824       aDjiaaaaeevbias_2
 0003:0E658848       aDjiaaaaeevbias_3
 0003:0E65886C       aDjiaaaaeevbias_4
 0003:0E65888C       aDjiaaaaeevbias_5
 0003:0E6588B0       aDjiaaaaemeteri_5
 0003:0E6588D8       aDjiaaaaemeteri_6
 0003:0E658904       aDjiaaaaemeteri_7
 0003:0E65892C       aDjiaaaaemeteri_8
 0003:0E658958       aDjiaaaaemeteri_9
 0003:0E658980       aDjiaaaaemeteri_10
 0003:0E6589AC       aDjiaaaaemeteri_11
 0003:0E6589D4       aDjiaaaaemeteri_12
 0003:0E658A00       aDjiaaaisogetGe
 0003:0E658A1C       aDjiaaaisogetGe_0
 0003:0E658A3C       aDjiaaaisosetSe
 0003:0E658A58       aDjiaaaisosetSe_0
 0003:0E658A78       aDjiaaawbtemper_1
 0003:0E658AA0       aDjiaaawbtemper_2
 0003:0E658ACC       aDjiaaawbtemper_3
 0003:0E658AF4       aDjiaaawbtemper_4
 0003:0E658B20       aDjiaaawbscenem_2
 0003:0E658B44       aDjiaaawbscenem_3
 0003:0E658B6C       aDjiaaawbscenem_4
 0003:0E658B90       aDjiaaawbscenem_5
 0003:0E658BB8       aDjiaaascenemod_3
 0003:0E658BDC       aDjiaaascenemod_4
 0003:0E658C04       aDjiaaascenemod_5
 0003:0E658C28       aDjiaaascenemod_6
 0003:0E658C50       aDjiaaashutters_3
 0003:0E658C78       aDjiaaashutters_4
 0003:0E658CA0       aDjiaaashutters_5
 0003:0E658CC8       aDjiaaashutters_6
 0003:0E658CF0       aDjiaaasharpnes_2
 0003:0E658D14       aDjiaaasharpnes_3
 0003:0E658D3C       aDjiaaasharpnes_4
 0003:0E658D60       aDjiaaasharpnes_5
 0003:0E658D88       aDjiaaasaturati_2
 0003:0E658DAC       aDjiaaasaturati_3
 0003:0E658DD4       aDjiaaasaturati_4
 0003:0E658DF8       aDjiaaasaturati_5
 0003:0E658E20       aDjiaaacontrast_2
 0003:0E658E44       aDjiaaacontrast_3
 0003:0E658E68       aDjiaaacontrast_4
 0003:0E658E8C       aDjiaaacontrast_5
 0003:0E658EB0       aDjiaaahuegetGe
 0003:0E658ECC       aDjiaaahuegetGe_0
 0003:0E658EEC       aDjiaaahuesetSe
 0003:0E658F08       aDjiaaahuesetSe_0
 0003:0E658F28       aDjiaaadigitale_2
 0003:0E658F50       aDjiaaadigitale_3
 0003:0E658F7C       aDjiaaadigitale_4
 0003:0E658FA4       aDjiaaadigitale_5
 0003:0E658FD4       aDjiaaastillmod
 0003:0E658FF8       aDjiaaastillmod_0
 0003:0E659024       aDjiaaastillmod_1
 0003:0E65904C       aDjiaaastillmod_2
 0003:0E659074       aDjiaaastillmod_3
 0003:0E65909C       aDjiaaastillmod_4
 0003:0E6590C4       aDjiaaascenemod_7
 0003:0E6590EC       aDjiaaascenemod_8
 0003:0E659114       aStillpmodeStil
 0003:0E659160       aDjiaaaEhistoga
 0003:0E659184       aDjiaaaEhistoga_0
 0003:0E6591A4       aDjiaaaEhistoga_1
 0003:0E6591C4       aDjiaaaEhistoga_2
 0003:0E6591EC       aDjiaaaExposure
 0003:0E659214       aBrightnessD
 0003:0E659224       aEbrightgetPara
 0003:0E659240       aEbrightsetPara
 0003:0E65925C       aAetargetsetPar
 0003:0E659278       aDjiaaaaelgetD0
 0003:0E65929C       aDjiaaaaelsetSe
 0003:0E6592CC       aDjiaaaaelsetSe_0
 0003:0E6592EC       aDjiaaaaperture_1
 0003:0E65930C       aDjiaaaaperture_2
 0003:0E65932C       aDjiaaaaperture_3
 0003:0E659350       aDjiaaaaperture_4
 0003:0E659374       aDjiaaafocusval_0
 0003:0E659394       aDjiaaafocusval_1
 0003:0E6593B0       aDjiaaafocusval_2
 0003:0E6593D4       aDjiaaafocusval_3
 0003:0E6593FC       aDynaTcParamFai
 0003:0E659414       aDjiaaainit
 0003:0E659420       aDji3a3aCallbac
 0003:0E659450       aDjiaaamaxminsh
 0003:0E659474       aDjiaaaaebisosh
 0003:0E6594A4       aSizeofDjiAebEv
 0003:0E6594C0       aMGearShutterof
 0003:0E6594F0       aMGearIsooffset
 0003:0E659518       aShut15sModifyS
 0003:0E659558       aShut15sModifyI
 0003:0E659594       aMGearShutterae
 0003:0E6595D8       aMGearIsoaebDVa
 0003:0E659614       aSGearIsotrueva
 0003:0E659638       aSGearEvbiasoff
 0003:0E659654       aSGearIsoaebDVa
 0003:0E659690       aIsoTrueValueD
 0003:0E6596A4       aPGearShutterof
 0003:0E6596D4       aPGearTrueisova
 0003:0E6596F0       aShut15sModifyS_0
 0003:0E659730       aShut15sModifyI_0
 0003:0E65976C       aPGearShutterae
 0003:0E6597B0       aPGearIsoaebDVa
 0003:0E65A2C4       aDjiafgetbuffer
 0003:0E65A2D8       aDjiAfSTakeCurs
 0003:0E65A334       aCurRgbYD
 0003:0E65A344       aCurRgbFv1D
 0003:0E65A354       aCurRgbFv2D
 0003:0E65A364       aCurCfaYD
 0003:0E65A374       aCurCfaFv1D
 0003:0E65A384       aCurCfaFv2D
 0003:0E65A394       aCurtotalDD
 0003:0E65A3A8       aThereIsNoDataI
 0003:0E65A3C4       aThereIsDDataIn
 0003:0E65A3E4       aDDDDD
 0003:0E65A3FC       aCycleTimeD
 0003:0E65A40C       aScanInfoStartD
 0003:0E65A434       aCoarsepeakInfo
 0003:0E65A470       aFinepeakInfoPo
 0003:0E65A4A8       aCurrentAppertu
 0003:0E65A4DC       aCommandUnitTes
 0003:0E65A500       aTest_11
 0003:0E65A508       aCommandUnitTes_0
 0003:0E65A52C       aWrite_1
 0003:0E65A534       aCommandUnitTes_1
 0003:0E65A564       aRead_0
 0003:0E65A56C       aCommandUnitTes_2
 0003:0E65A594       aFstop
 0003:0E65A59C       aCommandUnitTes_3
 0003:0E65A5D8       aShading
 0003:0E65A5E0       aCommandUnitTes_4
 0003:0E65A620       aIris
 0003:0E65A628       aNothing
 0003:0E65A630       aDjiafifgetrout
 0003:0E65A640       aDjiAfifSHowCan
 0003:0E65A660       aDjiafifrcvres
 0003:0E65A670       aDjiAfifSRecvEr
 0003:0E65A6A0       aDjiAfifVerD
 0003:0E65A6BC       aDjiAfifRetD
 0003:0E65A6D8       aDjiAfifWriteDa
 0003:0E65A6FC       aDjiafifread
 0003:0E65A708       aDjiAfifDataDDD
 0003:0E65A728       aDjiAfifSDSucce
 0003:0E65A750       aDjiAfifSFaiedR
 0003:0E65A770       aDjiafifshading
 0003:0E65A780       aDjiAfifSInputE
 0003:0E65A7A4       aDjiAfifSSetVal
 0003:0E65A7D0       aDjiAfifDDD
 0003:0E65A7E8       aDjiafifreadfro
 0003:0E65A7FC       aDjiAfifSTakeMo
 0003:0E65A830       aDjiAfifSCmdDFa
 0003:0E65A85C       aDjiafifwriteto
 0003:0E65A870       aDjiAfifWriteDa_0
 0003:0E65A898       aDjiafifwriteto_0
 0003:0E65A8B4       aDjiAfifSGoToD
 0003:0E65A8D0       aDjiafifsetfsto
 0003:0E65A8E0       aDjiafifsetfocu
 0003:0E65A8F8       aDjiAfifSInputE_0
 0003:0E65A91C       aDjiAfifSInputV
 0003:0E65A948       aDjigetaperture
 0003:0E65A95C       aDjiApertureSDj
 0003:0E65A994       aDjiApertureSMi
 0003:0E65A9BC       aDjiApertureSPm
 0003:0E65A9E4       aDjicmmfirmware
 0003:0E65AA00       aDjiCmmSLenErro
 0003:0E65AA3C       aDjiCmmSVerifyi
 0003:0E65AA78       aDjiCmmVerifyin
 0003:0E65AAA0       aDjicmmfirmware_0
 0003:0E65AABC       aFc300x
 0003:0E65AAC4       aDjiCmmModelNam
 0003:0E65AAE4       aDjiCmmSFoundIn
 0003:0E65AB04       aDjiCmmSSCodeIs
 0003:0E65AB2C       aDjicmmfirmware_1
 0003:0E65AB40       aDjiCmmSNullPoi
 0003:0E65AB68       aDjiCmmSCanTOpe
 0003:0E65AB94       aDjiCmmSSeekIma
 0003:0E65ABBC       aDjiCmmSReadFir
 0003:0E65ABE8       aDjiCmmSFirmwar
 0003:0E65AC1C       aDjiCmmStartFir
 0003:0E65AC44       aDjiCmmCheckS
 0003:0E65AC58       aDjiCmmSReadIma
 0003:0E65AC80       aDjiCmmSInvalid
 0003:0E65ACA4       aDjicamerafirmw
 0003:0E65ACBC       aCFc350fwBin
 0003:0E65ACCC       aDjiCmmFirmware
 0003:0E65ACF4       aCFc350fwDamage
 0003:0E65AD0C       aDjiCmmSTryToRe
 0003:0E65AD40       aDjiCmmSRenameF
 0003:0E65AD74       aDjiCmmSFirmwar_0
 0003:0E65ADA4       aDjiCmmSetMagic
 0003:0E65ADC0       aDjiCmmSStartUp
 0003:0E65ADFC       aDjiCmmFirmware_0
 0003:0E65AE24       aDjicmmcaptypes
 0003:0E65AE38       aDjiCmmSCapture
 0003:0E65AE68       aDjinotice1765s
 0003:0E65AE88       aDjiCmmSSendPac
 0003:0E65AECC       aDjicmmdownload
 0003:0E65AEE4       aDjiCmmSSetUsbM
 0003:0E65AF10       aDjiCmmSStopStr
 0003:0E65AF34       aPbworkmodeindo
 0003:0E65AF50       aPbworkmodeindo_0
 0003:0E65AF6C       aDjiCmmSStartSt
 0003:0E65AF90       aDjiCmmSSwitchT
 0003:0E65AFC4       aDjicmmusbswitc
 0003:0E65AFD4       aDjicmmopmodect
 0003:0E65AFE8       aDjiCmmSDisable
 0003:0E65B014       aDjiCmmSSwitchT_0
 0003:0E65B03C       aDjicmmclkchang
 0003:0E65B058       aDjiCmmSStopMon
 0003:0E65B08C       aDjiCmmSStartMo
 0003:0E65B0C0       aDjicmmsetopmod
 0003:0E65B0D0       aDjiCmmSInputCl
 0003:0E65B104       aDjiCmmSSetCloc
 0003:0E65B12C       aDjiCmmSReconfi
 0003:0E65B160       aDjicmmopmodesw
 0003:0E65B178       aDjiCmmSOpmodeD
 0003:0E65B198       aSUEnterXcodeDo
 0003:0E65B1C0       aSUEnterXcodeDo_0
 0003:0E65B1EC       aDjiCmmSDisable_0
 0003:0E65B224       aSUEnterXcodePb
 0003:0E65B248       aSUEnterXcodePb_0
 0003:0E65B26C       aDjiCmmSSwitchM
 0003:0E65B290       aDjiCmmSOperati
 0003:0E65B2CC       aDjicmmopmodesw_0
 0003:0E65B2E0       aDjiCmmSOperati_0
 0003:0E65B310       aDjiCmmSCanNotG
 0003:0E65B360       aDjiCmmSSwitchO
 0003:0E65B390       aDjicmmrawbufal
 0003:0E65B3AC       aDjiCmmSCanNotF
 0003:0E65B3F0       aDjicmmrawbufre
 0003:0E65B404       aDjiCmmSInputEr
 0003:0E65B444       aDjicmmrawbufal_0
 0003:0E65B458       aDjiCmmSInputEr_0
 0003:0E65B4A4       aDjiCmmSInputEr_1
 0003:0E65B4E0       aDjiCmmSTakeMut
 0003:0E65B500       aDjiCmmSBeforeA
 0003:0E65B52C       aDjiCmmSRawBuff
 0003:0E65B584       aDjiCmmSRawBuff_0
 0003:0E65B5D0       aDjiCmmSRawBuff_1
 0003:0E65B5F4       aDjiCmmSSaveAll
 0003:0E65B620       aDjiCmmSRawBuff_2
 0003:0E65B66C       aDjiCmmSAfterAl
 0003:0E65B694       aDjicmmrawbuffr
 0003:0E65B6A8       aDjiCmmSAddr0xX
 0003:0E65B6DC       aDjiCmmSAddr0xX_0
 0003:0E65B720       aDjiCmmSFreeOkA
 0003:0E65B774       aDjiCmmSCanNotF_0
 0003:0E65B7BC       aCapdoneSetAeUn
 0003:0E65B7DC       aDjicmmcapnumin
 0003:0E65B7F4       aDjiCmmSCapnumD
 0003:0E65B810       aDjicmmstoraget
 0003:0E65B82C       aDjiCmmSStorage
 0003:0E65B84C       aDjicmmdocaptur
 0003:0E65B85C       aDjiCmmSGetOper
 0003:0E65B884       aDjiCmmSOperati_1
 0003:0E65B8B4       aDjiCmmSStartCa
 0003:0E65B8D8       aDjicmmrecordct
 0003:0E65B8EC       aDjiCmmSCurrent
 0003:0E65B930       aDjiCmmSAlready
 0003:0E65B958       aDjiCmmSStartRe
 0003:0E65B974       aDjiCmmSAlready_0
 0003:0E65B99C       aDjiCmmSStopRec
 0003:0E65B9B8       aDjicmmdorecord
 0003:0E65B9C8       aDjiCmmSTakeMut_0
 0003:0E65B9F0       aDjiCmmSVideoRe
 0003:0E65BA28       aDjicmmrecordre
 0003:0E65BA3C       aDjiCmmSAlready_1
 0003:0E65BA58       aDjiCmmSStopVid
 0003:0E65BA88       aDjiCmmSStartVi
 0003:0E65BAB8       aDjicmmdodzoom
 0003:0E65BAC8       aDjiCmmSStartDi
 0003:0E65BB00       aDjicmmdzoomgui
 0003:0E65BB18       aDjiCmmSInvalid_0
 0003:0E65BB68       aDjicmmdzoomfac
 0003:0E65BB80       aDjiCmmSTakeMut_1
 0003:0E65BBA0       aDjiCmmSGiveMut
 0003:0E65BBC0       aDjipushupdate
 0003:0E65BBD0       aDjiCmmSPushPar
 0003:0E65BBF4       aDjipushstart
 0003:0E65BC04       aDjiCmmSPushAlr
 0003:0E65BC28       aDjiCmmSUpdateP
 0003:0E65BC50       aDjipushstop
 0003:0E65BC5C       aDjiCmmSPushAlr_0
 0003:0E65BC80       aDjicmmpushtask
 0003:0E65BC94       aDjiCmmSPushFai
 0003:0E65BCB8       aDjicmmpushctrl
 0003:0E65BCC8       aDjiCmmSSPushFa
 0003:0E65BCE4       aStart
 0003:0E65BCEC       aStop
 0003:0E65BCF4       aDjicmmpushinit
 0003:0E65BD04       aDjiCmmSCreateM
 0003:0E65BD24       aDjiCmmSCreateE
 0003:0E65BD4C       aDjipushtask
 0003:0E65BD58       aDjiCmmSTaskCre
 0003:0E65BD78       aDjiCmmPushStat
 0003:0E65BD9C       aDjiCmm
 0003:0E65BDD0       aDjiCmmTimerExe
 0003:0E65BDFC       aDjiCmmBlockExe
 0003:0E65BE28       aDjiCmmLossRati
 0003:0E65BE54       aDjicontinparau
 0003:0E65BE68       aDjiCmmSMultiCa
 0003:0E65BEB0       aDjicmmstartcca
 0003:0E65BEC0       aDjiCmmSUpdateC
 0003:0E65BEF8       aDjicmmccapinit
 0003:0E65BF08       aDjiCmmSCreateM_0
 0003:0E65BF34       aDjiccaptask
 0003:0E65BF40       aDjiCmmSContinu
 0003:0E65BF70       aDjicmmosdmutex
 0003:0E65BF84       aDjiCmmSTakeOsd
 0003:0E65BFB8       aDjicmmsrtstart
 0003:0E65BFD0       aDjiCmmSGetDjiU
 0003:0E65BFFC       aSrt
 0003:0E65C004       aDjicmmsrtrecor
 0003:0E65C014       aD_0
 0003:0E65C01C       a02d02d02d00002
 0003:0E65C048       aDjiCmmSGetHome
 0003:0E65C06C       aDjiCmmSGetTime
 0003:0E65C08C       aHome4f4f04d02d
 0003:0E65C0BC       aHomeNANA04d02d
 0003:0E65C0EC       aDjiCmmSGetHdit
 0003:0E65C110       aGps4f4fUBarome
 0003:0E65C134       aGpsNANAUBarome
 0003:0E65C158       aDjiCmmSGetIsoF
 0003:0E65C174       aDjiCmmSGetShut
 0003:0E65C19C       aDjiCmmSGetEvBi
 0003:0E65C1BC       aDjiCmmSGetAper
 0003:0E65C1E0       aIsoSShutterSEv
 0003:0E65C20C       aDjicmmsrtinit
 0003:0E65C21C       aDjisrttask
 0003:0E65C228       aDjiCmmSCreateS
 0003:0E65C268       aDjicmmkscninit
 0003:0E65C278       aDjiCmmSMessage
 0003:0E65C2A4       aDjicmmrecosddr
 0003:0E65C2B8       aDjiCmmSQueryQu
 0003:0E65C2E0       aDjiCmmSReceive
 0003:0E65C30C       a02u02u02u
 0003:0E65C31C       aDjiCmmTimecntU
 0003:0E65C33C       aSS_12
 0003:0E65C344       aSep212016_0
 0003:0E65C350       a133027
 0003:0E65C35C       aDjicmmcaposdit
 0003:0E65C374       aIso
 0003:0E65C37C       aTv
 0003:0E65C384       aEv
 0003:0E65C38C       aDjiCmmSIndexDE
 0003:0E65C3AC       aSS_3
 0003:0E65C3B4       aGethistoGetNoD
 0003:0E65C3DC       aDjiAdjGetNoDat_0
 0003:0E65C400       aDjicmmpushstat
 0003:0E65C414       aDjiCmmSTakeMut_2
 0003:0E65C434       aDjicmmpushmode
 0003:0E65C448       aDjiCmmSSpecial
 0003:0E65C480       aDjiCmmRecS
 0003:0E65C4B4       aDjicmmcreateos
 0003:0E65C4C8       aDjiosdtask
 0003:0E65C4D4       aDjiCmmSCreateO
 0003:0E65C504       aDjicmmosdinit
 0003:0E65C514       aDjiCmmSCreateT
 0003:0E65C53C       aDjiCmmSOsdMute
 0003:0E65C56C       aDjicmmmonsenso
 0003:0E65C584       aDjiCmmSInitMon
 0003:0E65C5B8       aDjicmmmonthres
 0003:0E65C5D0       aDjiCmmSSensorD
 0003:0E65C60C       aDjicmmmonrepor
 0003:0E65C61C       aDjiCmmSSensorI
 0003:0E65C658       aDjicmmmoncurst
 0003:0E65C670       aDjicmmmonassis
 0003:0E65C68C       aDjiCmmSVideoRe_0
 0003:0E65C6B0       aDjiCmmSVideoRe_1
 0003:0E65C6D4       aDjiCmmSVideoRe_2
 0003:0E65C6FC       aDjiCmmSVideoRe_3
 0003:0E65C724       aSUCurrentCamer
 0003:0E65C760       aDjiCmmSystemRe
 0003:0E65C77C       aDjicmmmonsenso_0
 0003:0E65C790       aDjiCmmSAddAllM
 0003:0E65C7C4       aDjimontask
 0003:0E65C7D0       aDjiCmmSCreateM_1
 0003:0E65C804       aDjimonassistta
 0003:0E65C818       aDjiCmmSCreateM_2
 0003:0E65C850       aDjicmmheartbea
 0003:0E65C870       aDjiCmmSInvalid_1
 0003:0E65C898       aDjicmmheartbea_0
 0003:0E65C8AC       aDjiCmmSNewSens
 0003:0E65C8E0       aDjicmmledinit
 0003:0E65C8F0       aDjicmmrecovery
 0003:0E65C90C       aDjiCmmSDjiMsgP
 0003:0E65C94C       aDjiCmmSDjiMsgP_0
 0003:0E65C98C       aDjicmmrecovery_0
 0003:0E65C9A0       aDjicmmcamerast
 0003:0E65C9C0       aDjiCmmSClearSt
 0003:0E65C9F0       aDjiCmmSClearSt_0
 0003:0E65CA38       aDjicmmcamerast_0
 0003:0E65CA58       aDjicmmtemperat
 0003:0E65CA70       aDjiCmmSInputPa
 0003:0E65CAAC       aDjicmmagingtry
 0003:0E65CAC4       aDjiCmmSNullPoi_0
 0003:0E65CAEC       aDjiCmmSGetMnaF
 0003:0E65CB08       aDjicmmagingtry_0
 0003:0E65CB20       aDjicmmagingddr
 0003:0E65CB38       aDjiCmmSNullPoi_1
 0003:0E65CB60       aDjicmmagingddr_0
 0003:0E65CB7C       aDjicmmddrparam
 0003:0E65CBA8       aFc300xVerB_0
 0003:0E65CBB8       aDjiCmmSDdrPara
 0003:0E65CBF0       aDjiCmmSTempera
 0003:0E65CC2C       aDjiCmmSTempera_0
 0003:0E65CC68       aDjiCmmSTempera_1
 0003:0E65CCA4       aDjicmmtemperat_0
 0003:0E65CCC4       aDjiCmmSGetNode
 0003:0E65CCF0       aDjicmmtemperat_1
 0003:0E65CD08       aDjiCmmSNodeUTe
 0003:0E65CD34       aDjicmmtemperat_2
 0003:0E65CD4C       aDjiCmmSNodeUTe_0
 0003:0E65CD7C       aDjicmmtemperat_3
 0003:0E65CD94       aDjiCmmSNodeUTe_1
 0003:0E65CDE0       aDjicmmtemperat_4
 0003:0E65CE00       aDjiCmmSRegiste
 0003:0E65CE30       aDjicmmupdateen
 0003:0E65CE48       aDjicmmwdgstart
 0003:0E65CE58       aDjiCmmSWatchDo
 0003:0E65CEB0       aDjicmmwatchdog
 0003:0E65CEC4       aDjiCmmSStopWat
 0003:0E65CF0C       aDjiCmmSEnableW
 0003:0E65CF4C       aDjiCmmSWatchDo_0
 0003:0E65CF94       aDjiwdgtask
 0003:0E65CFA0       aDjiCmmSWatchDo_1
 0003:0E65CFCC       aDjicmmtimersta
 0003:0E65CFE0       aDjiCmmSSetTime
 0003:0E65D008       aDjiCmmSTimerId
 0003:0E65D024       aDjicmmtimersto
 0003:0E65D034       aDjiCmmSSetTime_0
 0003:0E65D060       aDjicmminit
 0003:0E65D06C       aDjiCmmSCameraM
 0003:0E65D098       aDjiCmmSCameraS
 0003:0E65D0D0       aDjiCmmSVideoRe_4
 0003:0E65D108       aDjiCmmSCapture_0
 0003:0E65D148       aDjiCmmSCameraM_0
 0003:0E65D188       aDjiCmmSStartTi
 0003:0E65D1B4       aDjiCmmSDigital
 0003:0E65D1E4       aDjiCmmSContinu_0
 0003:0E65D21C       aDjiCmmSPushSer
 0003:0E65D24C       aDjiCmmSSrtInit
 0003:0E65D274       aDjiCmmSKscnIni
 0003:0E65D29C       aDjiCmmSOsdInit
 0003:0E65D2C4       aDjiCmmSMonitor
 0003:0E65D2F8       aDjiCmmSCameraM_1
 0003:0E65D320       aDjicmmsdmonito
 0003:0E65D334       aDjimovierecord
 0003:0E65D350       aSUsedBufferPro
 0003:0E65D384       aDjimovierecord_0
 0003:0E65D3B0       aDjiCmmSGetVide
 0003:0E65D3D4       aDjiCmmSGetBitR
 0003:0E65D3F8       aSUsedBufferPro_0
 0003:0E65D440       aDjimovierecord_1
 0003:0E65D46C       aSUsedBufferPro_1
 0003:0E65D4B0       aDjicmmbufferin
 0003:0E65D4C4       aDjiCmmLinuxBoo
 0003:0E65D4F0       aDjiCmmFirmware_1
 0003:0E65D83C       aDjifilecopy
 0003:0E65D848       aSNullPointerPs
 0003:0E65D864       aSNullPointerPd
 0003:0E65D880       aSStatPathFailP
 0003:0E65D8A4       aSInvalidParamO
 0003:0E65D8E8       aSOpenPathFailP
 0003:0E65D90C       aSSeekPathFailP
 0003:0E65D93C       aSOpenPathFailP_0
 0003:0E65D960       aSReadFileFail
 0003:0E65D974       aSWriteFileFail
 0003:0E65D98C       aDjicirbufinit
 0003:0E65D99C       aSCreateMutexFa_0
 0003:0E65D9B4       aDjiserialnumge
 0003:0E65D9CC       aSCreateMutexFa_1
 0003:0E65D9E4       aSTakeMutexFail
 0003:0E65E13C       aDjidngEntryidg
 0003:0E65E150       aDjiDngSLUTheIn
 0003:0E65E180       aDjidngExififdp
 0003:0E65E194       aDjiDngSLUUnkno
 0003:0E65E1C0       aDjidngGpsifdpu
 0003:0E65E1D4       aDjidngIfd0put
 0003:0E65E1E4       aDjiDngSLUUnkno_0
 0003:0E65E20C       aDjidngSubifd1p
 0003:0E65E220       aDjidngSubifd2p
 0003:0E65E234       aDjidngScanable
 0003:0E65E248       aDjiDngSLUDetec
 0003:0E65E274       aDjidngIfddesci
 0003:0E65E288       aDjiDngSLUTheIn_0
 0003:0E65E2B8       aDjidngFileinit
 0003:0E65E2C8       aDjiDngSLUIniti
 0003:0E65E304       aDjidngXmpinfos
 0003:0E65E318       aDjidngIfd0imag
 0003:0E65E330       aDjiDngSLUDjidn
 0003:0E65E360       a2014031100
 0003:0E65E36C       aEmbedded
 0003:0E65E378       aDjidngExifimag
 0003:0E65E390       aDjidngGpsimage
 0003:0E65E3A8       aDjidngSubifd1i
 0003:0E65E3C4       aSUBeginToSetTh
 0003:0E65E400       aSUBeginToSetTh_0
 0003:0E65E440       aDjidngSubifd2i
 0003:0E65E45C       aDjidngImageinf
 0003:0E65E470       aDjidngFileinfo
 0003:0E65E484       aDjiDngSLUThere
 0003:0E65E4CC       aDjiDngSLUAlloc
 0003:0E65E500       aDjiDngSLUDjidn_0
 0003:0E65E530       aDjiDngSLUSetTh
 0003:0E65E57C       aDjiDngSLUDjidn_1
 0003:0E65E5AC       aDjiDngSLUDjidn_2
 0003:0E65E5E0       aDjidngFilewrit
 0003:0E65E5F4       aDjiDngSLUSGetF
 0003:0E65E624       aDng_4
 0003:0E65E62C       aDjiDngSLUOpenF
 0003:0E65E654       aDjiDngSLUSaved
 0003:0E65E680       aDjiDngSLUSavin
 0003:0E65E6A8       aDjidngMakerifd
 0003:0E65E6BC       aDjiDngSLUTheBu
 0003:0E65E708       aDjidngFilevali
 0003:0E65E71C       aDjiDngSLUGetTh
 0003:0E65E74C       aDjidngIfdspars
 0003:0E65E760       aDjiDngSLUMemor
 0003:0E65E78C       aDjiDngSLUReadf
 0003:0E65E7B4       aDjiDngSLUTooMa
 0003:0E65E7FC       aDjiDngSLUAmbav
 0003:0E65E824       aDjiDngSLUDjidn_3
 0003:0E65E854       aDjidngLocinfog_1
 0003:0E65E868       aDjiDngSLUTheIn_1
 0003:0E65E898       aDjiDngSLUFaile
 0003:0E65E8C0       aDjiDngSLUDjidn_4
 0003:0E65E8F4       aSAmbavfsSeekFa
 0003:0E65E90C       aDjidngFileisva
 0003:0E65E920       aDjiDngSLUFileS
 0003:0E65E94C       aDjidngOpcodeen
 0003:0E65E968       aDjiDngSLUOpcod
 0003:0E65E994       aDjidngBpcinfog
 0003:0E65E9B8       aDjiDngSLUGetBp
 0003:0E65E9E0       aDjiDngSLUChang
 0003:0E65EA38       aDjiDngSLUBadPi
 0003:0E65EA74       aDjiDngSLUThere_0
 0003:0E65EAB4       aDjiDngSLUGetBp_0
 0003:0E65EAE0       aDjiDngSLUThere_1
 0003:0E65EB14       aDjiDngSLUAlloc_0
 0003:0E65EB4C       aDjiDngSLUSetTh_0
 0003:0E65EBA0       aDjiDngSLUSetTh_1
 0003:0E65EBF8       aDjiDngSLUThere_2
 0003:0E65EC38       aDjiDngSLUAlloc_1
 0003:0E65EC78       aDjiDngSLUGetOp
 0003:0E65ECAC       aDjiDngSLUGetTh_0
 0003:0E65ECE4       aDjidngBpccorre
 0003:0E65ED08       aDjiDngSLUInval
 0003:0E65ED34       aDjiDngSLURotat
 0003:0E65ED60       aDjidngBufwrite
 0003:0E65ED78       aDjiDngSLUFailT
 0003:0E65EDA4       aDjidnginit
 0003:0E65EDB0       aDjiDngSLUDngFi
 0003:0E65EDE8       aRead_1
 0003:0E65EDF0       aCommandUnitTes_5
 0003:0E65EE18       aNonce
 0003:0E65EE20       aCommandUnitTes_6
 0003:0E65EE4C       aCommandUnitTes_7
 0003:0E65EE74       aCheck
 0003:0E65EE7C       aCommandUnitTes_8
 0003:0E65EEA8       aCommandUnitTes_9
 0003:0E65EECC       aSaveKey
 0003:0E65EED8       aCommandUnitTes_10
 0003:0E65EF04       aLockConfig
 0003:0E65EF10       aCommandUnitTes_11
 0003:0E65EF40       aWDataZone
 0003:0E65EF4C       aCommandUnitTes_12
 0003:0E65EF7C       aWDataZoneIndex
 0003:0E65EF90       aCommandUnitTes_13
 0003:0E65EFC4       aRewDataZone
 0003:0E65EFD4       aCommandUnitTes_14
 0003:0E65F004       aLockData
 0003:0E65F010       aCommandUnitTes_15
 0003:0E65F03C       aRDataZone
 0003:0E65F048       aCommandUnitTes_16
 0003:0E65F078       aRDataZoneIndex
 0003:0E65F08C       aCommandUnitTes_17
 0003:0E65F0C0       aWOtpZone
 0003:0E65F0CC       aCommandUnitTes_18
 0003:0E65F0F8       aLockOtp
 0003:0E65F104       aCommandUnitTes_19
 0003:0E65F130       aROtpZone
 0003:0E65F13C       aCommandUnitTes_20
 0003:0E65F168       aSaveRom
 0003:0E65F174       aCommandUnitTes_21
 0003:0E65F1A0       aReadRom
 0003:0E65F1AC       aCommandUnitTes_22
 0003:0E65F1D8       aInit_7
 0003:0E65F1E0       aCommandUnitTes_23
 0003:0E65F208       aSha204mRead
 0003:0E65F218       aDjiEncryptSXXX
 0003:0E65F244       aSha204mWrite
 0003:0E65F374       aSha204pWakeup
 0003:0E65F384       aDjiEncryptSWak
 0003:0E65F3AC       aSha204pI2cSend
 0003:0E65F3C0       aDjiEncryptSI2c
 0003:0E65F3F0       aSha204pReceive
 0003:0E65F40C       aDjiEncryptSI2c_0
 0003:0E65F440       aDjiEncryptSI2c_1
 0003:0E65F478       aDjiEncryptLock
 0003:0E65F4A0       aDjiEncryptLock_0
 0003:0E65F4C4       aSha204dTestRea
 0003:0E65F4E4       aDjiEncryptSAft
 0003:0E65F50C       aDjiEncryptDX
 0003:0E65F524       aSha204dTestNon
 0003:0E65F538       aDjiEncryptSWak_0
 0003:0E65F560       aDjiEncryptSRan
 0003:0E65F588       aDjiEncryptSNon
 0003:0E65F5AC       aDjiEncryptSNon_0
 0003:0E65F5DC       aSha204dTestMac
 0003:0E65F5F0       aDjiEncryptSMac
 0003:0E65F614       aDjiEncryptResp
 0003:0E65F638       aDjiEncryptSnXX
 0003:0E65F670       aDjiEncryptSave
 0003:0E65F6CC       a33333633333333
 0003:0E65F88C       aDjiEncryptWrit
 0003:0E65F8B4       aDjiEncryptWrit_0
 0003:0E65FAD8       aDjiEncryptInpu
 0003:0E65FB00       aDjiEncryptWrit_1
 0003:0E65FB2C       aDjiEncryptWrit_2
 0003:0E65FCF4       aDjiEncryptRewr
 0003:0E65FD24       aDjiEncryptRewr_0
 0003:0E65FD48       aDjiEncryptData
 0003:0E65FD70       aDjiEncryptLock_1
 0003:0E65FD94       aDjiEncryptSlot
 0003:0E65FDCC       aDjiEncryptXXXX
 0003:0E65FDFC       aDjiEncryptRead
 0003:0E65FE38       aDjiEncryptWrit_3
 0003:0E65FE60       aDjiEncryptWrit_4
 0003:0E65FE84       aDjiEncryptOtpX
 0003:0E65FF58       aDDDDDDDDDDDDDD
 0003:0E65FF9C       aDjiencryptsave
 0003:0E65FFB0       aDjiEncryptSWri
 0003:0E65FFD8       aDjiEncryptSWri_0
 0003:0E66002C       aDjiEncryptSRea
 0003:0E660080       aDjiencryptread
 0003:0E660098       aDjiencryptget2
 0003:0E6600B4       aDjiEncryptSLoc
 0003:0E6600E8       aDjiencryptwrit
 0003:0E660108       aDjiEncryptSSav
 0003:0E660134       aDjiEncryptSSav_0
 0003:0E6601B0       aDjiencryptwrit_0
 0003:0E6601D0       aDjiEncryptWrit_5
 0003:0E6601F0       aDjiEncryptSWri_1
 0003:0E660270       aDjiencryptwrit_1
 0003:0E66028C       aDjiEncryptWrit_6
 0003:0E6602B8       aDjiEncryptSWri_2
 0003:0E660334       aDjiEncryptRead_0
 0003:0E660358       aDjiEncryptWake
 0003:0E66037C       aDjiEncryptGetM
 0003:0E6603A0       aDjiencryptgetk
 0003:0E6603B4       aDjiEncryptSRea_0
 0003:0E6603E0       aDjiencryptchec
 0003:0E6603F8       aDjiEncryptDRan
 0003:0E660418       aDjiEncryptSGet
 0003:0E660440       aDjiEncryptSGet_0
 0003:0E66046C       aDjiEncryptSGet_1
 0003:0E660494       aDjiEncryptDRxB
 0003:0E6604C0       aDjiEncryptPass
 0003:0E6604DC       aDjiencryptinit
 0003:0E6604EC       aDjiEncryptSCon
 0003:0E66051C       aDjiEncryptSCon_0
 0003:0E660550       aDjiEncryptSLoc_0
 0003:0E660584       aDjiEncryptSSav_1
 0003:0E6605B0       aDjiEncryptSIni
 0003:0E6605D8       aDjiencryptsave_0
 0003:0E6605F4       aDjiEncryptSSav_2
 0003:0E660620       aDjiEncryptSSav_3
 0003:0E660650       aDjiEncryptSLoc_1
 0003:0E660680       aDjiEncryptSSav_4
 0003:0E6606AC       aDjiencryptsave_1
 0003:0E6606C0       aDjiEncryptSGet_2
 0003:0E6606EC       aDjiencryptresa
 0003:0E660700       aDjiEncryptSInp
 0003:0E660728       aDjiencryptsave_2
 0003:0E660748       aDjiEncryptSSav_5
 0003:0E660774       aDjiEncryptSSav_6
 0003:0E66079C       aDjiEncryptGetE
 0003:0E6607CC       aDjiEncryptData_0
 0003:0E660800       aDjiEncryptGetE_0
 0003:0E660830       aDjiEncryptGetB
 0003:0E660858       aDjiEncryptStat
 0003:0E660880       aDjiencryptrege
 0003:0E660898       aDjiEncryptSRet
 0003:0E6608CC       aDjiEncryptSGet_3
 0003:0E6608FC       aDjiEncryptSA9S
 0003:0E660938       aDjiencryptgeta
 0003:0E660950       aDjiEncryptSReg
 0003:0E660980       aDjiencrypttran
 0003:0E660990       aDjiEncryptSGet_4
 0003:0E6609C0       aDjiEncryptSGet_5
 0003:0E6609F4       aDjiEncryptSGet_6
 0003:0E660A24       aDjiencryptchec_0
 0003:0E660A48       aDjiEncryptSNul
 0003:0E660A70       aDjiEncryptSNul_0
 0003:0E660A98       aDjiEncryptSNul_1
 0003:0E660AC0       aDjiEncryptSExp
 0003:0E660AE0       aDjiEncryptSAct
 0003:0E660B00       aDjiEncryptSBoa
 0003:0E660B1C       aDjiencryptchec_1
 0003:0E660B30       aDjiEncryptSChe
 0003:0E660B58       aDjiEncryptSSha
 0003:0E660B80       aDjiEncryptSGet_7
 0003:0E660BAC       aDjiEncryptSGet_8
 0003:0E660BD8       aDjiEncryptSChe_0
 0003:0E660C00       aDjiEncryptSSuc
 0003:0E660C1C       aDjiEncryptInpu_0
 0003:0E660C54       aDjiexifgpsenst
 0003:0E660C68       aDjiExifSDjiust
 0003:0E660CAC       aDjiexifopInfos
 0003:0E660CC0       aDjiExifSTheInp
 0003:0E660CF0       aDjiExifSTakeEx
 0003:0E660D24       aDjiexifopInfog
 0003:0E660D38       aSNoFlightExifD
 0003:0E660D54       aDjiexifopGpsif
 0003:0E660D68       aDjiExifSTakeEx_0
 0003:0E660D9C       aDjiexifopMaker
 0003:0E660DB4       aDjiExifSTheBuf
 0003:0E660DFC       aDjiexifinit
 0003:0E660E08       aDjiExifSExifIn
 0003:0E660E28       aDjiExifSDjiexi
 0003:0E660E58       aDjiExifSDjixmp
 0003:0E660E84       aDjiExifSExifIn_0
 0003:0E660EA4       aDjiexifexposur
 0003:0E660EBC       aSDjiustuserset_0
 0003:0E660EF4       aDjiexiflightsr
 0003:0E660F08       aDjiexifmetermo
 0003:0E660F1C       aDjiexifexposur_0
 0003:0E660F34       aDjiexifwbget
 0003:0E660F44       aDjiexifsceneca
 0003:0E660F5C       aSDjiustuserset_1
 0003:0E660F90       aDjiexifcontras
 0003:0E660FA4       aSDjiustuserset_2
 0003:0E660FD8       aDjiexifsaturat
 0003:0E660FF0       aSDjiustuserset_3
 0003:0E661028       aDjiexifsharpne
 0003:0E66103C       aSDjiustuserset_4
 0003:0E661074       aDjijpgvalidchk
 0003:0E661084       aDjiExifSTheInp_0
 0003:0E6610B0       aDjiExifSFailed
 0003:0E6610D4       aSDTheSoi0x04xO
 0003:0E661100       aDjiExifSDAmbav
 0003:0E661128       aSUCode0x04xSiz
 0003:0E66114C       aFc350_0
 0003:0E661154       aFc300x_3
 0003:0E66115C       aFc300s
 0003:0E661164       aFc300c_0
 0003:0E66116C       aDjiexifxmpinfo
 0003:0E661180       aDjiExifSUTheIn
 0003:0E6611B4       aDjiExifSTakeXm
 0003:0E6611E8       a4d02d02d
 0003:0E6611F8       aDjiexifdngxmpg
 0003:0E66120C       aDjiExifSTheInp_1
 0003:0E66123C       aXpacketBegin
 0003:0E661250       aIdW5m0mpcehihz
 0003:0E661274       aXXmpmetaXmlnsX
 0003:0E66130C       aXmlnsTiffHttpN
 0003:0E661470       aSSS
 0003:0E661478       aXmpModifydate
 0003:0E66148C       aXmpCreatedate
 0003:0E6614A0       aTiffMake
 0003:0E6614B0       aTiffModel
 0003:0E6614C0       aStiffS
 0003:0E6614CC       aDcFormatImage
 0003:0E6614E4       aS2fS
 0003:0E6614F0       aDroneDjiAbsolu
 0003:0E661510       aDroneDjiRelati
 0003:0E661530       aDroneDjiGimbal
 0003:0E661550       aDroneDjiGimbal_0
 0003:0E661570       aDroneDjiGimbal_1
 0003:0E661594       aDroneDjiFlight
 0003:0E6615B4       aDroneDjiFlight_0
 0003:0E6615D4       aDroneDjiFlight_1
 0003:0E6615F8       aDroneDjiFlight_2
 0003:0E661614       aDroneDjiFlight_3
 0003:0E661630       aDroneDjiFlight_4
 0003:0E66164C       aCrsVersion70Cr
 0003:0E6616B4       aRdfDescription
 0003:0E6616E4       aXpacketEndW
 0003:0E6616FC       aDjiExifGenerat
 0003:0E66173C       aDjiexifjpgxmpg
 0003:0E661750       aHttpNsAdobeCom
 0003:0E661770       aSjpegS
 0003:0E66177C       aDjiexifxmpinfo_0
 0003:0E661790       aDjiExifSTheInp_2
 0003:0E6617BC       aDjiExifSInvali
 0003:0E6617E0       aDjipanotakepho
 0003:0E6617F4       aDjiGimbalrotat
 0003:0E661818       aGimbaltestfun
 0003:0E661828       aManualtakephot
 0003:0E661838       aDjigimbalrotat
 0003:0E661850       aDjiGimbalrotat_0
 0003:0E661890       aDjigimbalrotat_0
 0003:0E6618A8       aDjiGimbalrotat_1
 0003:0E6618DC       aDjigimbalrotat_1
 0003:0E6618F8       aDjiGimbalrotat_2
 0003:0E661928       aDjigimbalrotat_2
 0003:0E661940       aDjiGimbalrotat_3
 0003:0E661960       aDjirotategimba
 0003:0E661974       aDjiGimbalrotat_4
 0003:0E6619D4       aDjiGimbalrotat_5
 0003:0E661A18       aDjigimbalrotat_3
 0003:0E661A38       aDjiGimbalrotat_6
 0003:0E661A68       aDjiGimbalrotat_7
 0003:0E661A90       aDjigetgimbalst
 0003:0E661AA8       aDjigimbalrotat_11
 0003:0E661AC0       aDjiGimbalrotat_89
 0003:0E661AEC       aDjigetgimbalst_0
 0003:0E661B04       aDjiGimbalrotat_8
 0003:0E661B44       aDjiGimbalrotat_9
 0003:0E661B80       aDjiGimbalrotat_10
 0003:0E661BB0       aDjiGimbalrotat_11
 0003:0E661BD0       aDjiGimbalrotat_12
 0003:0E661C00       aDjiGimbalrotat_13
 0003:0E661CA4       aDjiGimbalrotat_14
 0003:0E661CF8       aDjiGimbalrotat_15
 0003:0E661D48       aDjigimbalrotat_4
 0003:0E661D60       aDjiGimbalrotat_16
 0003:0E661D84       aDjigimbalrotat_5
 0003:0E661DA8       aDjigimbalrotat_6
 0003:0E661DCC       aDjiGimbalrotat_17
 0003:0E661E18       aDjiGimbalrotat_18
 0003:0E661E64       aDjigimbalrotat_7
 0003:0E661E7C       aDjiGimbalrotat_19
 0003:0E661EB8       aDjiGimbalrotat_20
 0003:0E661EE8       aDjiGimbalrotat_21
 0003:0E661F24       aDjiGimbalrotat_22
 0003:0E661F44       aDjiGimbalrotat_23
 0003:0E661F70       aDjiGimbalrotat_24
 0003:0E661FB8       aDjiGimbalrotat_25
 0003:0E661FF4       aDjiGimbalrotat_26
 0003:0E662030       aDjiGimbalrotat_27
 0003:0E66206C       aDjiGimbalrotat_28
 0003:0E662098       aDjiGimbalrotat_29
 0003:0E6620C0       aDjiGimbalrotat_30
 0003:0E662118       aDjiGimbalrotat_31
 0003:0E662140       aDjiGimbalrotat_32
 0003:0E66216C       aDjiGimbalrotat_33
 0003:0E66219C       aDjiGimbalrotat_34
 0003:0E6621E4       aDjiGimbalrotat_35
 0003:0E662218       aDjiGimbalrotat_36
 0003:0E662250       aDjiGimbalrotat_37
 0003:0E6622A0       aDjiGimbalrotat_38
 0003:0E662300       aDjiGimbalrotat_39
 0003:0E66232C       aDjiGimbalrotat_40
 0003:0E662364       aDjigimbalrotat_8
 0003:0E662378       aDjiGimbalrotat_41
 0003:0E6623AC       aDjiGimbalrotat_42
 0003:0E6623E4       aDjigimbalrotat_9
 0003:0E6623F8       aDjiGimbalrotat_43
 0003:0E66242C       aDjigimbalrotat_10
 0003:0E662444       aDjiGimbalrotat_44
 0003:0E662468       aDjiGimbalrotat_45
 0003:0E662490       aDjiGimbalrotat_46
 0003:0E6624B8       aDjipanoentrycs
 0003:0E6624C8       aDjiGimbalrotat_47
 0003:0E662500       aDjipanoleavecs
 0003:0E662510       aDjiGimbalrotat_48
 0003:0E66253C       aDjipanopushent
 0003:0E662550       aDjiGimbalrotat_49
 0003:0E66258C       aDjipanopushlea
 0003:0E6625A0       aDjiGimbalrotat_50
 0003:0E6625D0       aDjipanosetstat
 0003:0E6625E0       aDjipanoaelock
 0003:0E6625F0       aDjiGimbalrotat_51
 0003:0E66261C       aDjipanogettota
 0003:0E662630       aDjipanoinit
 0003:0E66263C       aDjiGimbalrotat_90
 0003:0E662668       aDjiGimbalrotat_91
 0003:0E662698       aDjistartpanora
 0003:0E6626AC       aDjiGimbalrotat_52
 0003:0E6626D4       aDjiGimbalrotat_53
 0003:0E66274C       aDjiGimbalrotat_54
 0003:0E6627A0       aDjiGimbalrotat_56
 0003:0E6627CC       aDjiGimbalrotat_55
 0003:0E6627F4       aDjiGimbalrotat_57
 0003:0E662818       aDjiGimbalrotat_58
 0003:0E66284C       aDjiGimbalrotat_59
 0003:0E662878       aDjiGimbalrotat_60
 0003:0E6628A8       aDjistopgimbalr
 0003:0E6628BC       aDjiGimbalrotat_61
 0003:0E6628D8       aDjistoppanoram
 0003:0E6628E8       aDjiGimbalrotat_62
 0003:0E662918       aDjipanofinisht
 0003:0E662930       aDjiGimbalrotat_63
 0003:0E662950       aDjipanofinishs
 0003:0E662968       aDjipanomodeset
 0003:0E662980       aDjiGimbalrotat_64
 0003:0E6629AC       aDjipanostatemo
 0003:0E6629C0       aDjiGimbalrotat_65
 0003:0E6629EC       aDjipanoinfopus
 0003:0E662A20       aDjiGimbalrotat_66
 0003:0E662A4C       aDjiGimbalrotat_67
 0003:0E662A80       aHtml_1
 0003:0E662A88       aDjiGimbalrotat_68
 0003:0E662AB8       aDjiGimbalrotat_69
 0003:0E662AE4       aDjiGimbalrotat_70
 0003:0E662B10       aDjiGimbalrotat_71
 0003:0E662B34       aDjipanoFnamege
 0003:0E662B4C       aDjiGimbalrotat_72
 0003:0E662B70       aDjiGimbalrotat_73
 0003:0E662BB0       aDjiGimbalrotat_74
 0003:0E662BDC       aDjiGimbalrotat_75
 0003:0E662C08       aDjiGimbalrotat_76
 0003:0E662C38       aDjiGimbalrotat_77
 0003:0E662C64       aDjiGimbalrotat_78
 0003:0E662C90       aSS03d04dS04dS
 0003:0E662CAC       aPanorama_0
 0003:0E662CB8       aPano_0
 0003:0E662CC0       aJpg_3
 0003:0E662CC8       aDjiGimbalrotat_79
 0003:0E662CF8       aDng_3
 0003:0E662D00       aDjiGimbalrotat_80
 0003:0E662D28       aDjiGimbalrotat_81
 0003:0E662D48       aDjiGimbalrotat_92
 0003:0E662D70       aDjiGimbalrotat_93
 0003:0E662D90       aDjiGimbalrotat_94
 0003:0E662DAC       aDjiGimbalrotat_95
 0003:0E662DD0       aDjiGimbalrotat_82
 0003:0E662DF4       aDjiGimbalrotat_83
 0003:0E662E18       aDjiGimbalrotat_84
 0003:0E662E5C       aDjiGimbalrotat_85
 0003:0E662E84       aDjiGimbalrotat_86
 0003:0E662EAC       aDjiGimbalrotat_87
 0003:0E662F30       aDjiGimbalrotat_88
 0003:0E666B2C       aDumpbufAddr0x0
 0003:0E666B48       a02x_0
 0003:0E666B50       aUnknowFormatC
 0003:0E666B64       aIpcBufinit
 0003:0E666B88       aDjiIpcSLUInitA
 0003:0E666BA8       aDjiIpcSLUAlloc
 0003:0E666BD8       aIpcBufalloc
 0003:0E666BE8       aDjiIpcSLUAlloc_0
 0003:0E666C14       aIpcBuffree
 0003:0E666C20       aDjiIpcSLUNullP
 0003:0E666C40       aDjiIpcSLUFreeN
 0003:0E666C64       aIpcRpmsgInit
 0003:0E666C74       aDjiIpcSLURpmsg
 0003:0E666CA8       aDjiIpcSLUCreat
 0003:0E666CE0       aDjiIpcSLURpmsg_0
 0003:0E666D14       aDjiIpcSLURpmsg_1
 0003:0E666D44       aIpcRpmsgAttach
 0003:0E666D58       aDjiIpcSLUNoExi
 0003:0E666D8C       aDjiIpcSLURpmsg_6
 0003:0E666DC8       aChangePid0x08x
 0003:0E666DF0       aIpcRpmsgDetach
 0003:0E666E04       aDjiIpcSLURpmsg_2
 0003:0E666E38       aDjiIpcSLURpmsg_7
 0003:0E666E68       aDjiIpcSLURpmsg_8
 0003:0E666E98       aDjiIpcSLURpmsg_9
 0003:0E666ED0       aDjiIpcSLUChann
 0003:0E666F14       aSIpcRpmsgChann_0
 0003:0E666F44       aIpcRpmsgAlloc
 0003:0E666F54       aDjiIpcSLUIpcRp
 0003:0E666F98       aDjiIpcSLUNoFre
 0003:0E666FC4       aDjiIpcSLUAmbai
 0003:0E666FF0       aDjiIpcSLUAmbai_0
 0003:0E667024       aSIpcRpmsgChann
 0003:0E667054       aIpcRpmsgFree
 0003:0E667064       aDjiIpcSLURpmsg_3
 0003:0E667090       aDjiIpcSLURpmsg_4
 0003:0E6670BC       aDjiIpcSLUUnreg
 0003:0E6670F4       aSFreeRpmsgChan
 0003:0E667118       aIpcRpmsgSend
 0003:0E667128       aDjiIpcSLUMsgEr
 0003:0E667154       aDjiIpcSLURpmsg_5
 0003:0E667180       aDjiIpcSLUSendM
 0003:0E6671B4       aIpcRpmsgState
 0003:0E6671C4       aRpmsgChnnameCh
 0003:0E667204       a16s5u5u8u8u8u8
 0003:0E667220       aRCtrlSvcRecvMs
 0003:0E66723C       aCtrlRpcSvc
 0003:0E66724C       aIpcRpcClnInit
 0003:0E667260       aSRpcModuleHasI
 0003:0E667284       aCreateIpcRpmsg
 0003:0E6672A8       aSRpmsgMallocBu
 0003:0E6672C8       aIpcRpcAlloc
 0003:0E6672D8       aSNoFreeRpcChan
 0003:0E6672F4       aSAmbaipcClient
 0003:0E667324       aSIpcRpcChannel
 0003:0E66734C       aIpcRpcFree
 0003:0E66735C       aSRpcChannelIdU
 0003:0E66737C       aSRpcChannelReF
 0003:0E667398       aSRpcChannelNot
 0003:0E6673B4       aSFreeRpcChanne
 0003:0E6673D8       aIpcRpcSend
 0003:0E6673E8       aSRpcChannelNot_0
 0003:0E667404       aSSendMsgFailed
 0003:0E667424       aIpcRpcSendsyn
 0003:0E667434       aSSendSynMsgFai
 0003:0E667458       aIpcRpcState
 0003:0E667468       aRpcChnnameChni
 0003:0E6674A0       a16s5u5u0x08x8u
 0003:0E6674BC       aDjiipcinit
 0003:0E6674C8       aDjiIpcSLUCreat_0
 0003:0E667500       aDjiipcattach
 0003:0E667510       aDjiIpcSLUDjiIp
 0003:0E667550       aDjiipcalloc
 0003:0E66755C       aDjiIpcSLUNoFre_0
 0003:0E667584       aDjiIpcSLUUnkno
 0003:0E6675AC       aDjiIpcSLUAttac
 0003:0E6675E0       aDjiIpcSLUFailT
 0003:0E667610       aDjiIpcSLUIpcCh
 0003:0E667640       aDjiipcrxentry
 0003:0E667650       aDjiIpcSLUIpcMe
 0003:0E667684       aDjiIpcSLUIpcCh_0
 0003:0E6676C4       aDjiIpcSLUDorpI
 0003:0E667704       aDjiipcsendsyn
 0003:0E667714       aDjiIpcSLUMsgPo
 0003:0E66773C       aDjiIpcSLUIpcCh_1
 0003:0E667768       aDjiIpcSLUSendM_0
 0003:0E667790       aDjiIpcSLUResul
 0003:0E6677C0       aDjiipcsend
 0003:0E6677CC       aDjiipcstate
 0003:0E6677D8       aIpcPidChnidSta
 0003:0E66781C       a0x08x5u5u0x08x
 0003:0E667840       aShow_4
 0003:0E667848       aShowLedInfomat
 0003:0E667870       aColor
 0003:0E667878       aSetLedColorTDj
 0003:0E6678A8       aState_0
 0003:0E6678B0       aSetLedStateTDj
 0003:0E6678EC       aDjiLedStateErr
 0003:0E667928       aDjiLedState1Ne
 0003:0E667964       aDjiLedState2Ne
 0003:0E6679A0       aDjiledgpiomult
 0003:0E6679B4       aDjiLedSPhysica
 0003:0E6679DC       aDjiLedSInvalid
 0003:0E667A18       aDjiLedSGpioPin
 0003:0E667A44       aDjileddisphand
 0003:0E667A58       aDjiLedSPhysica_0
 0003:0E667A90       aDjiLedSLedPatt
 0003:0E667AC8       aDjiledhwinit
 0003:0E667AD8       aDjiLedSLedGpio
 0003:0E667B04       aDjiledinit
 0003:0E667B10       aDjiLedSLedInit
 0003:0E667B30       aDjiLedSLedStat
 0003:0E667B58       aDjiLedSLedHard
 0003:0E667B80       aDjiLedSLedMute
 0003:0E667BA8       aDjiLedSLedDisp
 0003:0E667BD8       aDjiLedSLedInit_0
 0003:0E667BF4       aDjiledstateset
 0003:0E667C08       aDjiLedSInvalid_0
 0003:0E667C34       aDjiLedSInvalid_1
 0003:0E667C64       aDjiLedSTakeMut
 0003:0E667C84       aDjiLedSGiveMut
 0003:0E667CA4       aDjiledstateget
 0003:0E667CB8       aDjiLedSNullPoi
 0003:0E667CDC       aDjihg310ledsta
 0003:0E667CF8       aDjiLedSUnsuppo
 0003:0E667D1C       aDjiLedSendHg31
 0003:0E667D40       aDjiledtestcolo
 0003:0E667D54       aDjiLedSArgnumU
 0003:0E667D74       aDjiLedSLedGpio_0
 0003:0E667D98       aDjiledteststat
 0003:0E667DAC       aDjiLedSLedStat_0
 0003:0E667DD0       aDjiLedUserInfo
 0003:0E667E00       aDjiLedIndex04d
 0003:0E667E18       aDjiLedColors00
 0003:0E667E34       aDjiLedGpioS04d
 0003:0E667E4C       aGreen
 0003:0E667E54       aDjiLedDebugInf
 0003:0E667E84       aDjiLedIndex04d_0
 0003:0E667EA8       aDjiLedFpPatter
 0003:0E667EE0       aDjiLedSpPatter
 0003:0E667F18       aDjiinitstage
 0003:0E667F28       aDjiMaiSInputSt
 0003:0E667F54       aDjiMaiSStageDI
 0003:0E667F8C       aDjisysbootupta
 0003:0E667FA4       aDjiMaiSTermina
 0003:0E667FC8       aDjiMaiSDeleteT
 0003:0E667FE8       aDjiMaiSBootUpT
 0003:0E66800C       aAfterSoftwareS
 0003:0E66802C       aSelfTestFail
 0003:0E66803C       aDjiMaiDjiSyste
 0003:0E668064       aDjimaininit
 0003:0E668070       aDjibootuptask
 0003:0E668080       aDjiMaiSCreateB
 0003:0E6680B4       a68013
 0003:0E6680BC       aWifi_0
 0003:0E6680C4       aEhci
 0003:0E6680CC       aOhci
 0003:0E6680D4       aMcctrlRecv
 0003:0E6680E0       aUsbDevAdd0x04x
 0003:0E668104       aUsbDevDel0x04x
 0003:0E668118       aDjiMcctrlSLURe
 0003:0E668150       aMcctrlInit
 0003:0E66815C       aDjiMcctrlSLUIp
 0003:0E668184       aMcctrlInitSucc
 0003:0E66819C       aMcctrlGetlinux
 0003:0E6681B0       aDjiMcctrlSLUMc
 0003:0E6681E0       aAddr0x08xLenU
 0003:0E6681F8       aResultAddr0x08
 0003:0E668218       aMcctrl68013get
 0003:0E668230       aDjiMcctrlSLUIn
 0003:0E668254       aDjiMcctrlSLU68
 0003:0E668280       aMcctrl68013upd
 0003:0E668294       aDjiMcctrlSLUFw
 0003:0E6682C8       aDjiMcctrlSLUOp
 0003:0E6682FC       a68013FwPathSLe
 0003:0E668318       a68013UpdateRes
 0003:0E668334       aMcctrlWifiupda
 0003:0E668348       aDjiMcctrlSLUWi
 0003:0E668374       aDjiMcctrlSLUOp_0
 0003:0E6683A8       aWifiFwPathSLen
 0003:0E6683C4       aWifiUpdateResu
 0003:0E6683E0       aMcctrlReglinux
 0003:0E6683FC       aDjiMcctrlSLUIn_0
 0003:0E668428       aDjiMcctrlSLUMa
 0003:0E66845C       aRegisterALinux
 0003:0E66848C       aMcctrlCalllinu
 0003:0E6684AC       aDjiMcctrlSLUCa
 0003:0E6684DC       aMcctrlUsbmodes
 0003:0E6684F0       aUsbSwitchToS
 0003:0E668504       aHost
 0003:0E66850C       aDevice
 0003:0E668514       aMcctrlUsbmodlo
 0003:0E668528       aSUsbHostDriver
 0003:0E66853C       aRemove
 0003:0E668544       aInsert
 0003:0E66854C       aMcctrlSetusbmo
 0003:0E668560       aUsbDevSAdd
 0003:0E668570       aUsbDevSDel
 0003:0E668580       aMcctrlAuthoriz
 0003:0E66859C       aUpdateAuthoriz
 0003:0E6685B8       aUpdateAuthoriz_0
 0003:0E6685F8       aMcctrlRpcctrls
 0003:0E66860C       aReciveLinuxBoo
 0003:0E668624       aCallLinuxBootu
 0003:0E668648       aDjiMcctrlSLUUn
 0003:0E668674       aErrorFoundTest
 0003:0E6686CC       aInputErrorMemt
 0003:0E66870C       aStartMemoryTes
 0003:0E668748       aU
 0003:0E668750       a100
 0003:0E668758       aFinishedTimeUS
 0003:0E668774       aDoCaptureTDjiM
 0003:0E6687D8       aDoRecordTDjiMs
 0003:0E668818       aSetWorkModeTDj
 0003:0E668860       aCommandUnitTes_24
 0003:0E6688C0       aCommandSystemT
 0003:0E668910       aGenerateMessag
 0003:0E668990       aStat_0
 0003:0E668998       aSetClearCamera
 0003:0E6689D4       aChk
 0003:0E6689D8       aCheckStructure
 0003:0E6689FC       aPin
 0003:0E668A00       aPrintSpecialCo
 0003:0E668A3C       aPrintSpecialSt
 0003:0E668A98       aShow_5
 0003:0E668AA0       aShowMessageHan
 0003:0E668B20       aClearMessageHa
 0003:0E668B84       aFlag
 0003:0E668B8C       aControlTheDebu
 0003:0E668BF8       aSetAthorizatio
 0003:0E668C4C       aSetRoutePathTD
 0003:0E668C8C       aPalNtsc
 0003:0E668C98       aSetGetVideoSta
 0003:0E668CF4       aGotodark
 0003:0E668D00       aGetInforWhenLi
 0003:0E668D38       aDjimsgmumapind
 0003:0E668D54       aDjiMsgSIndex04
 0003:0E668D7C       aDjimsgmumapind_0
 0003:0E668D98       aDjiMsgSIndex04_0
 0003:0E668DD4       aVDDD
 0003:0E668DF4       aDjimsgencchips
 0003:0E668E0C       aDjiMsgSGetSha2
 0003:0E668E44       aDjimsgencmodst
 0003:0E668E5C       aDjiMsgSGetA9St
 0003:0E668E90       aDjimsgatvstatu
 0003:0E668EDC       aDjiMsgSGetChip
 0003:0E668F00       aDjiMsgSBoardNu
 0003:0E668F28       aDjiMsgSSaveAct
 0003:0E668F54       aDjimsgatvstatu_0
 0003:0E668FA0       aDjiMsgSGetActi
 0003:0E668FCC       aDjiMsg68013Not
 0003:0E668FF8       aDjiMsg68013Not_0
 0003:0E669024       aDjiMsgReset680
 0003:0E669050       aDjimsgrctimesy
 0003:0E669068       aDjiMsgSGetRcRt
 0003:0E669098       aDjimsgencconfi
 0003:0E6690CC       aDjiMsgSInvalid
 0003:0E6690F4       aDjiMsgSCheckCo
 0003:0E66912C       aDjiMsgSExpectB
 0003:0E66914C       aDjiMsgSActualB
 0003:0E66916C       aDjiMsgSCheckSn
 0003:0E669198       aDjiMsgSGetResp
 0003:0E6691C8       aDjiMsgSGetResu
 0003:0E6691F8       aDjiMsgSConfigM
 0003:0E669228       aDjiMsgSResaveS
 0003:0E66924C       aDjiMsgSInvalid_0
 0003:0E669278       aDjiMsgSConfigA
 0003:0E6692A8       aDjimsgencindir
 0003:0E6692C4       aDjiMsgSTransEn
 0003:0E6692F8       aDjimsgopmodech
 0003:0E669310       aDjiMsgSGetDjiU
 0003:0E669338       aDjiMsgSSearchM
 0003:0E669368       aDjiMsgSInvalid_2
 0003:0E669394       aDjiMsgSInvalid_1
 0003:0E6693D8       aDjimsgcapture
 0003:0E6693E8       aDjiMsgSInvalid_3
 0003:0E669414       aDjiMsgS08xMess
 0003:0E669448       aDjiMsgSTakeOpe
 0003:0E669474       aDjiMsgSInvalid_4
 0003:0E6694C0       aDjiMsgSDoCaptu
 0003:0E6694EC       aDjiMsgS08xMess_0
 0003:0E66951C       aDjimsgplayback
 0003:0E669538       aDjiMsgSInvalid_5
 0003:0E669564       aDjiMsgSGetOper
 0003:0E66958C       aDjiMsgSSearchM_0
 0003:0E6695C0       aDjiMsgSCurrent
 0003:0E6695F8       aDjimsgheartbea
 0003:0E669618       aDjiMsgSGetDjiU_0
 0003:0E669648       aDjimsgvirtualk
 0003:0E669660       aDjiMsgSInvalid_6
 0003:0E669684       aDjimsgvirtualk_0
 0003:0E66969C       aDjimsgvirtualk_1
 0003:0E6696B4       aDjiMsgSGetDjiU_5
 0003:0E6696E0       aDjimsgrtctimes
 0003:0E6696F4       aDjiMsgSInvalid_7
 0003:0E669728       aDjiMsgSReadBac
 0003:0E669750       aDjiMsgSSetRtcT
 0003:0E669774       aDjiMsgWrite04d
 0003:0E6697A8       aDjiMsgSReadBac_0
 0003:0E6697CC       aDjiMsgRead04d0
 0003:0E66980C       aDjimsgstpushse
 0003:0E66981C       aDjiMsgSNullPoi
 0003:0E669840       aDjiMsgSTakeMut
 0003:0E669860       aDjimsgstpushge
 0003:0E669870       aDjiMsgSNoValid
 0003:0E669894       aDjimsgstosdape
 0003:0E6698AC       aDjiMsgSGetOsdA
 0003:0E6698D4       aDjiMsgSSearchM_1
 0003:0E669904       aDjimsgstosdshu
 0003:0E669920       aDjiMsgSGetOsdS
 0003:0E66994C       aDjimsgstosdiso
 0003:0E669960       aDjiMsgSGetOsdI
 0003:0E669980       aDjimsgstosdevb
 0003:0E669998       aDjiMsgSGetOsdE
 0003:0E6699BC       aDjimsgcamerast
 0003:0E6699D8       aDjiMsgSInvalid_8
 0003:0E6699FC       aDjiMsgSDjimsgs
 0003:0E669A34       aDjiMsgSDjimsgs_0
 0003:0E669A64       aDjiMsgSDjimsgf
 0003:0E669A9C       aDjiMsgSDjimsgq
 0003:0E669AD4       aDjiMsgSDjimsgp
 0003:0E669B0C       aDjiMsgSDjimsgp_0
 0003:0E669B44       aDjiMsgSDjimsgh
 0003:0E669B78       aDjiMsgSDjimsgp_1
 0003:0E669BAC       aDjimsggimbalwo
 0003:0E669BD4       aDjiMsgSSendReq
 0003:0E669BF8       aDjimsgusbswitc
 0003:0E669C1C       aDjimsgcapturep
 0003:0E669C3C       aDjiMsgSDjimsga
 0003:0E669C70       aDjiMsgSDjimsgs_1
 0003:0E669CA4       aDjiMsgSDjimsgi
 0003:0E669CD0       aDjiMsgSDjimsge
 0003:0E669D00       aDjiMsgSDjimsgs_2
 0003:0E669D38       aDjiMsgSDjimsgp_2
 0003:0E669D6C       aDjiMsgSDjimsgp_3
 0003:0E669DA0       aDjiMsgSDjimsgp_4
 0003:0E669DD8       aDjiMsgSDjimsgv
 0003:0E669E0C       aDjiMsgSDjimsgv_0
 0003:0E669E40       aDjiMsgSDjimsgv_1
 0003:0E669E78       aDjiMsgSDjimsge_0
 0003:0E669EA8       aDjiMsgSDjimsga_0
 0003:0E669ED8       aDjiMsgSDjimsgw
 0003:0E669F08       aDjiMsgSDjimsgz
 0003:0E669F34       aDjiMsgSDjimsgs_3
 0003:0E669F68       aDjiMsgSDjimsgc
 0003:0E669F98       aDjiMsgSDjimsgs_4
 0003:0E669FCC       aDjiMsgSDjimsgh_0
 0003:0E669FF8       aDjiMsgSDjimsgd
 0003:0E66A030       aDjiMsgSDjimsga_1
 0003:0E66A064       aDjiMsgSDjimsgm
 0003:0E66A09C       aDjiMsgSDjimsgc_0
 0003:0E66A0D4       aDjiMsgSDjimsgs_5
 0003:0E66A10C       aDjiMsgSDjimsgs_6
 0003:0E66A148       aDjiMsgSDjimsgs_7
 0003:0E66A178       aDjiMsgSDjimsgs_8
 0003:0E66A1AC       aDjiustusersett_6
 0003:0E66A1F0       aDjiMsgSDjimsgs_9
 0003:0E66A228       aDjiMsgSDjimsga_2
 0003:0E66A25C       aDjiMsgSDjimsgp_5
 0003:0E66A290       aDjiMsgSDjimsgv_2
 0003:0E66A2C8       aDjimsghistogra
 0003:0E66A320       aDjiMsgSSendDji
 0003:0E66A35C       aDjifileinfopus
 0003:0E66A370       aDjiMsgSFilePat
 0003:0E66A38C       aDjiMsgSGetFile
 0003:0E66A3B0       aDjiMsgSGetFile_0
 0003:0E66A3D4       aDjiMsgSGetFile_1
 0003:0E66A404       aDjimsgupdatest
 0003:0E66A420       aDjiMsgSInvalid_9
 0003:0E66A444       aDjiMsgSGetPack
 0003:0E66A468       aDjiMsgSInvalid_10
 0003:0E66A494       aDjiMsgSGetFirm
 0003:0E66A4CC       aDjiMsgSInvalid_11
 0003:0E66A4FC       aDjiMsgSSendDji_0
 0003:0E66A540       aDjimsgupdateso
 0003:0E66A564       aDjimsgpushout
 0003:0E66A574       aDjiMsgAmbadcfG
 0003:0E66A5CC       aDjiMsgSInvalid_12
 0003:0E66A5F8       aDjiuegdm368str
 0003:0E66A61C       aDjimsgnavigati
 0003:0E66A640       aDjiMsgSInvalid_13
 0003:0E66A66C       aDjimsgjoystick
 0003:0E66A690       aDjiMsgSInvalid_14
 0003:0E66A6C0       aDjimsgsthditos
 0003:0E66A6D4       aDjiMsgSNullPoi_0
 0003:0E66A6FC       aDjiMsgSInvalid_15
 0003:0E66A734       aDjimsgsthditos_0
 0003:0E66A748       aDjimsgstsubtit
 0003:0E66A760       aDjiMsgSNullPoi_1
 0003:0E66A784       aDjiMsgSInvalid_16
 0003:0E66A7B0       aDjimsgsthomeda
 0003:0E66A7C4       aDjiMsgSNullPoi_2
 0003:0E66A7EC       aDjimsgsthomeda_0
 0003:0E66A800       aDjimsgstgimbal
 0003:0E66A818       aDjiMsgSNullPoi_3
 0003:0E66A840       aDjimsgstgimbal_0
 0003:0E66A858       aDjiMsgSNullPoi_4
 0003:0E66A880       aDjimsgstupdate
 0003:0E66A898       aDjimsgstupdate_0
 0003:0E66A8B0       aDjiMsgSNullPoi_5
 0003:0E66A8D4       aDjimsgstcodedi
 0003:0E66A8F0       aDjiMsgSGetDjiU_1
 0003:0E66A91C       aDjiMsgSNotSupp_0
 0003:0E66A944       aDjiMsgSNotSupp
 0003:0E66A974       aDjimsgstcodedi_0
 0003:0E66A990       aDjiMsgSInvalid_17
 0003:0E66A9B8       aDjimsgstcodedi_1
 0003:0E66AA20       aDjiMsgSIndexD
 0003:0E66AA3C       aDjiMsgSSetFail
 0003:0E66AA7C       aDjiMsgSSetFail_0
 0003:0E66AAA0       aDjimsgstselfte
 0003:0E66AAB4       aDjiMsgSNullPoi_6
 0003:0E66AADC       aDjimsgstselfte_0
 0003:0E66AAF0       aDjiMsgSNullPoi_7
 0003:0E66AB18       aDjimsgstdm368r_0
 0003:0E66AB38       aDjiMsgSNullPoi_8
 0003:0E66AB60       aDjimsgstdm368r_1
 0003:0E66AB80       aDjiMsgSNullPoi_9
 0003:0E66ABA8       aDjimsgstcaptur
 0003:0E66ABC0       aDjiMsgSNullPoi_10
 0003:0E66ABEC       aDjimsgstcaptur_0
 0003:0E66AC04       aDjiMsgSNullPoi_11
 0003:0E66AC30       aDjimsgstusbswi
 0003:0E66AC4C       aDjimsgstusbswi_0
 0003:0E66AC68       aDjimsgstatvsta
 0003:0E66AC80       aDjiMsgSNullPoi_12
 0003:0E66ACAC       aDjimsgstatvsta_0
 0003:0E66ACC4       aDjiMsgSNullPoi_13
 0003:0E66ACEC       aDjimsgstbandst
 0003:0E66AD04       aDjiMsgSNullPoi_14
 0003:0E66AD30       aDjimsgstequipm
 0003:0E66AD4C       aDjiMsgSInvalid_18
 0003:0E66AD78       aDjimsgdeviceve
 0003:0E66ADA0       aDjiMsgSEntry
 0003:0E66ADB8       aDjiMsgSInvalid_19
 0003:0E66ADE8       aDjimsgdeviceve_0
 0003:0E66AE04       aDjimsgpushpara
 0003:0E66AE18       aDjiMsgSInvalid_20
 0003:0E66AE40       aDjiMsgSInvalid_21
 0003:0E66AE68       aDjiMsgSInvalid_22
 0003:0E66AE94       aDjiMsgSSetPush
 0003:0E66AEB8       aDjiMsgSSetPush_0
 0003:0E66AEE4       aDjimsgpushpara_0
 0003:0E66AEF8       aDjiMsgSGetPush
 0003:0E66AF1C       aDjimsgmultipar
 0003:0E66AF34       aDjiMsgSGetHand
 0003:0E66AF68       aDjimsgmultipar_0
 0003:0E66AF80       aDjiMsgSRespond
 0003:0E66AFB0       aDjimsgupdateen
 0003:0E66AFC8       aDjimsgupdateco
 0003:0E66AFE4       aDjimsgupdatetr
 0003:0E66B000       aDjimsgupdatefi
 0003:0E66B01C       aDjimsgupdateen_0
 0003:0E66B034       aDjimsgupdateco_0
 0003:0E66B050       aDjimsgupdatetr_0
 0003:0E66B06C       aDjimsgupdatefi_0
 0003:0E66B088       aDjimsgdevicere
 0003:0E66B09C       aDjiMsgSInvalid_23
 0003:0E66B0CC       aDjiMsgSNotSupp_1
 0003:0E66B0F8       aDjimsgdevicest
 0003:0E66B118       aDjiMsgSGetProt
 0003:0E66B144       aDjiMsgSGetSyst
 0003:0E66B170       aDjimsgfilesend
 0003:0E66B188       aDjiMsgSInvalid_24
 0003:0E66B1A8       aDjimsgfilesegm
 0003:0E66B1C0       aDjiMsgSSetFile
 0003:0E66B1F0       aDjimsgencpyptc
 0003:0E66B204       aDjiMsgSInvalid_25
 0003:0E66B22C       aDjimsgactivate
 0003:0E66B244       aDjiMsgSInvalid_26
 0003:0E66B274       aDjimsgselftest
 0003:0E66B298       aDjiMsgSSetSelf
 0003:0E66B2C4       aDjimsgfwupdate
 0003:0E66B2DC       aDjispecialmsgp
 0003:0E66B2F8       aXD
 0003:0E66B300       aYD
 0003:0E66B308       aKeyValueIsErro
 0003:0E66B354       aDjimsgspecailc
 0003:0E66B370       aDjiMsgSInvalid_27
 0003:0E66B3DC       aPspecailctrlCa
 0003:0E66B40C       aPspecailctrlCa_0
 0003:0E66B438       aPspecailctrlCa_1
 0003:0E66B468       aPspecailctrlCa_2
 0003:0E66B49C       aPspecailctrlCa_3
 0003:0E66B4D0       aPspecailctrlCa_4
 0003:0E66B500       aPspecailctrlCa_5
 0003:0E66B530       aPspecailctrlCa_6
 0003:0E66B560       aPspecailctrlCa_7
 0003:0E66B58C       aPspecailctrlCa_8
 0003:0E66B5C0       aPspecailctrlCa_9
 0003:0E66B5F0       aPspecailctrlCa_10
 0003:0E66B628       aPspecailctrlCa_11
 0003:0E66B664       aPspecailctrlCa_12
 0003:0E66B69C       aPspecailctrlCa_13
 0003:0E66B6D8       aPspecailctrlCa_14
 0003:0E66B70C       aPspecailctrlCa_15
 0003:0E66B73C       aPspecailctrlCa_16
 0003:0E66B76C       aPspecailctrlCa_17
 0003:0E66B79C       aPspecailctrlCa_18
 0003:0E66B7D0       aPspecailctrlCa_19
 0003:0E66B804       aPspecailctrlCa_20
 0003:0E66B834       aPspecailctrlRe
 0003:0E66B854       aPspecailctrlRe_0
 0003:0E66B874       aDjimsgdocaptur
 0003:0E66B884       aDjiMsgSSdStatu
 0003:0E66B8B8       aDjiMsgSStopPan
 0003:0E66B8DC       aDjiMsgSStopCon
 0003:0E66B900       aDjiMsgSStartCo
 0003:0E66B924       aDjiMsgSHdrIsBu
 0003:0E66B954       aBaoDbgDjiustus
 0003:0E66B994       aBaoDbgHdrOutpu
 0003:0E66B9C4       aBaoDbgHdrOutpu_0
 0003:0E66B9F4       aBaoDbgHdrOutpu_1
 0003:0E66BA30       aBaoDbgHdrDoesN
 0003:0E66BA78       aDjiMsgSInvalid_28
 0003:0E66BAA4       aDjiMsgSStart36
 0003:0E66BAC8       aDjiMsgSGimbalN
 0003:0E66BAEC       aDjiMsgSPanoMod
 0003:0E66BB0C       aDjimsgdorecord
 0003:0E66BB20       aDjiMsgSInvalid_29
 0003:0E66BB4C       aDjimsgdorecord_0
 0003:0E66BB5C       aDjiMsgS08xMess_1
 0003:0E66BB8C       aDjiMsgSStopRec
 0003:0E66BBAC       aDjiMsgS08xMess_2
 0003:0E66BBDC       aDjiMsgSStartRe
 0003:0E66BC00       aDjimsgheartbea_0
 0003:0E66BC10       aDjimsgvirtualk_2
 0003:0E66BC2C       aDjiMsgSInvalid_30
 0003:0E66BC54       aMsghNotInPlayb
 0003:0E66BC80       aDjiMsgSUnsuppo
 0003:0E66BCB0       aDjimsgcamerawo
 0003:0E66BCC8       aDjiMsgSInvalid_31
 0003:0E66BCF4       aDjiMsgSSearchM_2
 0003:0E66BD24       aDjiMsgS08xMess_3
 0003:0E66BD5C       aDjiMsgSSwitchM
 0003:0E66BD8C       aDjiMsgS08xMess_4
 0003:0E66BDC4       aDjimsgsetusbsw
 0003:0E66BDD8       aDjiMsgSInvalid_32
 0003:0E66BE08       aDjiMsgSSwitchU
 0003:0E66BE2C       aDjimsggetusbsw
 0003:0E66BE40       aDjimsgcamerawo_0
 0003:0E66BE5C       aDjimsgphotosiz
 0003:0E66BE74       aDjiMsgSInvalid_33
 0003:0E66BE9C       aDjiMsgSInvalid_34
 0003:0E66BECC       aDjiMsgSSearchM_3
 0003:0E66BF08       aDjiMsgSSetDjiU
 0003:0E66BF34       aDjimsgphotosiz_0
 0003:0E66BF4C       aDjiMsgSGetDjiU_2
 0003:0E66BF78       aDjiMsgSSearchM_4
 0003:0E66BFA8       aDjimsgphotoqua
 0003:0E66BFC4       aDjiMsgSInvalid_35
 0003:0E66BFF0       aDjiMsgSSearchM_5
 0003:0E66C020       aDjiMsgSSetDjiU_0
 0003:0E66C054       aDjimsgphotoqua_0
 0003:0E66C070       aDjiMsgSGetDjiU_3
 0003:0E66C0A4       aDjiMsgSSearchM_6
 0003:0E66C0D8       aDjimsgphotosto
 0003:0E66C0F8       aDjiMsgSInvalid_36
 0003:0E66C120       aDjiMsgSSearchM_7
 0003:0E66C14C       aDjiMsgSSetDjiU_1
 0003:0E66C178       aDjimsgphotosto_0
 0003:0E66C198       aDjiMsgSGetDjiU_4
 0003:0E66C1C4       aDjiMsgSSearchM_8
 0003:0E66C1F4       aDjimsgvideofor
 0003:0E66C21C       aDjiMsgSInvalid_37
 0003:0E66C24C       aDjiustusersett_7
 0003:0E66C294       aDjiMsgSInvalid_38
 0003:0E66C2C8       aDjiMsgSInvalid_39
 0003:0E66C2FC       aDjiMsgSInvalid_40
 0003:0E66C328       aDjiMsgSInvalid_41
 0003:0E66C350       aDjiMsgSInvalid_42
 0003:0E66C380       aDjiMsgSSearchM_9
 0003:0E66C3C4       aDjiMsgSSearchM_10
 0003:0E66C3F8       aDjiMsgSSearchM_11
 0003:0E66C424       aDjiMsgSInvalid_43
 0003:0E66C454       aDjiMsgSSearchM_12
 0003:0E66C498       aDjiMsgSSetDjiU_2
 0003:0E66C4C4       aDjiMsgSSetDjiU_3
 0003:0E66C4F8       aDjiMsgSSetDjiU_4
 0003:0E66C540       aDjimsgvideofor_0
 0003:0E66C568       aDjiMsgSGetVide
 0003:0E66C590       aDjiMsgSGetFovU
 0003:0E66C5B0       aDjiMsgSGetVide_0
 0003:0E66C5DC       aDjiMsgSSearchM_13
 0003:0E66C614       aDjiMsgSSearchM_14
 0003:0E66C640       aDjiMsgSSearchM_15
 0003:0E66C674       aDjiMsgSSearchM_16
 0003:0E66C6AC       aDjimsgvideoqua
 0003:0E66C6C8       aDjiMsgSSetDjiU_5
 0003:0E66C6F8       aDjimsgvideoqua_0
 0003:0E66C714       aDjiMsgSGetDjiU_6
 0003:0E66C744       aDjiMsgSSearchM_17
 0003:0E66C770       aDjimsgvideosto
 0003:0E66C790       aDjiMsgSSetDjiU_6
 0003:0E66C7C4       aDjimsgvideosto_0
 0003:0E66C7E4       aDjiMsgSGetDjiU_7
 0003:0E66C818       aDjiMsgSSearchM_18
 0003:0E66C848       aDjimsgexpomode
 0003:0E66C864       aDjiMsgSInvalid_44
 0003:0E66C88C       aDjiMsgSSearchM_19
 0003:0E66C8B8       aDjiMsgSInvalid_45
 0003:0E66C8E4       aDjiMsgSSearchM_20
 0003:0E66C914       aDjiMsgSSetDjiU_7
 0003:0E66C940       aDjiMsgSSetDjiU_8
 0003:0E66C968       aDjimsgexpomode_0
 0003:0E66C984       aDjiMsgSSearchM_21
 0003:0E66C9B4       aDjiMsgSGetDjiU_8
 0003:0E66C9DC       aDjiMsgSSearchM_22
 0003:0E66CA0C       aDjimsgaemeters
 0003:0E66CA38       aDjiMsgSSetDjiU_9
 0003:0E66CA68       aDjimsgaemeterg
 0003:0E66CA94       aDjiMsgSGetDjiU_9
 0003:0E66CAC4       aDjiMsgSSearchM_23
 0003:0E66CAF4       aDjimsgaperture
 0003:0E66CB24       aDjiMsgSGetDjiU_10
 0003:0E66CB50       aDjiMsgSSearchM_24
 0003:0E66CB84       aDjimsgshutters
 0003:0E66CBB4       aDjiMsgSSearchM_25
 0003:0E66CBE4       aDjiMsgSSetDjiU_10
 0003:0E66CC14       aDjimsgshutters_0
 0003:0E66CC44       aDjiMsgSGetDjiU_11
 0003:0E66CC74       aDjiMsgSSearchM_26
 0003:0E66CCA8       aDjimsgisoset
 0003:0E66CCD4       aDjiMsgSInvalid_46
 0003:0E66CCFC       aDjiMsgSSearchM_27
 0003:0E66CD28       aDjiMsgSInvalid_47
 0003:0E66CD68       aDjiMsgSSetDjiU_11
 0003:0E66CD8C       aDjimsgisoget
 0003:0E66CDB4       aDjiMsgSGetDjiU_12
 0003:0E66CDD8       aDjiMsgSSearchM_28
 0003:0E66CE04       aDjimsgwbenvset
 0003:0E66CE18       aDjiMsgSInvalid_48
 0003:0E66CE40       aDjiMsgSSearchM_29
 0003:0E66CE6C       aDjiMsgSSetDjiU_12
 0003:0E66CE90       aDjimsgwbenvget
 0003:0E66CEA4       aDjiMsgSGetDjiU_13
 0003:0E66CEC8       aDjiMsgSSearchM_30
 0003:0E66CEF4       aDjiMsgSGetAuto
 0003:0E66CF20       aDjimsgexpobias
 0003:0E66CF4C       aDjiMsgSInvalid_49
 0003:0E66CF74       aDjiMsgSSearchM_31
 0003:0E66CFA0       aDjiMsgSSetDjiU_13
 0003:0E66CFC8       aDjimsgexpobias_0
 0003:0E66CFF4       aDjiMsgSGetDjiU_14
 0003:0E66D01C       aDjiMsgSSearchM_32
 0003:0E66D048       aDjimsgaemeterr
 0003:0E66D060       aDjiMsgSSetAeMe
 0003:0E66D08C       aDjimsgaemeterr_0
 0003:0E66D0A4       aDjiMsgSGetAeMe
 0003:0E66D0D0       aDjimsgzoomset
 0003:0E66D0E0       aDjiMsgSNotSupp_2
 0003:0E66D110       aDjiMsgSSetDzoo
 0003:0E66D130       aDjimsgzoomget
 0003:0E66D140       aDjimsgsharpene
 0003:0E66D158       aDjiMsgSSearchM_33
 0003:0E66D184       aDjiMsgSSetDjiU_14
 0003:0E66D1B0       aDjimsgsharpene_0
 0003:0E66D1C8       aDjiMsgSGetDjiU_15
 0003:0E66D1F4       aDjiMsgSSearchM_34
 0003:0E66D220       aDjimsgcontrast
 0003:0E66D238       aDjiMsgSSearchM_35
 0003:0E66D268       aDjiMsgSSetDjiU_15
 0003:0E66D294       aDjimsgcontrast_0
 0003:0E66D2AC       aDjiMsgSGetDjiU_16
 0003:0E66D2D8       aDjiMsgSSearchM_36
 0003:0E66D308       aDjimsgsaturati
 0003:0E66D320       aDjiMsgSSearchM_37
 0003:0E66D354       aDjiMsgSSetDjiU_16
 0003:0E66D380       aDjimsgsaturati_0
 0003:0E66D398       aDjiMsgSGetDjiU_17
 0003:0E66D3C4       aDjiMsgSSearchM_38
 0003:0E66D3F8       aDjimsghueset
 0003:0E66D40C       aDjiMsgSSearchM_39
 0003:0E66D438       aDjiMsgSSetDjiU_17
 0003:0E66D45C       aDjimsghueget
 0003:0E66D470       aDjiMsgSGetDjiU_18
 0003:0E66D494       aDjiMsgSSearchM_40
 0003:0E66D4C0       aDjimsgdigitale
 0003:0E66D4DC       aDjiMsgSInvalid_50
 0003:0E66D508       aDjiMsgSSearchM_41
 0003:0E66D538       aDjiMsgSSetDjiU_18
 0003:0E66D568       aDjimsgdigitale_0
 0003:0E66D584       aDjiMsgSGetDjiU_19
 0003:0E66D5B4       aDjiMsgSSearchM_42
 0003:0E66D5E8       aDjimsgantiflik
 0003:0E66D600       aDjiMsgSInvalid_51
 0003:0E66D630       aDjiMsgSSearchM_43
 0003:0E66D664       aDjiMsgSSetDjiU_19
 0003:0E66D690       aDjimsgantiflik_0
 0003:0E66D6A8       aDjiMsgSGetDjiU_20
 0003:0E66D6D4       aDjiMsgSSearchM_44
 0003:0E66D704       aDjimsgmulticap
 0003:0E66D720       aDjiMsgSSetDjiU_20
 0003:0E66D750       aDjimsgmulticap_0
 0003:0E66D76C       aDjiMsgSGetDjiU_21
 0003:0E66D79C       aDjimsgconticap
 0003:0E66D7BC       aDjiMsgSInvalid_52
 0003:0E66D7E4       aDjiMsgSInvalid_53
 0003:0E66D80C       aDjiMsgSBeyondC
 0003:0E66D830       aDjiMsgSSetDjiU_21
 0003:0E66D85C       aDjimsgconticap_0
 0003:0E66D878       aDjiMsgSGetDjiU_22
 0003:0E66D8A4       aDjimsghdmioutp
 0003:0E66D8C4       aDjiMsgSInvalid_54
 0003:0E66D8F0       aDjiMsgSSearchM_45
 0003:0E66D920       aDjiMsgSSetDjiU_22
 0003:0E66D94C       aDjiMsgSReconne
 0003:0E66D970       aDjimsghdmioutp_0
 0003:0E66D990       aDjiMsgSGetDjiU_23
 0003:0E66D9BC       aDjiMsgSSearchM_46
 0003:0E66D9EC       aDjimsgquickvie
 0003:0E66DA08       aDjiMsgSSetDjiU_23
 0003:0E66DA38       aDjimsgquickvie_0
 0003:0E66DA54       aDjiMsgSGetDjiU_24
 0003:0E66DA84       aDjimsgcamerati
 0003:0E66DA98       aDjimsgcamerati_0
 0003:0E66DAAC       aDjiMsgSGetRtcT
 0003:0E66DAD0       aDjimsgcameragp
 0003:0E66DAE4       aDjiMsgSSetHdit
 0003:0E66DB08       aDjimsgcameragp_0
 0003:0E66DB1C       aDjiMsgSGetHdit
 0003:0E66DB40       aDjimsgdisconst
 0003:0E66DB5C       aDjiMsgSInvalid_55
 0003:0E66DB88       aDjiMsgSInvalid_56
 0003:0E66DBB8       aDjiMsgSSetHear
 0003:0E66DBE8       aDjiMsgSSetDjiU_24
 0003:0E66DC18       aDjimsgdisconst_0
 0003:0E66DC34       aDjiMsgSSearchM_47
 0003:0E66DC64       aDjimsgfileinde
 0003:0E66DC80       aDjiMsgSSetDjiU_25
 0003:0E66DCA4       aDjimsgfileinde_0
 0003:0E66DCC0       aDjiMsgSGetDjiU_25
 0003:0E66DCE4       aDjiMsgSSearchM_48
 0003:0E66DD14       aDjimsgaebcappa
 0003:0E66DD30       aDjiMsgSInvalid_57
 0003:0E66DD58       aDjiMsgSSearchM_49
 0003:0E66DD84       aDjiMsgSSearchM_50
 0003:0E66DDB4       aDjiMsgSSetDjiU_26
 0003:0E66DDE0       aDjimsgaebcappa_0
 0003:0E66DDFC       aDjiMsgSGetDjiU_26
 0003:0E66DE28       aDjiMsgSSearchM_51
 0003:0E66DE54       aDjiMsgSSearchM_52
 0003:0E66DE80       aDjimsghistogra_0
 0003:0E66DE98       aDjiMsgSSetDjiU_27
 0003:0E66DEC4       aDjimsghistogra_1
 0003:0E66DEDC       aDjiMsgSGetDjiU_27
 0003:0E66DF08       aDjimsgvideosub
 0003:0E66DF28       aDjiMsgSSetDjiU_28
 0003:0E66DF54       aDjimsgvideosub_0
 0003:0E66DF74       aDjiMsgSGetDjiU_28
 0003:0E66DFA0       aDjimsgvideosub_1
 0003:0E66DFBC       aDjiMsgSInvalid_58
 0003:0E66DFE8       aDjiMsgSInvalid_59
 0003:0E66E014       aDjiMsgSSetSubt
 0003:0E66E03C       aDjimsgvideosta
 0003:0E66E05C       aDjiMsgSGetVide_1
 0003:0E66E084       aDjiMsgSSetVide
 0003:0E66E0AC       aDjiMsgSParaErr
 0003:0E66E0CC       aDjiMsgSDjiustu
 0003:0E66E0F8       aSetPalNtscOk
 0003:0E66E108       aDjimsgvideosta_0
 0003:0E66E120       aDjimsgaelockst
 0003:0E66E138       aAeLockSetD0Unl
 0003:0E66E15C       aDjimsgaelockst_0
 0003:0E66E174       aAeLockGetD0Unl
 0003:0E66E198       aDjimsgcapturet
 0003:0E66E1B0       aDjiMsgSInvalid_60
 0003:0E66E1E4       aDjiMsgSSetCapt
 0003:0E66E21C       aDjimsgcapturet_0
 0003:0E66E234       aDjiMsgSGetCapt
 0003:0E66E260       aDjimsgsystemst
 0003:0E66E278       aDjimsgpanorama
 0003:0E66E294       aDjiMsgSInvalid_61
 0003:0E66E2C4       aDjiMsgSSetDjiU_29
 0003:0E66E2F0       aDjimsgpanorama_0
 0003:0E66E30C       aDjiMsgSGetPano
 0003:0E66E334       aDjimsgsdinfoge
 0003:0E66E344       aDjiMsgSGetSdPa
 0003:0E66E368       aDjimsgrecordse
 0003:0E66E388       aDjimsgvideocli
 0003:0E66E3A0       aDjiMsgSGetVide_2
 0003:0E66E3C4       aDjimsgfsinfoge
 0003:0E66E3D4       aDjimsgxcodectr
 0003:0E66E3E4       aMsghNotInXcode
 0003:0E66E410       aDjiMsgSXcodeCa
 0003:0E66E438       aDjiMsgSExit
 0003:0E66E44C       aDjimsgsddoform
 0003:0E66E460       aDjiMsgSFormatS
 0003:0E66E480       aDjimsgsettings
 0003:0E66E494       aDjiMsgSInvalid_62
 0003:0E66E4BC       aDjiMsgSSearchM_53
 0003:0E66E4E8       aDjiMsgSSaveUse
 0003:0E66E518       aDjimsgsettings_0
 0003:0E66E52C       aLoadUserDefula
 0003:0E66E54C       aDjiMsgSLoadUse
 0003:0E66E57C       aDjimsgfiledele
 0003:0E66E594       aDjimsgvideopla
 0003:0E66E5B0       aDjiMsgSInvalid_63
 0003:0E66E5E0       aDjimsgvideoada
 0003:0E66E5FC       aDjiMsgSInvalid_64
 0003:0E66E624       aDjiMsgSSetAdap
 0003:0E66E64C       aDjimsgvideoada_0
 0003:0E66E668       aDjiMsgSGetAdap
 0003:0E66E690       aDjimsgawbmeter
 0003:0E66E6A8       aDjiMsgSSetAwbM
 0003:0E66E6D4       aDjimsgawbmeter_0
 0003:0E66E6EC       aDjiMsgSGetAwbM
 0003:0E66E718       aDjimsgtracking
 0003:0E66E73C       aDjiMsgSGetOpMo
 0003:0E66E75C       aDjiMsgSSetTrac
 0003:0E66E784       aDjimsgtracking_0
 0003:0E66E79C       aDjimsgmgearshu
 0003:0E66E7B8       aDjimsgthumbnai
 0003:0E66E7D8       aDjiMsgSInvalid_65
 0003:0E66E804       aDjimsgtelectrl
 0003:0E66E820       aDjiMsgSInvalid_66
 0003:0E66E84C       aDjiMsgSSetCode
 0003:0E66E874       aDoubleClick
 0003:0E66E884       aDjiMsgSUnsuppo_0
 0003:0E66E8B4       aDjiMsgSSetCode_0
 0003:0E66E8DC       aDjiMsgSUnsuppo_1
 0003:0E66E910       aDjiMsgSUnsuppo_2
 0003:0E66E938       aDjimsgpbzoomct
 0003:0E66E950       aDjimsgpbpicdra
 0003:0E66E96C       aDjimsghditosds
 0003:0E66E980       aDjimsghomedata
 0003:0E66E994       aDjimsggimbalos
 0003:0E66E9A8       aDjiMsgSGetPrev
 0003:0E66E9D4       aDjiMsgSSetGimb
 0003:0E66E9F8       aDjiMsgSUPregim
 0003:0E66EA40       aDjimsgrcrtcsyn
 0003:0E66EA58       aDjiMsgSRtcTime
 0003:0E66EA78       aDjimsgauthoriz
 0003:0E66EA94       aDjiMsgSSetAuth
 0003:0E66EABC       aDjiMsgSUpdateA
 0003:0E66EAE4       aDjiMsgSMacIsSa
 0003:0E66EB08       aDjimsgtransdel
 0003:0E66EB18       aCal
 0003:0E66EB40       aPath_0
 0003:0E66EB68       aScriptIsS
 0003:0E66EB78       aCalErrorRetD
 0003:0E66EB8C       aCalOkRetD
 0003:0E66EBA0       aCDjiBBpcTxt
 0003:0E66EBB4       aCDjiDBpcTxt
 0003:0E66EBC8       aCDjiVig4000Txt
 0003:0E66EBDC       aCDjiVig4096Txt
 0003:0E66EBF0       aCDjiWbHTxt
 0003:0E66EC00       aCDjiWbLTxt
 0003:0E66EC10       aRqstdataD
 0003:0E66EC20       aDjiMsgOperatio
 0003:0E66EC58       aDjiMsgCanNotGe
 0003:0E66ECA8       aDjiMsgDjicheck
 0003:0E66ECE4       aDjiMsgDjicheck_0
 0003:0E66ED1C       aDjiMsgCleanSig
 0003:0E66ED38       aDjiMsgVigmaxra
 0003:0E66ED6C       aDjiMsgSaveCali
 0003:0E66ED94       aDjiMsgDjimsgif
 0003:0E66EDC8       aDjiMsgDjimsgif_0
 0003:0E66EDFC       aDjiMsgProducts
 0003:0E66EE20       aDjiMsgBpcCalEr
 0003:0E66EE38       aDjiMsgVigCalEr
 0003:0E66EE50       aDjiMsgWbCalErr
 0003:0E66EE68       aDjiMsgCaliStat
 0003:0E66EE84       aDjimsgauthorle
 0003:0E66EE9C       aDjiMsgSInvalid_67
 0003:0E66EEC4       aDjimsgseqnumcr
 0003:0E66EED8       aDjimsgseqnumeq
 0003:0E66EEE8       aDjiMsgSTakeMut_0
 0003:0E66EF28       aDjiMsgSSearchI
 0003:0E66EF74       aDjiMsgSQueryMu
 0003:0E66EF94       aDjiMsgSPreClea
 0003:0E66EFBC       aDjiMsgSPreClea_0
 0003:0E66EFE4       aDjimsgseqnumdq
 0003:0E66EFF4       aDjiMsgSSearchV
 0003:0E66F040       aDjimsgseqnumbu
 0003:0E66F054       aDjiMsgSCreateM
 0003:0E66F07C       aDjimsgrcntmode
 0003:0E66F094       aDjiMsgSRecentB
 0003:0E66F0BC       aDjiMsgSRecentB_0
 0003:0E66F0E8       aDjiMsgSSequenc
 0003:0E66F114       aDjiMsgRecentMo
 0003:0E66F134       aDjiMsg
 0003:0E66F168       aDjiMsgNull
 0003:0E66F178       aDjiMsgCmdset0x
 0003:0E66F1AC       aDjimsgipccmdin
 0003:0E66F1C0       aDjiMsgSInitIpc
 0003:0E66F1F0       aDjiMsgSIpcQueu
 0003:0E66F214       aDjimsgipccmdre
 0003:0E66F228       aDjiMsgSInputEr
 0003:0E66F244       aDjimsgchanneli
 0003:0E66F258       aDjiMsgSInitIpc_0
 0003:0E66F288       aDjiMsgSInvalid_68
 0003:0E66F2C8       aDjiMsgSConfigU
 0003:0E66F2EC       aDjimsgpktlogic
 0003:0E66F304       aDjiMsgSReceive
 0003:0E66F344       aDjiMsgSRouteEr
 0003:0E66F37C       aDjiMsgSProtoca
 0003:0E66F3D4       aDjiMsgSEncrypt
 0003:0E66F428       aDjimsgpktassem
 0003:0E66F43C       aDjiMsgSInvalid_69
 0003:0E66F464       aDjiMsgSInvalid_70
 0003:0E66F49C       aDjiMsgSInvalid_71
 0003:0E66F4C4       aDjiMsgSInvalid_72
 0003:0E66F4F0       aDjiMsgSInvalid_73
 0003:0E66F520       aDjiMsgSInvalid_74
 0003:0E66F554       aDjiMsgSInvalid_75
 0003:0E66F58C       aDjiMsgSInvalid_76
 0003:0E66F5C0       aDjiMsgSInvalid_77
 0003:0E66F5F4       aDjiMsgSInvalid_78
 0003:0E66F628       aDjiMsgSInvalid_79
 0003:0E66F64C       aDjimsgpktpiece
 0003:0E66F660       aDjiMsgSInvalid_80
 0003:0E66F68C       aDjiMsgSInvalid_81
 0003:0E66F6B8       aDjiMsgSMutexTa
 0003:0E66F6E8       aDjiMsgSEnqueue
 0003:0E66F714       aDjimsgpkepiece
 0003:0E66F728       aDjiMsgSInvalid_82
 0003:0E66F760       aDjiMsgPacketSt
 0003:0E66F780       aDjiMsgReceiveT
 0003:0E66F7A8       aDjiMsgValidPac
 0003:0E66F7D8       aDjiMsgValidByt
 0003:0E66F808       aDjiMsgEnqueueH
 0003:0E66F838       aDjiMsgEnqueueH_0
 0003:0E66F868       aDjiMsgEnqueueH_1
 0003:0E66F898       aDjiMsgEnqueueF
 0003:0E66F8C8       aDjiMsgResendEn
 0003:0E66F8F8       aDjiMsgVerifyEr
 0003:0E66F928       aDjiMsgEnqueueH_2
 0003:0E66F958       aDjiMsgEnqueueH_3
 0003:0E66F988       aDjiMsgEnqueueH_4
 0003:0E66F9B8       aDjiMsgEnqueueH_5
 0003:0E66F9E8       aDjiMsgEnqueueF_0
 0003:0E66FA18       aDjiMsgResendEn_0
 0003:0E66FA48       aDjiMsgHandleTa
 0003:0E66FA70       aDjiMsgDequeueH
 0003:0E66FAA0       aDjiMsgDequeueH_0
 0003:0E66FAD0       aDjiMsgDequeueH_1
 0003:0E66FB00       aDjiMsgEnqueueS
 0003:0E66FB30       aDjiMsgDetectH1
 0003:0E66FB60       aDjiMsgDetectH1_0
 0003:0E66FB90       aDjiMsgDetectH2
 0003:0E66FBC0       aDjiMsgDetectH2_0
 0003:0E66FBF0       aDjiMsgDetectH3
 0003:0E66FC20       aDjiMsgDetectH3_0
 0003:0E66FC50       aDjiMsgExecuteR
 0003:0E66FC80       aDjiMsgExecuteR_0
 0003:0E66FCB0       aDjiMsgDequeueH_2
 0003:0E66FCE0       aDjiMsgDequeueH_3
 0003:0E66FD10       aDjiMsgDequeueH_4
 0003:0E66FD40       aDjiMsgEnqueueS_0
 0003:0E66FD70       aDjiMsgSendTask
 0003:0E66FD98       aDjiMsgDequeueS
 0003:0E66FDC8       aDjiMsgSendPack
 0003:0E66FDF8       aDjiMsgSendByte
 0003:0E66FE28       aDjiMsgDetectRe
 0003:0E66FE58       aDjiMsgDetectRe_0
 0003:0E66FE88       aDjiMsgDetectFo
 0003:0E66FEB8       aDjiMsgDetectIn
 0003:0E66FEE8       aDjiMsgDequeueS_0
 0003:0E66FF18       aDjiMsgSendPack_0
 0003:0E66FF48       aDjiMsgImportPa
 0003:0E66FF7C       aDjiMsgExportPa
 0003:0E66FFB0       aDjiMsgImportPa_0
 0003:0E66FFE4       aDjiMsgExportPa_0
 0003:0E670018       aDjiMsgCmd0x02x
 0003:0E670048       aDjimsgpktgener
 0003:0E670064       aDjiMsgSSendQue
 0003:0E67008C       aDjimsgpktsendi
 0003:0E6700A0       aDjiMsgSNullPoi_15
 0003:0E6700C4       aDjiMsgSInvalid_83
 0003:0E6700F0       aDjiMsgSPacketG
 0003:0E670114       aDjiMsgSEnqueue_0
 0003:0E67013C       aDjiMsgSEnqueue_1
 0003:0E670188       aDjiMsgSWaitRes
 0003:0E6701D0       aDjimsgrecvrequ
 0003:0E6701E8       aDjiMsgSSendQue_0
 0003:0E670210       aDjimsghandledi
 0003:0E670228       aDjiMsgSHq1AndH
 0003:0E67024C       aDjimsgflagctrl
 0003:0E67025C       aDjiMsgSInvalid_84
 0003:0E67028C       aDjiMsgSInvalid_85
 0003:0E6702B8       aDjimsgrecvuser
 0003:0E6702DC       aDjiMsgSSendQue_1
 0003:0E670304       aDjiMsgSInvalid_86
 0003:0E670330       aDjiMsgSSetBand
 0003:0E670354       aDjimsgadjustta
 0003:0E670368       aDjiMsgSExitDow
 0003:0E670390       aDjiMsgExitDown
 0003:0E6703B8       aDjimsgrecvtask
 0003:0E6703C8       aDjiMsgSWaitPac
 0003:0E6703F8       aDjiMsgSAssembl
 0003:0E670420       aDjiMsgSLogical
 0003:0E670450       aDjiMsg_0
 0003:0E670488       aDjiMsgSReceive_0
 0003:0E6704B4       aDjiMsgSHandleQ
 0003:0E6704E8       aDjiMsgSSendQue_2
 0003:0E67051C       aDjimsgsendtask
 0003:0E67052C       aDjiMsgSGetPiec
 0003:0E67054C       aDjiMsgSSendAPa
 0003:0E67056C       aDjiMsgSPacketR
 0003:0E670590       aDjiMsgSSendMes
 0003:0E6705CC       aDjimsghandleta
 0003:0E6705E0       aDjiMsgSInvalid_87
 0003:0E67060C       aDjiMsgSReceive_1
 0003:0E670630       aDjiMsgSHandleA
 0003:0E670660       aDjiMsgSHandleS
 0003:0E67067C       aDjiMsgSRequest
 0003:0E6706B8       aDjiMsgSHandleE
 0003:0E6706E8       aDjiMsgSRespond_0
 0003:0E670724       aDjimsgrecovery
 0003:0E670744       aDjiMsgSInvalid_88
 0003:0E670770       aDjimsgrecovery_0
 0003:0E670788       aDjimsghandle1t
 0003:0E67079C       aDjimsghandle2t
 0003:0E6707B0       aDjiMsgSTermina
 0003:0E6707EC       aDjiMsgSDeleteH
 0003:0E670824       aDjiMsgSReInitH
 0003:0E67085C       aDjiMsgSReInitH_0
 0003:0E670890       aDjiMsgHandleQu
 0003:0E6708B0       aDjiMsgHq1Statu
 0003:0E6708E0       aDjiMsgHq2Statu
 0003:0E670910       aDjiMsgHq1Recov
 0003:0E670940       aDjiMsgHq2Recov
 0003:0E670970       aDjiMsgHq1UsedR
 0003:0E6709A8       aDjiMsgHq2UsedR
 0003:0E6709E0       aDjiMsgHq3UsedR
 0003:0E670A18       aDjiMsgSendQueu
 0003:0E670A50       aDjiMsgHq1Curre
 0003:0E670A88       aDjiMsgHq2Curre
 0003:0E670AC0       aDjiMsgHq3Curre
 0003:0E670AF8       aDjiMsgHq1Recov_0
 0003:0E670B34       aDjiMsgHq2Recov_0
 0003:0E670B70       aDjimsgsettings_1
 0003:0E670B84       aDjiMsgSMutexCr
 0003:0E670BA8       aDjimsgmutexini
 0003:0E670BB8       aDjiMsgSHandleQ_0
 0003:0E670BE4       aDjiMsgSHpHandl
 0003:0E670C14       aDjiMsgSHrHandl
 0003:0E670C44       aDjiMsgSSendQue_3
 0003:0E670C70       aDjiMsgSSequenc_0
 0003:0E670CA0       aDjiMsgSOperati
 0003:0E670CCC       aDjimsgqueueini
 0003:0E670CDC       aDjiMsgSHandleQ_1
 0003:0E670D04       aDjiMsgSHandleQ_2
 0003:0E670D2C       aDjiMsgSHandleQ_3
 0003:0E670D54       aDjiMsgSSendQue_4
 0003:0E670D78       aDjimsgrecvtask_0
 0003:0E670D8C       aDjimsgrecvcom1
 0003:0E670DA0       aDjimsgrecvcom2
 0003:0E670DB4       aDjimsgrecvcom3
 0003:0E670DC8       aDjimsgrecvipc1
 0003:0E670DDC       aDjiMsgSReceive_2
 0003:0E670E10       aDjimsgtaskinit
 0003:0E670E20       aDjimsgadjustta_0
 0003:0E670E34       aDjiMsgSAjustTa
 0003:0E670E58       aDjimsgsendtask_0
 0003:0E670E68       aDjiMsgSTransmi
 0003:0E670E90       aDjiMsgSCammand
 0003:0E670EC0       aDjiMsgSCammand_0
 0003:0E670EF4       aDjimsghandle3t
 0003:0E670F08       aDjiMsgSCammand_1
 0003:0E670F3C       aDjimsginit
 0003:0E670F48       aDjiMsgSMassage
 0003:0E670F74       aDjiMsgSMessage
 0003:0E670FA0       aDjiMsgSSequenc_1
 0003:0E670FC8       aDjiMsgSMassage_0
 0003:0E670FF0       aDjimsgframerat
 0003:0E67100C       aDjiCcOk
 0003:0E671018       aDjiCcAck
 0003:0E671024       aDjiCcInvalidCm
 0003:0E671038       aDjiCcTimeout
 0003:0E671048       aDjiCcOutOfMemo
 0003:0E671060       aDjiCcInvalidPa
 0003:0E671078       aDjiCcInvalidSt
 0003:0E671090       aDjiCcTimeNotSy
 0003:0E6710A8       aDjiCcSetParamF
 0003:0E6710C0       aDjiCcGetParamF
 0003:0E6710D8       aDjiCcSdcardNot
 0003:0E6710F4       aDjiCcSdcardFul
 0003:0E671108       aDjiCcSdcardErr
 0003:0E67111C       aDjiCcSensorErr
 0003:0E671130       aDjiCcCriticalE
 0003:0E671144       aDjiCcUnspecifi
 0003:0E671158       aDjiCcPrarmLenT
 0003:0E671174       aDjiCcFwSeqnumN
 0003:0E671194       aDjiCcFwInvalid
 0003:0E6711B0       aDjiCcFwCheckEr
 0003:0E6711C4       aDjiCcFwFlashEr
 0003:0E6711E0       aDjiCcFwFlashPr
 0003:0E6711FC       aDjiCcFwUpdateS
 0003:0E671218       aDjiCcFwInvalid_0
 0003:0E671230       aDjiCcFwFlashEr_0
 0003:0E671248       aInvalidCcode0x
 0003:0E671260       aDjiMsgCcodeS
 0003:0E671274       aDjimsgtestprin
 0003:0E67128C       aDjiMsgSNullPoi_16
 0003:0E6712B4       aCamera
 0003:0E6712BC       aTerminl
 0003:0E6712C4       aMaincon
 0003:0E6712CC       aGimbal
 0003:0E6712D4       aCenter
 0003:0E6712DC       aTelecon
 0003:0E6712E4       aWifi
 0003:0E6712EC       aDm368A
 0003:0E6712F4       a1765A
 0003:0E6712FC       aPc
 0003:0E671304       aBattery
 0003:0E67130C       aEsc
 0003:0E671314       aDm368G
 0003:0E67131C       a1765G
 0003:0E671324       a68013A
 0003:0E67132C       a68013G
 0003:0E671334       aOneEye
 0003:0E67133C       aTwoEye
 0003:0E671344       aFpgaA
 0003:0E67134C       aFpgaG
 0003:0E671354       aSim
 0003:0E67135C       aBase
 0003:0E671364       aAirborn
 0003:0E67136C       aTest
 0003:0E671374       aCommon
 0003:0E67137C       aSpecial
 0003:0E671384       aRemocon
 0003:0E67138C       aDm368
 0003:0E671394       aHdit
 0003:0E67139C       aEye
 0003:0E6713A4       aDjiMsgSSCmdS0x
 0003:0E6713D0       aDjiMsgSSCmdS0x_0
 0003:0E6713FC       aDjimsgtestcmdu
 0003:0E671410       aDjiMsgSArgnumU
 0003:0E671430       aDjiMsgSRqstdlU
 0003:0E671450       aDjiMsgReuqestM
 0003:0E67146C       aDjiMsg_1
 0003:0E671494       aDjiMsgRqstdlD
 0003:0E6714AC       aDjiMsgData02d0
 0003:0E6714D0       aDjiMsgSCommand
 0003:0E671514       aDjiMsgRespondM
 0003:0E671534       aDjiMsgRspdlD
 0003:0E67154C       aDjimsgtestcmds
 0003:0E67155C       aDjiMsgSHandleQ_4
 0003:0E671590       aDjimsgtestpktg
 0003:0E6715A4       aDjiMsgGenerate
 0003:0E6715D4       aDjiMsgSendDevi
 0003:0E671610       aDjimsgtestflag
 0003:0E671624       aDjiMsgSFlagOk
 0003:0E67163C       aEnable
 0003:0E671644       aDisable
 0003:0E67164C       aDjimsgtestleve
 0003:0E671660       aDjimsgtestrout
 0003:0E671674       aDjimsgtestvide
 0003:0E671690       aDjiMsgSSetVide_0
 0003:0E6716C0       aCurrentVideoSt
 0003:0E6716DC       aCurrentVideoSt_0
 0003:0E6716FC       aDjimsgtestpinc
 0003:0E671710       aDjiMsgPinCmdse
 0003:0E671744       aDjimsgteststag
 0003:0E671758       aDjiMsgSInvalid_89
 0003:0E671784       aDjiMsgSetStage
 0003:0E6717A8       aDjiMsgCurrentO
 0003:0E6717D0       aDjiMsgCurrentO_0
 0003:0E6717F4       aDjiMsgCurrentO_1
 0003:0E671818       aDjiMsgCurrentO_2
 0003:0E671840       aDjiMsgCurrentO_3
 0003:0E671868       aDjiMsgCurrentO_4
 0003:0E671890       aDjiMsgCurrentO_5
 0003:0E6718B8       aDjiMsgCurrentO_6
 0003:0E6718E0       aDjiMsgCurrentO_7
 0003:0E671908       aDjiMsgCurrentO_8
 0003:0E671930       aDjiMsgCameraSt
 0003:0E671954       aDjiMsg_2
 0003:0E67197C       aDjiMsgComunica
 0003:0E6719A0       aDjiMsgUsbConne
 0003:0E6719BC       aDjiMsgTimeSync
 0003:0E6719DC       aDjiMsgDoingSin
 0003:0E6719FC       aDjiMsgDoingMul
 0003:0E671A1C       aDjiMsgRecordin
 0003:0E671A34       aDjiMsgFirmware
 0003:0E671A54       aDjiMsgNonCriti
 0003:0E671A74       aDjiMsgCritical
 0003:0E671A90       aDjiMsgSdCardEr
 0003:0E671AAC       aDjiMsgFirmware_0
 0003:0E671AD0       aDjiMsgSdCardIn
 0003:0E671AEC       aDjiMsgSensorEr
 0003:0E671B04       aDjiMsgOverheat
 0003:0E671B18       aDjiMsgDoingCon
 0003:0E671B38       aDjiMsgDoingRaw
 0003:0E671B58       aDjiMsgDoing360
 0003:0E671B78       aDjiMsgDoingHdr
 0003:0E671B98       aDjiMsgStarting
 0003:0E671BB4       aDjiMsgStopping
 0003:0E671BD0       aDjiMsgNotAvail
 0003:0E671BF8       aDjiMsgStorageB
 0003:0E671C10       aDjiMsgSettingC
 0003:0E671C34       aDjiMsgSettingR
 0003:0E671C54       aDjiMsgSystemBo
 0003:0E671C70       aDjiMsgDownload
 0003:0E671C8C       aDjiMsgTranscod
 0003:0E671CA8       aDjimsgtestinfo
 0003:0E671CBC       aDjiMsgUnsuppor
 0003:0E671CD8       aDjimsgtestinfo_0
 0003:0E671CEC       aDjiMsgClearInf
 0003:0E671D08       aDjimsgtestcams
 0003:0E671D20       aDjiMsgSInvalid_90
 0003:0E671D50       aDjiMsgSCameraS
 0003:0E671D78       aClear
 0003:0E671D80       aDjimsgtestdoca
 0003:0E671D94       aDjimsgtestdore
 0003:0E671DA8       aDjimsgtestwork
 0003:0E671DC0       aDjimsgteststru
 0003:0E671DD8       aDjiMsgSCheckSt
 0003:0E671E18       aDjiMsgCheckStr
 0003:0E671E40       aDjimsgtestunit
 0003:0E671E58       aDjiMsgCmd0x02x_0
 0003:0E671E70       aDjiMsgSInvalid_91
 0003:0E671E9C       aDjiMsgDataLenD
 0003:0E671EB4       aDjiMsgDataDD
 0003:0E671ECC       aDjiMsgRespondM_0
 0003:0E671EE8       aDjiMsgDatalenD
 0003:0E671F00       aDjiadcvoltageg
 0003:0E671F14       aDjiMisSInvalid
 0003:0E671F40       aDjiMisSCollect
 0003:0E671F68       aDjiadcuserstri
 0003:0E671F7C       aDjiMisSInvalid_0
 0003:0E671FA8       aDjiadcscaninfo
 0003:0E671FBC       aDjiMisSGetAdcV
 0003:0E671FF0       aDjiMisSGetUser
 0003:0E672030       aDjihardwarever
 0003:0E672054       aDjiMisSGetHard
 0003:0E67207C       aDjiMisSGetHard_0
 0003:0E6720AC       aFc350
 0003:0E6720B4       aVerD
 0003:0E6720BC       aVerB
 0003:0E6720C4       aDjiMisSInvalid_1
 0003:0E672118       aSS_2
 0003:0E672120       aDjihardwarever_0
 0003:0E672138       aDjiMisSVersion
 0003:0E672168       aDjifirmwarever
 0003:0E672180       aV01325432_0
 0003:0E67218C       aDjimodelnamear
 0003:0E6721A0       aDjiMisSNullPoi
 0003:0E6721C8       aDjiMisSGetMeta
 0003:0E6721F4       aDjimodelnamear_0
 0003:0E672208       aDjiloaderversi
 0003:0E67221C       aDjiMisSGetMeta_0
 0003:0E67223C       aDjiversionget
 0003:0E67224C       aDjiMisSInputVe
 0003:0E672280       aDjiMisSGetFirm
 0003:0E6722B4       aDjiMisSGetHard_1
 0003:0E6722E8       aDjiMisSUnsuppo
 0003:0E672318       aDjisystemcalib
 0003:0E672334       aDjiMisSGetMnaF
 0003:0E672350       aDjiselftestres
 0003:0E672368       aDjiMisSSelfTes
 0003:0E6723A8       aDjireboot
 0003:0E6723B4       aDjiMisSWdtRebo
 0003:0E6723D4       aDjiMisSWatchDo
 0003:0E67241C       aDjiMisSSoftReb
 0003:0E67243C       aDjiMisSUnsuppo_0
 0003:0E67246C       aDjiMisSWaitFor
 0003:0E672490       aDjiromdatamisc
 0003:0E6724A4       aDjiMisSInputEr
 0003:0E6724DC       aDjiMisSInputDa
 0003:0E672514       aDjiMisSDataIsT
 0003:0E67253C       aDjiMisSTakeMis
 0003:0E672574       aDjiMisSWriteNa
 0003:0E6725C4       aDjiromdatamisc_0
 0003:0E6725D8       aDjiMisSDataInv
 0003:0E6725FC       aDjiMisReadNand
 0003:0E67265C       aDjiMisDjirompr
 0003:0E6726A8       aDjiMisSaveHard
 0003:0E6726D8       aUUnknownWarmRe
 0003:0E6726F0       aUSoftReset
 0003:0E672700       aUWatchDogReset
 0003:0E672720       aUWatchDogReset_0
 0003:0E672744       aUCpuExceptionR
 0003:0E672760       aUDspAssertionR
 0003:0E67277C       aUTaskStackErro
 0003:0E672798       aUPowerOffReset
 0003:0E6727B0       aWakeUpReason
 0003:0E6727D8       aWakeUpByAlarm
 0003:0E6727EC       aWakeUpByPorLPi
 0003:0E672804       aWakeUpByPwcWku
 0003:0E672820       aWakeUpByPwcWku_0
 0003:0E67283C       aWakeUpByPwcWku_1
 0003:0E672858       aWakeUpByPwcWku_2
 0003:0E672874       aWakeUpByUnknow
 0003:0E6728B8       aResetReason
 0003:0E6728E0       aDjidspassertio
 0003:0E6728FC       aDjiMisSConfigD
 0003:0E672938       aDjiMisSRegiste
 0003:0E672974       aDjiromdatamisc_1
 0003:0E672988       aDjiMisSReadNan
 0003:0E6729D8       aDjiMisSMiscRom
 0003:0E672A18       aDjiMisSCreateM
 0003:0E672A50       aDjimiscinit
 0003:0E672A5C       aDjiMisSMiscIni
 0003:0E672A7C       aDjiMisSMiscIni_0
 0003:0E672A98       aDjirtcinit
 0003:0E672AA4       aDjiMisSRtcInit
 0003:0E672AC4       aSCurrentTime04
 0003:0E672AF8       aDjiMisSRtcInit_0
 0003:0E672B14       aDjilinuxrelate
 0003:0E672B30       aDjiMisSLinuxRe
 0003:0E672B60       aDjiMisSLinuxRe_0
 0003:0E672B8C       aDjireset68013
 0003:0E672B9C       aDjiMisSReset68
 0003:0E672BB8       aDjiMisSReset68_0
 0003:0E672BDC       aDjiMisSWait680
 0003:0E672C04       aDjiMisSReset68_1
 0003:0E672C24       aDjiMisSReset68_2
 0003:0E672C44       aDjiprevioussta
 0003:0E672C5C       aDjiMisSExitDow
 0003:0E672C84       aDjiMisSTryToEx
 0003:0E672CC8       aCSSS
 0003:0E672CD8       aMisc
 0003:0E672CE0       aCameralogcurLo
 0003:0E672CF4       aCameralogoldLo
 0003:0E672D08       aDjilog2sddetec
 0003:0E672D1C       aCS
 0003:0E672D24       a0x40003000Dji
 0003:0E672D34       aDjiMisSDetectL
 0003:0E672D78       aDjiMisSCameraA
 0003:0E672DB0       aDjilog2sd
 0003:0E672DCC       aFc300xVerC
 0003:0E672DDC       aFc300sVerB
 0003:0E672DF8       aFc300c
 0003:0E672E04       aFc350_1
 0003:0E672E58       aVerA
 0003:0E672E64       aVerB_0
 0003:0E672E70       aVerC
 0003:0E672E7C       aVerD_0
 0003:0E672E88       aVerE
 0003:0E672E94       aVerF
 0003:0E672EA0       aVerG
 0003:0E672EAC       aVerH
 0003:0E672EB5       aMicronMt29f2g0
 0003:0E672F18       aVideoControlTD
 0003:0E672F74       aButton
 0003:0E672F7C       aVirtualButtonT
 0003:0E67302C       aMode_3
 0003:0E673034       aVitualButtonTD
 0003:0E673058       aVitualButtonTD_0
 0003:0E673074       aDown
 0003:0E67307C       aVitualButtonTD_1
 0003:0E67309C       aLeft_0
 0003:0E6730A4       aVitualButtonTD_2
 0003:0E6730C4       aRight_0
 0003:0E6730CC       aVitualButtonTD_3
 0003:0E6730F0       aVitualButtonTD_4
 0003:0E67310C       aBack
 0003:0E673114       aVitualButtonTD_5
 0003:0E673134       aZoomin
 0003:0E67313C       aVitualButtonTD_6
 0003:0E67315C       aZoomout
 0003:0E673164       aVitualButtonTD_7
 0003:0E673184       aPrevpage
 0003:0E673190       aVitualButtonTD_8
 0003:0E6731B4       aNextpage
 0003:0E6731C0       aVitualButtonTD_9
 0003:0E6731E4       aCancel
 0003:0E6731EC       aVitualButtonTD_10
 0003:0E67320C       aEntermultidisp
 0003:0E67321C       aVitualButtonTD_11
 0003:0E673244       aTest_12
 0003:0E67324C       aSetFiledownloa
 0003:0E673268       aErrnoD
 0003:0E673274       aClearFromIniFi
 0003:0E67328C       aGFiledownloadi
 0003:0E6732A8       aDjifiledownloa
 0003:0E6732DC       aSaveIntoFileS
 0003:0E6732F0       aFileHasBeenDow
 0003:0E673320       aFileIsExsitInF
 0003:0E673344       aNewFileDownloa
 0003:0E673358       aGFiledownloadi_0
 0003:0E673398       aDjipberrorfile
 0003:0E6733B0       aDjiPlaybackSTa
 0003:0E6733D4       aDjipberrorfile_0
 0003:0E6733EC       aDjiPlaybackSFi
 0003:0E673420       aDjipbfilesendi
 0003:0E673438       aDjiPlaybackSFi_0
 0003:0E673468       aDjiPlaybackSOp
 0003:0E673494       aDjipbfilesendf
 0003:0E6734B0       aDjiPlaybackSFl
 0003:0E6734D0       aDjiPlaybackSSe
 0003:0E67351C       aDjipbfilesegme
 0003:0E673534       aDjiPlaybackSIp
 0003:0E673558       aDjiPlaybackSFi_1
 0003:0E673584       aDjiPlaybackSSe_0
 0003:0E6735D0       aDjiPlaybackSRe
 0003:0E6735F8       aDjiPlaybackSet
 0003:0E673620       aDjipbfilesendt
 0003:0E673638       aJpg
 0003:0E673640       aJpeg
 0003:0E673648       aDng
 0003:0E673650       aMov
 0003:0E673658       aMp4
 0003:0E673660       aDjiPlaybackSGe
 0003:0E673688       aDjipbfilerecvr
 0003:0E6736A4       aDjiPlaybackSFi_2
 0003:0E6736C8       aDjiPlaybackSFi_3
 0003:0E6736F4       aDjiPlaybackSSe_1
 0003:0E67373C       aDjiPlaybackSRe_0
 0003:0E673760       aDjipbfilesendw
 0003:0E673778       aDjiPlaybackSSe_2
 0003:0E6737AC       aDjiPlaybackSFl_0
 0003:0E6737E0       aDjipbfilereque
 0003:0E6737F4       aDjiPlaybackSUn
 0003:0E673828       aDjiPlaybackSRe_1
 0003:0E673854       aDjipbfilesendc
 0003:0E673868       aDjiPlaybackSCa
 0003:0E673894       aDjipbfilesendt_0
 0003:0E6738B0       aDjiPlaybackSFi_4
 0003:0E6738DC       aDjipbfilesegme_0
 0003:0E6738F4       aDjiPlaybackSRe_2
 0003:0E673930       aDjiPlaybackSSe_3
 0003:0E673960       aDjiPlaybackSRe_3
 0003:0E6739A0       aDjiPlaybackSRe_4
 0003:0E6739E4       aDjipbfiledownl
 0003:0E673A00       aDjiPlaybackSFi_5
 0003:0E673A3C       aDjiPlaybackSFi_6
 0003:0E673A80       aDjipbfilesend
 0003:0E673A90       aDjiPlaybackSFi_7
 0003:0E673ABC       aDjiPlaybackSOp_0
 0003:0E673AE0       aDjiPlaybackSRe_5
 0003:0E673B2C       aDjiPlaybackSFi_8
 0003:0E673B58       aDjiPlaybackSSt
 0003:0E673BA0       aDjiPlaybackSCu
 0003:0E673BCC       aDjiPlaybackSCl
 0003:0E673BF4       aDjiPlaybackSRe_7
 0003:0E673C30       aDjiPlaybackSSe_4
 0003:0E673C5C       aDjiPlaybackSRe_6
 0003:0E673C98       aDjiPlaybackSRe_8
 0003:0E673CD8       aDjiPlaybackSWa
 0003:0E673D10       aDjiPlaybackSFi_9
 0003:0E673D30       aDjidcfGetfilet
 0003:0E673D44       aDjiPlaybackPar
 0003:0E673D8C       aDjiplaybacksdi
 0003:0E673DAC       aDjiPlaybackSGe_0
 0003:0E673DD8       aDjiplaybacksde
 0003:0E673DF8       aDjipbsdactiont
 0003:0E673E10       aDjiPlaybackAmb
 0003:0E673E68       aDjiPlaybackDro
 0003:0E673EC8       aDjiPlaybackSdC_0
 0003:0E673EF4       aDjiPlaybackSho
 0003:0E673F40       aDjiPlaybackSdC_1
 0003:0E673F6C       aDjiPlaybackSdC_2
 0003:0E673F98       aDjidcfGetfilet_0
 0003:0E673FE0       aDjiPlaybackSdC
 0003:0E67400C       aScanTaskStart
 0003:0E67402C       aGPbquickdispst
 0003:0E674064       aAmbadcfGetfile
 0003:0E674098       aAmbafsFirstdir_0
 0003:0E6740D8       aScanTaskEnd
 0003:0E6740F4       aDjipbfiletypeg
 0003:0E674110       aDjiPlaybackSPa
 0003:0E674158       aDjiplaybackcal
 0003:0E67416C       aEnterInS
 0003:0E674180       aNotInPlaybackM
 0003:0E6741A8       aDjiPlaybackSAm
 0003:0E6741E4       aReceiveDjiPbMs
 0003:0E674238       aDjiPlaybackEnt
 0003:0E67425C       aDjiPlaybackSIn
 0003:0E674290       aDjiPlaybackSAm_0
 0003:0E6742D0       aReceiveDownloa
 0003:0E674300       aDjiPlaybackEnt_0
 0003:0E67433C       aDjiPlaybackSSe_5
 0003:0E67439C       aDjiPlaybackDji
 0003:0E6743C4       aSendAppMsgToPb
 0003:0E6743EC       aDjimsgpbmodesw
 0003:0E674404       aChangeModeByRc
 0003:0E674420       aDjimsgpbmodesw_0
 0003:0E674444       aDjimsgpbpagesw
 0003:0E67445C       aNumD
 0003:0E674468       aDjiplaybackpic
 0003:0E6744A4       aDjiPlaybackSIn_0
 0003:0E6744D0       aDjidrawvideore
 0003:0E6744E8       aDjiPlaybackSPa_0
 0003:0E67453C       aDjiPlaybackSDj
 0003:0E674594       a04d
 0003:0E67459C       aDjishowfiletyp_0
 0003:0E6745B0       aSdcardNotInser
 0003:0E6745D4       aDjishowfiletyp
 0003:0E6745F0       aDjiPlaybackSAm_1
 0003:0E674630       aFileSIsErrorPl
 0003:0E674658       aDjiPlaybackFil
 0003:0E674678       aDjiPlaybackSAm_2
 0003:0E6746B0       aFilenameSFilet
 0003:0E6746D0       aVideoTypeFileB
 0003:0E674718       aDjiPlaybackSDj_1
 0003:0E674750       aDjiPlaybackSDj_0
 0003:0E674794       aDjishowfiletyp_1
 0003:0E6747B0       aDjishowdeletei
 0003:0E6747CC       aDjiPlaybackSFi_10
 0003:0E674808       aDjicancleicons
 0003:0E674820       aDjithumbnaildi
 0003:0E674844       aDjiPlaybackAmb_0
 0003:0E674898       aThmdispDisplay
 0003:0E6748B8       aStartThmdispDi
 0003:0E6748FC       aCMiscThm
 0003:0E67490C       aThumbfilenameS
 0003:0E674920       aDjiPlaybackAmb_1
 0003:0E674990       aAmbafsFopenSEr
 0003:0E6749C0       aAmbafsFreadErr
 0003:0E6749F0       aAmbafsFseekErr
 0003:0E674A20       aAmbafsFcloseEr
 0003:0E674A50       aFilelistentryD
 0003:0E674A64       aYbase0xX
 0003:0E674A70       aUvbase0xX
 0003:0E674A7C       aAmbafsFsexecEr
 0003:0E674ABC       aDjiPlaybackSOp_1
 0003:0E674B00       aFileNotExistD
 0003:0E674B14       aParseMovErrorD
 0003:0E674B28       aParseExifError
 0003:0E674B40       aUnsupportedYuv
 0003:0E674B58       aEndThmdispDisp
 0003:0E674B80       aDjigetpagefirs
 0003:0E674BAC       aStartThmdispTh
 0003:0E674BEC       aEndThmdispThmd
 0003:0E674C28       aStartThmdispDj
 0003:0E674C64       aStartThmdispDj_0
 0003:0E674CA0       aEndThmdispDjid
 0003:0E674CD8       aEndThmdispDjid_0
 0003:0E674D10       aDjipicturedisp
 0003:0E674D2C       aDjiPlaybackNoS
 0003:0E674D70       aReceiveSingleF
 0003:0E674DAC       aDjiPlaybackSAm_3
 0003:0E674DE8       aDjiPlaybackSAm_4
 0003:0E674E24       aDjiPlaybackSAm_5
 0003:0E674E60       aDeleteFileSucc
 0003:0E674E84       aDjiPlaybackSDj_2
 0003:0E674ED0       aClearFileDownl
 0003:0E674F10       aReceiveVideoPl
 0003:0E674F44       aDjiPlaybackNot
 0003:0E674F78       aDjiPlaybackNot_0
 0003:0E674FB4       aReceiveAppZoom
 0003:0E674FE4       aFileIsDngTypeN
 0003:0E675008       aZoomratioD
 0003:0E675018       aInSInDjiplayba
 0003:0E675074       aInSAmbadcfGetf
 0003:0E6750B8       aAmbadcfGetfile_0
 0003:0E6750EC       aReceiveDjiKeyD
 0003:0E675128       aInvalidStateDo
 0003:0E675190       aDjiPlaybackSEr
 0003:0E6751B8       aAmbafsStatErro
 0003:0E6751E0       aReceiveAmbaKey
 0003:0E675210       aReceiveAmbaKey_0
 0003:0E675240       aReceiveAmbaKey_1
 0003:0E675270       aReceiveAmbaKey_2
 0003:0E6752A0       aReceiveDjiKeyZ
 0003:0E6752D0       aGPicdispmgrZoo
 0003:0E675310       aDjiPlaybackZoo
 0003:0E67535C       aReceiveDjiKeyZ_0
 0003:0E675390       aDjiPlaybackZoo_0
 0003:0E6753C8       aReceiveDjiKeyR
 0003:0E6753F8       aReceiveAmbaKey_3
 0003:0E675438       aReceiveAmbaKey_4
 0003:0E675474       aReceiveDjiKeyM
 0003:0E6754AC       aReceiveDjiKeyB
 0003:0E6754DC       aDjithumbnaildi_0
 0003:0E6754F8       aReceiveSingleD
 0003:0E675530       aReceiveMultiDe
 0003:0E675568       aDjiPlaybackFil_0
 0003:0E675588       aDjiPlaybackFil_1
 0003:0E6755A8       aSDeleteFileSuc
 0003:0E6755C4       aSDjifiledownlo
 0003:0E6755F4       aReceiveEnterMu
 0003:0E675628       aReceiveExitMul
 0003:0E67565C       aReceiveThumbna
 0003:0E6756A4       aDjiPlaybackSIn_1
 0003:0E67570C       aReceiveThumbna_0
 0003:0E675748       aReceiveThumbna_1
 0003:0E675784       aReceiveThumbna_2
 0003:0E6757C0       aReceiveThumbna_3
 0003:0E675800       aReceiveErrorCo
 0003:0E675840       aReceiveThumbna_4
 0003:0E675880       aAmbadcfGetfile_1
 0003:0E6758CC       aAmbadcfGetfile_2
 0003:0E675918       aReceiveDjiMsgV
 0003:0E675950       aFilesizesD
 0003:0E675960       aDownloadFileFa
 0003:0E675978       aMultiDisplaySa_0
 0003:0E6759BC       aMultiDisplaySa
 0003:0E675A04       aAllFilesHasBee
 0003:0E675A44       aDjiKeyPagePrev
 0003:0E675A70       aCurrentpageind
 0003:0E675A88       aGThmdispmgrPag
 0003:0E675AAC       aDjiKeyPageNext
 0003:0E675AD8       aGThmdispmgrCur
 0003:0E675AFC       aAmbaKeyLeftCom
 0003:0E675B24       aDjiPlaybackAmb_2
 0003:0E675B78       aAmbaKeyRightCo
 0003:0E675BA0       aAmbaKeyUpComma
 0003:0E675BC8       aAmbaKeyDownCom
 0003:0E675BF0       aDjiKeyZoominCo
 0003:0E675C18       aDjiPlaybackAmb_3
 0003:0E675C6C       aDjiKeyZoomoutC
 0003:0E675C98       aDjiKeyRotateCo
 0003:0E675CC0       aAmbaKeyOkComma
 0003:0E675CE8       aDjiKeyBackComm
 0003:0E675D10       aAmbaKeyDelComm
 0003:0E675D38       aDjiKeyCancelCo
 0003:0E675D60       aKeyDefaultComm
 0003:0E675D88       aValueD
 0003:0E675D94       aDjivideodispla
 0003:0E675DAC       aDjiMsgPbSStart
 0003:0E675DC8       aSKeycode0xX
 0003:0E675DDC       aReceiveVideoSt
 0003:0E675E10       aReceiveVideoSt_0
 0003:0E675E44       aFileSIsError
 0003:0E675E58       aSomeErrorHappe
 0003:0E675E80       aDjiPlaybackSGe_1
 0003:0E675EB8       aDurationD
 0003:0E675EC8       aReceiveVideoJu
 0003:0E675F08       aReceiveAmbaKey_5
 0003:0E675F44       aDjiPlaybackSDu
 0003:0E675F68       aDurationD_0
 0003:0E675F78       aReceiveAmbaKey_6
 0003:0E675FB8       aVirtualbuttonP
 0003:0E675FD8       aDjiplaybacksta
 0003:0E675FF0       aSStart_2
 0003:0E675FFC       a1
 0003:0E676004       a2
 0003:0E67600C       a3
 0003:0E676014       aSEnd_1
 0003:0E676020       aDjiplaybackini
 0003:0E676030       aDjiPlaybackSCr
 0003:0E676080       aDjiPlaybackSCr_0
 0003:0E6760C8       aDjiPlaybackSCr_1
 0003:0E67610C       aDjipbsdactiont_0
 0003:0E676120       aDjiPlaybackAmb_4
 0003:0E676174       aDjipbpicdragta
 0003:0E676188       aDjiPlaybackAmb_5
 0003:0E6761DC       aDjivalidationt
 0003:0E6761F0       aDjifilescantas
 0003:0E676200       aAmbatimerSetEr
 0003:0E67621C       aDjigetcursingl
 0003:0E676258       a02x
 0003:0E676260       aDjiPrtS
 0003:0E676270       aDjisdstatget
 0003:0E676280       aDjiSdopSTakeSd
 0003:0E6762B4       aDjisdstatset
 0003:0E6762C4       aDjisdfullchk
 0003:0E6762D4       aDjiSdopSTheInp
 0003:0E676304       aDjisdopDcfover
 0003:0E676320       aDjisdopDcfover_0
 0003:0E67633C       aDjiSdopSDDjisd
 0003:0E676368       aDjisdopSdinitc
 0003:0E67637C       aDjisdopSdinser
 0003:0E676390       aDjiSdopSDjisds
 0003:0E6763C8       aDjisdopSdforma
 0003:0E6763DC       aSBeginToFormat
 0003:0E6763F8       aDjiSdopSThereI
 0003:0E676434       aDjiSdopSDjisds_0
 0003:0E67645C       aDjiSdopSDFaile
 0003:0E676498       aDjiSdopSTakeSd_0
 0003:0E6764BC       aDjiSdopSFailed
 0003:0E6764F0       aSCurrentSdClus_0
 0003:0E676520       aSFormatsdSucce
 0003:0E67653C       aDjisdopSdclust
 0003:0E676558       aSUnsupportedSd_0
 0003:0E67657C       aSUCurrentSdClu
 0003:0E6765BC       aTryToStopRecor
 0003:0E6765D0       aTryToStopConti
 0003:0E6765EC       aDjisdopSdmonen
 0003:0E676600       aSTheSdCardCIsF
 0003:0E676620       aSUStopTheConti
 0003:0E676658       aDjisdopCapsize
 0003:0E67666C       aDjiSdopSDjiust
 0003:0E6766AC       aDjiSdopSDjiust_0
 0003:0E6766F8       aDjiSdopSDjiust_1
 0003:0E67673C       aDjiSdopSDjisdo
 0003:0E676768       aDjisdopVideobp
 0003:0E67677C       aDjiSdopSDjiust_2
 0003:0E6767C0       aDjiSdopSGetBit
 0003:0E6767E4       aDjisdopSdprofg
 0003:0E6767F8       aDjiSdopSTheInp_0
 0003:0E676828       aDjisdopUsables
 0003:0E676840       aDjisdopUsables_0
 0003:0E676858       aDjisdopinit
 0003:0E676864       aDjiSdopSMutexC
 0003:0E67688C       aShowFirmwareAn
 0003:0E6768B0       aDbg
 0003:0E6768B4       aSetDebugLevelT
 0003:0E6768E8       aFreq
 0003:0E6768F0       aShowCurrentFre
 0003:0E676924       aTemp
 0003:0E67692C       aShowTemperatur
 0003:0E676978       aSuspendDspTDji
 0003:0E6769B4       aResumeDspTDjiR
 0003:0E6769DC       aMode_4
 0003:0E6769E4       aSwitchModeTDji
 0003:0E676A30       aHdmi_1
 0003:0E676A38       aReconnectHdmiB
 0003:0E676A74       aDisableWatchDo
 0003:0E676AD0       aVideoRecordOsd
 0003:0E676B44       aMemtest
 0003:0E676B4C       aMemoryTestTDji
 0003:0E676BCC       a3aTestEntryTDj
 0003:0E676BFC       aReboot
 0003:0E676C04       aSystemRebootWd
 0003:0E676C4C       aRommisc
 0003:0E676C54       aMiscRomDataSav
 0003:0E676CC4       aFlush_1
 0003:0E676CCC       aFlushLogTDjiFl
 0003:0E676CF4       aUpdater
 0003:0E676CFC       aFirmwareCamera
 0003:0E676D48       aConsole
 0003:0E676D50       aConsoleOnOffCo
 0003:0E676DA8       aReason
 0003:0E676DB0       aPrintResetReas
 0003:0E676DE4       aAfrgb
 0003:0E676DEC       aAfRgbCountFyFv
 0003:0E676E04       aAfcfa
 0003:0E676E0C       aAfCfaCountFyFv
 0003:0E676E24       aAfinfo
 0003:0E676E2C       aAfInfo1Buffer2
 0003:0E676E4C       aAfvalue
 0003:0E676E54       aAfCurrentValue
 0003:0E676EB4       aCircular
 0003:0E676EC0       aCircularBuffer
 0003:0E676F1C       aTracking
 0003:0E676F28       aTrackingTestTD
 0003:0E676F88       aGimbal_0
 0003:0E676F90       aGimbalTestTDji
 0003:0E676FCC       aPano_1
 0003:0E676FD4       aPanoTestTDjiPa
 0003:0E677048       aAutoreboot
 0003:0E677054       aAutoRebootCont
 0003:0E6770A4       aMemshow
 0003:0E6770AC       aShowMemConfig
 0003:0E6770BC       aLogfile
 0003:0E6770C4       aLogfiletestTDj
 0003:0E677100       aSetAuthorizedM
 0003:0E677130       aUst
 0003:0E677134       aUserSettingsRe
 0003:0E677160       aStorageRelated
 0003:0E677184       aMessageHandler
 0003:0E6771B0       aUpdateEngineRe
 0003:0E6771DC       aShmooRelatedTe
 0003:0E677200       aLedRelatedTest
 0003:0E67721C       aRename
 0003:0E677224       aFileRenameTDji
 0003:0E67727C       aEncrypt
 0003:0E677284       aEncryptRelated
 0003:0E6772A8       aPlaybackRelate
 0003:0E6772C8       aAfif
 0003:0E6772D0       aAfInterface
 0003:0E6772E0       aLoaderVersionS
 0003:0E6772F4       aFirmwareVersio
 0003:0E67730C       aHardwareVersio
 0003:0E677324       aBuildInfoSS
 0003:0E677338       aSep212016
 0003:0E677344       a133122
 0003:0E677350       aSystemCalabrat
 0003:0E67737C       aSystemCalabrat_0
 0003:0E6773A4       aInputErrorUsag
 0003:0E6773E8       aGetSystemPrint
 0003:0E677414       aSetTheSystemPr
 0003:0E677448       aDjiShlDjiDlErr
 0003:0E677474       aDjiShlDjiDlWar
 0003:0E6774A4       aDjiShlDjiDlNot
 0003:0E6774D0       aDjiShlDjiDlInf
 0003:0E6774FC       aDjiShlDjiDlDeb
 0003:0E677528       aDjiShl
 0003:0E677560       aDjiShlCortexFr
 0003:0E67757C       aDjiShlArmFreqD
 0003:0E677598       aDjiShlDdrFreqD
 0003:0E6775B4       aDjiShlCoreFreq
 0003:0E6775D0       aDjiShlIdspFreq
 0003:0E6775EC       aDjiShlAxiFreqD
 0003:0E677608       aDjiShlAhbFreqD
 0003:0E677624       aDjiShlApbFreqD
 0003:0E677640       aSupportedComma
 0003:0E677658       aSS_10
 0003:0E677664       aErrorInvalidCo
 0003:0E677680       aDjiShlGetTempe
 0003:0E6776AC       aDjiShlNodeDTem
 0003:0E6776D0       aDjiShlArgnumDE
 0003:0E6776F8       aDjiShlArg0DErr
 0003:0E677714       aDjiShlSuspendD
 0003:0E677730       aDjiShlIdspclkU
 0003:0E677760       aDjiShlResumeDs
 0003:0E677780       aDjiShlInputErr_0
 0003:0E677798       aDjiShlSwitchTo
 0003:0E6777B8       aDjiShlIdDDataD
 0003:0E6777D4       aDjiShlInputErr
 0003:0E6777EC       aDjiShlCameraFi
 0003:0E677814       aDjiShl368Firmw
 0003:0E677838       aCircularBuffer_0
 0003:0E677884       aDjiShlReadCirc
 0003:0E6778AC       aDjiShlWriteCir
 0003:0E6778D4       aDjiShlCircular
 0003:0E6778FC       aDjiShlAutoRebo
 0003:0E67791C       aDjiShlAutoRebo_0
 0003:0E67793C       aDjishlhdmireco
 0003:0E677950       aDjiShlSDjicmmh
 0003:0E677984       aDjiShlSHdmiRec
 0003:0E6779A8       aDjishlwdgctrl
 0003:0E6779B8       aDjiShlSStopAut
 0003:0E6779E8       aDjiShlSStartAu
 0003:0E677A18       aDjiShlSDisable
 0003:0E677A3C       aDjiShlSUnsuppo
 0003:0E677A5C       aDjiShlArgnumDE_0
 0003:0E677A84       aDjiShlArgnumDE_1
 0003:0E677AB0       aDjiShlManualWa
 0003:0E677AE4       aDjiShlStartMem
 0003:0E677B18       aDjishlrename
 0003:0E677B28       aDjiShlSRenameS
 0003:0E677B58       aDjiShlSRenameS_0
 0003:0E677B80       aDjiShlSInputIn
 0003:0E677BA0       aDjiShlErrorVal
 0003:0E677BB8       aDjishllogtest
 0003:0E677BC8       aDjiLogToSdIsD
 0003:0E677BDC       aCTestlogBin
 0003:0E677BEC       aDjiShlSOpenLog
 0003:0E677C28       aDjiShlSWriteTe
 0003:0E677C4C       aDjiShlSInputEr
 0003:0E677C68       aDjiShlSShellCm
 0003:0E677C88       aDjiShlUpdataMa
 0003:0E677CA4       aSupportedDjiCo
 0003:0E677CC0       aHelp_1
 0003:0E677CC8       aDjishlcmdinit
 0003:0E677CD8       aDjiShlSShellCm_0
 0003:0E677CFC       aDjiShlSInitCir
 0003:0E677D28       aDjiShlSShellCm_1
 0003:0E677D4C       aShow_6
 0003:0E677D54       aShowShmooInfoT
 0003:0E677D7C       aClearShmooInfo
 0003:0E677DA4       aSetShmooDebugT
 0003:0E677DD8       aDjishminfoget
 0003:0E677DE8       aDjiShmSGetMnaF
 0003:0E677E04       aDjishminfoset
 0003:0E677E14       aDjishmddrtest
 0003:0E677E24       aDjiShmSOpenFil
 0003:0E677E44       aDjiShmSParseHe
 0003:0E677E68       aDjiShmSCheckIm
 0003:0E677E88       aDjishmshmoobyt
 0003:0E677EA0       aDjiShmSDllValu
 0003:0E677EC4       aDjiShmSDllValu_0
 0003:0E677EE8       aDjishmshmoobyt_0
 0003:0E677F00       aDjiShmBytevalm
 0003:0E677F3C       aDjiShmSShmooFa
 0003:0E677F58       aDjiShmSShmooFa_0
 0003:0E677F74       aDjiShmSShmooFa_1
 0003:0E677F90       aDjishmbestvalc
 0003:0E677FA4       aDjiShmSInvalid
 0003:0E677FE4       aDjiShmSSigmax0
 0003:0E678010       aDjiShmSSigbest
 0003:0E678030       aDjishmshmoopro
 0003:0E678044       aDjiShmSGetShmo
 0003:0E678068       aDjiShmResumeMi
 0003:0E6780BC       aDjiShmNotResum
 0003:0E678114       aDjiShmSDjishmb
 0003:0E678158       aDjiShmLineDMax
 0003:0E6781A4       aDjiShmSSetShmo
 0003:0E6781C8       aDjiShmSDjishmb_0
 0003:0E67820C       aDjiShmPshmooin
 0003:0E678244       aDjiShmPshmooin_0
 0003:0E67827C       aDjiShmPshmooin_1
 0003:0E6782B4       aDjiShmByteDMax
 0003:0E6782F8       aDjishmresultre
 0003:0E67830C       aCS_2
 0003:0E678314       aShmresultTxt
 0003:0E678324       aByteDMaxlimit0
 0003:0E678360       aDjiShmSWriteFi
 0003:0E678380       aDjishmshmooent
 0003:0E678394       aDjiShmDdrShmoo
 0003:0E6783B4       aDjiShmDdrShmoo_0
 0003:0E6783D0       aDjiShmSRenameS
 0003:0E678410       aDjishmdetectpr
 0003:0E678424       aShmtestBin
 0003:0E678430       aDjishmootask
 0003:0E678440       aDjiShmSCreateP
 0003:0E67846C       aDjishmtestshow
 0003:0E67847C       aDjishmtestdebu
 0003:0E67848C       aDjiShmSArgnumU
 0003:0E6784C8       aSd
 0003:0E6784F4       aPrintFsDevInfo
 0003:0E678520       aSdTotalCluster
 0003:0E678538       aSdUnusedCluste
 0003:0E678550       aSdBytesPerSect
 0003:0E67856C       aSdSectorsPerCl
 0003:0E678588       aSdClustersPerC
 0003:0E6785AC       aSdUnusedCluste_0
 0003:0E6785CC       aSdFormatTypeD
 0003:0E6785E0       aCannotGetStatu
 0003:0E6785F4       aAmbafsGetdevFa
 0003:0E67860C       aPrintSdFactory
 0003:0E67863C       aSdManufacturer
 0003:0E678654       aSdOemApplicati
 0003:0E678670       aSdProductNameS
 0003:0E678684       aSdProductSeria
 0003:0E6786A8       aSdProductManuf
 0003:0E6786CC       aPrintsdinfoThe
 0003:0E6786F0       aSdSlotD
 0003:0E6786FC       aSdCardNotPrese
 0003:0E678714       aSdCardPresent
 0003:0E678728       aSdCapacityUKb
 0003:0E67873C       aSdSpareCapacit
 0003:0E678758       aFileSystemCont
 0003:0E678778       aCanTGetFileSys
 0003:0E678794       aInitialValueOf
 0003:0E6787B4       aFsFatUnknown
 0003:0E6787C4       aFat32_2
 0003:0E6787CC       aFsFat32l
 0003:0E6787D8       aFsExfat
 0003:0E6787E4       aDefaultUnkown
 0003:0E6787F4       aMemoryIOCombo
 0003:0E678808       aMechanicalMemo
 0003:0E67881C       aSdxcMemory
 0003:0E678828       aSdhcMemory
 0003:0E678834       aSdMemory
 0003:0E678840       aMmcMemory
 0003:0E67884C       aMemory
 0003:0E678854       aUnknown_3
 0003:0E67885C       aSdCardTypeS
 0003:0E678870       aClass0
 0003:0E678878       aClass2
 0003:0E678880       aClass4
 0003:0E678888       aClass6
 0003:0E678890       aClass10
 0003:0E67889C       aSdCardSpeedS
 0003:0E6788B0       aSdUhsValueD
 0003:0E6788C4       aSdStatusD
 0003:0E6788D4       aSdWpD
 0003:0E6788E0       aSdSuspendD
 0003:0E6788F0       aSdIsinitD
 0003:0E678900       aSdIsmmcD
 0003:0E678910       aUsageTDjiStoSd
 0003:0E67894C       aTDjiStoSdForma
 0003:0E67898C       aTDjiStoSdStatu
 0003:0E6789C4       aTDjiStoSdInfoS
 0003:0E6789FC       aDjitestsd
 0003:0E678A08       aInputParameter
 0003:0E678A28       aPrint
 0003:0E678A30       aFormat
 0003:0E678A38       aStatus_1
 0003:0E678A40       aTheCurrentSdSt
 0003:0E678A5C       aInfo_3
 0003:0E678A64       aSdFsFat12
 0003:0E678A70       aSdFsFat16
 0003:0E678A7C       aSdFsFat32
 0003:0E678A88       aSdFsExfat
 0003:0E678A94       aSdFsUnkown
 0003:0E678AA4       aSdRemainShotsU
 0003:0E678AB8       aSdRemainSecond
 0003:0E678AD0       aCurrentSdSlotU
 0003:0E678AE4       aCurrentSdDrive
 0003:0E678AF8       aCurrentSdState
 0003:0E678B10       aState
 0003:0E678B18       aSUTooLessInput
 0003:0E678B3C       aSUSetTheSlotUS
 0003:0E678B64       aSUUseTheDefaul
 0003:0E678B8C       aSUSetTheSdRese
 0003:0E678BB8       aClear_0
 0003:0E678BC0       aSUClearTheSlot
 0003:0E678BE8       aSUDjisdstatget
 0003:0E678C08       aSUGetTheSlotUS
 0003:0E678C30       aUsageTDjiStoGp
 0003:0E678C70       aTDjiStoGpsSetf
 0003:0E678CE0       aTDjiStoGpsSetg
 0003:0E678D28       aTDjiStoGpsGetf
 0003:0E678D64       aTDjiStoGpsGetg
 0003:0E678DA0       aTDjiStoGpsGeth
 0003:0E678DD8       aDjitestgps
 0003:0E678DE4       aSetflight
 0003:0E678DF0       aUseTheDefaultG
 0003:0E678E10       aUseTheDefaultG_0
 0003:0E678E30       aUseTheDefaultG_1
 0003:0E678E50       aUseTheDefaultM
 0003:0E678E70       aUseTheDefaultM_0
 0003:0E678E90       aUseTheDefaultM_1
 0003:0E678EB0       aUseTheDefaultM_2
 0003:0E678ED0       aUseTheDefaultV
 0003:0E678EF8       aSetgimbal
 0003:0E678F04       aUseTheDefaultG_2
 0003:0E678F24       aUseTheDefaultG_3
 0003:0E678F44       aUseTheDefaultG_4
 0003:0E678F64       aUseTheDefaultG_5
 0003:0E678F84       aSethome
 0003:0E678F8C       aUseTheDefaultH
 0003:0E678FAC       aUseTheDefaultH_0
 0003:0E678FCC       aSUSetHomeInfoF
 0003:0E678FE8       aGetexif
 0003:0E678FF0       aSGetTheGpsInfo
 0003:0E679014       aSGpsLatitudeS4
 0003:0E679030       aSGpsLongitudeS
 0003:0E67904C       aSGpsRelativeAl
 0003:0E679070       aSGpsAbsoluteAl
 0003:0E679094       aSMakerNoteXSpe
 0003:0E6790B4       aSMakerNoteYSpe
 0003:0E6790D4       aSMakerNoteZSpe
 0003:0E6790F4       aSMakerNoteFlig
 0003:0E679124       aSMakerNoteFlig_0
 0003:0E679150       aSMakerNoteFlig_1
 0003:0E679180       aSMakerNoteGimb
 0003:0E6791B0       aSMakerNoteGimb_0
 0003:0E6791DC       aSMakerNoteGimb_1
 0003:0E67920C       aGetflight
 0003:0E679218       aSUGetTheFlight
 0003:0E679240       aFlightInfo
 0003:0E679250       aLogitude4f
 0003:0E679264       aLatitude4f
 0003:0E679278       aAltitude4f
 0003:0E67928C       aZspeed2f
 0003:0E67929C       aXspeed2f
 0003:0E6792AC       aYspeed2f
 0003:0E6792BC       aPitch2f
 0003:0E6792CC       aRoll2f
 0003:0E6792DC       aYaw2f
 0003:0E6792E8       aVersionmathU
 0003:0E6792FC       aValidflagU
 0003:0E67930C       aGetgimbal
 0003:0E679318       aSUGetTheGimbal
 0003:0E679340       aGimbalInfo
 0003:0E679350       aCalcflagU
 0003:0E679360       aGethome
 0003:0E679368       aSUGetTheHomeIn
 0003:0E67938C       aHomeInfo
 0003:0E679398       aLongitude4f
 0003:0E6793AC       aDjifileexistch
 0003:0E6793BC       aSOpenFileSFail_0
 0003:0E6793E4       aUsageTDjiStoVi
 0003:0E679444       aTDjiStoVideoSe
 0003:0E679498       aTDjiStoVideoSe_0
 0003:0E6794DC       aTDjiStoVideoSe_1
 0003:0E679534       aTDjiStoVideoSe_2
 0003:0E6795A8       aTDjiStoVideoGe
 0003:0E6795EC       aTDjiStoVideoVi
 0003:0E679640       aTDjiStoVideoVu
 0003:0E679694       aTDjiStoVideoDe
 0003:0E6796EC       aTDjiStoVideoRe
 0003:0E679734       aTDjiStoVideoVa
 0003:0E67979C       aDjitestvideo
 0003:0E6797AC       aType
 0003:0E6797B4       aUseTheDefaultM_3
 0003:0E6797D0       aSetTheVideoTyp
 0003:0E6797EC       aSetTheVideoTyp_0
 0003:0E679808       aLimit
 0003:0E679810       aUseTheDefaultL
 0003:0E67982C       aSetTheRecordFi
 0003:0E679858       aTranstime
 0003:0E679864       aResolution
 0003:0E679870       aInvalidTransco
 0003:0E679890       aSetTheXcodeRes
 0003:0E6798B4       aSetTheXcodeRes_0
 0003:0E6798D8       aSetTheXcodeRes_1
 0003:0E6798FC       aDbgsw
 0003:0E679904       aSetTheMovieRec
 0003:0E67992C       aTheRecordFileC
 0003:0E67995C       aVinfo
 0003:0E679964       aSTheInputFileN
 0003:0E679984       aSTheFileNameIs
 0003:0E6799A0       aSVideoDuration
 0003:0E6799C4       aSVideoResoluti
 0003:0E6799E4       aSVideoFramerat
 0003:0E679A00       aDelete
 0003:0E679A08       aSRemoveFileSSu
 0003:0E679A24       aSRemoveFileSFa
 0003:0E679A40       aRepair
 0003:0E679A48       aFopen
 0003:0E679A50       aDjifileexistch_1
 0003:0E679A68       aDjifileexistch_0
 0003:0E679A84       aValid
 0003:0E679A8C       aSTheFileSIsVal
 0003:0E679AA8       aSTheFileSIsInv
 0003:0E679AC4       aSDjifilevalidc
 0003:0E679AE4       aRotate_2
 0003:0E679AEC       aSUSetTheCamera
 0003:0E679B10       aSUClearTheCame
 0003:0E679B38       aSUSetTheGimbal
 0003:0E679B60       aTime
 0003:0E679B68       aSUCurrentTimeU
 0003:0E679B84       aTranscode
 0003:0E679B90       aYouMustInputTh
 0003:0E679BB8       aSTheFileSWillB
 0003:0E679BDC       aXcode_0
 0003:0E679BE4       aSTheFileSWillB_0
 0003:0E679C14       aDeleteall
 0003:0E679C20       aSThePathSWillB
 0003:0E679C40       aClipinfo
 0003:0E679C4C       aGetTheClipFsIn
 0003:0E679C6C       aCurrentClipDir
 0003:0E679C84       aDirNumberMaxU
 0003:0E679C98       aFilesNumberMax
 0003:0E679CAC       aXcodemode
 0003:0E679CB8       aStartToChangeT
 0003:0E679CD8       aXpbmode
 0003:0E679CE0       aStartToChangeT_0
 0003:0E679D04       aVuuid
 0003:0E679D0C       aSVideoUuid0x08
 0003:0E679D24       aXaudio
 0003:0E679D2C       aSetStream0Audi
 0003:0E679D4C       aSetStream1Audi
 0003:0E679D6C       aSetStream0Stre
 0003:0E679D94       aXpause
 0003:0E679D9C       aBeginToPauseTh
 0003:0E679DB8       aBeginToResumeT
 0003:0E679DD4       aSTheFileSWillB_1
 0003:0E679E00       aXstore
 0003:0E679E08       aC_6
 0003:0E679E0B       a1Mov
 0003:0E679E14       aUsageTDjiStoCa
 0003:0E679E58       aDjitestcapture
 0003:0E679E68       aSFlag0x08x
 0003:0E679E78       aSThumbnaiAddr0
 0003:0E679EA0       aSScreenAddr0x0
 0003:0E679EC4       aSMainImageAddr
 0003:0E679EEC       aUsageTDjiStoDc
 0003:0E679F48       aTDjiStoDcfGetM
 0003:0E679FB8       aTDjiStoDcfGetF
 0003:0E67A024       aTDjiStoDcfGetN
 0003:0E67A08C       aTDjiStoDcfGetP
 0003:0E67A0FC       aTDjiStoDcfGetL
 0003:0E67A164       aTDjiStoDcfGetF_0
 0003:0E67A1BC       aTDjiStoDcfGetF_1
 0003:0E67A228       aTDjiStoDcfGetN_0
 0003:0E67A290       aTDjiStoDcfGetP_0
 0003:0E67A300       aTDjiStoDcfGetL_0
 0003:0E67A368       aTDjiStoDcfGetC
 0003:0E67A3D4       aTDjiStoDcfGetU
 0003:0E67A430       aTDjiStoDcfGetU_0
 0003:0E67A4B0       aTDjiStoDcfGetF_2
 0003:0E67A504       aTDjiStoDcfDele
 0003:0E67A558       aTDjiStoDcfDump
 0003:0E67A5B8       aDjifileappendt
 0003:0E67A5CC       aThisIsATest
 0003:0E67A5DC       aDjifilewritete
 0003:0E67A5F0       aThisIsATest_0
 0003:0E67A600       aDjitestdcf
 0003:0E67A60C       aSUseTheDefault
 0003:0E67A630       aSSetTheMaxfile
 0003:0E67A650       aMode_0
 0003:0E67A658       aSTheCurrentDmf
 0003:0E67A678       aSTheCurrentMax
 0003:0E67A69C       aFamount
 0003:0E67A6A4       aSUseTheDefault_0
 0003:0E67A6C4       aSTheFileAmount
 0003:0E67A6E4       aFname
 0003:0E67A6EC       aSUseTheDefault_1
 0003:0E67A714       aSTheFidxDFileN
 0003:0E67A738       aFirstFname
 0003:0E67A744       aSFirstFileName
 0003:0E67A760       aNextFname
 0003:0E67A76C       aSNextFileNameI
 0003:0E67A788       aPreviousFname
 0003:0E67A798       aSPreviousFileN
 0003:0E67A7B8       aLastFname
 0003:0E67A7C4       aSLastFileNameI
 0003:0E67A7E0       aFirstIdx
 0003:0E67A7EC       aSDjidcfFirstfi
 0003:0E67A810       aSFirstIdxDirNo
 0003:0E67A84C       aNextIdx
 0003:0E67A858       aSDjidcfNextfil
 0003:0E67A87C       aSNextIdxDirNoU
 0003:0E67A8B8       aPreviousIdx
 0003:0E67A8C8       aSDjidcfPrefile
 0003:0E67A8EC       aSPreviousIdxDi
 0003:0E67A92C       aLastIdx
 0003:0E67A938       aSDjidcfLastfil
 0003:0E67A95C       aSLastIdxDirNoU
 0003:0E67A998       aCurIdx
 0003:0E67A9A0       aSDjidcfCurfile
 0003:0E67A9C4       aSCurrentIdxDir
 0003:0E67AA04       aUniqueIdx
 0003:0E67AA10       aSDjidcfFileidx
 0003:0E67AA38       aSTheFileSIndex
 0003:0E67AA54       aUniqueFname
 0003:0E67AA64       aSTooLessInputP
 0003:0E67AA84       aSDjidcfFnamege
 0003:0E67AAA8       aSIdxUTypeDFile
 0003:0E67AACC       aDump_2
 0003:0E67AAD4       aCurrent
 0003:0E67AADC       aAppend
 0003:0E67AAE4       aSUseTheDefault_2
 0003:0E67AB0C       aWrite_0
 0003:0E67AB14       aSBeginToDelete_0
 0003:0E67AB40       aDngValid
 0003:0E67AB4C       aSTheFileSIsVal_0
 0003:0E67AB68       aSTheFileSIsInv_0
 0003:0E67AB84       aNextfname
 0003:0E67AB90       aSTheNextFileNa
 0003:0E67ABB0       aCurfname
 0003:0E67ABBC       aSTheCurrentFil
 0003:0E67ABDC       aUsageTDjiStoBp
 0003:0E67AC14       aDjitestbpc
 0003:0E67AC20       aSTheBpcFileNam
 0003:0E67AC3C       aGetTheCurrentB
 0003:0E67AC5C       aTest_7
 0003:0E67AC64       aSupportedTestC_3
 0003:0E67AC80       aS_22
 0003:0E67AC88       aDjitrackinghan
 0003:0E67AC9C       aDjiTrackSYuvDa
 0003:0E67ACF4       aDjiTrackSTakeM
 0003:0E67AD14       aDjiTrackTracki
 0003:0E67AD40       aDjiTrackSendDa
 0003:0E67AD68       aDjiTrackSDjiip
 0003:0E67AD98       aDjiTrackTracki_0
 0003:0E67ADC8       aDjiTrackIpcAtt
 0003:0E67ADE8       aDjiTrackAttach
 0003:0E67AE20       aDjitrackingini
 0003:0E67AE30       aDjiTrackSfailT
 0003:0E67AE54       aDjitrackingena
 0003:0E67AE6C       aDjiTrackSState
 0003:0E67AE90       aDjiTrackFailTo
 0003:0E67AED0       aDjiTrackFailTo_0
 0003:0E67AF14       aDjiTrackRegist
 0003:0E67AF50       aDjiTrackFailTo_1
 0003:0E67AF98       aDjiTrackUnregi
 0003:0E67AFD8       aDjiTrackSTakeM_0
 0003:0E67AFFC       aDjitrackingset
 0003:0E67B014       aDjitrackingreg
 0003:0E67B02C       aDjitrackinggim
 0003:0E67B048       aDjiTrackSGetTr
 0003:0E67B078       aDjiTrackSTrack
 0003:0E67B0B4       aDjiTrackSFcYaw
 0003:0E67B0D8       aDjiTrackSSendP
 0003:0E67B108       aDjiTrackSYawsp
 0003:0E67B144       aDjiTrackSSendP_0
 0003:0E67B170       aDjitrackingapp
 0003:0E67B188       aDjicmmcaposddr
 0003:0E67B1A8       aDjiTrackSClear
 0003:0E67B1C4       aDjiTrackSPosit
 0003:0E67B1EC       aDjiTrackTracki_1
 0003:0E67B224       aDjitrackingsho
 0003:0E67B234       aDjiTrackTracki_2
 0003:0E67B250       aDjiTrackEnable
 0003:0E67B268       aDjiTrackNeedSe
 0003:0E67B288       aDjiTrackTracki_3
 0003:0E67B2A4       aDjiTrackTracki_4
 0003:0E67B2C4       aDjiTrackFramec
 0003:0E67B2DC       aDjiTrackReturn
 0003:0E67B300       aDjiTrackInputE
 0003:0E67B31C       aDjiTrackTracki_5
 0003:0E67B33C       aDjiTrackTracki_6
 0003:0E67B35C       aDjiTrackTracki_7
 0003:0E67B394       aDjiTrackDjishl
 0003:0E67B3BC       aTranssrvMemini
 0003:0E67B3D0       aDjiTransSLUAll
 0003:0E67B408       aDjiTransSLUAll_0
 0003:0E67B43C       aTranssrvMemall
 0003:0E67B450       aDjiTransSLUTyp
 0003:0E67B488       aDjiTransSLUBas
 0003:0E67B4C4       aDjiTransSLUAll_1
 0003:0E67B4F8       aDjiTransSLUAll_2
 0003:0E67B52C       aDjiTransSLUAll_3
 0003:0E67B564       aDjiTransSLUAll_4
 0003:0E67B59C       aTranssrvMemfre
 0003:0E67B5B0       aDjiTransSLUNoO
 0003:0E67B5D4       aTranssrvMsgbuf
 0003:0E67B5F8       aDjiTransSLUAlr
 0003:0E67B61C       aDjiTransSLUAll_5
 0003:0E67B654       aTranssrvMsgbuf_0
 0003:0E67B66C       aDjiTransSLUAll_6
 0003:0E67B6A0       aTranssrvMsgbuf_1
 0003:0E67B6B4       aDjiTransSLUNul
 0003:0E67B6D8       aDjiTransSLUFre
 0003:0E67B700       aTranssrvDatabu
 0003:0E67B718       aDjiTransSLUAll_7
 0003:0E67B750       aDjiTransSLUTra
 0003:0E67B794       aTranssrvDatabu_0
 0003:0E67B7AC       aDjiTransSLUNot
 0003:0E67B7D0       aDjiTransSLUDat
 0003:0E67B7F8       aTranssrvDatabu_1
 0003:0E67B814       aTranssrvDatabu_2
 0003:0E67B830       aTranssrvDatabu_3
 0003:0E67B850       aDjiTransSLUWri
 0003:0E67B884       aDjiTransSLUUpd
 0003:0E67B8C0       aTranssrvDatabu_4
 0003:0E67B8DC       aTranssrvDatabu_5
 0003:0E67B8F8       aTranssrvDatabu_6
 0003:0E67B918       aDjiTransSLURea
 0003:0E67B954       aDjiTransSLUUpd_0
 0003:0E67B990       aTranssrvDatabu_7
 0003:0E67B9B0       aDjiTransSLUDat_0
 0003:0E67B9D8       aTranssrvQueuei
 0003:0E67B9EC       aDjiTransSLUAll_8
 0003:0E67BA18       aTranssrvQueuei_0
 0003:0E67BA2C       aDjiTransSLUQue
 0003:0E67BA50       aTranssrvQueueo
 0003:0E67BA64       aDjiTransSLUQue_0
 0003:0E67BA88       aTranssrvWindow
 0003:0E67BA9C       aDjiTransSLUAll_9
 0003:0E67BAD0       aTranssrvWindow_4
 0003:0E67BAE8       aDjiTransSLUWin_7
 0003:0E67BB0C       aTranssrvWindow_0
 0003:0E67BB20       aDjiTransSLUWin
 0003:0E67BB4C       aDjiTransSLUWin_0
 0003:0E67BB70       aDjiTransSLUAll_10
 0003:0E67BBB4       aTranssrvWindow_1
 0003:0E67BBC8       aDjiTransSLUWin_1
 0003:0E67BBEC       aDjiTransSLUWin_2
 0003:0E67BC18       aTranssrvWindow_2
 0003:0E67BC30       aDjiTransSLUWin_3
 0003:0E67BC6C       aSearchSeqUU
 0003:0E67BC84       aTranssrvWindow_3
 0003:0E67BC98       aDjiTransSLUWin_4
 0003:0E67BCC0       aDjiTransSLUWin_5
 0003:0E67BCF8       aTranssrvRecvde
 0003:0E67BD0C       aDjiTransSLUTra_0
 0003:0E67BD44       aDjiTransSLUGet
 0003:0E67BD70       aDjiTransSLUDel
 0003:0E67BD98       aDjiTransSLUDji
 0003:0E67BDCC       aDjiTransSLUDji_0
 0003:0E67BE00       aDjiTransSLUAmb
 0003:0E67BE34       aDjiTransSLUAmb_0
 0003:0E67BE64       aDjiTransSLUDji_1
 0003:0E67BE98       aTranssrvRecvms
 0003:0E67BEAC       aDjiTransSLUTra_1
 0003:0E67BEE4       aDjiTransSLUTra_2
 0003:0E67BF10       aTranssrvSendst
 0003:0E67BF28       aDjiTransSLUTra_3
 0003:0E67BF64       aDjiTransSLUTra_4
 0003:0E67BF94       aTranssrvSetstr
 0003:0E67BFAC       aDjiTransSLUTra_5
 0003:0E67BFDC       aDjiTransSLUSet_1
 0003:0E67C00C       aTranssrvSendms
 0003:0E67C020       aDjiTransSLUSen
 0003:0E67C04C       aDjiTransSLUSen_0
 0003:0E67C07C       aTranssrvSendda
 0003:0E67C090       aDjiTransSLUSen_1
 0003:0E67C0C8       aDjiTransSLUSen_2
 0003:0E67C0F4       aDjiTransSLUSen_3
 0003:0E67C120       aDjiTransSLUSen_4
 0003:0E67C154       aTranssrvSendfl
 0003:0E67C168       aTranssrvSetlin
 0003:0E67C18C       aDjiTransSLUSet
 0003:0E67C1BC       aSetBandWidthCo
 0003:0E67C1E4       aBandWidthUCont
 0003:0E67C208       aTranssrvSetlin_0
 0003:0E67C224       aDjiTransSLUSet_0
 0003:0E67C254       aSetDebugFlag0x
 0003:0E67C26C       aTranssrvResend
 0003:0E67C284       aDjiTransSLUReS
 0003:0E67C2B0       aDjiTransSLURes
 0003:0E67C2EC       aDjiTransSLURes_0
 0003:0E67C318       aDjiTransSLURes_1
 0003:0E67C358       aDjiTransSLUReS_0
 0003:0E67C384       aTranssrvResend_0
 0003:0E67C39C       aDjiTransSLUReS_1
 0003:0E67C3C8       aDjiTransSLUDel_0
 0003:0E67C3F4       aDjiTransSLUSub
 0003:0E67C420       aDjiTransSLUSub_0
 0003:0E67C44C       aTranssrvDorese
 0003:0E67C460       aDjiTransSLUReS_2
 0003:0E67C480       aDjiTransSLUQue_1
 0003:0E67C4C0       aDjiTransSLURes_2
 0003:0E67C4EC       aDjiTransSLUAll_11
 0003:0E67C518       aDjiTransSLUNoE
 0003:0E67C540       aDjiTransSLUOff
 0003:0E67C568       aDjiTransSLURea_0
 0003:0E67C5B0       aDjiTransSLURes_3
 0003:0E67C5D8       aDjiTransSLUOff_0
 0003:0E67C608       aDjiTransSLURes_4
 0003:0E67C634       aDjiTransSLUDel_1
 0003:0E67C668       aDjiTransSLUGet_0
 0003:0E67C6A0       aDjiTransSLUGet_1
 0003:0E67C6D4       aDjiTransSLUGet_3
 0003:0E67C700       aDjiTransSLUGet_4
 0003:0E67C730       aDjiTransSLUGet_2
 0003:0E67C758       aDjiTransSLUIdx
 0003:0E67C784       aDjiTransSLUUUU
 0003:0E67C7B0       aDjiTransSLUSen_5
 0003:0E67C7E0       aDjiTransSLURes_5
 0003:0E67C80C       aDjiTransSLUGet_5
 0003:0E67C83C       aDjiTransSLUWin_6
 0003:0E67C880       aItemSizeUError
 0003:0E67C8A8       aDjiTransSLURes_6
 0003:0E67C8D4       aTranssrvSendpu
 0003:0E67C8EC       aDjiTransSLUSen_6
 0003:0E67C910       aTranssrvSendab
 0003:0E67C928       aDjiTransSLUSen_7
 0003:0E67C94C       aTranssrvGetjpg
 0003:0E67C964       aDjiTransSLUOpe
 0003:0E67C990       aDjiTransSLURea_1
 0003:0E67C9BC       aDjiTransSLUNot_0
 0003:0E67C9F8       aDjiTransSLUJpe
 0003:0E67CA28       aDjiTransSLUExi
 0003:0E67CA6C       aDjiTransSLUIfd
 0003:0E67CAB4       aDjiTransSLUJum
 0003:0E67CAEC       aDjiTransSLUFil
 0003:0E67CB34       aDjiTransSLUTif
 0003:0E67CB64       aDjiTransSLURea_2
 0003:0E67CB94       aDjiTransSLUCan
 0003:0E67CBCC       aDjiTransSLUOff_1
 0003:0E67CC08       aDjiTransSLUThu
 0003:0E67CC48       aTranssrvGetjpg_0
 0003:0E67CC60       aDjiTransSLUFou
 0003:0E67CC8C       aDjiTransSLUNot_1
 0003:0E67CCC0       aDjiTransSLUTif_0
 0003:0E67CD00       aDjiTransSLUMpE
 0003:0E67CD44       aDjiTransSLUScr
 0003:0E67CD84       aTranssrvGetdng
 0003:0E67CD9C       aDjiTransSLUDng
 0003:0E67CDC4       aTranssrvGetdng_0
 0003:0E67CDDC       aDjiTransSLUCan_0
 0003:0E67CE14       aDjiTransSLURea_3
 0003:0E67CE44       aDjiTransSLURea_4
 0003:0E67CE74       aDjiTransSLUDng_0
 0003:0E67CEA0       aTranssrvGetthu
 0003:0E67CEB8       aDjiTransSLUSNa
 0003:0E67CEE8       aDjiTransSLUGet_6
 0003:0E67CF18       aCMiscThm_0
 0003:0E67CF28       aDjiTransSLUGet_7
 0003:0E67CF5C       aDjiTransSLUUns
 0003:0E67CF90       aTranssrvGetscr
 0003:0E67CFA8       aDjiTransSLUGet_8
 0003:0E67CFDC       aTranssrvMsgche
 0003:0E67CFF0       aDjiTransSLUMes
 0003:0E67D024       aDjiTransSLUMes_0
 0003:0E67D05C       aDjiTransSLUMes_1
 0003:0E67D08C       aDjiTransSLUMes_2
 0003:0E67D0C4       aDjiTransSLUMes_3
 0003:0E67D0F8       aDjiTransSLUUns_0
 0003:0E67D128       aTranssrvGetfil
 0003:0E67D140       aDjiTransSLUGet_9
 0003:0E67D168       aDjiTransSLUGet_10
 0003:0E67D1A0       aDjiTransSLUGet_11
 0003:0E67D1CC       aDjiTransSLUGet_12
 0003:0E67D1F8       aDjiTransSLUGet_13
 0003:0E67D240       aDjiTransSLUGet_14
 0003:0E67D270       aDjiTransSLUGet_15
 0003:0E67D2A0       aDjiTransSLUFai
 0003:0E67D2F4       aDjiTransSLUClo
 0003:0E67D318       aDjiTransSLUOpe_0
 0003:0E67D33C       aDjiTransSLUOff_2
 0003:0E67D37C       aDjiTransSLUSiz
 0003:0E67D3C4       aDjiTransSLUFil_0
 0003:0E67D404       aDjiTransSLUOff_3
 0003:0E67D43C       aTranssrvEndfil
 0003:0E67D454       aDjiTransSLUSen_17
 0003:0E67D47C       aTranssrvSendfi
 0003:0E67D494       aDjiTransSLUSen_18
 0003:0E67D4BC       aDjiTransSLUNot_2
 0003:0E67D4EC       aDjiTransSLUSee_0
 0003:0E67D528       aDjiTransSLURea_5
 0003:0E67D570       aDjiTransSLUSen_19
 0003:0E67D5A0       aTranssrvGetlis
 0003:0E67D5B8       aDjiTransSLUGet_16
 0003:0E67D5E8       aDjiTransSLUNoF
 0003:0E67D608       aDjiTransSLUInp
 0003:0E67D638       aDjiTransSLUDji_3
 0003:0E67D66C       aDjiTransSLUFil_1
 0003:0E67D6A8       aDjiTransSLUDji_2
 0003:0E67D6E0       aDjiTransSLUAmb_1
 0003:0E67D718       aDjiTransSLUFil_3
 0003:0E67D750       aDjiTransSLUTot
 0003:0E67D790       aDjiTransSLUFil_2
 0003:0E67D7CC       aTranssrvEndlis
 0003:0E67D7E4       aDjiTransSLUSen_16
 0003:0E67D80C       aTranssrvSendli
 0003:0E67D824       aDjiTransSLUSen_8
 0003:0E67D84C       aDjiTransSLUGet_17
 0003:0E67D878       aDjiTransSLUSen_9
 0003:0E67D8A0       aTranssrvGetstr
 0003:0E67D8B8       aDjiTransSLUGet_18
 0003:0E67D8E0       aDjiTransSLUDji_4
 0003:0E67D918       aDjiTransSLUDji_5
 0003:0E67D950       aDjiTransSLUSta
 0003:0E67D97C       aDjiTransSLUDji_6
 0003:0E67D9BC       aDjiTransSLUSee
 0003:0E67D9E8       aDjiTransSLUStr
 0003:0E67DA24       aTranssrvSendst_0
 0003:0E67DA44       aDjiTransSLUSen_10
 0003:0E67DA6C       aDjiTransSLUSen_11
 0003:0E67DA9C       aAddAnEmptyFram
 0003:0E67DACC       aDjiTransSLUSen_12
 0003:0E67DAF4       aDjiTransSLUSen_13
 0003:0E67DB24       aDjiTransSLUHan
 0003:0E67DB4C       aDjiTransSLUNoE_0
 0003:0E67DB7C       aDjiTransSLUSen_14
 0003:0E67DBA4       aDjiTransSLUGet_19
 0003:0E67DBD0       aDjiTransSLUDur
 0003:0E67DC28       aDjiTransSLUAdd
 0003:0E67DC6C       aDjiTransSLUSen_15
 0003:0E67DCA0       aTranssrvEndstr
 0003:0E67DCB8       aDjiTransSLUSen_20
 0003:0E67DCE0       aDjiTransSLUDji_7
 0003:0E67DD18       aDjiTransSLUSto
 0003:0E67DD44       aDjiTransSLUDji_8
 0003:0E67DD80       aDjiTransSLUPau
 0003:0E67DDAC       aDjiTransSLUCle
 0003:0E67DDE0       aTranssrvMainpr
 0003:0E67DDF4       aDjiTransSLUPro
 0003:0E67DE18       aDjiTransSLUMes_4
 0003:0E67DE44       aDjiTransSLUNot_3
 0003:0E67DE88       aDjiTransSLURec
 0003:0E67DEC4       aDjiTransSLUDro
 0003:0E67DEF4       aDjiTransSLUDro_0
 0003:0E67DF24       aDjiTransSLURec_0
 0003:0E67DF58       aDjiTransSLURec_1
 0003:0E67DF88       aDjiTransSLURec_2
 0003:0E67DFC0       aDjiTransSLURec_3
 0003:0E67E000       aDjiTransSLUSta_0
 0003:0E67E02C       aDjiTransSLUUns_1
 0003:0E67E058       aDjiTransSLUDro_1
 0003:0E67E088       aTransferSucces
 0003:0E67E0A0       aDjiTransSLUCon
 0003:0E67E0D0       aTransferNoAnsw
 0003:0E67E0EC       aTransferErrorA
 0003:0E67E104       aDjiTransSLUSam
 0003:0E67E154       aDjiTransSLUImp
 0003:0E67E178       aTranssrvMainta
 0003:0E67E190       aTransWaitFlag0
 0003:0E67E1A8       aDjiTransSLUImp_0
 0003:0E67E1DC       aDjiTransSLULin
 0003:0E67E200       aTranssrvInit
 0003:0E67E210       aDjiTransSLUIpc
 0003:0E67E238       aDjiTransSLUMem
 0003:0E67E260       aDjiTransSLUMsg
 0003:0E67E28C       aDjiTransSLUDat_1
 0003:0E67E2BC       aDjiTransSLUWin_8
 0003:0E67E2EC       aDjiTransSLUIni
 0003:0E67E324       aDjiTransSLUIni_0
 0003:0E67E358       aDjiTransSLUIni_1
 0003:0E67E388       aDjiTransSLUCre
 0003:0E67E3BC       aDjiTransSLUFai_0
 0003:0E67E3F8       aDjiTransSLUFai_1
 0003:0E67E434       aTranssrvtask
 0003:0E67E444       aDjiTransSLUFai_2
 0003:0E67E478       aShow_7
 0003:0E67E480       aShowUpdaterEng
 0003:0E67E4B0       aSetPacketUpdat
 0003:0E67E4E0       aFw_0
 0003:0E67E4E4       aSetFirmwareUpd
 0003:0E67E524       aClearAllUpdate
 0003:0E67E54C       aSave_2
 0003:0E67E554       aSaveFirmwareUp
 0003:0E67E58C       aSet
 0003:0E67E590       aEnablePacketUp
 0003:0E67E5D4       aVlnk
 0003:0E67E5DC       aSetPacketUpdat_0
 0003:0E67E624       aDjiuegfpgafini
 0003:0E67E63C       aDjiUegSGetFile
 0003:0E67E670       aCS_1
 0003:0E67E678       aP3xFwLogAbTxt
 0003:0E67E68C       aP3xFwResultAbT
 0003:0E67E6A4       aCSSS_0
 0003:0E67E6B4       aMisc_1
 0003:0E67E6BC       aDeleteHistoryS
 0003:0E67E6D8       a08dDeleteHisto
 0003:0E67E6FC       aDjiuegupdatelo
 0003:0E67E714       aDjiUegSInvalid
 0003:0E67E738       aDjiUegSOpenLog
 0003:0E67E75C       aDjiUegSWriteLo
 0003:0E67E780       aDjiuegupdatere
 0003:0E67E79C       aDjiUegSOpenFil
 0003:0E67E7BC       aDjiUegSWriteFi
 0003:0E67E7DC       aDjiuegpathpost
 0003:0E67E7F4       aDjiUegSInvalid_0
 0003:0E67E81C       aUpdated
 0003:0E67E828       aDamaged
 0003:0E67E834       aSkipped
 0003:0E67E840       aReceive
 0003:0E67E84C       aFactory
 0003:0E67E858       aSuccess
 0003:0E67E864       aFail
 0003:0E67E86C       aDjiuegfwconfig
 0003:0E67E880       aDjiUegSSearchF
 0003:0E67E8AC       aDjiUegSInvalid_1
 0003:0E67E904       aDjiuegfwmsghan
 0003:0E67E918       aDjiUegSInvalid_2
 0003:0E67E948       aDjiuegfwinfoge
 0003:0E67E95C       aDjiuegfwrxinfo
 0003:0E67E974       aDjiuegfwpathge
 0003:0E67E988       aDjiUegSInvalid_3
 0003:0E67E9B0       aDjiuegfwstepre
 0003:0E67E9C8       aDjiUegSInvalid_4
 0003:0E67E9F8       aDjiuegfwstages
 0003:0E67EA0C       aDjiUegSInvalid_5
 0003:0E67EA38       aDjiUegSGetFirm
 0003:0E67EA60       aDjiuegfwstageg
 0003:0E67EA74       aDjiuegfwconfir
 0003:0E67EA88       aDjiuegfwconfir_0
 0003:0E67EA9C       aDjiuegupdatest
 0003:0E67EAB4       aDjiUegSReadRes
 0003:0E67EAE0       aDjiUegSSetPack
 0003:0E67EB08       aDjiUegSSetFirm
 0003:0E67EB40       aDjiUegSSetFirm_0
 0003:0E67EB7C       aDjiuegfwflaggi
 0003:0E67EB90       aDjiUegSUndefin
 0003:0E67EBCC       aDjiuegfwflagwa
 0003:0E67EBE0       aDjiUegSUndefin_0
 0003:0E67EC20       aDjiuegfwisencf
 0003:0E67EC54       aDjiUegSGetFirm_0
 0003:0E67EC8C       aDjiUegSStateFi
 0003:0E67ECBC       aDjiUegSInvalid_6
 0003:0E67ECE0       aDjiUegSOpenFil_0
 0003:0E67ED0C       aDjiUegSReadFil
 0003:0E67ED40       aDjiUegSSeekFil
 0003:0E67ED74       aDjiUegSReadFil_0
 0003:0E67EDA8       aDjiUegSVertify
 0003:0E67EDD0       aDjiUegSCheckFi
 0003:0E67EDF4       aDjiUegSCalcSum
 0003:0E67EE14       aDjiuegfwcheck
 0003:0E67EE44       aDjiUegSFirmwar
 0003:0E67EE70       aDjiUegRawFirmw
 0003:0E67EE98       aDjiUegEncFirmw
 0003:0E67EEC0       aDjiuegfwdetect
 0003:0E67EED4       aDjiUegSGetFirm_1
 0003:0E67EF0C       aDjiUegFirmware
 0003:0E67EF30       aDjiUegSRenameF
 0003:0E67EF70       aDjiUegSSFirmwa
 0003:0E67EF94       aDjiuegfwmsgver
 0003:0E67EFB0       aDjiuegfwmsgver_0
 0003:0E67EFCC       aDjiUegSSCheckV
 0003:0E67F000       aDjiUegSGetPack
 0003:0E67F024       aDjiUegSInvalid_7
 0003:0E67F04C       aPhantom3Djibat
 0003:0E67F05C       aDjiUegSBattery
 0003:0E67F0A0       a08d02d02d02dVD
 0003:0E67F0FC       aDjiUegSOriginV
 0003:0E67F124       aDjiUegSUpdateV
 0003:0E67F14C       aDjiUegSNeedUpd
 0003:0E67F168       aDjiuegfwmsgent
 0003:0E67F184       aDjiuegfwmsgent_0
 0003:0E67F19C       aDjiUegSSUpdate
 0003:0E67F1D0       aDjiuegfwmsgcon
 0003:0E67F1FC       aDjiUegSResetSU
 0003:0E67F228       aDjiUegSEstabli
 0003:0E67F268       aDjiuegfwmsgcon_0
 0003:0E67F284       aDjiUegSSUpdate_0
 0003:0E67F2B8       aDjiuegfwmsgtra
 0003:0E67F2D4       aDjiUegSSendSUp
 0003:0E67F318       aDjiUegSReadFil_1
 0003:0E67F338       aDjiuegfwmsgtra_0
 0003:0E67F354       aDjiUegSSTransm
 0003:0E67F398       aDjiuegfwmsgfin
 0003:0E67F3B4       aDjiuegfwmsgfin_0
 0003:0E67F3CC       aDjiUegSSFinish
 0003:0E67F40C       aDjiUegSSFinish_0
 0003:0E67F450       aDjiuegfwmsgreb
 0003:0E67F47C       aDjiuegfwmsgreb_0
 0003:0E67F494       aDjiUegSSReboot
 0003:0E67F4C8       aDjiuegfwusbtra
 0003:0E67F4E0       aDjiuegfwcamera
 0003:0E67F518       aDjiUegSOriginV_0
 0003:0E67F548       aDjiUegSUpdateV_0
 0003:0E67F578       aDjiuegfwcamapp
 0003:0E67F58C       aDjiUegSSGetPac
 0003:0E67F5B4       aDjiUegSFirmwar_0
 0003:0E67F5E4       aDjiUegSetMagic
 0003:0E67F600       aDjiUegSStartUp
 0003:0E67F63C       aDjiUegSSaveUpd
 0003:0E67F674       aDjiuegfwcamldr
 0003:0E67F688       aDjiuegfwcambst
 0003:0E67F69C       aDjiuegfwwifien
 0003:0E67F6C0       aHg310Bin
 0003:0E67F6CC       aDjiUegSCopyFil
 0003:0E67F6FC       aDjiUegSVertify_0
 0003:0E67F728       aDjiuegfpgaclea
 0003:0E67F740       aDjiUegSGetFirm_2
 0003:0E67F778       aDjiUegSStartSt
 0003:0E67F79C       a08d02d02dStart
 0003:0E67F7DC       aDjiuegfwversio
 0003:0E67F7F0       aDjiUegSInvalid_8
 0003:0E67F820       aDjiUegSCheckVe
 0003:0E67F84C       aDjiUegSSVersio
 0003:0E67F888       aDjiUegSS1Timeo
 0003:0E67F8BC       aDjiUegSCheckVe_0
 0003:0E67F8E4       aDjiuegfwentryp
 0003:0E67F8F8       aDjiUegSUpdateE
 0003:0E67F920       aDjiUegSS2FailR
 0003:0E67F950       aDjiUegSS2Timeo
 0003:0E67F984       aDjiUegSUpdateE_0
 0003:0E67F9AC       aDjiuegfwconfir_1
 0003:0E67F9C0       aDjiUegSUpdateC
 0003:0E67F9EC       aDjiUegSS3FailR
 0003:0E67FA20       aDjiUegSS3Timeo
 0003:0E67FA58       aDjiUegSUpdateC_0
 0003:0E67FA80       aDjiuegfwtransm
 0003:0E67FA98       aDjiUegSFirmwar_1
 0003:0E67FAC4       aDjiUegSS4FailR
 0003:0E67FAFC       aDjiUegSFirmwar_2
 0003:0E67FB28       aDjiUegSS4Timeo
 0003:0E67FB60       aDjiUegPleaseDi
 0003:0E67FB84       a08d02d02dUsbCo
 0003:0E67FBA8       aDjiUegPleaseIn
 0003:0E67FBCC       a08d02d02dSdCar
 0003:0E67FBF4       aDjiUegSTransmi
 0003:0E67FC20       aDjiuegfwfinish
 0003:0E67FC34       aDjiUegSFinishC
 0003:0E67FC60       aDjiUegSS5Timeo
 0003:0E67FC98       aDjiUegSFinishC_0
 0003:0E67FCC0       aDjiuegfwreboot
 0003:0E67FCD4       aDjiUegSRebootD
 0003:0E67FCFC       aDjiUegSS6Timeo
 0003:0E67FD30       aDjiUegSRebootD_0
 0003:0E67FD58       aDjiuegfwsuccee
 0003:0E67FD70       aDjiUegReport
 0003:0E67FD98       aDjiUegFirmware_0
 0003:0E67FDBC       aDjiUegPacketSi
 0003:0E67FDE0       aDjiUegSendTime
 0003:0E67FE04       aDjiUegTotalTim
 0003:0E67FE28       aDjiUeg
 0003:0E67FE54       aDjiuegfwfailha
 0003:0E67FE68       a08dPacketUpgra
 0003:0E67FEA4       aResultFailedRe
 0003:0E67FEF4       aDjiUegPacketUp
 0003:0E67FF14       aDjiuegfwrxrece
 0003:0E67FF2C       aDjiUegSOpenFil_1
 0003:0E67FF58       aDjiUegSWriteFi_0
 0003:0E67FF88       aDjiuegfwrxentr
 0003:0E67FFA4       aDjiUegCameraEn
 0003:0E67FFC8       aDjiUegSSystemN
 0003:0E67FFEC       aDjiUegSLinuxNo
 0003:0E680010       aDjiUegSCheckCa
 0003:0E680038       aDjiUegSCardErr
 0003:0E680064       aDjiUegSGetOpMo
 0003:0E680094       aDjiUegSCurrent
 0003:0E6800D0       aDjiUegSMotorIs
 0003:0E680100       aDjiUegSAuthorL
 0003:0E680134       aDjiUegSAjustTa
 0003:0E68016C       aDjiUegSGetRxFi
 0003:0E6801A4       aDjiUegCameraEn_0
 0003:0E6801C8       a08dFirmwareUpg
 0003:0E6801FC       aDjiuegfwrxconf
 0003:0E680214       aDjiUegCameraCo
 0003:0E68023C       aDjiUegSCurrent_0
 0003:0E680280       a08dFirmwareUpg_0
 0003:0E6802D4       aDjiUegCameraCo_0
 0003:0E6802F8       aDjiuegfwrxtran
 0003:0E680314       aDjiUegSInvalid_9
 0003:0E680344       aDjiUegSInvalid_10
 0003:0E680384       aDjiUegCameraTr
 0003:0E6803AC       aDjiUegSTransmi_0
 0003:0E6803EC       aDjiUegTransmit
 0003:0E68040C       aDjiUegSTransmi_1
 0003:0E680444       aDjiUegTransmit_0
 0003:0E680470       aDjiuegfwrxfini
 0003:0E680498       aDjiUegCameraFi
 0003:0E6804BC       aDjiUegSSizeChe
 0003:0E6804E8       aDjiUegSSearchR
 0003:0E680524       aDjiUegSCalcCrc
 0003:0E680550       aDjiUegSExpext0
 0003:0E68057C       aDjiUegSCalcMd5
 0003:0E6805A8       aDjiUegSExpextM
 0003:0E6805C4       aDjiUegSActualM
 0003:0E6805E0       aDjiUegSRetryEx
 0003:0E680618       aDjiUegSDeleteP
 0003:0E68064C       aDjiUegSRenameF_0
 0003:0E680680       aDjiUegCameraFi_0
 0003:0E6806A4       a08dFirmwareUpg_1
 0003:0E6806E4       aDjiuegfwupdate
 0003:0E6806F8       a08d04d02d02d02
 0003:0E680744       a08dSBootD
 0003:0E680774       aRemoConDisconn
 0003:0E680788       a08dFirmwareSDe
 0003:0E6807BC       a08d02d02dFirmw
 0003:0E6807EC       aDjiUegSRebootN
 0003:0E68081C       a08d02d02dFirmw_0
 0003:0E68085C       aDjiUegSSRetryE
 0003:0E6808C0       a08d02d02dFirmw_1
 0003:0E680938       a08d02d02dFirmw_2
 0003:0E6809A4       a08d02d02dFirmw_3
 0003:0E680A04       a08d02d02dFirmw_4
 0003:0E680A68       a08d02d02dFirmw_5
 0003:0E680AB8       aDjiUegSUndefin_1
 0003:0E680AF4       aDjiUegSLinuxBo
 0003:0E680B18       aDjiUegSIpcAtta
 0003:0E680B38       aDjiUegSSwitchT
 0003:0E680B60       a08d02d02dFirmw_6
 0003:0E680BC0       aDjiUegSStopStr
 0003:0E680BE4       a08d02d02dStopS
 0003:0E680C24       aDjiUegStepDIsO
 0003:0E680C50       a08d02d02dFirmw_7
 0003:0E680C90       aDjiUegSFirmwar_4
 0003:0E680CB8       a08dDone
 0003:0E680CCC       aDjiUegSFirmwar_3
 0003:0E680CF4       aDjiuegfworderc
 0003:0E680D0C       aDjiUegSSkipUnn
 0003:0E680D38       aDjiuegfwupdate_0
 0003:0E680D4C       aDjiuegStask
 0003:0E680D5C       aDjiUegSCreateF
 0003:0E680D9C       aDjiUegSTermina
 0003:0E680DE0       aDjiUegSDeleteF
 0003:0E680E20       aDjiuegpktstage
 0003:0E680E34       aDjiuegpktstage_0
 0003:0E680E48       aResultForbidde
 0003:0E680EB8       aResultSuccess
 0003:0E680ECC       aResultCorrupte
 0003:0E680F34       aResultAbortThe
 0003:0E680FA8       aResultCanceled
 0003:0E680FD4       aResultTimeoutN
 0003:0E681038       aResultProhibit
 0003:0E6810B4       aResultAbortThe_0
 0003:0E68113C       aDjiuegpktselec
 0003:0E68114C       aDjiUegSNullPoi
 0003:0E681174       aDjiUegSGetPack_0
 0003:0E681198       aDjiUegSkipPack
 0003:0E6811B8       aSkippedS
 0003:0E6811C4       aS_9
 0003:0E6811CC       aDjiUegSRenameP
 0003:0E68120C       aSkippedPacketS
 0003:0E681220       aP3xFwV99999999
 0003:0E681238       a04d02d02d02d02
 0003:0E681280       aPacketS
 0003:0E68128C       aP3xFwDebug
 0003:0E68129C       aP3xFwDebug2
 0003:0E6812AC       aP3xFwLoop
 0003:0E6812B8       aDjiUegPacketDe
 0003:0E6812DC       aDjiuegpktheade
 0003:0E6812F0       aDjiUegSStatPat
 0003:0E68131C       aDjiUegSOpenPat
 0003:0E681348       aDjiUegSPacketL
 0003:0E681388       aDjiUegSReadHea
 0003:0E6813B8       aDjiUegSSeekPat
 0003:0E6813E4       aDjiUegSPacketL_0
 0003:0E681424       aDjiUegSReadWho
 0003:0E681458       aDjiuegpktversi
 0003:0E681470       aDjiUegSNullPoi_0
 0003:0E681494       aDjiUegSCalcMd5_0
 0003:0E6814B4       aDjiUegSWriteNa
 0003:0E6814DC       aDjiUegSReadNan
 0003:0E681500       aDjiUegRetryExc
 0003:0E681538       aDjiuegpktversi_0
 0003:0E681560       aDjiUegSExpect
 0003:0E681578       aDjiUegSActual
 0003:0E681590       aDjiUegSVertify_1
 0003:0E6815B0       aDjiuegpktversi_1
 0003:0E6815E4       aDjiUegNoNeedTo
 0003:0E681610       aDjiuegpktflowt
 0003:0E681640       aDjiUegSGetVers
 0003:0E681668       aDjiUegNandVers
 0003:0E6816C8       a08dRecordVlink
 0003:0E681710       aDjiuegpktheade_0
 0003:0E681728       aDjiUegSInvalid_11
 0003:0E681758       aDjiUegSInvalid_12
 0003:0E681788       aDjiUegSInvalid_13
 0003:0E6817B8       aDjiUegSInvalid_14
 0003:0E681820       aDjiUegSExpect0
 0003:0E68184C       aDjiUegPacketVe
 0003:0E6818AC       a08dPacketVlink
 0003:0E6818E8       aDjiuegpktperce
 0003:0E681904       aDjiUegSNullPoi_1
 0003:0E68192C       aDjiuegpktversi_2
 0003:0E681944       aDjiUegSGetPake
 0003:0E681968       aDjiUegSSkipUnn_0
 0003:0E68199C       aDjiUegSInvalid_15
 0003:0E6819D0       a08d02d02d02dVD_0
 0003:0E681A10       a08d02d02d02dVD_1
 0003:0E681A58       a08d02d02d02dVD_2
 0003:0E681A8C       a08d02d02d02dVD_3
 0003:0E681AC4       aDjiUegSNotDete
 0003:0E681AE4       a08d02d02d02dDe
 0003:0E681B14       aDjiUegSRemains
 0003:0E681B40       aDjiUegSEndRema
 0003:0E681B70       aDjiuegpktfwinf
 0003:0E681B94       aDjiuegpktorder
 0003:0E681BAC       aDjiUegSInitFir
 0003:0E681BE4       a08d02d02dFirmw_8
 0003:0E681C14       a08d02d02dFirmw_9
 0003:0E681C5C       a08d02d02dFirmw_10
 0003:0E681CA8       aDjiuegpktconfo
 0003:0E681CBC       aDjiUegSInvalid_16
 0003:0E681CE8       aDjiUegSSetFirm_1
 0003:0E681D28       aDjiuegpktuserc
 0003:0E681D40       aDjiUegSTimeOut
 0003:0E681D88       a08dTimeoutUpgr
 0003:0E681DB0       aDjiUegSTimeOut_0
 0003:0E681DF4       a08dProhibitFli
 0003:0E681E34       aDjiUegSTimeOut_1
 0003:0E681E78       a08dTimeoutStar
 0003:0E681EAC       aDjiUegSSetConf
 0003:0E681ECC       a08dUserConfirm
 0003:0E681EE8       a08dUserCancell
 0003:0E681F04       aDjiUegSConfirm
 0003:0E681F20       aDjiuegpktupdat
 0003:0E681F30       a08dPacketSDete
 0003:0E681F64       a08dPacketUpgra_0
 0003:0E681F88       a08d0100Firmwar
 0003:0E681FBC       a08dPacketUpgra_1
 0003:0E681FF8       a08d0100Firmwar_0
 0003:0E682034       a08dPacketSResu
 0003:0E682064       aDjiUegStateChe
 0003:0E682088       a08dPacketUpgra_2
 0003:0E6820CC       aDjiUegStateChe_0
 0003:0E6820F0       aDjiUegPacketCh
 0003:0E682114       aDjiUegSGetPack_1
 0003:0E682148       a08dPacketUpgra_3
 0003:0E682184       a08dPacketCheck
 0003:0E6821A0       aDjiUegSCheckPa
 0003:0E6821D0       aDjiUegUpdateFl
 0003:0E6821F4       aDjiUegPacketCh_0
 0003:0E682218       aDjiUegVersionC
 0003:0E682244       a08dVersionChec
 0003:0E682268       aDjiUegSCheckVe_1
 0003:0E682298       a08dPacketUpgra_4
 0003:0E6822D4       aDjiUegVersionC_0
 0003:0E6822FC       a08dPacketUpgra_5
 0003:0E68233C       aDjiUegUserConf
 0003:0E682360       a08dWaitingForU
 0003:0E682388       aDjiUegSUserCon
 0003:0E6823AC       a08dPacketUpgra_7
 0003:0E6823E4       aDjiUegSUserCon_0
 0003:0E682408       aDjiUegUserConf_0
 0003:0E68242C       aUpgrading
 0003:0E68243C       aDjiUegFirmware_1
 0003:0E682468       a08dFirmwareUpg_2
 0003:0E68248C       aDjiUegSFirmwar_5
 0003:0E6824C0       aDjiUegFirmware_2
 0003:0E6824EC       a08dPacketUpgra_6
 0003:0E682520       aDjiUegPacketUp_1
 0003:0E682544       aDjiUegPacketUp_0
 0003:0E682568       aDjiuegpktupdat_0
 0003:0E68257C       aDjiUegSCreateP
 0003:0E6825A8       aDjiUegSTermina_0
 0003:0E6825D4       aDjiUegSDeleteP_0
 0003:0E682600       aDjiuegupdatest_0
 0003:0E682618       aDjiUegSResumeU
 0003:0E68263C       aDjiUegSSetPack_0
 0003:0E682664       aDjiueginit
 0003:0E682670       aDjiUegSUpdateE_1
 0003:0E682698       aDjiUegSCheckFi_0
 0003:0E6826C4       aDjiUegSCreateF_0
 0003:0E6826EC       aDjiUegSCreateR
 0003:0E682714       aDjiUegSCreateV
 0003:0E682744       aDjiUegSCreateE
 0003:0E682770       aDjiUegSCreateC
 0003:0E6827A0       aDjiUegSCreateT
 0003:0E6827D0       aDjiUegSCreateF_1
 0003:0E682800       aDjiUegSCreateR_0
 0003:0E682830       aDjiUegSCreateE_0
 0003:0E682858       aDjiUegSUpdateE_2
 0003:0E682880       aDjiuegtestshow
 0003:0E682894       aDjiUegPacketUp_2
 0003:0E6828B8       aDjiUegCheckSta
 0003:0E6828E4       aDjiUegFirmware_3
 0003:0E682910       aDjiUegConfirmS
 0003:0E68293C       aDjiUegFirmware_4
 0003:0E68296C       aDjiUegUpdateSt
 0003:0E682998       aDjiUegFirmware_5
 0003:0E6829C4       aDjiuegtestpkts
 0003:0E6829DC       aDjiUegSArgnumU
 0003:0E6829FC       aDjiUegSSetPack_1
 0003:0E682A34       aDjiUegSetPacke
 0003:0E682A5C       aDjiuegtestfwst
 0003:0E682A74       aDjiUegSSetFirm_2
 0003:0E682AC0       aDjiUegSetFirmw
 0003:0E682AE8       aDjiuegtestconf
 0003:0E682B00       aDjiUegSSetFirm_3
 0003:0E682B4C       aDjiUegSetFirmw_0
 0003:0E682B78       aDjiuegtestfwst_0
 0003:0E682B90       aDjiUegSSaveFir
 0003:0E682BC0       aDjiUegSaveFirm
 0003:0E682BEC       aDjiuegtestfwst_1
 0003:0E682C04       aDjiUegClearPac
 0003:0E682C2C       aDjiuegtestloop
 0003:0E682C40       aDjiUegSInvalid_17
 0003:0E682C6C       aDjiUegSPacketU
 0003:0E682C90       aDebug
 0003:0E682C98       aLoop
 0003:0E682CA0       aEnable_0
 0003:0E682CA8       aDisable_0
 0003:0E682CB0       aDjiuegtestvers
 0003:0E682CE0       aDjiUegSLatestv
 0003:0E682D30       aDjiUstMultiCap
 0003:0E682D48       aDjiUstPhotoJpe
 0003:0E682D64       aDjiUstPhotoSiz
 0003:0E682D78       aDjiUstPhotoFmt
 0003:0E682D8C       aDjiUstIso
 0003:0E682D98       aDjiUstWb
 0003:0E682DA4       aDjiUstAeMeterM
 0003:0E682DBC       aDjiUstShutterT
 0003:0E682DD4       aDjiUstEvBias
 0003:0E682DE4       aDjiUstPhotoAeb
 0003:0E682DF8       aDjiUstSharpnes
 0003:0E682E0C       aDjiUstContrast
 0003:0E682E20       aDjiUstContiCap
 0003:0E682E34       aDjiUstPhotoQui
 0003:0E682E4C       aDjiUstScene
 0003:0E682E5C       aDjiUstFaceDete
 0003:0E682E70       aDjiUstSaturati
 0003:0E682E84       aDjiUstHue
 0003:0E682E90       aDjiUstAperture
 0003:0E682EA4       aDjiUstDigitalE
 0003:0E682EBC       aDjiUstVideoSiz
 0003:0E682ED0       aDjiUstVideoSto
 0003:0E682EEC       aDjiUstVideoAfl
 0003:0E682F00       aDjiUstVideoFov
 0003:0E682F14       aDjiUstVideoQua
 0003:0E682F2C       aDjiUstVideoStr
 0003:0E682F44       aDjiUstVideoAud
 0003:0E682F58       aDjiUstCameraCo
 0003:0E682F70       aDjiUstGpsConfi
 0003:0E682F84       aDjiUstOpMode
 0003:0E682F94       aDjiUstUsbClass
 0003:0E682FA8       aDjiUstHdmiOut
 0003:0E682FBC       aDjiUstDmf
 0003:0E682FC8       aDjiUstModeDial
 0003:0E682FDC       aDjiUstHistogra
 0003:0E682FF0       aDjiUstSubtitle
 0003:0E683004       aDjiUstPalNtsc
 0003:0E683018       aDjiUstPanoMode
 0003:0E68302C       aDjiUstCamRever
 0003:0E683040       aDjiustromsecto
 0003:0E683058       aDjiUstSUndefin
 0003:0E683084       aDjiustusersett
 0003:0E68309C       aDjiUstSGetStor
 0003:0E6830DC       aDjiUstSWriteNa
 0003:0E68312C       aDjiustusersett_0
 0003:0E683148       aDjiUstSReadNan
 0003:0E683198       aDjiustmulticap
 0003:0E6831B0       aDjiUstSSizeDSi
 0003:0E6831E0       aDjiUstSSetting
 0003:0E68320C       aDjiUstSStartSe
 0003:0E683230       aDjiUstSCallCal
 0003:0E683264       aDjiUstSEndSett
 0003:0E683288       aDjiustphotojpe
 0003:0E6832A4       aDjiUstSSetting_0
 0003:0E6832F0       aDjiUstSSetting_1
 0003:0E683314       aDjiustphotosiz
 0003:0E683328       aDjiustphotofmt
 0003:0E68333C       aDjiustisoset
 0003:0E68334C       aDjiUstSCurrent
 0003:0E68338C       aDjiustwbset
 0003:0E683398       aDjiustaemeterm
 0003:0E6833B0       aDjiustshuttert
 0003:0E6833C8       aDjiUstSCurrent_0
 0003:0E683410       aDjiUstSShutter
 0003:0E683440       aDjiustevbiasse
 0003:0E683450       aDjiUstSCurrent_1
 0003:0E683480       aDjiustphotoaeb
 0003:0E683494       aDjiUstSAebSett
 0003:0E6834D8       aDjiustsharpnes
 0003:0E6834EC       aDjiustcontrast
 0003:0E683500       aDjiustconticap
 0003:0E683514       aDjiUstSContica
 0003:0E683554       aDjiUstSContica_0
 0003:0E68358C       aDjiustphotoqui
 0003:0E6835A4       aDjiUstSQuickvi
 0003:0E6835D8       aDjiustsceneset
 0003:0E6835E8       aDjiUstSCurrent_2
 0003:0E68362C       aDjiustfacedete
 0003:0E683640       aDjiUstSFaceDet
 0003:0E683678       aDjiustsaturati
 0003:0E68368C       aDjiusthueset
 0003:0E68369C       aDjiustaperture
 0003:0E6836B0       aDjiustdigitale
 0003:0E6836C8       aDjiustvideosiz
 0003:0E6836DC       aDjiustvideosto
 0003:0E6836F8       aDjiustvideoafl
 0003:0E68370C       aDjiustvideofov
 0003:0E683720       aDjiustvideoqua
 0003:0E683738       aDjiustvideostr
 0003:0E683750       aDjiustvideoaud
 0003:0E683764       aDjiUstSAudioSe
 0003:0E683798       aDjiustcameraco
 0003:0E6837B0       aDjiustgpsconfi
 0003:0E6837C4       aDjiustopmodese
 0003:0E6837D4       aDjiUstSModeDia
 0003:0E6837F4       aDjiustusbclass
 0003:0E683808       aDjiusthdmiouts
 0003:0E68381C       aDjiustdmfset
 0003:0E68382C       aDjiustmodedial
 0003:0E683840       aDjiUstSCurrent_3
 0003:0E683874       aDjiusthistogra
 0003:0E683888       aDjiustsubtitle
 0003:0E68389C       aDjiustpalntscs
 0003:0E6838B0       aDjiustpanomode
 0003:0E6838C4       aDjiustpanomode_0
 0003:0E6838D8       aDjiustcamrever
 0003:0E6838EC       aDjiustmulticap_0
 0003:0E683904       aDjiustphotojpe_0
 0003:0E683920       aDjiustphotosiz_0
 0003:0E683934       aDjiustphotofmt_0
 0003:0E683948       aDjiustisoget
 0003:0E683958       aDjiustwbget
 0003:0E683964       aDjiustaemeterm_0
 0003:0E68397C       aDjiustshuttert_0
 0003:0E683994       aDjiustevbiasge
 0003:0E6839A4       aDjiustphotoaeb_0
 0003:0E6839B8       aDjiustsharpnes_0
 0003:0E6839CC       aDjiustcontrast_0
 0003:0E6839E0       aDjiustconticap_0
 0003:0E6839F4       aDjiustphotoqui_0
 0003:0E683A0C       aDjiustsceneget
 0003:0E683A1C       aDjiustfacedete_0
 0003:0E683A30       aDjiustsaturati_0
 0003:0E683A44       aDjiusthueget
 0003:0E683A54       aDjiustaperture_0
 0003:0E683A68       aDjiustdigitale_0
 0003:0E683A80       aDjiustvideosiz_0
 0003:0E683A94       aDjiustvideosto_0
 0003:0E683AB0       aDjiustvideoafl_0
 0003:0E683AC4       aDjiustvideofov_0
 0003:0E683AD8       aDjiustvideoqua_0
 0003:0E683AF0       aDjiustvideostr_0
 0003:0E683B08       aDjiustvideoaud_0
 0003:0E683B1C       aDjiustcameraco_0
 0003:0E683B34       aDjiustgpsconfi_0
 0003:0E683B48       aDjiustopmodege
 0003:0E683B58       aDjiustusbclass_0
 0003:0E683B6C       aDjiusthdmioutg
 0003:0E683B80       aDjiustdmfget
 0003:0E683B90       aDjiustmodedial_0
 0003:0E683BA4       aDjiusthistogra_0
 0003:0E683BB8       aDjiustsubtitle_0
 0003:0E683BCC       aDjiustpalntscg
 0003:0E683BE0       aDjiustcamrever_0
 0003:0E683BF4       aDjiustsetfunce
 0003:0E683C0C       aDjiUstSExecute
 0003:0E683C48       aDjiusttakeeffe
 0003:0E683C5C       aDjiUstSTakeUse
 0003:0E683C94       aDjiUstSExecute_0
 0003:0E683CD8       aDjiUstSLoadUse
 0003:0E683D08       aDjiUstSLoadUse_0
 0003:0E683D38       aDjiustvideoqua_1
 0003:0E683D54       aDjiUstSSetting_2
 0003:0E683D88       aDjiustphotosiz_1
 0003:0E683DA4       aDjiustphotofmt_1
 0003:0E683DC0       aDjiustvideosiz_1
 0003:0E683DDC       aDjiUstSReconfi
 0003:0E683E00       aDjiustvideostr_1
 0003:0E683E20       aDjiustusbclass_1
 0003:0E683E3C       aDjiustmodedial_1
 0003:0E683E58       aDjiUstSCurrent_4
 0003:0E683E8C       aDjiustsetcallb
 0003:0E683EA4       aDjiUstSInputId
 0003:0E683EC8       aDjiustusersett_1
 0003:0E683EE0       aDjiUstSStorage
 0003:0E683F10       aDjiUstSTakeUse_0
 0003:0E683F4C       aDjiUstSUserSet
 0003:0E683F8C       aDjiUstSWriteUs
 0003:0E683FC8       aDjiusersetting
 0003:0E683FE0       aDjiUstSReadUse
 0003:0E684014       aDjiUstSUserSet_0
 0003:0E684064       aDjiusersetting_0
 0003:0E684078       aDjiUstSLoadUse_1
 0003:0E6840B0       aDjiUstSExecute_1
 0003:0E6840E8       aDjiUstVersion0
 0003:0E684100       aDjiUstUserIdMa
 0003:0E68411C       aDjiUstDSDD
 0003:0E684140       aDjiUstDSDDDDD
 0003:0E684168       aDjiUstDSDDDDD_0
 0003:0E684198       aDjiUstDSDD_0
 0003:0E6841C0       aDjiUstDS0xX
 0003:0E6841E4       aDjiUstMagic0xX
 0003:0E6841FC       aDjiUstChecksum
 0003:0E684214       aDjiustdefaultu
 0003:0E684238       aDjiUstSSaveUse
 0003:0E684270       aDjiustdefaultu_0
 0003:0E684290       aDjiustusersett_2
 0003:0E6842A8       aDjiUstSInputEr
 0003:0E6842E0       aDjiUstSTakeUse_1
 0003:0E684320       aDjiUstSCallSet
 0003:0E68435C       aDjiUstSSetFunc
 0003:0E684390       aDjiustusersett_3
 0003:0E6843A8       aDjiUstSInputEr_0
 0003:0E6843E0       aDjiUstSGetUser
 0003:0E684410       aDjiUstSGetFunc
 0003:0E684444       aDjiustusersett_4
 0003:0E684464       aDjiustvideobit
 0003:0E68447C       aDjiUstSInputEr_1
 0003:0E6844B0       aDjiUstSGetVide
 0003:0E6844D4       aDjiUstSUnsuppo
 0003:0E6844FC       aDjiustadjustsh
 0003:0E684514       aDjiUstSOrigina
 0003:0E68453C       aDjiUstSAdjuste
 0003:0E684564       aDjiustadjustis
 0003:0E684574       aDjiUstSOrigina_0
 0003:0E684594       aDjiUstSAdjuste_0
 0003:0E6845B4       aDjiustitemmute
 0003:0E6845CC       aDjiUstSCreateU
 0003:0E684610       aDjiustinit
 0003:0E68461C       aDjiUstSUserSet_1
 0003:0E684644       aDjiUstSAmbanft
 0003:0E684674       aDjiUstSAmbanft_0
 0003:0E6846A0       aDjiUstSCreateU_0
 0003:0E6846D8       aDjiUstSCreateU_1
 0003:0E684714       aDjiUstSCreateU_2
 0003:0E684754       aDjiUstSLoadUse_2
 0003:0E684790       aDjiUstSUseDefa
 0003:0E6847BC       aDjiUstSLoadDef
 0003:0E6847F4       aDjiUstSUserSet_2
 0003:0E684A70       aSaveUserSettin
 0003:0E684AB0       aLoadUserSettin
 0003:0E684AF4       aLoadDefaultUse
 0003:0E684B30       aModifyUserSett
 0003:0E684B80       aPrintUserSetti
 0003:0E684BB4       aDjiusttestsave
 0003:0E684BC4       aDjiUstArgnumDE
 0003:0E684BEC       aDjiUstArg0DErr
 0003:0E684C08       aDjiUstSDjiustu
 0003:0E684C40       aDjiUstSOk
 0003:0E684C54       aDjiusttestload
 0003:0E684C64       aDjiUstSDjiuser
 0003:0E684C9C       aDjiusttestdefa
 0003:0E684CB0       aDjiusttestsetb
 0003:0E684CC4       aDjiUstSArgnumU
 0003:0E684CE4       aDcim_0
 0003:0E684CEC       a2f
 0003:0E684CF4       a6f6f3f
 0003:0E684D04       aDjiVideoopSUGe
 0003:0E684D3C       aMeta
 0003:0E684D44       aHdlr
 0003:0E684D4C       aMdir
 0003:0E684D54       aIlst
 0003:0E684D5C       aData
 0003:0E684D64       aXtra
 0003:0E684D6C       aWmCategory
 0003:0E684D78       aV01325432_1
 0003:0E684D84       aFc300x_0
 0003:0E684D8C       aDjirecvideores
 0003:0E684DAC       aDjiVideoopSThe
 0003:0E684DDC       aDjiVideoopSGet
 0003:0E684E0C       aDjiVideoopSUnk
 0003:0E684E34       aDjivideoresinf
 0003:0E684E48       aDjiVideoopSGet_0
 0003:0E684E74       aDjiVideoopSDji_6
 0003:0E684EA4       aUdta
 0003:0E684EAC       aFree
 0003:0E684EB4       aDjiVideoopSInv_0
 0003:0E684EEC       aDjivideoopFtyp
 0003:0E684F04       aFtyp
 0003:0E684F0C       aDjiVideoopSInv
 0003:0E684F34       aDjivideoopLimi
 0003:0E684F4C       aDjiVideoopSDji
 0003:0E684F7C       aDjivideoopMvhd
 0003:0E684F94       aDjiVideoopSInp
 0003:0E684FC0       aDjivideoopTkhd
 0003:0E684FD8       aDjivideoopHdlr
 0003:0E684FF0       aDjivideoopStsz
 0003:0E685008       aDjivideoopMdia
 0003:0E685040       aDjiVideoopSUAm
 0003:0E68506C       aDjiVideoopSDji_0
 0003:0E6850A0       aDjiVideoopSUAm_0
 0003:0E6850CC       aDjiVideoopSAmb
 0003:0E6850F4       aDjiVideoopSDji_1
 0003:0E685128       aDjiVideoopSMis
 0003:0E685164       aDjivideoopTrak
 0003:0E68517C       aDjiVideoopSAmb_0
 0003:0E6851A4       aDjiVideoopSDji_2
 0003:0E6851D8       aDjiVideoopSAmb_1
 0003:0E685200       aDjiVideoopSDji_3
 0003:0E685234       aDjiVideoopSAmb_2
 0003:0E685258       aDjivideoopUdta
 0003:0E685270       aDjiVideoopSAmb_3
 0003:0E6852A4       aDjivideoopVide
 0003:0E6852BC       aDjiVideoopSThe_0
 0003:0E6852EC       aDjiVideoopSFai
 0003:0E685310       aDjiVideoopSDji_4
 0003:0E685344       aDjiVideoopSDji_5
 0003:0E685378       aSTheFileSMvhdD
 0003:0E6853C0       aDjigpstobuf
 0003:0E6853CC       aDjicmtatomtobu
 0003:0E6853E0       aDjiresatomtobu
 0003:0E6853F0       aDjiudtatobuf
 0003:0E685400       aMvhd
 0003:0E685408       aTkhd
 0003:0E685410       aElst
 0003:0E685418       aEdts
 0003:0E685420       aMdhd
 0003:0E685428       aMhlr
 0003:0E685430       aVide
 0003:0E685438       aSoun
 0003:0E685440       aDjiAvc
 0003:0E685448       aDjiJpg
 0003:0E685450       aDjiAac
 0003:0E685458       aVmhd
 0003:0E685460       aSmhd
 0003:0E685468       aDref
 0003:0E685470       aAlis
 0003:0E685478       aDinf
 0003:0E685480       aStsd
 0003:0E685488       aAvc1
 0003:0E685490       aMjpa
 0003:0E685498       aMp4a
 0003:0E6854A0       aDjiAvcEncoder
 0003:0E6854B0       aDjiMjpegEncode
 0003:0E6854C4       aAvcc
 0003:0E6854CC       aEsds
 0003:0E6854D4       aStts
 0003:0E6854DC       aCtts
 0003:0E6854E4       aStsc
 0003:0E6854EC       aStsz
 0003:0E6854F4       aStco
 0003:0E6854FC       aStss
 0003:0E685504       aStbl
 0003:0E68550C       aMinf
 0003:0E685514       aMdia
 0003:0E68551C       aTrak
 0003:0E685524       aMoov
 0003:0E68552C       aDjiidxnameinit
 0003:0E68553C       aIdx00
 0003:0E685544       aIdx01
 0003:0E68554C       aIdx10
 0003:0E685554       aIdx11
 0003:0E68555C       aDjiVideoopSUns
 0003:0E68558C       aDjivideoidxfil
 0003:0E6855A0       aSS_4
 0003:0E6855A8       aDjiVideoopSWri
 0003:0E6855F8       aDjivideoopInde
 0003:0E685614       aDjiVideoopSInv_1
 0003:0E68563C       aDjiVideoopSUDj
 0003:0E685670       aDjivideoopMoov
 0003:0E68568C       aDjiVideoopSSav
 0003:0E6856C4       aDjiVideoopSUpd
 0003:0E685704       aDjiflushmoovto
 0003:0E685718       aDjiVideoopSSav_0
 0003:0E68574C       aDjiindexheadge
 0003:0E68575C       aDjiVideoopSOpe
 0003:0E685784       aDjivideomoovch
 0003:0E685794       aDjiVideoopSAmb_4
 0003:0E6857C0       aDjivideofilere
 0003:0E6857D4       aDjiVideoopSFai_0
 0003:0E685810       aDjiVideoopSFai_1
 0003:0E685840       aDjiVideoopSFai_2
 0003:0E68587C       aDjiVideoopSFai_3
 0003:0E6858B8       aDjiVideoopSFai_4
 0003:0E6858F0       aDjiVideoopSFai_5
 0003:0E685920       aDjiVideoopSFai_6
 0003:0E685964       aDjiVideoopSRea
 0003:0E68599C       aDjiVideoopSWri_0
 0003:0E6859D4       aDjiVideoopSRea_0
 0003:0E685A0C       aDjivideoinvali
 0003:0E685A28       aDjiVideoopSUAm_1
 0003:0E685A68       aDjiVideoopSUAm_2
 0003:0E685AA0       aSUDeleteTheInv
 0003:0E685AD4       aDjipathvideore
 0003:0E685AE8       aDjiVideoopSRep
 0003:0E685B20       aDjiVideoopSRep_0
 0003:0E685B60       aDjiVideoopSRep_1
 0003:0E685BA0       aDjiVideoopSOnl
 0003:0E685BD0       aDjiVideoopSRep_2
 0003:0E685C0C       aDjivideoopVide_0
 0003:0E685C24       aSUsbInserted
 0003:0E685C38       aCS_0
 0003:0E685C40       aDjiVideoopSThe_1
 0003:0E685C74       aDjiVideoopSThe_2
 0003:0E685CB0       aDjivideofmtset
 0003:0E685CC8       aSBeginToSetThe
 0003:0E685CF0       aSBeginToSetThe_0
 0003:0E685D18       aSInvalidVideoT
 0003:0E685D30       aDjicamreverses
 0003:0E685D4C       aSBeginToSetThe_1
 0003:0E685D7C       aSBeginToSetThe_2
 0003:0E685DAC       aDjivideoinit
 0003:0E685DBC       aDjiVideoopSMut
 0003:0E685DFC       aDjiVideoopSCre
 0003:0E685E40       aDjiVideoopSCre_0
 0003:0E685E80       aDjidircreate
 0003:0E685E90       aDjiVideoopSUIn
 0003:0E685EC0       aSS_5
 0003:0E685EC8       aSSD
 0003:0E685ED0       aOriginalFileNa
 0003:0E685EF4       aDjiVideoopSURe
 0003:0E685F20       aDjiVideoopSAmb_5
 0003:0E685F4C       aDjirepairdircr
 0003:0E685F60       aDjiVideoopSDji_7
 0003:0E685F8C       aDjilogdircreat
 0003:0E685F9C       aDjivideothmdir
 0003:0E685FB4       aDjivideoxcoded
 0003:0E685FCC       aXcode
 0003:0E685FD4       aDjipridircreat
 0003:0E685FE4       aSS_6
 0003:0E685FEC       aMisc_0
 0003:0E685FF4       aDjidirallfiled
 0003:0E686008       aDjiVideoopSInp_0
 0003:0E686034       aDjiVideoopSDel
 0003:0E686070       aDjivideothmfna
 0003:0E686084       aDjiVideoopSGet_1
 0003:0E6860B4       aSD_1
 0003:0E6860BC       aDjiVideoopSGet_2
 0003:0E6860E4       aDjiVideoopSGet_3
 0003:0E68610C       aDjivideoxcodec
 0003:0E686128       aSTheInputParam
 0003:0E686148       aSS03d
 0003:0E686154       aTrans
 0003:0E68615C       aSCorresponding
 0003:0E686178       aDjiVideoopSDel_0
 0003:0E6861A8       aDeleteTheDirSF
 0003:0E6861C4       aDjivideoxcodef
 0003:0E6861E0       aSGeneratePathS
 0003:0E6861F8       aSDirSDoesnTExi
 0003:0E686214       aS03dS
 0003:0E686220       aMov_0
 0003:0E686228       aSUTheUltimateX
 0003:0E686254       aDjivideoxcodef_0
 0003:0E68626C       aSS03d03d
 0003:0E68627C       aSUTheXcodePath
 0003:0E6862C4       aSUTheXcodeFile
 0003:0E6862E8       aMp4_0
 0003:0E6862F0       aDjivideoopMoov_0
 0003:0E68630C       aDjiVideoopSOpe_0
 0003:0E686340       aDjivideoopMoov_1
 0003:0E68635C       aDjiVideoopSTak
 0003:0E6863A0       aDjivideoopVide_1
 0003:0E6863BC       aDjiVideoopSDAm
 0003:0E6863E8       aDng_0
 0003:0E6863F0       aJpg_0
 0003:0E6863F8       aDjifilevalidch
 0003:0E686408       aSDDjigetfileex
 0003:0E686434       aSUUnsupportedF
 0003:0E686454       aDjicamerarever
 0003:0E68646C       aDjiVideoopSUTh
 0003:0E6864A8       aDjicamreversec
 0003:0E6864BC       aSUTheCameraWil
 0003:0E6864E4       aRotate
 0003:0E6864EC       aNormal
 0003:0E6864F4       aSUDidnTNeedToR
 0003:0E686514       aCameraReverseT
 0003:0E686538       aNormal_0
 0003:0E686540       aRotate_0
 0003:0E686548       aDjicamerarever_0
 0003:0E686564       aSUCurrentSyste
 0003:0E6865A0       aDjiVideoopSUDj_0
 0003:0E6865EC       aDjiVideoopSUFa
 0003:0E686628       aSUThePreviousA
 0003:0E68666C       aDjiVideoopSUSe
 0003:0E6866B0       aDjiVideoopSUSa
 0003:0E6866F4       aDjivideouuidge
 0003:0E686704       aDjiVideoopSInp_1
 0003:0E686730       aCurrentVideoUu
 0003:0E68674C       aDjidirandfilen
 0003:0E686760       aDjiVideoopSInp_2
 0003:0E68678C       aCurrentVideoDi
 0003:0E6867B0       aDjirecordingvi
 0003:0E6867D8       aDjiVideoopSGet_4
 0003:0E68680C       aDjiVideoopSGet_5
 0003:0E686834       aDjiVideoopSGet_6
 0003:0E686864       aDjixcodingfree
 0003:0E686880       aDjixcodingvide
 0003:0E6868A0       aDjiVideoopSInv_2
 0003:0E6868D8       aDjiVideoopSAmb_6
 0003:0E686918       aDjiVideoopSAmb_7
 0003:0E686968       aFreeAtomDataLe
 0003:0E686994       aDjimsgvideopar
 0003:0E6869A8       aDjiVideoopSGet_7
 0003:0E6869E4       aSUDirnoUFileno
 0003:0E686A20       aDjimsgrspfsinf
 0003:0E686A34       aDjiVideoopSGet_8
 0003:0E686A5C       aDjiVideoopSGet_9
 0003:0E686A88       aDjiclipfsinfog
 0003:0E686A9C       aDjiVideoopSVid
 0003:0E686AD4       aDjixcodemaxdir
 0003:0E686AEC       aDjiVideoopSInv_3
 0003:0E686B14       aDjixcodemaxdir_0
 0003:0E686B28       aDjiVideoopSTak_0
 0003:0E686B68       aDjixcodeprivat
 0003:0E686B84       aDjivideoautosp
 0003:0E686BA0       aDjiVideoopSTak_1
 0003:0E686BE0       aDjivideoautosp_0
 0003:0E686BFC       aDjivideouudige
 0003:0E686C14       aSUCurrentVideo
 0003:0E686C38       aDjivideouuidin
 0003:0E686C4C       aDjiVideoopSDji_8
 0003:0E686C7C       aDjivideoopLimi_0
 0003:0E686C98       aDjiVideoopSSto
 0003:0E686CCC       aDjiVideoopSSto_0
 0003:0E686CFC       aPano
 0003:0E686D04       aDjipanomaxfile
 0003:0E686D20       aDjiVideoopSInv_4
 0003:0E686D4C       aDjipanodirdele
 0003:0E686D60       aDjiVideoopSInp_3
 0003:0E686D8C       aDjiVideoopSGet_10
 0003:0E686DB4       aPanorama
 0003:0E686DC0       aSRootpathSIsNo
 0003:0E686DE0       aDjiVideoopSGet_11
 0003:0E686E08       aSS03d04d
 0003:0E686E18       aSPathSIsNotExi
 0003:0E686E34       aDjiVideoopDele
 0003:0E686E5C       aDjipanodircrea
 0003:0E686E70       aDjiVideoopSDji_9
 0003:0E686EA4       aDjiVideoopSSca
 0003:0E686EDC       aDjipanofnamege
 0003:0E686EEC       aSS04dJpg
 0003:0E686EFC       aSS04dDng
 0003:0E686F0C       aDjipanofnameup
 0003:0E686F20       aDjipanourlwrit
 0003:0E686F30       aDjiVideoopSUGe_0
 0003:0E686F5C       aHtml
 0003:0E686F64       aDjiVideoopSFai_7
 0003:0E686F94       aSSSSS03d04dSS
 0003:0E686FB0       aHtmlHead
 0003:0E686FC0       aMetaHttpEquivC_0
 0003:0E686FF8       aMetaHttpEquivC
 0003:0E687040       aMetaHttpEquivR
 0003:0E687078       aHeadHtml
 0003:0E687088       aDjiVideoopSWri_1
 0003:0E6870B8       aWarningTonecur
 0003:0E687100       aWarningTonecur_0
 0003:0E68714C       aWarningTonecur_1
 0003:0E687198       aAmbadspImgsett
 0003:0E6871B4       aPipeDAlgoDFunc
 0003:0E6871F0       aTonecurveredDD
 0003:0E68721C       aTonecurvegreen
 0003:0E687248       aTonecurveblueD
 0003:0E6872A4       aWarningCannotG
 0003:0E6872C8       aAmbadspImgsett_0
 0003:0E6872EC       aWarningAmbadsp
 0003:0E687328       aAmbadspImgsett_1
 0003:0E68734C       aWarningPtonecu
 0003:0E68736C       aAmbadspImggett
 0003:0E687390       aWarningAmbadsp_0
 0003:0E6873CC       aAmbadspImggett_0
 0003:0E6873F0       aAmbaimgCtrlfun
 0003:0E687410       aSDRval0xXMutex
 0003:0E687434       aSDRval0xX
 0003:0E68744C       aAmbaimgCtrlfun_0
 0003:0E687480       aAmbaimgprocMod
 0003:0E6874AC       aSChannelcountD
 0003:0E6874C4       aSIcfParamSSize
 0003:0E6874E4       aAdjTableParams
 0003:0E687518       aAaaParamsStruc
 0003:0E687550       aWarningShutter
 0003:0E687580       aWarningShutter_0
 0003:0E6875A4       aIpModeLisoStil
 0003:0E6875C0       aIpModeHisoStil
 0003:0E6875DC       aIsoIdxType
 0003:0E6875F4       aAgcIdxType
 0003:0E68760C       aAmbaimgCtrlfun_1
 0003:0E687630       aImgparamVersio
 0003:0E68766C       aImgparamStruct
 0003:0E6876B0       aImgparamVersio_0
 0003:0E6876E8       aAaaparamVersio
 0003:0E687730       aAaaparamStruct
 0003:0E687774       aAaaparamVersio_0
 0003:0E6877B8       aStillparamVers
 0003:0E687800       aStillparamStru
 0003:0E687848       aVideoVersionnu
 0003:0E687890       aVideoStructVer
 0003:0E6878D4       aVideoVersionnu_0
 0003:0E687918       aPhotoVersionnu
 0003:0E687960       aPhotoStructVer
 0003:0E6879A4       aPhotoVersionnu_0
 0003:0E6879E8       aStillLisoVersi
 0003:0E687A30       aStillLisoStruc
 0003:0E687A78       aStillHisoVersi
 0003:0E687AC0       aStillHisoStruc
 0003:0E687B08       aKAssertAtSD
 0003:0E687B1C       aOpenLoadFileFa
 0003:0E687B30       aOpenSaveFileFa
 0003:0E687B44       aImgProcCannotH
 0003:0E687B64       a0m_0
 0003:0E687B6C       a031m
 0003:0E687B74       a032m
 0003:0E687B7C       a033m
 0003:0E687B84       a034m
 0003:0E687B8C       a035m
 0003:0E687B94       a036m
 0003:0E687B9C       a037m
 0003:0E687BA4       a08u
 0003:0E687BAC       aS_1
 0003:0E687BB4       a0m
 0003:0E687BBC       aSThDD
 0003:0E687BCC       aSD
 0003:0E687BDC       aAmbaprinttask
 0003:0E687BEC       aUS
 0003:0E687BF4       aAdjfuncMemmgrI
 0003:0E687C08       aSDRval0xXSizeD
 0003:0E687C28       aAdjfuncParamIn
 0003:0E687D00       aSChannelcountD_0
 0003:0E687D18       aWbGainErrorFor
 0003:0E687D34       aAdjDefResetImg
 0003:0E687D64       aAmbaAdjVideoIn
 0003:0E687D78       aAmbaAdjLibRevi
 0003:0E687DA0       aS_2
 0003:0E687DA8       aEvIndex5dAwb5d
 0003:0E687DDC       aBlackControl
 0003:0E687DEC       aNfIndex5dBlack
 0003:0E687E18       aBlackcorr5d5d5
 0003:0E687E34       a3dColorControl
 0003:0E687E48       aColorratio5dCc
 0003:0E687E64       aWb6d6d
 0003:0E687E88       aEvIndex5dUvY5d
 0003:0E687EA4       aEvIndex5dGamma
 0003:0E687EFC       aEvccflg5d
 0003:0E687F08       aEvIndex5dChrom
 0003:0E687F60       aEvIndex5dAntia
 0003:0E687F80       aEvIndex5dGbgrm
 0003:0E687FA8       aEvIndex5dLocal
 0003:0E68800C       aRgbToYuv5d5d5d
 0003:0E68804C       aGammatable5d5d
 0003:0E68808C       aChromascale5d5
 0003:0E6880CC       aLocalexposure5
 0003:0E68810C       aAntialiasingst
 0003:0E688128       aGbgrmismatch5d
 0003:0E688144       aStill
 0003:0E68814C       aVideo_0
 0003:0E688154       aDisableEvColor
 0003:0E688168       aDisableBlc
 0003:0E688178       aDisableAwbRati
 0003:0E68818C       aDisableAeTarge
 0003:0E6881A0       aAeTarget5d
 0003:0E6881B4       aGamma
 0003:0E6881BC       aGammaratio3d
 0003:0E6881D0       aLExpo
 0003:0E6881D8       aLocalexposurer
 0003:0E6881F4       aAutoknee
 0003:0E688200       aAutokneeratio3
 0003:0E688218       aBinning
 0003:0E688220       aNonBinning
 0003:0E688230       aBinning2x
 0003:0E688240       aBinning3x
 0003:0E688250       aBinning4x
 0003:0E688260       aBinning8x
 0003:0E688270       aError
 0003:0E68827C       aBinningHnumDHd
 0003:0E6882B4       aVideoAdjTableD
 0003:0E6882E0       aAaddjj
 0003:0E6882E8       aTImgprocAdjAeD
 0003:0E688310       aAeTargetSetAeT
 0003:0E688334       aTImgprocAdjAwb
 0003:0E68835C       aAwbSetAwbRatio
 0003:0E688384       aTImgprocAdjBlc
 0003:0E6883A8       aBlcSetBlc
 0003:0E6883D8       aTImgprocAdjEvD
 0003:0E688400       aEvSetEvColor
 0003:0E688428       aTImgprocAdjVid
 0003:0E688460       aTImgprocAdjGam
 0003:0E688490       aTImgprocAdjLEx
 0003:0E6884C4       aTImgprocAdjAut
 0003:0E6884FC       aTImgprocAdjOnO
 0003:0E688530       aTImgprocAdjBin
 0003:0E688570       aAmbaaudioCombi
 0003:0E688584       aAudS0xX0xX0xX_2
 0003:0E6885A0       aAmbaaudioBuffe
 0003:0E6885BC       aAmbaaudioBuffe_0
 0003:0E6885D4       aAmbaaudioBuffe_1
 0003:0E6885EC       aAudS0xX0xX_2
 0003:0E688600       aAmbaaudioBuffe_2
 0003:0E688620       aAmbaaudioBuffe_3
 0003:0E688640       aAmbaaudioDecma
 0003:0E68865C       aAudS0xX0xX_1
 0003:0E688670       aPcmdecInterBuf
 0003:0E68868C       aPleaseSetPcmco
 0003:0E6886D4       aAacDecErrorD
 0003:0E6886E8       aAmbaaudioAc3de
 0003:0E688700       aAc3decErrMsgD
 0003:0E688714       aAc3decFatalErr
 0003:0E688730       aKAssertAtSD_31
 0003:0E688744       aAc3decWarning0
 0003:0E68875C       aAmbaaudioDecou
 0003:0E688774       aAudS0xXS0xX_1
 0003:0E68878C       aFadeOutDoneSto
 0003:0E6887A4       aAudS0xX0xX0xX_1
 0003:0E6887C0       aDecodeDataRead
 0003:0E6887D4       aDecGetLof
 0003:0E6887E0       aDecSuspendFail
 0003:0E6887F4       aAudDecPreSyncE
 0003:0E68880C       aAudDecCanTSync
 0003:0E688840       aAudDecFirstVal
 0003:0E688868       aAmbaaudioDecch
 0003:0E68887C       aAmbaaudioDecod
 0003:0E688890       aAmbaaudioDecib
 0003:0E6888A8       aIbufferAGotLof
 0003:0E6888BC       aIbufferBGotLof
 0003:0E6888D0       aAmbaaudioDecby
 0003:0E6888E8       aAmbaaudioDecta
 0003:0E688900       aAudioDecoderTa
 0003:0E688914       aAmbaaudioDecta_0
 0003:0E68892C       aAmbaaudioDecsi
 0003:0E688944       aAmbaaudioDeccr
 0003:0E688958       aAmbaaudioDecta_1
 0003:0E688970       aAdpcmDonTSuppo
 0003:0E688998       aAmbaaudioDecta_2
 0003:0E6889B0       aAmbaaudioDecta_3
 0003:0E6889C8       aAmbaaudioDecse
 0003:0E6889E0       aAmbaaudioDecfa
 0003:0E6889F8       aFadeOutDone
 0003:0E688A88       aAmbaaudioEvent
 0003:0E688AAC       aAudS0xX0xX0xX_3
 0003:0E688AC8       aAmbaaudioRegis
 0003:0E688AE8       aAmbaaudioUnreg
 0003:0E688B0C       aAmbaaudioSetde
 0003:0E688B24       aWrongAudioDebu_0
 0003:0E688B58       aAudSDebugLevel
 0003:0E688B74       aAmbaaudioInput
 0003:0E688B94       aAudS0xX0xX
 0003:0E688BA8       aAmbaaudioInput_0
 0003:0E688BCC       aAmbaaudioInput_1
 0003:0E688BE4       aAmbaaudioInput_2
 0003:0E688BFC       aAudS0xXS0xX
 0003:0E688C14       aMakeup
 0003:0E688C1C       aSFcSetUpError
 0003:0E688C34       aAudS0xX0xX0xX
 0003:0E688C50       aAmbaaudioInput_3
 0003:0E688C6C       aStopframe
 0003:0E688C78       aSInputTaskStop
 0003:0E688C90       aAmbaaudioInput_4
 0003:0E688CAC       aAudioInputTask
 0003:0E688CC0       aAmbaaudioInput_8
 0003:0E688CDC       aAmbaaudioInput_5
 0003:0E688CF4       aAmbaaudioInput_6
 0003:0E688D10       aAmbaaudioInput_7
 0003:0E688D28       aSAmbaaudioEffe
 0003:0E688D50       aSAmbaaudioEffe_0
 0003:0E688D78       aAmbaaudioOutpu
 0003:0E688D94       aAudS0xXS0xX_0
 0003:0E688DAC       aOutputZero
 0003:0E688DB8       aGetLof
 0003:0E688DC0       aOutputZero2
 0003:0E688DD0       aGetLof2
 0003:0E688DDC       aOutputZero3
 0003:0E688DEC       aGetLof3
 0003:0E688DF8       aOutputZeroPaus
 0003:0E688E0C       aNoAbuOp
 0003:0E688E18       aAmbaaudioOutpu_0
 0003:0E688E34       aPreFill
 0003:0E688E40       aAudS0xX0xX0xX_0
 0003:0E688E5C       aSetEoc
 0003:0E688E64       aDmaStop
 0003:0E688E70       aOutputTaskStop
 0003:0E688E84       aAmbaaudioOutpu_1
 0003:0E688EA0       aAudS0xX0xX_0
 0003:0E688EB4       aAudioOutputTas
 0003:0E688EC8       aAmbaaudioOutpu_2
 0003:0E688EE8       aAmbaaudioOutpu_3
 0003:0E688F0C       aAmbaaudioOutpu_4
 0003:0E688F24       aAmbaaudioOutpu_5
 0003:0E688F40       aOutputTaskStar
 0003:0E688F58       aAmbaaudioOutpu_6
 0003:0E688F74       aErrCreateJpege
 0003:0E688F94       aErrPleaseSetVa
 0003:0E689010       aErrCreateYuvge
 0003:0E689030       aErrRawBufferDe
 0003:0E689060       aErrAmbadspCmds
 0003:0E689084       aErrAmbadspStil
 0003:0E6890B8       aErrAmbadspStil_0
 0003:0E6890EC       aWarningCanTSto
 0003:0E68910C       aReuseRawBufAt0
 0003:0E689124       aAmbadspCmdvcap
 0003:0E689144       aRawbufrpD
 0003:0E689150       aErrAmbadspStil_1
 0003:0E6891A0       aTakeYuvMutexFa
 0003:0E6891B4       aErrRegionWithO
 0003:0E6891F4       aErrAmbadspStil_2
 0003:0E689230       aTakeJpegMutexF
 0003:0E689248       aErrEitherPwork
 0003:0E6892C0       aErrHisoCanTBeB
 0003:0E6892F8       aY2yFromDDToDD
 0003:0E689324       aScreennailActi
 0003:0E68934C       aY2yFromDDToDD_0
 0003:0E689384       aErrNotSupportY
 0003:0E6893B4       aErrAmbadspStil_3
 0003:0E689408       aErrRotateflipD
 0003:0E689438       aErrorProgramId
 0003:0E68945C       aPleaseUseThePr
 0003:0E689498       aTheCrcNumD
 0003:0E6894B4       aTheCrcInThread
 0003:0E6894CC       aTheCrcInLinuxU
 0003:0E6894E4       aTheCrcValuesAr
 0003:0E689508       aCrcValuesCheck
 0003:0E689524       aBindingErrorCl
 0003:0E68955C       aBindingSvcProg
 0003:0E68957C       aCanNotFindSvcF
 0003:0E6895A0       aOtherBindingPr
 0003:0E6895B8       aRecvingTimeout
 0003:0E6895CC       aErrEventidD
 0003:0E6895DC       aErrTakeAmbadsp
 0003:0E689600       aAmbafsChdir
 0003:0E689610       aSDParameterErr
 0003:0E689628       aSDInternalErro
 0003:0E689640       aAmbafsFopen
 0003:0E689650       aSDInvalidParam
 0003:0E68966C       aSDAmbafsmutexC
 0003:0E689694       aSDFilegetinsta
 0003:0E6896B4       aAmbafsFclose
 0003:0E6896C4       aSDParameterErr_0
 0003:0E6896E0       aAmbafsRemove
 0003:0E6896F0       aAmbafsRename
 0003:0E689700       aAmbafsFread
 0003:0E689710       aAmbafsFwrite
 0003:0E689720       aAmbafsFseek
 0003:0E689730       aAmbafsFappend
 0003:0E689740       aAmbafsGetfpfro
 0003:0E689754       aSDGetFileinsta
 0003:0E689778       aAmbafsFsexec
 0003:0E689788       aAmbafsFirstdir
 0003:0E68979C       aAmbafsNextdire
 0003:0E6897B0       aAmbafsMkdir
 0003:0E6897C0       aAmbafsRmdir
 0003:0E6897D0       aAmbafsStat
 0003:0E6897DC       aAmbafsSetvol
 0003:0E6897EC       aAmbafsGetvol
 0003:0E6897FC       aAmbafsGetdev
 0003:0E68980C       aAmbafsChmod
 0003:0E68981C       aAmbafsChdmod
 0003:0E68982C       aAmbafsFormat
 0003:0E68983C       aSDParameterErr_1
 0003:0E689864       aAmbafsFtell
 0003:0E689874       aAmbafsCleandir
 0003:0E689884       aAmbafsChmoddir
 0003:0E689894       aSDInternalErro_0
 0003:0E6898AC       aC
 0003:0E6898B4       aAmbafsGetfilei
 0003:0E6898CC       aSFileinstanceI
 0003:0E6898F8       aAmbafsFreefile
 0003:0E689910       aSNoFreeFileIns
 0003:0E689944       aFsgetfreespace
 0003:0E689954       aKAssertAtSD_3
 0003:0E689968       aDevicePreadFai
 0003:0E68997C       aGetFreeSpaceEr
 0003:0E689990       aAmbakalMemfree
 0003:0E6899A8       aInternalAmbafs
 0003:0E6899C4       aParameterError
 0003:0E6899D4       aRomfsInternalE
 0003:0E6899EC       aUnknownAmbafsF
 0003:0E689A04       aUnknownFileSys
 0003:0E689A20       aUnknownFatalEr
 0003:0E689B98       aVcapSetup_0
 0003:0E689BA4       aChannelId0xX_5
 0003:0E689BC8       aStreamType0xX_6
 0003:0E689BEC       aVidSkipD_0
 0003:0E689C0C       aInputFormatD_0
 0003:0E689C2C       aSensorIdD_0
 0003:0E689C4C       aKeepStatesD_0
 0003:0E689C6C       aInterlacedOutp_0
 0003:0E689C8C       aVidcapWD_0
 0003:0E689CAC       aVidcapHD_0
 0003:0E689CCC       aMainWD_0
 0003:0E689CEC       aMainHD_0
 0003:0E689D0C       aPreviewWALcdWD_0
 0003:0E689D2C       aPreviewHALcdHD_0
 0003:0E689D4C       aInputCenterX0x_0
 0003:0E689D70       aInputCenterY0x_0
 0003:0E689D94       aZoomFactorX0xX_0
 0003:0E689DB8       aZoomFactorY0xX_0
 0003:0E689DDC       aCmdreaddlyD_0
 0003:0E689DFC       aSensorReadoutM_1
 0003:0E689E20       aNoiseFilterStr_2
 0003:0E689E40       aMctfChanD_1
 0003:0E689E60       aMctsChanD_1
 0003:0E689E80       aCcEnD_1
 0003:0E689EA0       aCmprEnD_1
 0003:0E689EC0       aCmprDitherD_1
 0003:0E689EE0       aModeD_2
 0003:0E689F00       aImageStabilize_1
 0003:0E689F20       aBitResolutionD_0
 0003:0E689F40       aBayerPatternD_2
 0003:0E689F60       aPreviewFormatA_0
 0003:0E689F80       aPreviewFormatB_0
 0003:0E689FA0       aNoPipelineflus_0
 0003:0E689FC0       aPreviewFrameRa_2
 0003:0E689FE0       aPreviewWBTvWD_0
 0003:0E68A000       aPreviewHBTvHD_0
 0003:0E68A020       aPreviewFrameRa_3
 0003:0E68A040       aPreviewAStopD_0
 0003:0E68A060       aPreviewASrcD_0
 0003:0E68A080       aPreviewBSrcD_0
 0003:0E68A0A0       aPreviewBStopD_0
 0003:0E68A0C0       aNumOfPrevsXDir_0
 0003:0E68A0E0       aNumOfPrevsYDir_0
 0003:0E68A100       aPrevADestD_0
 0003:0E68A120       aPrevBDestD_0
 0003:0E68A140       aPrevCDestD_0
 0003:0E68A160       aAllowNoHisoMod_0
 0003:0E68A180       aNumRawBufferMo_0
 0003:0E68A1A0       aVinFrameRateD_0
 0003:0E68A1C0       aVoutFrameRateD_1
 0003:0E68A1E0       aPipWD_0
 0003:0E68A200       aPipHD_0
 0003:0E68A220       aVcapCmdMsgDecR_1
 0003:0E68A240       aPipFrameDecRat_1
 0003:0E68A260       aVinFrameRateFr_0
 0003:0E68A280       aVoutFrameRateF_0
 0003:0E68A2A0       aPtsDeltaD_1
 0003:0E68A2C0       aVideoDelayMode_0
 0003:0E68A2E0       aVprocLowDelayM_0
 0003:0E68A300       aMaxHisoWD_0
 0003:0E68A320       aMaxHisoHD_0
 0003:0E68A340       aEisUpdateAddr0_0
 0003:0E68A364       aBbarSzMbsD_0
 0003:0E68A384       aNumStreamsD_0
 0003:0E68A3A4       aDigitalEffectI_0
 0003:0E68A3C4       aPreviewSrcWAD_0
 0003:0E68A3E4       aPreviewSrcHAD_0
 0003:0E68A404       aPreviewSrcXOff_1
 0003:0E68A424       aPreviewSrcYOff_1
 0003:0E68A444       aMainWExtraD_0
 0003:0E68A464       aPipDramWD_0
 0003:0E68A484       aPipDramHD_0
 0003:0E68A4A4       aSec2OutExtraD_0
 0003:0E68A4C4       aVwarpBlkHD_0
 0003:0E68A4E4       aDelayLinesD_0
 0003:0E68A504       aVcapCmdReqAhea_0
 0003:0E68A524       aNoH264EncodeD_0
 0003:0E68A544       aEnableSec1RawO_0
 0003:0E68A564       aVinVoutVsyncFl_0
 0003:0E68A584       aSec3InputWaitL_0
 0003:0E68A5A4       aRawCaptureReso_0
 0003:0E68A5C8       aVcapPrevSetupF
 0003:0E68A5E0       aPreviewIdD_0
 0003:0E68A5FC       aPreviewFormatD_0
 0003:0E68A618       aPreviewWD_0
 0003:0E68A634       aPreviewHD_0
 0003:0E68A650       aPreviewFrameRa_4
 0003:0E68A66C       aPreviewSrcD_0
 0003:0E68A688       aPreviewStopD_0
 0003:0E68A6A4       aPreviewDestD_0
 0003:0E68A6C0       aPreviewSrcWD_0
 0003:0E68A6DC       aPreviewSrcHD_0
 0003:0E68A6F8       aPreviewSrcXOff_2
 0003:0E68A714       aPreviewSrcYOff_2
 0003:0E68A730       aEnableD_5
 0003:0E68A74C       aNoisefilterstr
 0003:0E68A768       aMctschanD
 0003:0E68A784       aSharpenenD
 0003:0E68A7A0       aBypassbitD
 0003:0E68A7BC       aRawcapstatusVc
 0003:0E68A7E0       aRawcapstatusVc_0
 0003:0E68A804       aRawcapstatusD
 0003:0E68A818       aDspopmodeD
 0003:0E68A828       aSetToIdleMode
 0003:0E68A83C       aSetToIdleModeF
 0003:0E68A854       aWaitIdleModeFa
 0003:0E68A868       aSetOpModeFail
 0003:0E68A87C       aActiveOpModeFa
 0003:0E68A890       aVcapmodeD
 0003:0E68A89C       aWrongRawCaptur_0
 0003:0E68A8B8       aWrongVcapMode_0
 0003:0E68A8C8       aWrongOpMode
 0003:0E68A8D8       aWaitRecordOpMo
 0003:0E68A8F4       aDspChangeToEnc
 0003:0E68A914       aWaitVcapVideoM
 0003:0E68A930       aDspChangeToEnc_0
 0003:0E68A958       aChangeToBackgr
 0003:0E68A98C       aChangeToBackgr_0
 0003:0E68A9C0       aDspopmodeDVcap_0
 0003:0E68A9DC       aNotVcapVideoMo
 0003:0E68A9F0       aErrNumchannelD
 0003:0E68AA24       aWarningMctfcom
 0003:0E68AA74       aPleaseCallAmba
 0003:0E68AAC4       aAmbadspLivevie
 0003:0E68AB08       aAmbadspLivevie_0
 0003:0E68AB54       aSystemInfoFram
 0003:0E68AB74       aErrNumchannelD_0
 0003:0E68ABAC       aErrOverUcodeIn
 0003:0E68ABE8       aErrPlumaalphat
 0003:0E68AC34       aAmbadspLivevie_1
 0003:0E68AC84       aAmbadspWaitpre_1
 0003:0E68ACCC       aAmbadspWaitpre_2
 0003:0E68AD14       aErrNumchannelD_1
 0003:0E68AD50       aErrNumchannelD_2
 0003:0E68AD8C       aHdmi4kpll0x08x
 0003:0E68ADAC       aWarningCannotG_32
 0003:0E68ADD0       aErrorIncorrect_2
 0003:0E68ADF4       aErrorIncorrect_3
 0003:0E68AE18       aErrorIncorrect_4
 0003:0E68AE3C       aWarningPtaaast
 0003:0E68AE60       aAmbadspImg3age
 0003:0E68AE88       aWarningAmbadsp_232
 0003:0E68AEC8       aAmbadspImg3ase
 0003:0E68AEF0       aWarningAmbadsp_233
 0003:0E68AF30       aAmbadspImg3ase_0
 0003:0E68AF54       aAmbadspImg3ase_1
 0003:0E68AF7C       aWarningAmbadsp_234
 0003:0E68AFBC       aAmbadspImg3ase_2
 0003:0E68AFE0       aAmbadspImg3ase_3
 0003:0E68B008       aWarningAmbadsp_235
 0003:0E68B048       aAmbadspImg3ase_4
 0003:0E68B06C       aWarningPafstat
 0003:0E68B08C       aAmbadspImg3age_0
 0003:0E68B0B4       aWarningAmbadsp_236
 0003:0E68B0F8       aAmbadspImg3age_1
 0003:0E68B120       aAmbadspImg3ase_5
 0003:0E68B148       aWarningAmbadsp_237
 0003:0E68B188       aAmbadspImg3ase_6
 0003:0E68B1AC       aWarningPaaasta
 0003:0E68B1C8       aWarningAmbadsp_238
 0003:0E68B208       aAmbadspImg3age_2
 0003:0E68B22C       aAmbadspImg3ase_7
 0003:0E68B258       aWarningAmbadsp_239
 0003:0E68B2A0       aAmbadspImg3ase_8
 0003:0E68B2CC       aWarningPaaaflo
 0003:0E68B2F4       aAmbadspImg3age_3
 0003:0E68B320       aWarningAmbadsp_240
 0003:0E68B368       aAmbadspImg3age_4
 0003:0E68B394       aWarningPaaaflo_0
 0003:0E68B3BC       aAmbadspImg3age_5
 0003:0E68B3F0       aWarningAmbadsp_241
 0003:0E68B440       aAmbadspImg3age_6
 0003:0E68B474       aAmbadspImg3ase_9
 0003:0E68B49C       aWarningAmbadsp_242
 0003:0E68B4DC       aAmbadspImg3ase_10
 0003:0E68B500       aWarningPaaapse
 0003:0E68B520       aAmbadspImg3age_7
 0003:0E68B548       aWarningAmbadsp_243
 0003:0E68B588       aAmbadspImg3age_8
 0003:0E68B5AC       aAmbadspImg3ase_11
 0003:0E68B5D8       aWarningAmbadsp_244
 0003:0E68B61C       aAmbadspImg3ase_12
 0003:0E68B644       aWarningPaaaear
 0003:0E68B668       aAmbadspImg3age_9
 0003:0E68B694       aWarningAmbadsp_245
 0003:0E68B6D8       aAmbadspImg3age_10
 0003:0E68B700       aFullViewGeoInf
 0003:0E68B71C       aStartXD
 0003:0E68B72C       aStartYD
 0003:0E68B73C       aWidthD_10
 0003:0E68B74C       aHeightD_10
 0003:0E68B75C       aHsubsampleDD_1
 0003:0E68B770       aVsubsampleDD_1
 0003:0E68B784       aUserInputGeoIn
 0003:0E68B7A8       aErrorPvignette
 0003:0E68B7D4       aTestPvignettec
 0003:0E68B7F8       aErrorFactorsOf_2
 0003:0E68B848       aErrorVignetteC_0
 0003:0E68B878       aVignetteCoreEr
 0003:0E68B8B4       aVignetteCoreEr_0
 0003:0E68B8F4       aVignetteCoreEr_1
 0003:0E68B930       aVignetteCoreEr_2
 0003:0E68B970       aVignetteCoreEr_3
 0003:0E68B9AC       aErrorPvigcorrb
 0003:0E68B9D4       aErrorPvigcorrb_0
 0003:0E68BA08       aErrorPvigcorrb_1
 0003:0E68BA40       aErrorPvigcorrb_2
 0003:0E68BA78       aErrorPvigcorrb_3
 0003:0E68BAAC       aAmbadspImgcalc_5
 0003:0E68BAD4       aPipeDAlgoDFunc_29
 0003:0E68BB10       aAmbaDspImgVign
 0003:0E68BB34       aEnbD_0
 0003:0E68BB54       aGainshiftD
 0003:0E68BB74       aVigstrengtheff
 0003:0E68BB94       aChromaratioD
 0003:0E68BBB4       aVigstrengthD
 0003:0E68BBD4       aCurrentvinsens_0
 0003:0E68BBF0       aStartxD_7
 0003:0E68BC10       aStartyD_8
 0003:0E68BC30       aWidthD_11
 0003:0E68BC50       aHeightD_11
 0003:0E68BC70       aHsubsampleDD_2
 0003:0E68BC90       aVsubsampleDD_2
 0003:0E68BCB0       aCalibvignettei
 0003:0E68BCC8       aVesrion0xX
 0003:0E68BCF4       aTablewidthD_0
 0003:0E68BD20       aTableheightD_0
 0003:0E68BD4C       aPvignetteredga
 0003:0E68BD78       aPvignettegreen
 0003:0E68BDA4       aPvignettegreen_0
 0003:0E68BDD0       aPvignetteblueg
 0003:0E68BDFC       aVinsensorgeo_4
 0003:0E68BE18       aStartxD_8
 0003:0E68BE3C       aStartyD_9
 0003:0E68BE60       aWidthD_12
 0003:0E68BE84       aHeightD_12
 0003:0E68BEA8       aHsubsampleDD_3
 0003:0E68BECC       aVsubsampleDD_3
 0003:0E68BEF0       aAmbadspImgsetv_16
 0003:0E68BF1C       aWarningCannotG_37
 0003:0E68BF40       aAmbadspImgcalc_6
 0003:0E68BF70       aWarningAmbadsp_262
 0003:0E68BFB8       aTransformedVig
 0003:0E68BFD8       aTransformedVig_0
 0003:0E68C000       aTransformedVig_1
 0003:0E68C028       aTransformedVig_2
 0003:0E68C04C       aAmbadspImgcalc_7
 0003:0E68C07C       aAmbadspImgsetv_17
 0003:0E68C0AC       aWarningAmbadsp_263
 0003:0E68C0F4       aAmbadspImgsetv_18
 0003:0E68C124       aWarningPvignet
 0003:0E68C14C       aAmbadspImggetv_9
 0003:0E68C17C       aWarningAmbadsp_264
 0003:0E68C1C4       aAmbadspImggetv_10
 0003:0E68C1F4       aAmbadspImgsetv_19
 0003:0E68C228       aWarningAmbadsp_265
 0003:0E68C278       aAmbadspImgsetv_20
 0003:0E68C2AC       aSetDebugForVig
 0003:0E68C2D4       aSetDebugForVig_0
 0003:0E68C2FC       aAmbadspImgsetw
 0003:0E68C31C       aPipeDAlgoDFunc_26
 0003:0E68C358       aErrorWarpVersi
 0003:0E68C380       aErrorHorgridnu
 0003:0E68C3C0       aErrorVergridnu
 0003:0E68C404       aErrorCalibPwar
 0003:0E68C420       aErrorThetaFSti
 0003:0E68C468       aErrorFactorsOf
 0003:0E68C4B8       aErrorCalibVinG
 0003:0E68C510       aCurrentVinGeoX
 0003:0E68C55C       aErrorDummyWind
 0003:0E68C590       aVinR2rWindowWD
 0003:0E68C5B4       aErrorInvalidCf
 0003:0E68C5D4       aErrorInvalidMa
 0003:0E68C5F8       aAmbadspImgcalc
 0003:0E68C61C       aAmbaDspImgWarp
 0003:0E68C63C       aWarpenbD
 0003:0E68C650       aControlD
 0003:0E68C664       aThetaF
 0003:0E68C674       aCalibwarpinfo
 0003:0E68C688       aVersion0xX
 0003:0E68C6A8       aHorgridnumD
 0003:0E68C6C4       aVergridnumD
 0003:0E68C6E0       aTilewidthexpD
 0003:0E68C6FC       aTileheightexpD
 0003:0E68C718       aVinsensorgeo
 0003:0E68C730       aStartxD
 0003:0E68C74C       aStartyD
 0003:0E68C768       aWidthD
 0003:0E68C784       aHeightD
 0003:0E68C7A0       aHsubsample
 0003:0E68C7BC       aFactornumD
 0003:0E68C7DC       aFactordenD
 0003:0E68C7FC       aVsubsample
 0003:0E68C818       aPwarp0xX
 0003:0E68C830       aCalibwarpinfoP
 0003:0E68C87C       aVinsensorgeo_0
 0003:0E68C890       aStartxD_0
 0003:0E68C8A8       aStartyD_0
 0003:0E68C8C0       aWidthD_0
 0003:0E68C8D8       aHeightD_0
 0003:0E68C8F0       aHsubsample_0
 0003:0E68C908       aFactornumD_0
 0003:0E68C924       aFactordenD_0
 0003:0E68C940       aVsubsample_0
 0003:0E68C958       aR2routwindimWi
 0003:0E68C978       aR2routwindimHe
 0003:0E68C998       aDmywingeoStart
 0003:0E68C9B4       aDmywingeoStart_0
 0003:0E68C9D0       aDmywingeoWidth
 0003:0E68C9EC       aDmywingeoHeigh
 0003:0E68CA08       aCfawindimWidth
 0003:0E68CA24       aCfawindimHeigh
 0003:0E68CA40       aActwincropLeft
 0003:0E68CA60       aActwincropLeft_0
 0003:0E68CA80       aActwincropRigh
 0003:0E68CAA0       aActwincropRigh_0
 0003:0E68CAC0       aMainwindimWidt
 0003:0E68CADC       aMainwindimHeig
 0003:0E68CAF8       aPrevwindim0Wid
 0003:0E68CB18       aPrevwindim0Hei
 0003:0E68CB38       aPrevwindim1Wid
 0003:0E68CB58       aPrevwindim1Hei
 0003:0E68CB78       aScreennaildimW
 0003:0E68CB98       aScreennaildimH
 0003:0E68CBB8       aThumbnaildimWi
 0003:0E68CBD8       aThumbnaildimHe
 0003:0E68CBF8       aHorskewphasein
 0003:0E68CC24       aWarningCannotG_34
 0003:0E68CC48       aAmbadspImgcalc_0
 0003:0E68CC74       aWarningAmbadsp_248
 0003:0E68CCB8       aWarnUnsupportM
 0003:0E68CCD0       aAmbadspImgcalc_1
 0003:0E68CCFC       aAmbadspImgsetw_0
 0003:0E68CD28       aWarningAmbadsp_249
 0003:0E68CD6C       aAmbadspImgsetw_1
 0003:0E68CD98       aWarningPwarpca
 0003:0E68CDBC       aAmbadspImggetw
 0003:0E68CDE8       aWarningAmbadsp_250
 0003:0E68CE2C       aAmbadspImggetw_0
 0003:0E68CE58       aSetDebugForWar
 0003:0E68CE7C       aSetDebugForWar_0
 0003:0E68CEA0       aErrorPwarpdzoo
 0003:0E68CED0       aErrorPwarpdzoo_0
 0003:0E68CF14       aErrorPwarpdzoo_1
 0003:0E68CF58       aErrorInVideoMo
 0003:0E68CFB8       aErrorInVideoMo_0
 0003:0E68D018       aErrorInStillMo
 0003:0E68D078       aErrorInStillMo_0
 0003:0E68D0D8       aErrorPmodePipe
 0003:0E68D100       aAmbadspImgsetw_2
 0003:0E68D130       aWarningAmbadsp_251
 0003:0E68D19C       aWarningPwarpdz
 0003:0E68D1C4       aAmbadspImggetw_1
 0003:0E68D1F4       aWarningAmbadsp_252
 0003:0E68D240       aAmbadspImggetw_2
 0003:0E68D270       aErrorCanBeOnly
 0003:0E68D2A0       aAmbadspImggetw_3
 0003:0E68D2D8       aWarningAmbadsp_253
 0003:0E68D32C       aAmbadspImggetw_4
 0003:0E68D364       aErrorPipenumDE
 0003:0E68D394       aErrorTheDThPpi
 0003:0E68D3BC       aWarningIncorre
 0003:0E68D3D8       aErrorMemHasBee
 0003:0E68D3F4       aErrorCreateCon
 0003:0E68D418       aErrorOffsetDSi
 0003:0E68D434       aErrorDefaultTa
 0003:0E68D45C       aErrorMemoryGet
 0003:0E68D474       aErrorLoadDefau
 0003:0E68D49C       aVideoTableShpa
 0003:0E68D4D0       aVideoTableShpa_0
 0003:0E68D504       aVideoTableShpa_1
 0003:0E68D534       aVideoTableShpa_2
 0003:0E68D564       aVideoTableShpa_3
 0003:0E68D598       aVideoTableShpa_4
 0003:0E68D5D0       aVideoTableLeto
 0003:0E68D604       aVideoTableCsto
 0003:0E68D638       aVideoTableCcin
 0003:0E68D668       aVideoTableCc3d
 0003:0E68D698       aVideoTableCcou
 0003:0E68D6C8       aVideoTableMctf
 0003:0E68D6FC       aVideoTableHotp
 0003:0E68D738       aVideoTableDark
 0003:0E68D778       aVideoTableChro
 0003:0E68D7B0       aVideoTableCawa
 0003:0E68D7E0       aVideoTableCawa_0
 0003:0E68D810       aVideoTableWarp
 0003:0E68D840       aVideoTableWarp_0
 0003:0E68D870       aVideoTableVigr
 0003:0E68D89C       aVideoTableVigg
 0003:0E68D8D0       aVideoTableVigg_0
 0003:0E68D904       aVideoTableVigb
 0003:0E68D934       aVideoTableFpnr
 0003:0E68D968       aStillTableShpa
 0003:0E68D99C       aStillTableShpa_0
 0003:0E68D9D0       aStillTableShpa_1
 0003:0E68DA00       aStillTableShpa_2
 0003:0E68DA30       aStillTableShpa_3
 0003:0E68DA64       aStillTableShpa_4
 0003:0E68DA9C       aStillTableLeto
 0003:0E68DAD0       aStillTableCsto
 0003:0E68DB04       aStillTableCcin
 0003:0E68DB34       aStillTableCc3d
 0003:0E68DB64       aStillTableCcou
 0003:0E68DB94       aStillTableMctf
 0003:0E68DBC8       aStillTableHotp
 0003:0E68DC04       aStillTableDark
 0003:0E68DC44       aStillTableChro
 0003:0E68DC7C       aStillTableCawa
 0003:0E68DCAC       aStillTableCawa_0
 0003:0E68DCDC       aStillTableWarp
 0003:0E68DD0C       aStillTableWarp_0
 0003:0E68DD3C       aStillTableVigr
 0003:0E68DD68       aStillTableVigg
 0003:0E68DD9C       aStillTableVigg_0
 0003:0E68DDD0       aStillTableVigb
 0003:0E68DE00       aStillTableFpnr
 0003:0E68DE34       aErrorPipevHasB
 0003:0E68DE54       aErrorPipeDIsNo
 0003:0E68DE7C       aErrorPipeVRequ
 0003:0E68DEB0       aErrorPipeVRequ_0
 0003:0E68DEE4       aErrorCreateCon_0
 0003:0E68DF04       aErrorPipesHasB
 0003:0E68DF24       aErrorPipeDIsNo_0
 0003:0E68DF4C       aErrorPipeSRequ
 0003:0E68DF80       aErrorPipeSRequ_0
 0003:0E68DFB4       aStillIsoCfg0xX
 0003:0E68DFDC       aStillIsoCfgTab
 0003:0E68E00C       aErrorPipedHasB
 0003:0E68E02C       aErrorPipeDIsNo_1
 0003:0E68E054       aErrorPipeDRequ
 0003:0E68E088       aErrorPipeDRequ_0
 0003:0E68E0BC       aErrorMemaddrDM
 0003:0E68E0F0       aErrorContextId
 0003:0E68E120       aDspImgutilityg
 0003:0E68E150       aDspImgutilityg_0
 0003:0E68E188       aErrorIncorrect
 0003:0E68E1BC       aErrorTblNumber
 0003:0E68E1F0       aErrorSrcContex
 0003:0E68E220       aErrorOneOrMore
 0003:0E68E27C       aErrorConfigIdD
 0003:0E68E2A8       aDspImgutilityg_1
 0003:0E68E2D8       aErrorRegistIkc
 0003:0E68E2FC       aErrorMemaddrDM_0
 0003:0E68E31C       aErrorGetRequir
 0003:0E68E340       aErrorGivenMems
 0003:0E68E37C       aErrorInitPipeF
 0003:0E68E3A4       aAmbadspImgutil
 0003:0E68E3CC       aAmbadspImgutil_0
 0003:0E68E3F0       aWarningUnknown
 0003:0E68E410       aAmbadspImgutil_1
 0003:0E68E438       aWarningCannotG_0
 0003:0E68E454       aAmbadspImgutil_2
 0003:0E68E478       aWarningIncorre_0
 0003:0E68E498       aAmbadspImgutil_3
 0003:0E68E4C0       aWarningCannotG_1
 0003:0E68E4E4       aAmbadspImgutil_4
 0003:0E68E50C       aAmbadspImgutil_5
 0003:0E68E534       aAmbadspImgutil_6
 0003:0E68E560       aAmbadspImgutil_7
 0003:0E68E58C       aAmbadspImgsets
 0003:0E68E5B0       aWarningVideoPi
 0003:0E68E600       aWarningAmbadsp_1
 0003:0E68E63C       aAmbadspImgsets_0
 0003:0E68E660       aAmbadspImgsetd
 0003:0E68E684       aWarningAmbadsp_2
 0003:0E68E6C0       aAmbadspImgsetd_0
 0003:0E68E6E4       aAmbadspImggetd
 0003:0E68E708       aWarningAmbadsp_3
 0003:0E68E744       aAmbadspImggetd_0
 0003:0E68E768       aWarningStrengt
 0003:0E68E7A8       aAmbadspImgseta
 0003:0E68E7C4       aPipeDAlgoDFunc_4
 0003:0E68E800       aStrengthD
 0003:0E68E82C       aWarningCannotG_10
 0003:0E68E850       aAmbadspImgseta_0
 0003:0E68E878       aWarningAmbadsp_16
 0003:0E68E8B8       aAmbadspImgseta_1
 0003:0E68E8E0       aWarningPstreng
 0003:0E68E900       aAmbadspImggeta
 0003:0E68E928       aWarningAmbadsp_17
 0003:0E68E968       aAmbadspImggeta_0
 0003:0E68E990       aWarningEnbDSho
 0003:0E68E9D0       aWarningSaturat
 0003:0E68EA20       aAmbadspImgsetc
 0003:0E68EA40       aPipeDAlgoDFunc_1
 0003:0E68EA7C       aEnbDAlpharrDAl
 0003:0E68EADC       aWarningCannotG_7
 0003:0E68EB00       aAmbadspImgsetc_0
 0003:0E68EB2C       aWarningAmbadsp_10
 0003:0E68EB70       aAmbadspImgsetc_1
 0003:0E68EB9C       aWarningPcfalea
 0003:0E68EBBC       aAmbadspImggetc
 0003:0E68EBE8       aWarningAmbadsp_11
 0003:0E68EC2C       aAmbadspImggetc_0
 0003:0E68EC58       aWarningEnbDSho_0
 0003:0E68ECA0       aWarningCorrect
 0003:0E68ECF8       aWarningHotpixe
 0003:0E68ED50       aWarningDarkpix
 0003:0E68EDA8       aAmbadspImgsetd_4
 0003:0E68EDD4       aPipeDAlgoDFunc_5
 0003:0E68EE10       aEnbDHotpixelst
 0003:0E68EE74       aWarningCannotG_11
 0003:0E68EE98       aAmbadspImgsetd_5
 0003:0E68EECC       aWarningAmbadsp_18
 0003:0E68EF1C       aAmbadspImgsetd_6
 0003:0E68EF50       aWarningPdbpcor
 0003:0E68EF6C       aAmbadspImggetd_3
 0003:0E68EFA0       aWarningAmbadsp_19
 0003:0E68EFEC       aAmbadspImggetd_4
 0003:0E68F020       aErrorFactorsOf_1
 0003:0E68F070       aErrorSbpCorrec
 0003:0E68F09C       aSensorWindowWi
 0003:0E68F0CC       aFpnBufferPoint
 0003:0E68F0E8       aWrongDisableMo
 0003:0E68F110       aNotAValidFpnPi
 0003:0E68F12C       aBypassFpnMapWi
 0003:0E68F15C       aBypassFpnPitch
 0003:0E68F18C       aBypassPmapIsAN
 0003:0E68F1AC       aAmbadspImgsets_9
 0003:0E68F1D4       aAmbaDspImgMode
 0003:0E68F1F0       aPipeDAlgoDFunc_28
 0003:0E68F22C       aAmbaDspImgSbpC
 0003:0E68F24C       aEnbD
 0003:0E68F25C       aCurrentvinsens
 0003:0E68F278       aStartxD_5
 0003:0E68F298       aStartyD_6
 0003:0E68F2B8       aWidthD_8
 0003:0E68F2D8       aHeightD_8
 0003:0E68F2F8       aHsubsampleDD
 0003:0E68F318       aVsubsampleDD
 0003:0E68F338       aCalibsbpinfo
 0003:0E68F34C       aVesrionD
 0003:0E68F36C       aSbpbuffer0xX
 0003:0E68F38C       aVinsensorgeo_3
 0003:0E68F3A8       aStartxD_6
 0003:0E68F3CC       aStartyD_7
 0003:0E68F3F0       aWidthD_9
 0003:0E68F414       aHeightD_9
 0003:0E68F438       aHsubsampleDD_0
 0003:0E68F45C       aVsubsampleDD_0
 0003:0E68F480       aWarningCannotG_36
 0003:0E68F4A4       aAmbadspImgsets_10
 0003:0E68F4D8       aWarningAmbadsp_258
 0003:0E68F524       aAmbadspImgsets_11
 0003:0E68F578       aWarningPsbpcor
 0003:0E68F594       aAmbadspImggets_1
 0003:0E68F5C8       aWarningAmbadsp_259
 0003:0E68F614       aAmbadspImggets_2
 0003:0E68F648       aAmbadspImgsets_12
 0003:0E68F680       aWarningAmbadsp_260
 0003:0E68F6D4       aAmbadspImgsets_13
 0003:0E68F70C       aWarningPsbpcor_0
 0003:0E68F730       aAmbadspImggets_3
 0003:0E68F768       aWarningAmbadsp_261
 0003:0E68F7BC       aAmbadspImggets_4
 0003:0E68F7F4       aSetDebugForSta
 0003:0E68F820       aSetDebugForSta_0
 0003:0E68F84C       aWarningBlackbD
 0003:0E68F898       aWarningBlackgb
 0003:0E68F8E4       aWarningBlackgr
 0003:0E68F930       aWarningBlackrD
 0003:0E68F97C       aAmbadspImgsets_1
 0003:0E68F99C       aPipeDAlgoDFunc_3
 0003:0E68F9D8       aBlackrDBlackgr
 0003:0E68FA20       aWarningCannotG_9
 0003:0E68FA44       aAmbadspImgsets_2
 0003:0E68FA70       aWarningAmbadsp_14
 0003:0E68FAB4       aAmbadspImgsets_3
 0003:0E68FAE0       aWarningPblackc
 0003:0E68FB00       aAmbadspImggets
 0003:0E68FB2C       aWarningAmbadsp_15
 0003:0E68FB70       aAmbadspImggets_0
 0003:0E68FBA8       aWarningCannotG_33
 0003:0E68FBCC       aAmbadspImgsetv_14
 0003:0E68FBF4       aWarningAmbadsp_246
 0003:0E68FC34       aAmbadspImgsetv_15
 0003:0E68FC58       aWarningPvinsen
 0003:0E68FC7C       aAmbadspImggetv_7
 0003:0E68FCA4       aWarningAmbadsp_247
 0003:0E68FCE4       aAmbadspImggetv_8
 0003:0E68FD08       aVoutIdxD
 0003:0E68FD18       aVoutMixerSetup_0
 0003:0E68FD44       aInterlacedD_0
 0003:0E68FD5C       aFrmRateD_0
 0003:0E68FD74       aActWinWidthD_0
 0003:0E68FD8C       aActWinHeightD_0
 0003:0E68FDA4       aBackGroundVD_0
 0003:0E68FDBC       aBackGroundUD_0
 0003:0E68FDD4       aBackGroundYD_0
 0003:0E68FDEC       aMixer444D_0
 0003:0E68FE04       aHighlightVD_0
 0003:0E68FE1C       aHighlightUD_0
 0003:0E68FE34       aHighlightYD_0
 0003:0E68FE4C       aHighlightThres_0
 0003:0E68FE64       aReverseEnD_0
 0003:0E68FE7C       aCscEnD_0
 0003:0E68FE94       aVoutVideoSetup_0
 0003:0E68FEA8       aEnD_1
 0003:0E68FED0       aSrcD_1
 0003:0E68FEF8       aFlipD_1
 0003:0E68FF20       aRotateD_1
 0003:0E68FF48       aWinOffsetXD_1
 0003:0E68FF70       aWinOffsetYD_1
 0003:0E68FF98       aWinWidthD_1
 0003:0E68FFC0       aWinHeightD_1
 0003:0E68FFE8       aDefaultImgYAdd_0
 0003:0E690010       aDefaultImgUvAd_0
 0003:0E690038       aDefaultImgPitc_0
 0003:0E690060       aDefaultImgRepe_0
 0003:0E690088       aDefaultImgIgno_0
 0003:0E6900B0       aVoutOsdSetup_0
 0003:0E6900C0       aEnD_2
 0003:0E6900E0       aSrcD_2
 0003:0E690100       aFlipD_2
 0003:0E690120       aRescalerEnD_0
 0003:0E690140       aPremultipliedD_0
 0003:0E690160       aGlobalBlendD_0
 0003:0E690180       aWinOffsetXD_2
 0003:0E6901A0       aWinOffsetYD_2
 0003:0E6901C0       aWinWidthD_2
 0003:0E6901E0       aWinHeightD_2
 0003:0E690200       aRescalerInputW_0
 0003:0E690220       aRescalerInputH_0
 0003:0E690240       aOsdBufDramAddr_1
 0003:0E690264       aOsdBufPitchD_1
 0003:0E690284       aOsdBufRepeatFi_1
 0003:0E6902A4       aOsdDirectModeD_0
 0003:0E6902C4       aOsdTransparent_1
 0003:0E6902E4       aOsdTransparent_2
 0003:0E690304       aOsdSwapBytesD_0
 0003:0E690324       aOsdBufInfoDram_0
 0003:0E690348       aVoutDisplaySet_0
 0003:0E69035C       aDispConfigDram_0
 0003:0E690384       aDualVoutVysncD_0
 0003:0E6903A8       aVinVoutVsyncDe_0
 0003:0E6903CC       aVoutDveSetup_0
 0003:0E6903DC       aDveConfigDramA_0
 0003:0E690400       aWarningVout0Al
 0003:0E690448       aWarningVout1Al
 0003:0E6904D8       aImgWarpCoreHas
 0003:0E6904FC       aImgWarpCoreCon
 0003:0E690530       aImgWarpCoreCon_0
 0003:0E690564       aImgWarpCoreDoe
 0003:0E69058C       aImgWarpCoreHas_0
 0003:0E6905AC       aErrorCreateClb
 0003:0E6905D0       aErrorCreateClb_0
 0003:0E6905F4       aErrorCreatePar
 0003:0E690618       aErrorCreatePar_0
 0003:0E69063C       aErrorGetparamc
 0003:0E690654       aWarningStillVi
 0003:0E690688       aErrorGetcalibc
 0003:0E6906B0       aErrorRawwDRawh
 0003:0E6906CC       aLefttopxD0
 0003:0E6906DC       aLefttopyD0
 0003:0E6906EC       aActRightbotxDW
 0003:0E69070C       aActRightbotyDH
 0003:0E690730       aActLefttopxDCo
 0003:0E690754       aActLefttopyDCo
 0003:0E690788       aDetectDummyWin
 0003:0E6907D8       aDetectDummyWin_0
 0003:0E690828       aWarningNoSuita
 0003:0E690844       aWarningCfaoutw
 0003:0E690874       aWarningCfaouth
 0003:0E6908A4       aErrorCalcactwi
 0003:0E6908BC       aErrorCalcdmywi
 0003:0E6908D4       aErrorCalccfaou
 0003:0E6908F0       aErrorRawhD
 0003:0E690900       aErrorImgwarpco
 0003:0E690928       aErrorOutputwin
 0003:0E690938       aDefaultCommand
 0003:0E69095C       aDefCmdCode0xX
 0003:0E690974       aDspNoResponseA
 0003:0E69099C       aAmbadspGetopmo
 0003:0E6909B8       aDspVinNoRespon
 0003:0E6909E8       aDspVoutNoRespo
 0003:0E690A18       aAmbadspArmcomm
 0003:0E690A2C       aDspArmcommvdsp
 0003:0E690A4C       aSMsgQueueFull
 0003:0E690A60       aDspArmcommasyn
 0003:0E690A80       aAsyncMsg
 0003:0E690A8C       aDspArmcommvdsp_0
 0003:0E690AA8       aVdspMsg
 0003:0E690AB4       aVdsp_0
 0003:0E690ABC       aVcapMsg
 0003:0E690AC8       aVcap_0
 0003:0E690AD0       aDspCmdSeqNoErr
 0003:0E690AEC       aVdspCmdBuf0xXC
 0003:0E690B28       aVcapCmdBuf0xXC
 0003:0E690B64       aCmdCode0xX_33
 0003:0E690B78       aIdspCmdCode0xX
 0003:0E690B90       aAsyncCmdSeqNum
 0003:0E690BC0       aAsyncCmdCode0x
 0003:0E690BD8       aErrAsyncCmdTim
 0003:0E690BF0       aA
 0003:0E690BF4       aB
 0003:0E690BF8       aC_7
 0003:0E690BFC       aD_2
 0003:0E690C00       a1_0
 0003:0E690C08       a2_0
 0003:0E690C10       a3_0
 0003:0E690C18       a4
 0003:0E690C20       a5
 0003:0E690C28       a6
 0003:0E690C30       aAmbsh
 0003:0E690C38       aDevNull
 0003:0E690C44       aDevNull_0
 0003:0E690C50       aCannotOpenS
 0003:0E690C64       aOutOfMemory
 0003:0E690C74       aAmbashelltask
 0003:0E690C84       aDDoneS
 0003:0E690C94       aStringremovech
 0003:0E690CA8       aKAssertAtSD_20
 0003:0E690CBC       aAHistory
 0003:0E690CC8       aDP
 0003:0E690CD0       aDc
 0003:0E690CD8       a4h
 0003:0E690CE0       aDd
 0003:0E690E34       aTypeHelpForHel
 0003:0E690E4C       aS_11
 0003:0E690E54       aAsh
 0003:0E690E5C       aAmbshSCommandN
 0003:0E690E7C       aUnknownPrfileE
 0003:0E690E94       aExecuteScriptS
 0003:0E690EBC       aUnsupportPageS
 0003:0E690ED4       aRomallocinode
 0003:0E690EE4       aKAssertAtSD_15
 0003:0E690EF8       aRominit
 0003:0E690F00       aSFailed
 0003:0E690F10       aSGetMemoryDFai
 0003:0E690F28       aRomDFailedToIn
 0003:0E690F48       aRomDInitialize
 0003:0E690F60       aRpdevKillhiber
 0003:0E690F7C       aSFailed_0
 0003:0E690F88       aAmbaipcHibersu
 0003:0E690FA0       aCanTNotCreateA_0
 0003:0E690FD0       aThreadEntryExi
 0003:0E691000       aAmbakalEventfl_3
 0003:0E691024       aAmbakalEventfl_4
 0003:0E691048       aAmbakalEventfl_5
 0003:0E69106C       aRpdevLinkctrlI
 0003:0E691080       aAmbarpdevLinkc
 0003:0E691094       aSAmbaipcAllocF_3
 0003:0E6910B0       aHiberValid
 0003:0E6910BC       aSWrongMagic0x0
 0003:0E6910D4       aSTooManyPages0
 0003:0E6910F8       aHibernandWrite
 0003:0E691110       aKAssertAtSD_17
 0003:0E691124       aAmbanandEraseF
 0003:0E691148       aTryNextBlock_0
 0003:0E69115C       aAmbanandProgra_0
 0003:0E691180       aAmbanandProgra_1
 0003:0E6911B8       aHibernandWrite_0
 0003:0E6911D0       aAmbanandReadFa
 0003:0E691204       aHibernandReadh
 0003:0E69121C       aAmbanandReadFa_0
 0003:0E691240       aAmbanandReadFa_1
 0003:0E691264       aHibernationIma_0
 0003:0E69129C       aCheckingHibern
 0003:0E6912CC       aHibernandSave
 0003:0E6912DC       aSNandPartition
 0003:0E691304       aHibernandResto
 0003:0E691318       aHiberReturn
 0003:0E691328       aSTotalpagesDCo
 0003:0E69134C       aAmbaipcHibersa
 0003:0E691368       aAmbanandProgra_2
 0003:0E691398       aSNotEnoughBloc
 0003:0E6913C0       aAmbaipcHiberre
 0003:0E6913E0       aAmbanandReadFa_2
 0003:0E69140C       aAmbaipcHiberpr
 0003:0E691424       aAmbaipcHibersu_0
 0003:0E69143C       aSCopypagesAndS
 0003:0E691464       aSAmbanandIsini
 0003:0E691480       aSHibernandGetp
 0003:0E6914A4       aSHibernandSave
 0003:0E6914C0       aAmbaipcHiberre_0
 0003:0E6914D4       aAmbalinkBootFa
 0003:0E6914E8       aAmbakalEventfl
 0003:0E69150C       aAmbakalEventfl_0
 0003:0E691530       aAmbakalEventfl_1
 0003:0E691554       aAmbalinkInit
 0003:0E691564       aAmbalinkSpinlo
 0003:0E691588       aAmbalinkMutex0
 0003:0E6915A4       aSPbytepoolIsNu
 0003:0E6915BC       aSCanTNotCreate
 0003:0E6915E8       aAmbalink
 0003:0E6915F4       aCanTNotCreateA
 0003:0E691614       aAmbakalEventfl_2
 0003:0E691638       aLinuxIsSAndIpc
 0003:0E691658       aColdboot
 0003:0E691664       aWarmboot
 0003:0E691670       aHibernationBoo
 0003:0E691684       aLinuxIsSuspend
 0003:0E6916A0       aNand_0
 0003:0E6916A8       aDram
 0003:0E6916B0       aCLinuxImage
 0003:0E6916C0       aHibernationIma
 0003:0E6916DC       aAmbalinkBootLo
 0003:0E691718       aLoadLinuxKerne
 0003:0E691734       aHelp_2
 0003:0E69173C       aSupportedTestC_4
 0003:0E691758       aS_23
 0003:0E691760       aSTestCommandNo
 0003:0E691780       aAmbashellTestC
 0003:0E6917D8       aPrssg
 0003:0E6917E0       aSsg
 0003:0E6917E8       aPrssr
 0003:0E6917F0       aSsr
 0003:0E6917F8       aIris_0
 0003:0E691800       aSoe
 0003:0E691808       aLedOn
 0003:0E691814       aXen
 0003:0E69181C       aMsC
 0003:0E691824       aSor
 0003:0E69182C       aEor
 0003:0E691834       aLedOff
 0003:0E691840       aMsO
 0003:0E691848       aAmbaimagemessa
 0003:0E691860       aStatSig
 0003:0E69186C       aUpsamplingrate
 0003:0E691894       aDropframeD
 0003:0E6918A4       aFifoAck
 0003:0E6918B0       aSsiAdv
 0003:0E6918B8       aUU
 0003:0E6918C0       aSsiSof
 0003:0E6918C8       aSsiEof
 0003:0E6918D0       aFifoAck3
 0003:0E6918DC       aQuePre
 0003:0E6918E4       aMsgEof
 0003:0E6918EC       aSvrSsr
 0003:0E6918F4       aShrSsr
 0003:0E6918FC       aQueIris
 0003:0E691908       aMsgSof
 0003:0E691910       aSvrSsg
 0003:0E691918       aShrSsg
 0003:0E691920       aDdgc
 0003:0E691928       a08dS
 0003:0E691934       a0x02x_0
 0003:0E69193C       aTimerIsr
 0003:0E691948       aQueSsx
 0003:0E691950       aQueIris_0
 0003:0E69195C       aTimerSoe
 0003:0E691968       aQueSoe
 0003:0E691970       aTimerLed
 0003:0E69197C       aQueLon
 0003:0E691984       aTimerXen
 0003:0E691990       aTimerMs
 0003:0E69199C       aMsgPrsor
 0003:0E6919A8       aMsgSor
 0003:0E6919B0       aChksync
 0003:0E6919B8       aUUU
 0003:0E6919C4       aMsgStat2
 0003:0E6919D0       aMsgSs
 0003:0E6919D8       aMsgSsc
 0003:0E6919E0       aStatAck3
 0003:0E6919EC       aStatAck2
 0003:0E6919F8       aStatAck
 0003:0E691A04       aMsgStat3
 0003:0E691A10       aMsgStat
 0003:0E691A1C       aAck4F
 0003:0E691A24       aAckS
 0003:0E691A2C       aAck3F
 0003:0E691A34       aAck2F
 0003:0E691A3C       aFifoAck4
 0003:0E691A48       aAckF
 0003:0E691A50       aFifoAck2
 0003:0E691A5C       aQueSor
 0003:0E691A64       aMsgEor
 0003:0E691A6C       aMsgAckS
 0003:0E691A78       aMsgTrigs
 0003:0E691A84       aDgcS
 0003:0E691A8C       aDdgcS
 0003:0E691A94       aSsiS
 0003:0E691A9C       aSnapSeq
 0003:0E691AA8       aSnapSput
 0003:0E691AB4       aSnapLput
 0003:0E691AC0       aSnapIput
 0003:0E691ACC       aDdgcSof
 0003:0E691AD8       aDdgcE
 0003:0E691AE0       aDgcSof
 0003:0E691AE8       aDgcE
 0003:0E691AF0       aQueEor
 0003:0E691AF8       aQueLof
 0003:0E691B00       aQueMso
 0003:0E691B08       aMsgTrige
 0003:0E691B14       aSsiE
 0003:0E691B1C       aDdgcAdve
 0003:0E691B28       aDgcAdve
 0003:0E691B34       aEofSet
 0003:0E691B3C       aSsiAdve
 0003:0E691B48       aAdvSsi
 0003:0E691B50       aDecSync
 0003:0E691B5C       aDropRepeatU
 0003:0E691B70       aDropFramesExce
 0003:0E691B94       aDrop
 0003:0E691B9C       aAdvEof
 0003:0E691BA4       aDec2eof
 0003:0E691BAC       aEof2sync
 0003:0E691BB8       aSyncBlk
 0003:0E691BC4       aSnapAgcDgcDdgc
 0003:0E691BE8       aSnapShrSvrUU
 0003:0E691C00       aSnapIn
 0003:0E691C08       aSnapLast
 0003:0E691C14       aSnapCountU
 0003:0E691C24       aDirectShrSvrUU
 0003:0E691C40       aSnapSequenceAg
 0003:0E691C6C       aSnapSequenceSh
 0003:0E691C94       aConvertAeIndex
 0003:0E691CA8       aSIncorrectAeId
 0003:0E691CD0       aAmbaImgExifCom
 0003:0E691CF0       a0100SGetExifIn
 0003:0E691D0C       aPpriexifSizeD
 0003:0E691D30       aInfo_1
 0003:0E691D3C       aAeAutoKneeD
 0003:0E691D50       aAeTileRowDAeTi
 0003:0E691D78       a5d
 0003:0E691D80       aAwbTileRowDAwb
 0003:0E691DAC       a5d5d_0
 0003:0E691DBC       a2d
 0003:0E691DC4       a3d
 0003:0E691DCC       aD
 0003:0E691DD4       a5d5d5d_0
 0003:0E691DE8       a5d5d_1
 0003:0E691DF8       aChD
 0003:0E691E00       aLctSrc5d5d5d
 0003:0E691E18       aLctTgt5d5d5d
 0003:0E691E30       aHctSrc5d5d5d
 0003:0E691E48       aHctTgt5d5d5d
 0003:0E691E60       a3d4d
 0003:0E691E6C       aLv3dEvindex5dS
 0003:0E691E94       aEnd
 0003:0E691E9C       aPpriexifSizeD_0
 0003:0E691EC0       aCount12d
 0003:0E691ED4       aFEnergy60hzFFE
 0003:0E691F2C       aFlg60fpsDFlg50
 0003:0E691F68       aAmbaimagemaine
 0003:0E691F90       aMaxbiasD
 0003:0E691F9C       aFocalvalueD
 0003:0E691FAC       aEismvMaxangxD
 0003:0E691FC0       aEismvMaxangyD
 0003:0E691FD4       aAmbaimagemaine_0
 0003:0E691FFC       aEisobjAdcsampl
 0003:0E692018       aEisupdateendti
 0003:0E692030       aEisupdateendti_0
 0003:0E692048       aEisrotatefacto
 0003:0E69205C       aEisstatusEisdz
 0003:0E692078       aTmpdmyrangeLef
 0003:0E692090       aTmpdmyrangeRig
 0003:0E6920A8       aTmpdmyrangeTop
 0003:0E6920C0       aTmpdmyrangeBot
 0003:0E6920D8       aBefore
 0003:0E6920FC       aWindowinfoActw
 0003:0E692124       aWindowinfoActw_0
 0003:0E69214C       aWindowinfoActw_1
 0003:0E692174       aWindowinfoActw_2
 0003:0E69219C       aWindowinfoDmyw
 0003:0E6921C0       aWindowinfoDmyw_0
 0003:0E6921E4       aWindowinfoDmyw_1
 0003:0E692208       aWindowinfoDmyw_2
 0003:0E69222C       aWindowinfoMain
 0003:0E692250       aDspzfy0xX
 0003:0E692260       aAfter
 0003:0E692284       aCaphD
 0003:0E69228C       aActhD
 0003:0E692294       aAmbaimagemaine_1
 0003:0E6922C0       aAmbaimagemaine_2
 0003:0E6922F8       aGyroparamOffse
 0003:0E692310       aGyroparamOffse_0
 0003:0E692328       aGyrocalibinfoS
 0003:0E692340       aGyrocalibinfoS_0
 0003:0E692358       aAmbaimagemaine_3
 0003:0E692390       aAmbaimagemaine_4
 0003:0E6923C4       aDefeisparamSen
 0003:0E6923E4       aDefeisparamEis
 0003:0E692408       aGyroinfoVoldiv
 0003:0E692420       aDefeisparamSen_0
 0003:0E692440       aDefeisparamEis_0
 0003:0E692464       aEisparamEissca
 0003:0E692484       aEisparamEissca_0
 0003:0E6924A4       aEisparamEissca_1
 0003:0E6924C4       aAmbaimagemaine_5
 0003:0E6924FC       aAmbaimagemaine_6
 0003:0E692528       aFramerateperse
 0003:0E69253C       aCurrframetimeD
 0003:0E692550       aEissensorstatu
 0003:0E692580       aEissensorstatu_0
 0003:0E6925B4       aEissensorstatu_1
 0003:0E6925F4       aEissensorstatu_2
 0003:0E69262C       aVerticalblankt
 0003:0E692644       aMemallocate
 0003:0E69265C       aChan0MemoryCre
 0003:0E692688       aChan1MemoryCre
 0003:0E6926B4       aChan2MemoryCre
 0003:0E6926E0       aChan3MemoryCre
 0003:0E69270C       aChan4MemoryCre
 0003:0E692738       aChan5MemoryCre
 0003:0E692764       aChan6MemoryCre
 0003:0E692790       aChan7MemoryCre
 0003:0E6927BC       aEismvMaxpixxD
 0003:0E6927D0       aEismvMaxpixyD
 0003:0E6927E4       aPmovsizeCapsta
 0003:0E6927FC       aDlymsD
 0003:0E692808       aPmovsizeCapsta_0
 0003:0E692820       aPcalcwininfoVi
 0003:0E692844       aPcalcwininfoVi_0
 0003:0E692868       aEisdspcmdvalid
 0003:0E692880       aAudioclkpersec
 0003:0E692898       aCmdreaddlyD_1
 0003:0E6928A8       aAmbaimagemaine_7
 0003:0E6928D4       aAmbaimagemaine_8
 0003:0E692910       aDownsamplexD
 0003:0E692920       aDownsampleyD
 0003:0E692930       aDownsamplexsft
 0003:0E692944       aDownsampleysft
 0003:0E692958       aOutput
 0003:0E69297C       aCapwD
 0003:0E692984       aActivehD
 0003:0E692990       aSafehD
 0003:0E69299C       aActwD
 0003:0E6929A4       aIsmovlimMovxD
 0003:0E6929B8       aIsmovlimMovyD
 0003:0E6929CC       aEislimpMovxD
 0003:0E6929E0       aRsclimpMovxD
 0003:0E6929F4       aEislimnMovxD
 0003:0E692A08       aRsclimnMovxD
 0003:0E692A1C       aEislimpMovyD
 0003:0E692A30       aRsclimpMovyD
 0003:0E692A44       aEislimnMovyD
 0003:0E692A58       aRsclimnMovyD
 0003:0E692A6C       aAmbaimagemaine_9
 0003:0E692A94       aEisobjEnableD
 0003:0E692AA8       aEisobjEnablecm
 0003:0E692ABC       aEisobjStabiliz
 0003:0E692AD8       aEisobjMeenable
 0003:0E692AEC       aFlgeisdzeffect
 0003:0E692B00       aEisenabledlycn
 0003:0E692B14       aAmbaimagemaine_10
 0003:0E692B40       aAmbaimagemaine_11
 0003:0E692B68       aErrorVertSkewD
 0003:0E692BA8       aErrorHoriSkewD
 0003:0E692BEC       aTimeShift1
 0003:0E692C04       aSimplifiedRpms
 0003:0E692C40       aTotalSendingDR
 0003:0E692C78       aAverageTimeToS
 0003:0E692CB4       aTotalSendingDR_0
 0003:0E692CEC       aAverageTimeToS_0
 0003:0E692D2C       aDetailedRpmsgP
 0003:0E692D68       aFromThreadxToL
 0003:0E692DA4       aAverageInjecti
 0003:0E692DCC       aAverageInjectr
 0003:0E692DF0       aAverageLinuxre
 0003:0E692E14       aAveragePickupr
 0003:0E692E38       aAverageRecvcal
 0003:0E692E5C       aMaximunLinuxRe
 0003:0E692E80       aMaximunRpmsgti
 0003:0E692E9C       aMinumunRpmsgti
 0003:0E692EB8       aMaximunRecvcbt
 0003:0E692ED4       aMinimunRecvcbt
 0003:0E692EF0       aFromLinuxToThr
 0003:0E692F2C       aAverageInjecti_0
 0003:0E692F54       aAverageThreadx
 0003:0E692F7C       aMaximunThreadx
 0003:0E692FA4       aRvqIsrIsInvoke
 0003:0E692FE0       aMessageIsTooBi
 0003:0E692FFC       aC0AndC1
 0003:0E693008       aCanTNotCreateR
 0003:0E693028       aCanTNotCreateS
 0003:0E693048       aCanTNotCreateR_0
 0003:0E693068       aCanTNotCreateS_0
 0003:0E693088       aRpclntCortexRv
 0003:0E69309C       aRpclntCortexSv
 0003:0E6930B0       aFailedToCreate
 0003:0E6930D4       aAmbaipcRpmsgre
 0003:0E6930F0       aSRpmsgRpdevInf
 0003:0E69311C       aRestoreRpmsgIn
 0003:0E693138       aZombieReplyMes
 0003:0E693160       aAsynAgain
 0003:0E693170       aSimplifiedRpcP
 0003:0E6931AC       aSynchronousRpc
 0003:0E6931CC       aAsynchronousRp
 0003:0E6931EC       aAverageRoundtr
 0003:0E693224       aAverageDeliver
 0003:0E69325C       aTotalSendingRp
 0003:0E69329C       aAverageTimeFro
 0003:0E6932D4       aTotalSendingRp_0
 0003:0E693314       aAverageTimeFro_0
 0003:0E693350       aDetailedRpcPro
 0003:0E69338C       aFromThreadxToL_0
 0003:0E6933C8       aAverageInjecti_1
 0003:0E6933F0       aAverageRpcTime
 0003:0E693418       aAverageRpcTime_0
 0003:0E693454       aMaximunRpcTime
 0003:0E693490       aMinimunRpcTime
 0003:0E6934CC       aMaximunTimeFro
 0003:0E693504       aMinimunTimeFro
 0003:0E69353C       aFromLinuxToThr_0
 0003:0E693578       aAverageInjecti_2
 0003:0E6935A0       aAverageRpcTime_1
 0003:0E6935DC       aMaximunRpcTime_0
 0003:0E693618       aMinimunRpcTime_0
 0003:0E693654       aMaximunTimeFro_0
 0003:0E69368C       aMinimunTimeFro_0
 0003:0E6936C4       aUsrLocalShareS_0
 0003:0E693708       aUsrLocalShareS_1
 0003:0E693740       aSdcardhandleex
 0003:0E693774       aUsrLocalShareS
 0003:0E693798       aAmbaipcRpcsync
 0003:0E6937B8       aUsrLocalShareS_2
 0003:0E6937EC       aUsrLocalShareS_3
 0003:0E69381C       aAmbaipcRpcusbo
 0003:0E693844       aAmbaipcRpcinit
 0003:0E693854       aAipcRpc
 0003:0E693860       aSAmbaipcAllocF_0
 0003:0E69387C       aErrorProgramId_0
 0003:0E6938A0       aPleaseUseThePr_0
 0003:0E6938DC       aSvcThreadFunEv
 0003:0E693914       aSvcThreadFunEv_0
 0003:0E69394C       aErrorReachedAi
 0003:0E693974       aSetThreadFinis
 0003:0E6939A4       aAddTaskLockMut
 0003:0E6939D0       aFullAddTaskLoc
 0003:0E693A04       aQueueFullError
 0003:0E693A28       aFullAddTaskUnl
 0003:0E693A5C       aQueueEmptyEven
 0003:0E693A90       aAddTaskUlockMu
 0003:0E693ABC       aSvcRecvEventFl
 0003:0E693AEC       aSvcRecvEventFl_0
 0003:0E693B1C       aThreadpoolfunc
 0003:0E693B4C       aQueueEmptyFlag
 0003:0E693B7C       aQueueFullFlagG
 0003:0E693BA8       aThreadpoolfunc_0
 0003:0E693BD8       aAmbaipcSvcThre
 0003:0E693BF0       aProgramVersion
 0003:0E693C10       a7d6d5dS
 0003:0E693C24       aProgDHasBeenRe
 0003:0E693C4C       aKillSvcTaskErr
 0003:0E693C70       aCanTFindSvc
 0003:0E693C80       aAmbaipcOwnerIs
 0003:0E693C98       aSAmbaipcMutext
 0003:0E693CC0       aAmbaipcMutexta_0
 0003:0E693CD4       aAmbaipcMutexta
 0003:0E693CF8       aSTimeoutD
 0003:0E693D08       aAmbaipcMutexgi
 0003:0E693D2C       aAmbaipcMutexgi_0
 0003:0E693D54       aAmbaipcMutexin
 0003:0E693D68       aKAssertAtSD_25
 0003:0E693D7C       aAmbaipcSpinini
 0003:0E693D90       aKAssertAtSD_26
 0003:0E693DA4       aFreeSpaceForSI
 0003:0E693DBC       aAmbaipcRfsinit
 0003:0E693DCC       aFailedToCreate_6
 0003:0E693DF8       aFailedToCreate_7
 0003:0E693E1C       aAipcRfs
 0003:0E693E28       aSAmbaipcAllocF_2
 0003:0E694244       aAmbarpcMsgInit
 0003:0E694270       aAmbarpcMsgSend
 0003:0E69429C       aErrOffsetxWidt
 0003:0E6942DC       aDspSetOpModeRe
 0003:0E6942F8       aCmdCode0xX_23
 0003:0E69430C       aDspOpModeD
 0003:0E694320       aModeFlags0xX
 0003:0E694338       aNumOfChansD
 0003:0E69434C       aEncChanCfgsD
 0003:0E694360       aEncTypeFullRes
 0003:0E69437C       aEncTypePipD
 0003:0E694398       aEncFrmRateD
 0003:0E6943B4       aEncFlagsD
 0003:0E6943D0       aEncTypePivD
 0003:0E6943EC       aEncWidthFullRe
 0003:0E694408       aEncHeightFullR
 0003:0E694424       aEncWidthPipD
 0003:0E694440       aEncHeightPipD
 0003:0E69445C       aDspSetOpModeDe
 0003:0E694474       aNumOfInstances
 0003:0E69448C       aEncChanCfgs
 0003:0E69449C       aDspActivateOpM
 0003:0E6944B8       aDspSuspendOpMo
 0003:0E6944D0       aDspSetDebugLev
 0003:0E6944E8       aModuleD
 0003:0E6944FC       aAddOrSetD
 0003:0E694510       aReservedD
 0003:0E694524       aDebugMask0xX
 0003:0E694538       aDspArmModDspMe
 0003:0E69454C       aSize0xX
 0003:0E694560       aDspSetDebugThr
 0003:0E694578       aThreadMask0xX
 0003:0E69458C       aDspSetSystemIn
 0003:0E6945A0       aCmdCode0xX_24
 0003:0E6945BC       aAudioClkFreqD
 0003:0E6945D4       aTimerValDTicks
 0003:0E6945F4       aFrameTimeTicks
 0003:0E694614       aOrcClkFreqD
 0003:0E69462C       aH264encSetup
 0003:0E69463C       aChannelIdD_8
 0003:0E694658       aStreamTypeD_6
 0003:0E694674       aProfileIdcD
 0003:0E694690       aLevelIdcD
 0003:0E6946AC       aCodingTypeD
 0003:0E6946C8       aScalelistOptD
 0003:0E6946E4       aForceIntlcTbIf
 0003:0E694700       aEncPipelineMod
 0003:0E69471C       aEncodeWSzD
 0003:0E694738       aEncodeHSzD
 0003:0E694754       aEncodeWOfsD
 0003:0E694770       aEncodeHOfsD
 0003:0E69478C       aAffModeD
 0003:0E6947A8       aMD
 0003:0E6947C4       aND
 0003:0E6947E0       aGopStructureD
 0003:0E6947FC       aNumrefPD
 0003:0E694818       aNumrefBD
 0003:0E694834       aUseCabacD
 0003:0E694850       aQualityLevelD
 0003:0E69486C       aAverageBitrate
 0003:0E694888       aVbrCntl0xX
 0003:0E6948A8       aVbrSettingD
 0003:0E6948C4       aAllowIAdvD
 0003:0E6948E0       aCpbBufIdcD
 0003:0E6948FC       aEnPanicRcD
 0003:0E694918       aCpbCmpIdcD
 0003:0E694934       aFastRcIdcD
 0003:0E694950       aTargetStorageS
 0003:0E69496C       aBitsFifoBase0x
 0003:0E69498C       aBitsFifoLimit0
 0003:0E6949AC       aInfoFifoBase0x
 0003:0E6949CC       aInfoFifoLimit0
 0003:0E6949EC       aAudioInFreqD
 0003:0E694A08       aVoutFrameRateD_0
 0003:0E694A24       aIrCycleD
 0003:0E694A40       aIrTypeD
 0003:0E694A5C       aInitialFadeInG
 0003:0E694A78       aFinalFadeOutGa
 0003:0E694A94       aIdrIntervalD
 0003:0E694AB0       aCpbUserSizeD
 0003:0E694ACC       aStatFifoBaseD
 0003:0E694AE8       aStatFifoLimitD
 0003:0E694B04       aFollowGopD
 0003:0E694B20       aFgopMaxMD
 0003:0E694B3C       aFgopMaxND
 0003:0E694B58       aFgopMinND
 0003:0E694B74       aMeConfigD
 0003:0E694B90       aShareSmemOptio
 0003:0E694BAC       aShareSmemMaxWi
 0003:0E694BC8       aPtsDelta0xX
 0003:0E694BE8       aFastAsyncMsgAc
 0003:0E694C04       aSendReconToVca
 0003:0E694C20       aReconBufNumD
 0003:0E694C3C       aPjpegBufSizeD
 0003:0E694C58       aSliceMbCountD
 0003:0E694C74       aPicOrderCntTyp
 0003:0E694C90       aH264encStart
 0003:0E694CA0       aChannelIdD_9
 0003:0E694CC4       aStreamTypeD_7
 0003:0E694CE8       aSyncOutStreamD
 0003:0E694D0C       aSyncOutMethodD
 0003:0E694D30       aBitsFifoNext0x
 0003:0E694D58       aInfoFifoNext0x
 0003:0E694D80       aStartEncodeFra
 0003:0E694DA4       aEncodeDuration
 0003:0E694DCC       aIsFlushD
 0003:0E694DF0       aEnableSlowShut
 0003:0E694E14       aResRateMinD
 0003:0E694E38       aEncInputStream
 0003:0E694E5C       aAlphaD
 0003:0E694E80       aBetaD
 0003:0E694EA4       aEnLoopFilterD
 0003:0E694EC8       aMaxUpsamplingR
 0003:0E694EEC       aSlowShutterUps_0
 0003:0E694F10       aFirstgopstartb
 0003:0E694F34       aIIdrSpRcHandle
 0003:0E694F58       aIdrQpAdjStrD
 0003:0E694F7C       aIdrClassAdjLim
 0003:0E694FA0       aIQpAdjStrD
 0003:0E694FC4       aIClassAdjLimit
 0003:0E694FE8       aFrameCroppingF
 0003:0E69500C       aFrameCropLeftO
 0003:0E695030       aFrameCropRight
 0003:0E695054       aFrameCropTopOf
 0003:0E695078       aFrameCropBotto
 0003:0E69509C       aMaxBytesPerPic
 0003:0E6950C0       aMaxBitsPerMbDe
 0003:0E6950E4       aSonyAvcD
 0003:0E695108       aAuTypeD
 0003:0E69512C       aSyncWithPivD
 0003:0E695150       aRcInitComplexi
 0003:0E695174       aSpsPpsHeaderMo
 0003:0E695198       aSyncWithVcapD
 0003:0E6951BC       aSmvmaxScaleD
 0003:0E6951E0       aSingleEncoderM
 0003:0E695204       aH264encStop
 0003:0E695214       aChannelIdD_10
 0003:0E695228       aStreamTypeD_8
 0003:0E69523C       aStopMethodD
 0003:0E695250       aH264encJpegSet
 0003:0E695264       aCmdCode0xX_25
 0003:0E695280       aChannelIdD_11
 0003:0E69529C       aStreamTypeD_9
 0003:0E6952B8       aChromaForamtD
 0003:0E6952D4       aBitsFifoBase0x_0
 0003:0E6952F0       aBitsFifoLimit0_0
 0003:0E69530C       aInfoFifoBase0x_0
 0003:0E695328       aInfoFifoLimit0_0
 0003:0E695344       aQuantMatrixAdd
 0003:0E695360       aFrameRateD
 0003:0E69537C       aIsMjpegD
 0003:0E695398       aTargetBppD
 0003:0E6953B4       aQlevelSnD
 0003:0E6953D0       aQlevelTnD
 0003:0E6953EC       aInitialQlevelD
 0003:0E695408       aToleranceD
 0003:0E695424       aMaxEncLoopD
 0003:0E695440       aRateCurvePoint
 0003:0E69545C       aRateCurveAddr0
 0003:0E695478       aFastAsyncMsgAc_0
 0003:0E695494       aH264encUpdateO
 0003:0E6954B4       aChannelId0xX_2
 0003:0E6954C8       aStreamType0xX_3
 0003:0E6954DC       aOnDemandIdr0xX
 0003:0E6954F4       aPtsToChangeToI
 0003:0E695514       aH264encUpdateB
 0003:0E695534       aAverageBitrate_0
 0003:0E69554C       aPtsToChangeBit
 0003:0E69556C       aH264encMjpegCa
 0003:0E695584       aCmdCode0xX_26
 0003:0E6955A0       aChannelId0xX_3
 0003:0E6955BC       aStreamType0xX_4
 0003:0E6955D8       aEncodeDuration_0
 0003:0E6955F4       aFramerateContr
 0003:0E695610       aFramerateContr_0
 0003:0E69562C       aH264encRotate
 0003:0E69563C       aChannelId0xX_4
 0003:0E695650       aStreamType0xX_5
 0003:0E695664       aHflipD
 0003:0E695670       aVflipD
 0003:0E69567C       aRotateD
 0003:0E69568C       aVertBlackBarEn
 0003:0E6956A4       aVertBlackBarMb
 0003:0E6956C4       aH264encUpdateF
 0003:0E6956E4       aReduceFactor0x
 0003:0E6956FC       aFrameRatePts0x
 0003:0E695714       aPtsDelta0xX_0
 0003:0E695728       aH264encPause
 0003:0E695738       aPauseMethod0xX
 0003:0E695750       aH264encResume
 0003:0E695760       aH264decSetup
 0003:0E695770       aCmdCodeD
 0003:0E695788       aDecoderIdD
 0003:0E6957A0       aDecodeType0xX
 0003:0E6957BC       aEnablePicInfoD
 0003:0E6957D4       aUseTiledDramD
 0003:0E6957EC       aBitsFifoBase0x_1
 0003:0E695808       aBitsFifoLimit0_1
 0003:0E695824       aRbufSmemSize0x
 0003:0E695840       aFbufDramSize0x
 0003:0E69585C       aPjpegBufSize0x
 0003:0E695878       aDecStatusAddr0
 0003:0E695894       aCabac2ReconDel
 0003:0E6958B0       aForceFldTiledD
 0003:0E6958C8       aEcModeD
 0003:0E6958E0       aEnableDecppD
 0003:0E6958F8       aFrmBufWidthD
 0003:0E695910       aFrmBufHeightD
 0003:0E695928       aDecppBufWidthD
 0003:0E695944       aDecppBufHeight
 0003:0E695960       aMaxFrmNumOfDpb
 0003:0E69597C       aH264decDecode
 0003:0E69598C       aBitsFifoStart0
 0003:0E6959A4       aBitsFifoEnd0xX
 0003:0E6959BC       aFirstFrameDisp
 0003:0E6959D8       aH264decStop
 0003:0E6959E8       aDecoderId0xX
 0003:0E6959FC       aSeamlessFlag0x
 0003:0E695A14       aStopFlag0xX
 0003:0E695A28       aH264decSpeed
 0003:0E695A38       aSpeed0xX
 0003:0E695A48       aScanMode0xX
 0003:0E695A5C       aDirection0xX
 0003:0E695A70       aH264decTrickpl
 0003:0E695A84       aMode0xX_5
 0003:0E695A94       aCmdCode0xX_27
 0003:0E695AAC       aDecoderId0xX_0
 0003:0E695AC4       aRotate0xX
 0003:0E695ADC       aFlip0xX
 0003:0E695AF4       aUserData0xX
 0003:0E695B0C       aFeedback0xX
 0003:0E695B24       aDstBuf
 0003:0E695B30       aIsDefltBuf0xX
 0003:0E695B48       aLuBufBase0xX
 0003:0E695B60       aChBufBase0xX
 0003:0E695B78       aImgWidthD
 0003:0E695B8C       aImgHeightD
 0003:0E695BA0       aImgOffsetXD
 0003:0E695BB4       aImgOffsetYD
 0003:0E695BC8       aBufPitchD
 0003:0E695BDC       aChFormat0xX
 0003:0E695BF4       aPendingCnt0xX
 0003:0E695C0C       aH264decYuv2yuv
 0003:0E695C1C       aSrcBuf
 0003:0E695C28       aH264decPaint
 0003:0E695C38       aPaintBuf
 0003:0E695C44       aH264decPbcapCf
 0003:0E695C58       aCmdCode0xX_28
 0003:0E695C70       aDecoderId0xX_1
 0003:0E695C88       aBitsFifoBase0x_2
 0003:0E695CA0       aBitsFifoLimit0_2
 0003:0E695CB8       aH264decYuv2jpe
 0003:0E695CCC       aYuvBuf
 0003:0E695CD8       aJpegImg
 0003:0E695CE4       aQuantTableBase
 0003:0E695D00       aImgBase0xX
 0003:0E695D1C       aImgSizeMax0xX
 0003:0E695D38       aImgWidthD_0
 0003:0E695D50       aImgHeightD_0
 0003:0E695D68       aImgOffsetXD_0
 0003:0E695D80       aImgOffsetYD_0
 0003:0E695D98       aRotate0xX_0
 0003:0E695DB4       aFlip0xX_0
 0003:0E695DD0       aChFmt0xX
 0003:0E695DEC       aVoutMixerSetup
 0003:0E695E00       aVoutIdD
 0003:0E695E18       aInterlacedD
 0003:0E695E30       aFrmRateD
 0003:0E695E48       aActWinWidthD
 0003:0E695E60       aActWinHeightD
 0003:0E695E78       aBackGroundVD
 0003:0E695E90       aBackGroundUD
 0003:0E695EA8       aBackGroundYD
 0003:0E695EC0       aMixer444D
 0003:0E695ED8       aHighlightVD
 0003:0E695EF0       aHighlightUD
 0003:0E695F08       aHighlightYD
 0003:0E695F20       aHighlightThres
 0003:0E695F38       aReverseEnD
 0003:0E695F50       aCscEnD
 0003:0E695F68       aCscParmsD0xX
 0003:0E695F84       aVoutVideoSetup
 0003:0E695F98       aVoutIdD_0
 0003:0E695FC0       aEnD
 0003:0E695FE8       aSrcD
 0003:0E696010       aFlipD
 0003:0E696038       aRotateD_0
 0003:0E696060       aWinOffsetXD
 0003:0E696088       aWinOffsetYD
 0003:0E6960B0       aWinWidthD
 0003:0E6960D8       aWinHeightD
 0003:0E696100       aDefaultImgYAdd
 0003:0E696128       aDefaultImgUvAd
 0003:0E696150       aDefaultImgPitc
 0003:0E696178       aDefaultImgRepe
 0003:0E6961A0       aDefaultImgIgno
 0003:0E6961C8       aVoutOsdSetup
 0003:0E6961D8       aVoutIdD_1
 0003:0E6961F8       aEnD_0
 0003:0E696218       aSrcD_0
 0003:0E696238       aFlipD_0
 0003:0E696258       aRescalerEnD
 0003:0E696278       aPremultipliedD
 0003:0E696298       aGlobalBlendD
 0003:0E6962B8       aWinOffsetXD_0
 0003:0E6962D8       aWinOffsetYD_0
 0003:0E6962F8       aWinWidthD_0
 0003:0E696318       aWinHeightD_0
 0003:0E696338       aRescalerInputW
 0003:0E696358       aRescalerInputH
 0003:0E696378       aOsdBufDramAddr
 0003:0E69639C       aOsdBufPitchD
 0003:0E6963BC       aOsdBufRepeatFi
 0003:0E6963DC       aOsdDirectModeD
 0003:0E6963FC       aOsdTransparent
 0003:0E69641C       aOsdTransparent_0
 0003:0E69643C       aOsdSwapBytesD
 0003:0E69645C       aOsdBufInfoDram
 0003:0E696480       aVoutOsdBufferS
 0003:0E696498       aCmdCode0xX_29
 0003:0E6964B8       aVoutIdD_2
 0003:0E6964D4       aOsdBufDramAddr_0
 0003:0E6964F4       aOsdBufPitchD_0
 0003:0E696510       aOsdBufRepeatFi_0
 0003:0E69652C       aVoutIdD_4
 0003:0E69653C       aVoutDisplaySet
 0003:0E696550       aVoutIdD_3
 0003:0E696574       aDualVoutVysncD
 0003:0E696598       aDispConfigDram
 0003:0E6965C0       aVinVoutVsyncDe
 0003:0E6965E4       aVoutDveSetup
 0003:0E6965F4       aDveConfigDramA
 0003:0E696614       aVoutResetCmd
 0003:0E696624       aResetMixerD
 0003:0E696638       aResetDispD
 0003:0E69664C       aVoutDisplayCsc
 0003:0E696668       aVoutIdD_5
 0003:0E69667C       aCscTypeD
 0003:0E696690       aCscParmsDD
 0003:0E6966A4       aPostprocCmd
 0003:0E6966B4       aDecodeCatIdD
 0003:0E6966C8       aDecodeIdD
 0003:0E6966D8       aVoutaEnableD
 0003:0E6966EC       aVoutbEnableD
 0003:0E696700       aPipEnableD
 0003:0E696714       aXcodeEnableD
 0003:0E696728       aXcodePicWidthD
 0003:0E696740       aXcodePicHeight
 0003:0E696758       aFrateReduceRat
 0003:0E696774       aInputCenterXD
 0003:0E69678C       aInputCenterYD
 0003:0E6967A4       aVoutaTargetWin
 0003:0E6967C4       aVoutaTargetWin_0
 0003:0E6967E4       aVoutaTargetWin_1
 0003:0E696804       aVoutaTargetWin_2
 0003:0E696824       aVoutaZoomFacto
 0003:0E696840       aVoutaZoomFacto_0
 0003:0E69685C       aVoutbTargetWin
 0003:0E69687C       aVoutbTargetWin_0
 0003:0E69689C       aVoutbTargetWin_1
 0003:0E6968BC       aVoutbTargetWin_2
 0003:0E6968DC       aVoutbZoomFacto
 0003:0E6968F8       aVoutbZoomFacto_0
 0003:0E696914       aPipTargetOffse
 0003:0E696930       aPipTargetOffse_0
 0003:0E69694C       aPipTargetXSize
 0003:0E696964       aPipTargetYSize
 0003:0E69697C       aPipZoomFactorX
 0003:0E696998       aPipZoomFactorY
 0003:0E6969B4       aVout0Flip0xX
 0003:0E6969C8       aVout0Rotate0xX
 0003:0E6969E0       aVout0WinOffset
 0003:0E6969FC       aVout0WinOffset_0
 0003:0E696A18       aVout0WinWidthD
 0003:0E696A30       aVout0WinHeight
 0003:0E696A48       aVout1Flip0xX
 0003:0E696A5C       aVout1Rotate0xX
 0003:0E696A74       aVout1WinOffset
 0003:0E696A90       aVout1WinOffset_0
 0003:0E696AAC       aVout1WinWidthD
 0003:0E696AC4       aVout1WinHeight
 0003:0E696ADC       aPostpVideoFadi
 0003:0E696AF0       aEffectDMatrixV_0
 0003:0E696B18       aEffectDMatrixV
 0003:0E696B40       aEffectDYOffset
 0003:0E696B64       aEffectDUOffset
 0003:0E696B88       aEffectDVOffset
 0003:0E696BAC       aEffectDYOffset_0
 0003:0E696BD0       aEffectDUOffset_0
 0003:0E696BF4       aEffectDVOffset_0
 0003:0E696C18       aEffectDStartPt
 0003:0E696C3C       aEffectDDuratio
 0003:0E696C60       aPostpConfigYuv
 0003:0E696C78       aMatrixValuesDX
 0003:0E696C90       aROffsetX
 0003:0E696CA4       aGOffsetX
 0003:0E696CB8       aBOffsetX
 0003:0E696CCC       aStilldecConfig
 0003:0E696CDC       aCmdCode0xX_30
 0003:0E696CF4       aPicStatEna0xX
 0003:0E696D0C       aPicStatNum0xX
 0003:0E696D24       aPicStatBase0xX
 0003:0E696D3C       aDefBufBase0xX
 0003:0E696D54       aDefBufSize0xX
 0003:0E696D6C       aStilldecDecode
 0003:0E696D7C       aDecType0xX
 0003:0E696D94       aEndOfBits0xX
 0003:0E696DAC       aBitsBase0xX
 0003:0E696DC4       aBitsSize0xX
 0003:0E696DDC       aDecBuf
 0003:0E696DE8       aStilldecUpdate
 0003:0E696E00       aCmdCode0xX_31
 0003:0E696E14       aEndOfBits0xX_0
 0003:0E696E28       aBitsBase0xX_0
 0003:0E696E3C       aBitsSize0xX_0
 0003:0E696E50       aStilldecTermin
 0003:0E696E64       aStilldecStop
 0003:0E696E74       aCmdCode0xX_32
 0003:0E696E88       aStopMode0xX
 0003:0E696E9C       aStilldecYuv2yu
 0003:0E696EB0       aProcType0xX
 0003:0E696EC8       aLumaGain0xX
 0003:0E696EE0       aStilldecYuvDis
 0003:0E696EF4       aVoutType0xX
 0003:0E696F0C       aDispBuf
 0003:0E696F18       aDispUpdateD
 0003:0E696F2C       aDispRotateD
 0003:0E696F40       aDispFlipD
 0003:0E696F54       aDispWidthD
 0003:0E696F68       aDispHeightD
 0003:0E696F7C       aDispOffsetXD
 0003:0E696F90       aDispOffsetYD
 0003:0E696FA4       aStilldecBlend
 0003:0E696FB4       aAlphaInType0xX
 0003:0E696FCC       aAlphaValue0xX
 0003:0E696FE4       aAlphaTableBase
 0003:0E697000       aSrc1Buf
 0003:0E69700C       aSrc2Buf
 0003:0E697018       aStilldecPaint
 0003:0E697028       aStilldecYuv2rg
 0003:0E69703C       aRgbFormat0xX
 0003:0E697054       aYuvBuf_0
 0003:0E697060       aRgbBufBase0xX
 0003:0E697078       aRgbBufPitch0xX
 0003:0E697090       aStilldecPbcapC
 0003:0E6970A4       aDecYuv2jpeg
 0003:0E6970B4       aSrcBuf_0
 0003:0E6970C0       aAmbafsSdprf2do
 0003:0E6970D8       aKAssertAtSD_9
 0003:0E6970EC       aPfUnmountFaile_0
 0003:0E697100       aAmbafsSdprf2ch
 0003:0E697118       aPfSetupfsiFail
 0003:0E69712C       aAmbafsSdprf2ch_0
 0003:0E697164       aClearDirtyBitF
 0003:0E69717C       aAmbafsSdprf2fo
 0003:0E697198       aPfFormatFailed_0
 0003:0E6971AC       aAmbafsSdprf2in_0
 0003:0E6971C8       aAmbafsSdprf2dr
 0003:0E6971E0       aAmbafsSdprf2fi
 0003:0E6971F8       aAmbafsSdprf2mo
 0003:0E69720C       aAmbafsSdprf2un
 0003:0E697224       aNoMbr
 0003:0E69722C       aNonSdaExfatFor
 0003:0E697244       aAmbafsSdprf2in
 0003:0E697258       aPdmOpenDiskFai_0
 0003:0E697270       aPdmOpenPartiti_0
 0003:0E69728C       aKAssertAtSD_11
 0003:0E6972A0       aAmbartslSddeco
 0003:0E6972B8       aAmbartslSdgoid
 0003:0E6972D0       aAmbartslSdsend_0
 0003:0E6972EC       aAmbartslSdalls
 0003:0E697304       aAmbartslSdsend_1
 0003:0E697320       aAmbartslSdiose
 0003:0E697340       aAmbartslSdswit
 0003:0E697358       aAmbartslSdsele
 0003:0E697370       aAmbartslSdsend_2
 0003:0E697388       aAmbartslSdsend_3
 0003:0E6973A0       aAmbartslSdsend_4
 0003:0E6973B4       aAmbartslSdvolt
 0003:0E6973D0       aAmbartslSdsend_5
 0003:0E6973E8       aAmbartslSdsetb
 0003:0E697404       aAmbartslSdread_0
 0003:0E697420       aAmbartslSdread_1
 0003:0E697440       aAmbartslSdsend_6
 0003:0E697460       aAmbartslSdwrit_0
 0003:0E697478       aAmbartslSdwrit_1
 0003:0E697498       aAmbartslSderas
 0003:0E6974B4       aAmbartslSderas_0
 0003:0E6974D0       aAmbartslSderas_1
 0003:0E6974EC       aAmbartslSderas_2
 0003:0E697508       aAmbartslSderas_3
 0003:0E69751C       aAmbartslSdiorw
 0003:0E697534       aAmbartslSdsend_7
 0003:0E69754C       aAmbartslSdsetb_0
 0003:0E697564       aAmbartslSdsend_8
 0003:0E69757C       aAmbartslSdsend_9
 0003:0E697598       aAmbartslSdsetc
 0003:0E6975B4       aAmbartslSdsend_10
 0003:0E69761C       aKAssertAtSD_32
 0003:0E697630       aDHz
 0003:0E697638       aSdpowercycle
 0003:0E697648       aKAssertAtSD_5
 0003:0E69765C       aSdWaitFlagForC
 0003:0E697684       aSdsetupsdiocar
 0003:0E697694       aMmc4determineb
 0003:0E6976AC       aSdsetupmmc4car
 0003:0E6976BC       aSdsetupmmccard
 0003:0E6976CC       aUhsSwitchGroup
 0003:0E697728       aSdsetupsdmemca
 0003:0E69773C       aSdsetupuhsmode
 0003:0E697758       aSdmmcTuningCom
 0003:0E697774       aAmbasdInitcard
 0003:0E69778C       aGiveUpPollingA
 0003:0E6977A4       aAmbasdReadsing
 0003:0E6977BC       aSDataErrorDCmd
 0003:0E6977DC       aSCardStatus0xX
 0003:0E6977F4       aAmbasdReadmult
 0003:0E697810       aAmbasdWritesin
 0003:0E697828       aSDataErrDCmdEr
 0003:0E697848       aSR1Status0xXIn
 0003:0E697864       aSDFailTryToUpd
 0003:0E697884       aAmbasdWritemul
 0003:0E6978A0       aAmbasdEraseCal
 0003:0E6978CC       aAmbasdEraseFai
 0003:0E6978E8       aAmbasdReadsect_0
 0003:0E6978FC       aAmbasdReadsect
 0003:0E69792C       aSDRecoverySdCl
 0003:0E697954       aAmbasdReadsect_1
 0003:0E697974       aAmbasdWritesec_0
 0003:0E697988       aAmbasdWritesec
 0003:0E6979B8       aAmbasdWritesec_1
 0003:0E6979E8       aSDSdClockLdHz
 0003:0E697A04       aAmbasdWritesec_2
 0003:0E697AEC       aAmbaaudioEncma
 0003:0E697B08       aAudS0xX0xX_3
 0003:0E697B1C       aAacplainEncode
 0003:0E697B50       aAacEncodeUnsup
 0003:0E697B74       aAacEncodeUnsup_0
 0003:0E697BCC       aAudioAutomatic
 0003:0E697BF4       aAmbaaudioAacse
 0003:0E697C18       aAmbaaudioAacop
 0003:0E697C3C       aAmbaaudioAacen
 0003:0E697C64       aAmbaaudioEncch
 0003:0E697C7C       aAmbaaudioEncup
 0003:0E697C98       aAudS0xX0xX0xX_4
 0003:0E697CB4       aS0xXAudioSendL
 0003:0E697CD8       aAmbaaudioEncib
 0003:0E697CF0       aAudS0xXS0xX_2
 0003:0E697D08       aFadeOutDoneSto_0
 0003:0E697D20       aEncodeStop
 0003:0E697D2C       aAmbaaudioEncta
 0003:0E697D44       aAudioEncoderTa
 0003:0E697D58       aAmbaaudioEncta_0
 0003:0E697D70       aAmbaaudioEncsi
 0003:0E697D88       aAmbaaudioEnccr
 0003:0E697D9C       aAmbaaudioEncta_1
 0003:0E697DB4       aAudioWrongPtsC
 0003:0E697DD8       aAdpcmDonTSuppo_0
 0003:0E697E00       aAmbaaudioEncta_2
 0003:0E697E18       aAmbaaudioEncta_3
 0003:0E697E30       aAmbaaudioEncfa
 0003:0E697E48       aFadeOutDone_0
 0003:0E697ED8       aWaitMainEncode
 0003:0E697EFC       aWait2ndEncoder
 0003:0E697F20       aWaitEncoderIdl
 0003:0E697F54       aErrWrongVideoB
 0003:0E697F74       aDspBootDoneUco
 0003:0E697FCC       aAmbadspSuspend
 0003:0E698000       aAmbadspResumeO
 0003:0E698030       aErrPleaseCallA
 0003:0E698064       aDspChangedToId
 0003:0E698080       aAmbadspWaiteve
 0003:0E6980AC       aDefaultBinaryD
 0003:0E6980D0       aDefaultBinaryD_0
 0003:0E6980F4       aCmdDataGenDadd
 0003:0E698114       aCmdDataGenSize
 0003:0E698134       aMsgQueueGenDad
 0003:0E698154       aMsgQueueGenSiz
 0003:0E698174       aCmdDataVcapDad
 0003:0E698194       aCmdDataVcapSiz
 0003:0E6981B4       aMsgQueueVcapDa
 0003:0E6981D4       aMsgQueueVcapSi
 0003:0E6981F4       aCmdDataAsyncDa
 0003:0E698214       aCmdDataAsyncSi
 0003:0E698234       aMsgQueueAsyncD
 0003:0E698254       aMsgQueueAsyncS
 0003:0E698274       aCmdData4thDadd
 0003:0E698294       aCmdData4thSize
 0003:0E6982B4       aMsgQueueStitch
 0003:0E6982D4       aMsgQueueStitch_0
 0003:0E6982F4       aDefaultConfigD
 0003:0E698314       aDefaultConfigS
 0003:0E698334       aDspBufferDaddr
 0003:0E698354       aDspBufferSize0
 0003:0E698374       aUcodeDebugData
 0003:0E698394       aUcodeDebugData_0
 0003:0E6983B4       aOct16201514063
 0003:0E6983D4       aFioprfThruput
 0003:0E6983E4       aFioprfRandvrfy
 0003:0E6983F4       aSdShmoo
 0003:0E698400       a1stEdgeIsRisin
 0003:0E698428       a1stEdgeIsRisin_0
 0003:0E698450       a1stEdgeIsFalli
 0003:0E69847C       a1stEdgeIsFalli_0
 0003:0E6984A4       aDump_5
 0003:0E6984AC       aUsage
 0003:0E6984B4       aTSShowAllPinSh
 0003:0E6984E8       aTSPinInSetInpu
 0003:0E69850C       aTSPinOut01Outp
 0003:0E698548       aTSPinAltFuncAl
 0003:0E69857C       aTSPinPullUpDow
 0003:0E6985BC       aTSPinDrive3ma6
 0003:0E6985F8       aDSSSS
 0003:0E698614       aHigh
 0003:0E69861C       aLow
 0003:0E698624       aPullDown
 0003:0E698630       aPullUp
 0003:0E69863C       aNoPull
 0003:0E698648       a12ma
 0003:0E698650       a18ma
 0003:0E698658       aGpioFuncLevelR
 0003:0E6986CC       aShow_8
 0003:0E6986D4       aPull
 0003:0E6986DC       aDown_0
 0003:0E6986E4       aNone_0
 0003:0E6986EC       aDrive
 0003:0E6986F4       aUsageTSDfsMsbL
 0003:0E698720       aDoNotSupportDa
 0003:0E698744       aUnknownBitOrde
 0003:0E698758       aBusspeedU
 0003:0E698764       aProtocolS
 0003:0E698770       aResultU
 0003:0E69877C       aUTx0x04xRx0x04
 0003:0E698798       aUsageTSChanAdd
 0003:0E6987F4       aErrorInvalidI2
 0003:0E698818       aAddr
 0003:0E698820       aErrorUnknownSl
 0003:0E698840       aErrorUnknownDa
 0003:0E69885C       aErrorTxBufferO
 0003:0E698880       aU0x02x
 0003:0E69888C       aDisable_4
 0003:0E698894       aRzq4
 0003:0E69889C       aRzq2
 0003:0E6988A4       aRzq6
 0003:0E6988AC       aRzq12
 0003:0E6988B4       aRzq8
 0003:0E6988BC       aRising
 0003:0E6988C4       aFalling
 0003:0E6988CC       aUsageS
 0003:0E6988D8       aDramfreqD
 0003:0E6988E8       aDramTypeDdr2
 0003:0E6988FC       aDramTypeDdr3
 0003:0E698910       aDramTypeLpddr
 0003:0E698924       aDramTypeLpddr2
 0003:0E698938       aDramSize256mb
 0003:0E69894C       aDramSize512mb
 0003:0E698960       aDramSize1gb
 0003:0E698974       aDramSize2gb
 0003:0E698988       aDramSize4gb
 0003:0E69899C       aDramSize8gb
 0003:0E6989B0       aDll00x8x
 0003:0E6989CC       aDll10x8x
 0003:0E6989E8       aDll20x8x
 0003:0E698A04       aDll30x8x
 0003:0E698A20       aDllCtrlSel00x8
 0003:0E698A3C       aDllCtrlSel10x8
 0003:0E698A58       aDllCtrlSel20x8
 0003:0E698A74       aDllCtrlSel30x8
 0003:0E698A90       aDramPadTerm0x8
 0003:0E698AAC       aDdsD
 0003:0E698AB8       aTermS
 0003:0E698AC4       aTermValueD
 0003:0E698AD8       aDramMode10x8x
 0003:0E698AF4       aDdsS
 0003:0E698B00       a100_0
 0003:0E698B08       aOdtS
 0003:0E698B14       aDramDqsSync0x8
 0003:0E698B30       aS_24
 0003:0E698B38       aSwDqs
 0003:0E698B40       aAutoDqs
 0003:0E698B4C       aByte0S
 0003:0E698B58       aByte1S
 0003:0E698B64       aByte2S
 0003:0E698B70       aByte3S
 0003:0E698B7C       aPllDdrctrl0xX0
 0003:0E698BA4       aPllDdrctrl20xX
 0003:0E698BCC       aPllDdrctrl30xX
 0003:0E698BF4       aDllSetting00xX
 0003:0E698C1C       aDllSetting10xX
 0003:0E698C44       aDllSetting20xX
 0003:0E698C6C       aDllSetting30xX
 0003:0E698C94       aDllCtrlsel00xX
 0003:0E698CBC       aDllCtrlsel10xX
 0003:0E698CE4       aDllCtrlsel20xX
 0003:0E698D0C       aDllCtrlsel30xX
 0003:0E698D34       aCgDdrinit0xX0x
 0003:0E698D5C       aDllCtrlselmisc
 0003:0E698D84       aDramRsvdspace0
 0003:0E698DAC       aDramConfig0xX0
 0003:0E698DD4       aDramTiming10xX
 0003:0E698DFC       aDramTiming20xX
 0003:0E698E24       aDramTiming30xX
 0003:0E698E4C       aDramBytemap0xX
 0003:0E698E74       aDramPadterm0xX
 0003:0E698E9C       aLpddr2Modereg0
 0003:0E698EC4       aDramControl0xX
 0003:0E698EEC       aDramInitCtrl0x
 0003:0E698F14       aDramDqssync0xX
 0003:0E698F3C       aDramZqcalib0xX
 0003:0E698F64       aValidOptionsFo
 0003:0E698F90       aS_12
 0003:0E698F98       aTSTimerCounter
 0003:0E698FCC       aTimerDTimedOut
 0003:0E698FE0       aCannotSetTimer
 0003:0E699000       aErrorDataMisma
 0003:0E699018       aErrorAtDstdata
 0003:0E69905C       aGdmaFunctionDo
 0003:0E699090       aMemoryAllocate
 0003:0E6990A4       aMemoryFreeNg
 0003:0E6990B4       aSourceDataAddr
 0003:0E6990D0       aDestinationDat
 0003:0E699108       aSrcdataAddr0xX
 0003:0E69911C       aDstdataAddr0xX
 0003:0E699130       aCheckeddataAdd
 0003:0E6991C4       aTestLinearCopy
 0003:0E6991D8       aTestBlockCopy
 0003:0E6991EC       aTestColorKeyin
 0003:0E699200       aTestBlockCompo
 0003:0E699230       aTestBlockCompo_0
 0003:0E699264       aTSCaseNum
 0003:0E699278       aTSUnitestTestA
 0003:0E699294       aExTGdma1Size
 0003:0E6992B0       aTGdma2345Width
 0003:0E6992E4       aTGdmaUnitest
 0003:0E6992FC       aCaseNum
 0003:0E699308       a1TestGdmaLinea
 0003:0E699328       a2TestGdmaBlock
 0003:0E699348       a3TestGdmaColor
 0003:0E699364       a4TestGdmaBlock
 0003:0E699398       a5TestGdmaBlock
 0003:0E6993D0       aUnitest
 0003:0E6993D8       aDbgmsg
 0003:0E6993E0       aHtotal
 0003:0E699418       a04dClkLine
 0003:0E699450       aHblank
 0003:0E699498       a04d_0
 0003:0E6994E0       aHactive
 0003:0E699524       aDClk
 0003:0E699550       a04d_1
 0003:0E699568       aHsync
 0003:0E69964C       aHfHb
 0003:0E699664       a04dClk04dClk
 0003:0E699708       aHsync_0
 0003:0E69974C       aVDataEnableFie
 0003:0E699764       aVDataEnableFra
 0003:0E69977C       aVblankVactive
 0003:0E6997C8       a04dHLines04dLi
 0003:0E6999A0       aVfVsyncVb
 0003:0E6999F0       a04d04d04d
 0003:0E699B10       aV_0
 0003:0E699BE0       aVDataEnableFie_0
 0003:0E699BF8       a04dHLines04dLi_0
 0003:0E699D84       aVfVsyncVb_0
 0003:0E699DD4       a04d0504d04d05
 0003:0E699EF4       aV_1
 0003:0E699F48       aVfVsyncVb_1
 0003:0E699FE8       aUsage_0
 0003:0E69A040       aPhySinkcurrent
 0003:0E69A080       a00Ma0NoPreEmph
 0003:0E69A0AC       a10675Ma143PreE
 0003:0E69A0DC       a2135Ma2895PreE
 0003:0E69A10C       a32025Ma315PreE
 0003:0E69A13C       a427Ma4197PreEm
 0003:0E69A16C       a53375Ma5258Pre
 0003:0E69A19C       a6405Ma6327PreE
 0003:0E69A1CC       a74725Ma7404Pre
 0003:0E69A1FC       aCscTypeNumberU
 0003:0E69A240       a0Bt601
 0003:0E69A250       a1Bt709
 0003:0E69A260       a2IqTuning
 0003:0E69A274       aModeColorspace
 0003:0E69A2C4       a0Yuv444
 0003:0E69A2D8       a1Rgb444
 0003:0E69A2EC       a2Yuv422
 0003:0E69A300       aMode
 0003:0E69A308       aTiming
 0003:0E69A310       aGpio
 0003:0E69A318       aTimer
 0003:0E69A320       aGdma
 0003:0E69A328       aHdmi
 0003:0E69A350       aAmbanandMarkbl
 0003:0E69A364       aKAssertAtSD_13
 0003:0E69A378       aUnknownSpareSi
 0003:0E69A3AC       aProgramFailedB
 0003:0E69A3DC       aUpdateBbtFaile
 0003:0E69A3F0       aNandpseudocbre
 0003:0E69A404       aSWaitTimeoutD
 0003:0E69A41C       aSDmaWaitTimeou
 0003:0E69A438       aSEccError
 0003:0E69A448       aAreaDBlockDPag
 0003:0E69A480       aSDmaError
 0003:0E69A490       aNandpseudocbwr
 0003:0E69A4A4       aSWaitTimeoutRe
 0003:0E69A4CC       aNandpseudocb
 0003:0E69A4DC       aExceedDBlocksN
 0003:0E69A50C       aNeedDMoreBlock
 0003:0E69A540       aNeedDMoreBlock_0
 0003:0E69A574       aNeedDMoreBlock_1
 0003:0E69A5A8       aNeedDMoreBlock_2
 0003:0E69A5DC       aWarningThisPar
 0003:0E69A614       aErrorSExceedsN
 0003:0E69A638       aAmbanandLoadpa
 0003:0E69A650       aSLdGetptbFaile
 0003:0E69A674       aSLdGetmetaFail
 0003:0E69A698       aSLdStartblk0Nu
 0003:0E69A6F0       aSLdPartidLdIma
 0003:0E69A744       aInitialBadBloc
 0003:0E69A764       aLateDevelopedB
 0003:0E69A78C       aOtherBadBlockB
 0003:0E69A7A8       aTryNextBlock
 0003:0E69A7BC       aEraseFailedBlo
 0003:0E69A7E8       aMarkBadBlockFa
 0003:0E69A810       aProgramFailedB_0
 0003:0E69A834       aReadFailedBloc
 0003:0E69A858       aCheckFailedBlo
 0003:0E69A87C       aFailedBlockD
 0003:0E69A890       aCanTGetPtbEras
 0003:0E69A8A8       aUnableToUpdate
 0003:0E69A8C0       aAmbanandCopyba
 0003:0E69A8D4       aSFailedBlockDD
 0003:0E69A8F0       aAmbanandErase
 0003:0E69A900       aSFailedBlockD
 0003:0E69A918       aAmbanandRead
 0003:0E69A928       aAmbanandReadse
 0003:0E69A93C       aAmbanandProgra
 0003:0E69A950       aAmbanandReset
 0003:0E69A960       aAmbanandReadid
 0003:0E69A970       aAmbanandIsinit
 0003:0E69A980       aAmbanandInit
 0003:0E69A990       aAmbartslNandin
 0003:0E69A9AC       aAmbanandSetdev
 0003:0E69A9CC       aNandS0x08x
 0003:0E69A9E0       aMetaIsEmpty
 0003:0E69A9F0       aBootstrap
 0003:0E69A9FC       aPartitionTable
 0003:0E69AA0C       aBootloader
 0003:0E69AA18       aSdFirmwareUpda
 0003:0E69AA30       aSystemSoftware
 0003:0E69AA40       aDspUcode
 0003:0E69AA4C       aSystemRomData
 0003:0E69AA5C       aLinuxKernel
 0003:0E69AA6C       aLinuxRootFs
 0003:0E69AA7C       aLinuxHibernati
 0003:0E69AA94       aStorage1
 0003:0E69AAA0       aStorage2
 0003:0E69AAAC       aIndexForVideoR
 0003:0E69AAC8       aUserSettings
 0003:0E69AAD8       aCalibrationDat
 0003:0E69AAF0       aGetPtbFailed
 0003:0E69AB00       aAmbanandSetptb
 0003:0E69AB10       aSGetMetaFailed
 0003:0E69AB28       aSetPtbFailed
 0003:0E69AB38       aGetMetaFailed
 0003:0E69AB4C       aAmbanandSetmet
 0003:0E69AB60       aSGetPtbFailed
 0003:0E69AB74       aSetMetaFailed
 0003:0E69AB84       aSLdRetvalLdMag
 0003:0E69ABB8       aNftlStg1
 0003:0E69ABC4       aNftlStg2
 0003:0E69ABD0       aNftlIdx
 0003:0E69ABDC       aNftlPrf
 0003:0E69ABE8       aNftlCal
 0003:0E69ABF4       aNftlgetpartobj
 0003:0E69AC04       aKAssertAtSD_7
 0003:0E69AC18       aNftlreadtinfo
 0003:0E69AC28       aNftlwritetinfo
 0003:0E69AC38       aNftlreadimark
 0003:0E69AC48       aNftlwriteimark
 0003:0E69AC58       aNftlvalidnextt
 0003:0E69AC6C       aNftlcreatesecs
 0003:0E69AC84       aNftlcreatesecs_0
 0003:0E69AC98       aNftlupdatebbin
 0003:0E69ACAC       aSDrangerTooMan
 0003:0E69ACD0       aNftlupdatelogi
 0003:0E69ACE8       aNftlupdatephyt
 0003:0E69ACFC       aNftlgetusedsec
 0003:0E69AD10       aNftlwriteuseds
 0003:0E69AD24       aNftlcheckuseds
 0003:0E69AD38       aNftlgetlba
 0003:0E69AD44       aNftlgetpba
 0003:0E69AD50       aNftlgetlbafrom
 0003:0E69AD68       aNftlgetfirstus
 0003:0E69AD7C       aNftlcreatelbat
 0003:0E69AD90       aSFailedForLogi
 0003:0E69ADC0       aSSEraseCurrent
 0003:0E69ADE8       aSSLbaAbnormalE
 0003:0E69AE0C       aSSEraseCurrent_0
 0003:0E69AE34       aNftlcreatepbat
 0003:0E69AE48       aNftlsaveinfoto
 0003:0E69AE60       aNftlinitichunk
 0003:0E69AE70       aNftlgetreqarg
 0003:0E69AE80       aNftlsearcheras
 0003:0E69AE98       aSSFail
 0003:0E69AEA8       aSTryToDoNftlRe
 0003:0E69AED0       aSFreeTablesFai
 0003:0E69AEE8       aSInitTablesFai
 0003:0E69AF00       aSRetryS
 0003:0E69AF10       aNftlsearcheras_0
 0003:0E69AF28       aSRetryNftlSear
 0003:0E69AF4C       aNftlbadblockha
 0003:0E69AF60       aSSNandOpDriver
 0003:0E69AF7C       aSSNandOpEraseE
 0003:0E69AF98       aSSNandOpProgEr
 0003:0E69AFB4       aSSNandOpReadEr
 0003:0E69AFD0       aSSNandOpWpEr
 0003:0E69AFE8       aSSNandOpNotRea
 0003:0E69B008       aSSNandOpMarkBb
 0003:0E69B028       aSSFatalError
 0003:0E69B040       aNftlwritesecs
 0003:0E69B050       aNftlwritesecsc
 0003:0E69B060       aNftlwritepage
 0003:0E69B070       aNftlwritepsecs
 0003:0E69B088       aNftlwritepsecs_0
 0003:0E69B098       aNftlwriteblock
 0003:0E69B0B4       aNftlwriteblock_0
 0003:0E69B0C8       aNftlprogerhand
 0003:0E69B0DC       aNftlinit
 0003:0E69B0E8       aSExceedTheMaxi
 0003:0E69B12C       aNftlerasepart
 0003:0E69B13C       aSPartitionIsRe
 0003:0E69B158       aSEraseDFailed
 0003:0E69B170       aEraseBlockDD
 0003:0E69B188       aNftlread
 0003:0E69B194       aSSNandOpReadEr_0
 0003:0E69B1C4       aNftlwrite
 0003:0E69B1D0       aSNftlValidateN
 0003:0E69B1F8       aAmbanftlErasel
 0003:0E69B214       aSSEraseFailed
 0003:0E69B22C       aAmbanftlInitlo
 0003:0E69B240       aAmbanftlIswrpr
 0003:0E69B258       aAmbanftlIsinit
 0003:0E69B268       aAmbanftlInit
 0003:0E69B278       aAmbanftlDeinit
 0003:0E69B288       aAmbanftlErasep
 0003:0E69B29C       aSSFreeTablesFa
 0003:0E69B2B8       aSSInitTablesFa
 0003:0E69B2D4       aAmbanftlSynctc
 0003:0E69B2E8       aAmbanftlRead
 0003:0E69B2F8       aAmbanftlWrite
 0003:0E69B308       aAmbanftlGettot
 0003:0E69B320       aAmbanftlGetsta
 0003:0E69B334       aAmbanftlGetbbm
 0003:0E69B34C       aNandbbtcheckbl
 0003:0E69B360       aKAssertAtSD_12
 0003:0E69B374       aNandbbtsearch
 0003:0E69B384       aNandbbtread
 0003:0E69B390       aNandbbtwrite
 0003:0E69B3A0       aNandbbtcreate
 0003:0E69B3B0       aDspopmodeDVcap
 0003:0E69B3DC       aWrongRawCaptur
 0003:0E69B3F8       aWrongVcapMode
 0003:0E69B408       aStillDecoderIn
 0003:0E69B41C       aWaitStilldecId
 0003:0E69B430       aStilldecIdle
 0003:0E69B440       aVout0SrcError
 0003:0E69B450       aVout1SrcError
 0003:0E69B460       aDecodeTimout
 0003:0E69B470       aPaintTimeout1
 0003:0E69B480       aPaintTimeout2
 0003:0E69B490       aY2yTimeout2
 0003:0E69B4A0       aY2yTimout1
 0003:0E69B4AC       aBlendTimout
 0003:0E69B4BC       aY2rTimout
 0003:0E69B4C8       aEncodeTimout
 0003:0E69B4D8       aAmbadspMsgdisp
 0003:0E69B4F0       aWaitRawCapThre
 0003:0E69B518       aAmbadspWaitjpe
 0003:0E69B540       aAmbadspWaityuv
 0003:0E69B568       aAmbadspWaityuv_0
 0003:0E69B590       aAmbadspWaitdsp
 0003:0E69B5B8       aAmbadspWaitraw
 0003:0E69B5DC       aAmbadspWaitpiv
 0003:0E69B600       aAmbadspWaitpre
 0003:0E69B62C       aAmbadspWaitpre_0
 0003:0E69B658       aMsgparserdspst
 0003:0E69B66C       aSDspmodeD
 0003:0E69B67C       aAmbaDspEventSc
 0003:0E69B6AC       aAmbaDspEventSc_0
 0003:0E69B6E4       aErrAmbaDspEven_1
 0003:0E69B714       aRawbufwpD
 0003:0E69B720       aStillRawBuffer
 0003:0E69B738       aAmbaDspEventSc_1
 0003:0E69B768       aErrAmbaDspEven_2
 0003:0E69B79C       aRawCapThreadSt
 0003:0E69B7B8       aChannelIdDStre
 0003:0E69B814       aRaw3aDataReady
 0003:0E69B83C       aRaw3aDataReady_0
 0003:0E69B864       a3aDataReadyEve
 0003:0E69B894       aErrAmbaDspEven
 0003:0E69B8C0       aErrAmbaDspEven_0
 0003:0E69B8EC       aErrMainAmbaDsp
 0003:0E69B91C       aErrNailAmbaDsp
 0003:0E69B954       aDC0PtsbasePrev
 0003:0E69B990       aDC1PtsbasePrev
 0003:0E69B9CC       aChannelIdDStre_0
 0003:0E69BA34       aDspH264cntD
 0003:0E69BA44       aChDFLlu
 0003:0E69BA54       aChDLLlu
 0003:0E69BA64       aDspJpegcntD
 0003:0E69BA74       aAmbajpegbitsde
 0003:0E69BA9C       aRgbAaa
 0003:0E69BAA4       aAetilenumcolDA
 0003:0E69BAE8       aAftilenumcolDA
 0003:0E69BB2C       aCfaAaa
 0003:0E69BB34       aAwbtilenumcolD
 0003:0E69BB7C       aSliceindexxDTo
 0003:0E69BB9C       aErrorCawarpVer
 0003:0E69BBC8       aErrorHorgridnu_0
 0003:0E69BC08       aErrorVergridnu_0
 0003:0E69BC4C       aErrorInvalidCa
 0003:0E69BC74       aErrorInvalidCa_0
 0003:0E69BC9C       aErrorCalibPcaw
 0003:0E69BCBC       aErrorFactorsOf_0
 0003:0E69BD0C       aErrorCalibVinG_0
 0003:0E69BD64       aCurrentVinGeoX_0
 0003:0E69BDB0       aErrorDummyWind_0
 0003:0E69BDE4       aVinR2rWindowWD_0
 0003:0E69BE08       aErrorInvalidCf_0
 0003:0E69BE28       aErrorPcawarpco
 0003:0E69BE54       aErrorPcawarpco_0
 0003:0E69BE90       aErrorPcawarpco_1
 0003:0E69BECC       aErrorInVideoMo_1
 0003:0E69BF34       aErrorInVideoMo_2
 0003:0E69BF9C       aErrorInVideoMo_3
 0003:0E69C004       aErrorInVideoMo_4
 0003:0E69C06C       aErrorInStillMo_1
 0003:0E69C0D4       aErrorInStillMo_2
 0003:0E69C13C       aErrorInStillMo_3
 0003:0E69C1A4       aErrorInStillMo_4
 0003:0E69C20C       aErrorPmodePipe_0
 0003:0E69C234       aAmbadspImgcalc_2
 0003:0E69C258       aPipeDAlgoDFunc_27
 0003:0E69C294       aAmbaDspImgCawa
 0003:0E69C2B8       aCawarpenbD
 0003:0E69C2CC       aCalibcawarpinf
 0003:0E69C2E4       aVersion0xX_0
 0003:0E69C304       aHorgridnumD_0
 0003:0E69C320       aVergridnumD_0
 0003:0E69C33C       aTilewidthexpD_0
 0003:0E69C358       aTileheightexpD_0
 0003:0E69C374       aVinsensorgeo_1
 0003:0E69C38C       aStartxD_1
 0003:0E69C3A8       aStartyD_1
 0003:0E69C3C4       aWidthD_1
 0003:0E69C3E0       aHeightD_1
 0003:0E69C3FC       aHsubsample_1
 0003:0E69C418       aFactornumD_1
 0003:0E69C438       aFactordenD_1
 0003:0E69C458       aVsubsample_1
 0003:0E69C474       aRedscalefactor
 0003:0E69C494       aBluescalefacto
 0003:0E69C4B4       aPcawarp0xX
 0003:0E69C4D4       aCalibcawarpinf_0
 0003:0E69C530       aVinsensorgeo_2
 0003:0E69C544       aStartxD_2
 0003:0E69C55C       aStartyD_2
 0003:0E69C574       aWidthD_2
 0003:0E69C58C       aHeightD_2
 0003:0E69C5A4       aHsubsample_2
 0003:0E69C5BC       aFactornumD_2
 0003:0E69C5D8       aFactordenD_2
 0003:0E69C5F4       aVsubsample_2
 0003:0E69C60C       aR2routwindimWi_0
 0003:0E69C628       aR2routwindimHe_0
 0003:0E69C644       aDmywingeoStart_1
 0003:0E69C660       aDmywingeoStart_2
 0003:0E69C67C       aDmywingeoWidth_0
 0003:0E69C694       aDmywingeoHeigh_0
 0003:0E69C6B0       aCfawindimWidth_0
 0003:0E69C6C8       aCfawindimHeigh_0
 0003:0E69C6E4       aAmbadspImgsetc_26
 0003:0E69C720       aWarningCannotG_35
 0003:0E69C744       aAmbadspImgcalc_3
 0003:0E69C770       aWarningAmbadsp_254
 0003:0E69C7B8       aWarnUnsupportM_0
 0003:0E69C7D0       aAmbadspImgcalc_4
 0003:0E69C800       aAmbadspImgsetc_27
 0003:0E69C82C       aWarningAmbadsp_255
 0003:0E69C874       aAmbadspImgsetc_28
 0003:0E69C8A0       aWarningPcacalc
 0003:0E69C8C0       aAmbadspImggetc_17
 0003:0E69C8EC       aWarningAmbadsp_256
 0003:0E69C934       aAmbadspImggetc_18
 0003:0E69C960       aAmbadspImgsetc_29
 0003:0E69C994       aWarningAmbadsp_257
 0003:0E69C9E0       aAmbadspImgsetc_30
 0003:0E69CA14       aSetDebugForCaw
 0003:0E69CA38       aSetDebugForCaw_0
 0003:0E69CA60       aWarningEnbDSho_6
 0003:0E69CAA0       aWarningExtentf_0
 0003:0E69CAEC       aWarningExtentr_0
 0003:0E69CB3C       aWarningNoisele_10
 0003:0E69CB88       aWarningOrigina_12
 0003:0E69CBDC       aWarningStrengt_2
 0003:0E69CC2C       aWarningSelecti_3
 0003:0E69CC80       aWarningSelecti_4
 0003:0E69CCDC       aWarningSelecti_5
 0003:0E69CD3C       aWarningSelecti_6
 0003:0E69CD9C       aAmbadspImgsetc_23
 0003:0E69CDBC       aPipeDAlgoDFunc_25
 0003:0E69CDF8       aEnbDNoiselevel_0
 0003:0E69CE4C       aExtentfineDDDS_0
 0003:0E69CEBC       aWarningCannotG_31
 0003:0E69CEE0       aAmbadspImgsetc_24
 0003:0E69CF08       aWarningAmbadsp_230
 0003:0E69CF4C       aAmbadspImgsetc_25
 0003:0E69CF74       aWarningPcfanoi
 0003:0E69CF94       aAmbadspImggetc_15
 0003:0E69CFBC       aWarningAmbadsp_231
 0003:0E69D000       aAmbadspImggetc_16
 0003:0E69D028       aWarningEnableD_4
 0003:0E69D068       aWarningOrigina
 0003:0E69D0BC       aWarningOrigina_0
 0003:0E69D110       aWarningRadiusD_0
 0003:0E69D158       aAmbadspImgsetc_19
 0003:0E69D174       aPipeDAlgoDFunc_16
 0003:0E69D1B0       aEnableDNoisele
 0003:0E69D1E0       aOriginalblends
 0003:0E69D238       aWarningCannotG_22
 0003:0E69D25C       aAmbadspImgsetc_20
 0003:0E69D284       aWarningAmbadsp_95
 0003:0E69D2C4       aAmbadspImgsetc_21
 0003:0E69D2EC       aWarningPchroma_1
 0003:0E69D310       aAmbadspImggetc_11
 0003:0E69D338       aWarningAmbadsp_96
 0003:0E69D378       aAmbadspImggetc_12
 0003:0E69D3A0       aWarningEnableD_0
 0003:0E69D3E4       aWarningCbadapt
 0003:0E69D438       aWarningCradapt
 0003:0E69D48C       aWarningCbnonad
 0003:0E69D4E0       aWarningCrnonad
 0003:0E69D534       aWarningCbadapt_0
 0003:0E69D584       aWarningCradapt_0
 0003:0E69D5D4       aAmbadspImgsetc_11
 0003:0E69D5F8       aPipeDAlgoDFunc_11
 0003:0E69D634       aEnableD
 0003:0E69D644       aCbadaptivestre
 0003:0E69D678       aCbnonadaptives
 0003:0E69D6B0       aCbadaptiveamou
 0003:0E69D6F8       aWarningCannotG_17
 0003:0E69D71C       aAmbadspImgsetc_12
 0003:0E69D748       aWarningAmbadsp_30
 0003:0E69D790       aAmbadspImgsetc_13
 0003:0E69D7BC       aWarningPchroma_0
 0003:0E69D7E0       aAmbadspImggetc_7
 0003:0E69D80C       aWarningAmbadsp_31
 0003:0E69D854       aAmbadspImggetc_8
 0003:0E69D880       aWarningEnbDSho_1
 0003:0E69D8BC       aWarningGaincur_0
 0003:0E69D904       aAmbadspImgsetc_8
 0003:0E69D920       aPipeDAlgoDFunc_10
 0003:0E69D95C       aEnbDGaincurve
 0003:0E69D978       a6d_0
 0003:0E69D990       aWarningCannotG_16
 0003:0E69D9B4       aAmbadspImgsetc_9
 0003:0E69D9D8       aWarningAmbadsp_28
 0003:0E69DA18       aAmbadspImgsetc_10
 0003:0E69DA40       aWarningPchroma
 0003:0E69DA60       aAmbadspImggetc_5
 0003:0E69DA84       aWarningAmbadsp_29
 0003:0E69DAC4       aAmbadspImggetc_6
 0003:0E69DAEC       aAmbadspImgsetc_5
 0003:0E69DB0C       aPipeDAlgoDFunc_9
 0003:0E69DB48       aMatrixthreedta
 0003:0E69DB78       aWarningCannotG_15
 0003:0E69DB9C       aAmbadspImgsetc_6
 0003:0E69DBC4       aWarningAmbadsp_26
 0003:0E69DC08       aAmbadspImgsetc_7
 0003:0E69DC34       aWarningPcolorc_0
 0003:0E69DC54       aAmbadspImggetc_3
 0003:0E69DC7C       aWarningAmbadsp_27
 0003:0E69DCC0       aAmbadspImggetc_4
 0003:0E69DCEC       aAmbadspImgsetc_2
 0003:0E69DD10       aPipeDAlgoDFunc_8
 0003:0E69DD4C       aRegsettingaddr
 0003:0E69DD6C       aWarningCannotG_14
 0003:0E69DD90       aAmbadspImgsetc_3
 0003:0E69DDBC       aWarningAmbadsp_24
 0003:0E69DE04       aAmbadspImgsetc_4
 0003:0E69DE30       aWarningPcolorc
 0003:0E69DE54       aAmbadspImggetc_1
 0003:0E69DE80       aWarningAmbadsp_25
 0003:0E69DEC8       aAmbadspImggetc_2
 0003:0E69DEF4       aWarningCdnrmod
 0003:0E69DF44       aWarningCdnrstr
 0003:0E69DF9C       aAmbadspImgsetc_14
 0003:0E69DFC8       aPipeDAlgoDFunc_12
 0003:0E69E004       aCdnrmodeDCdnrs
 0003:0E69E028       aWarningCannotG_18
 0003:0E69E04C       aAmbadspImgsetc_15
 0003:0E69E078       aWarningAmbadsp_32
 0003:0E69E0C0       aAmbadspImgsetc_16
 0003:0E69E130       aAmbadspImgsetc_17
 0003:0E69E168       aWarningAmbadsp_33
 0003:0E69E1B8       aAmbadspImgsetc_18
 0003:0E69E1F0       aWarningPcdnrIs
 0003:0E69E20C       aAmbadspImggetc_9
 0003:0E69E244       aWarningAmbadsp_34
 0003:0E69E294       aAmbadspImggetc_10
 0003:0E69E2CC       aWarningEnableD
 0003:0E69E30C       aWarningRadiusD
 0003:0E69E34C       aWarningLumawei
 0003:0E69E394       aWarningLumawei_0
 0003:0E69E3E0       aWarningLumawei_1
 0003:0E69E428       aWarningLumawei_2
 0003:0E69E474       aWarningGaincur
 0003:0E69E4C4       aAmbadspImgsetl
 0003:0E69E4E4       aPipeDAlgoDFunc_6
 0003:0E69E520       aEnbDRadiusDLum
 0003:0E69E584       aGaincurvetable
 0003:0E69E59C       a6d
 0003:0E69E5BC       aWarningCannotG_12
 0003:0E69E5E0       aAmbadspImgsetl_0
 0003:0E69E608       aWarningAmbadsp_20
 0003:0E69E648       aAmbadspImgsetl_1
 0003:0E69E670       aWarningPlocale
 0003:0E69E694       aAmbadspImggetl
 0003:0E69E6BC       aWarningAmbadsp_21
 0003:0E69E6FC       aAmbadspImggetl_0
 0003:0E69E724       aWarningMatrixv
 0003:0E69E778       aWarningYoffset
 0003:0E69E7C4       aWarningUoffset
 0003:0E69E80C       aWarningVoffset
 0003:0E69E854       aAmbadspImgsetr
 0003:0E69E874       aPipeDAlgoDFunc_2
 0003:0E69E8B0       aMatrixvaluesDD
 0003:0E69E924       aWarningCannotG_8
 0003:0E69E948       aAmbadspImgsetr_0
 0003:0E69E970       aWarningAmbadsp_12
 0003:0E69E9B4       aAmbadspImgsetr_1
 0003:0E69E9DC       aWarningPrgbtoy
 0003:0E69E9FC       aAmbadspImggetr
 0003:0E69EA24       aWarningAmbadsp_13
 0003:0E69EA68       aAmbadspImggetr_0
 0003:0E69EA90       aWarningYcombin
 0003:0E69EAD8       aWarningChaninf
 0003:0E69EB28       aWarningChaninf_0
 0003:0E69EB78       aWarningChaninf_1
 0003:0E69EBC8       aWarningChaninf_2
 0003:0E69EC18       aWarningChaninf_3
 0003:0E69EC64       aWarningChaninf_4
 0003:0E69ECB8       aWarningChaninf_5
 0003:0E69ED0C       aWarningChaninf_6
 0003:0E69ED5C       aDspImgcheckset
 0003:0E69ED7C       aWarningYTempor
 0003:0E69EDE4       aWarningCbTempo
 0003:0E69EE4C       aWarningCrTempo
 0003:0E69EEB4       aSetvideomctfle
 0003:0E69EEC8       aYTemporalEithe
 0003:0E69EEF4       aWarningPmctfle
 0003:0E69EF68       aWarningPmctfle_0
 0003:0E69EFDC       aWarningPmctfle_1
 0003:0E69F050       aCbTemporalEith
 0003:0E69F07C       aWarningPmctfle_2
 0003:0E69F0F0       aWarningPmctfle_3
 0003:0E69F164       aWarningPmctfle_4
 0003:0E69F1D8       aCrTemporalEith
 0003:0E69F204       aWarningPmctfle_5
 0003:0E69F278       aWarningPmctfle_6
 0003:0E69F2EC       aWarningPmctfle_7
 0003:0E69F360       aDspImgcheckset_0
 0003:0E69F380       aWarningEnbDSho_2
 0003:0E69F3B0       aDspImgcheckset_1
 0003:0E69F3D4       aWarningZmvenbD
 0003:0E69F408       aDspImgcheckset_2
 0003:0E69F434       aDspImgcheckset_3
 0003:0E69F460       aAmbadspImgsetv
 0003:0E69F47C       aPipeDAlgoDFunc_18
 0003:0E69F4B8       aYcombinedstren
 0003:0E69F4D4       aChaninfoD
 0003:0E69F4E8       aTemporalalpha0
 0003:0E69F538       aTemporalt0DTem
 0003:0E69F578       aTemporalmaxcha
 0003:0E69F594       aRadiusD
 0003:0E69F5A4       aStrengththreed
 0003:0E69F5BC       aStrengthspatia
 0003:0E69F5D4       aLeveladjustD
 0003:0E69F5E8       aYTemporalMaxCh
 0003:0E69F618       aCbTemporalMaxC
 0003:0E69F648       aCrTemporalMaxC
 0003:0E69F678       aWarningCannotG_24
 0003:0E69F69C       aWarningDspImgg
 0003:0E69F6DC       aWarningAmbadsp_99
 0003:0E69F720       aWarningAmbadsp_100
 0003:0E69F780       aAmbadspImgsetv_0
 0003:0E69F7A4       aWarningAmbadsp_101
 0003:0E69F7E0       aAmbadspImgsetv_1
 0003:0E69F804       aWarningPmctfin
 0003:0E69F824       aAmbadspImggetv
 0003:0E69F848       aWarningAmbadsp_102
 0003:0E69F884       aAmbadspImggetv_0
 0003:0E69F8B8       aAmbadspImgsetv_2
 0003:0E69F8E0       aWarningAmbadsp_103
 0003:0E69F924       aAmbadspImgsetv_3
 0003:0E69F94C       aWarningPmctfle_8
 0003:0E69F96C       aAmbadspImggetv_1
 0003:0E69F994       aWarningAmbadsp_104
 0003:0E69F9D8       aAmbadspImggetv_2
 0003:0E69FA10       aAmbadspImgsetv_4
 0003:0E69FA3C       aWarningAmbadsp_105
 0003:0E69FA80       aAmbadspImgsetv_5
 0003:0E69FAB8       aAmbadspImgsetv_6
 0003:0E69FAE0       aWarningAmbadsp_106
 0003:0E69FB24       aAmbadspImgsetv_7
 0003:0E69FB50       aWarningPenbIsE
 0003:0E69FB74       aAmbadspImgsetv_8
 0003:0E69FBA8       aWarningAmbadsp_107
 0003:0E69FBF8       aAmbadspImgsetv_9
 0003:0E69FC2C       aAmbadspImgsetv_10
 0003:0E69FC60       aWarningAmbadsp_108
 0003:0E69FCB0       aAmbadspImgsetv_11
 0003:0E69FCE8       aAmbadspImggetv_3
 0003:0E69FD1C       aWarningAmbadsp_109
 0003:0E69FD6C       aAmbadspImggetv_4
 0003:0E69FDB0       aAmbadspImgsetv_12
 0003:0E69FDDC       aWarningAmbadsp_110
 0003:0E69FE24       aAmbadspImgsetv_13
 0003:0E69FE50       aWarningPzmvenb
 0003:0E69FE6C       aAmbadspImggetv_5
 0003:0E69FE98       aWarningAmbadsp_111
 0003:0E69FEE0       aAmbadspImggetv_6
 0003:0E69FF0C       aWarningGainr0x
 0003:0E69FF60       aWarningGaing0x
 0003:0E69FFB4       aWarningGainb0x
 0003:0E6A0008       aAmbadspImgsetw_3
 0003:0E6A0020       aPipeDAlgoDFunc_30
 0003:0E6A005C       aGainrDGaingDGa
 0003:0E6A0098       aWarningCannotG_38
 0003:0E6A00BC       aAmbadspImgsetw_4
 0003:0E6A00DC       aWarningAmbadsp_266
 0003:0E6A0118       aAmbadspImgsetw_5
 0003:0E6A0138       aWarningPwbgain
 0003:0E6A0154       aAmbadspImggetw_5
 0003:0E6A0174       aWarningAmbadsp_267
 0003:0E6A01B0       aAmbadspImambad
 0003:0E6A01E4       aSWarpEnableD
 0003:0E6A01F8       aSWarpHorzGridS
 0003:0E6A0220       aSWarpVertGridS
 0003:0E6A0248       aSWarpGridArray
 0003:0E6A0268       aSWarpGridArray_0
 0003:0E6A0288       aSWarpFieldAddr
 0003:0E6A02A4       aSCmdCode0xX_0
 0003:0E6A02B8       aSWarpControlD
 0003:0E6A02D0       aSWarpHorizonta
 0003:0E6A02FC       aSWarpVerticalT
 0003:0E6A0324       aSActualLeftTop
 0003:0E6A0340       aSActualLeftTop_0
 0003:0E6A035C       aSActualRightBo
 0003:0E6A0378       aSActualRightBo_0
 0003:0E6A0394       aSZoomXD
 0003:0E6A03A4       aSZoomYD
 0003:0E6A03B4       aSXCenterOffset
 0003:0E6A03CC       aSYCenterOffset
 0003:0E6A03E4       aSGridArrayWidt
 0003:0E6A0400       aSGridArrayHeig
 0003:0E6A041C       aSHorzGridSpaci
 0003:0E6A0440       aSVertGridSpaci
 0003:0E6A0464       aSVertWarpEnabl
 0003:0E6A0480       aSVertWarpGridA
 0003:0E6A04A4       aSVertWarpGridA_0
 0003:0E6A04C8       aSVertWarpHorzG
 0003:0E6A04F8       aSVertWarpVertG
 0003:0E6A0528       aSForceV4tapDis
 0003:0E6A0544       aSHorSkewPhaseI
 0003:0E6A0560       aSDummyWindowXL
 0003:0E6A057C       aSDummyWindowYT
 0003:0E6A0598       aSDummyWindowWi
 0003:0E6A05B4       aSDummyWindowHe
 0003:0E6A05D0       aSCfaOutputWidt
 0003:0E6A05EC       aSCfaOutputHeig
 0003:0E6A0608       aSExtraSec2Vert
 0003:0E6A0630       aSCmdCode0xX_1
 0003:0E6A0644       aSGlobalOffsetE
 0003:0E6A0660       aSGlobalOffsetE_0
 0003:0E6A067C       aSGlobalOffsetO
 0003:0E6A0698       aSGlobalOffsetO_0
 0003:0E6A06B4       aSBlackLevelOff
 0003:0E6A06D4       aSBlackLevelOff_0
 0003:0E6A06F8       aSBlackLevelOff_1
 0003:0E6A0718       aSGainDepedentO
 0003:0E6A073C       aSGainDepedentO_0
 0003:0E6A0760       aSGainDepedentO_1
 0003:0E6A0784       aSDefBlk1RedD
 0003:0E6A079C       aSDefBlk1GreenD
 0003:0E6A07B4       aSDefBlk1BlueD
 0003:0E6A07CC       aSBayerPatternD
 0003:0E6A07E4       aSRGainD
 0003:0E6A07F4       aSGEvenGainD
 0003:0E6A0808       aSGOddGainD
 0003:0E6A081C       aSBGainD
 0003:0E6A082C       aSGroupIndexD
 0003:0E6A0840       aSEnableD_1
 0003:0E6A0850       aSRadiusD_0
 0003:0E6A0860       aSLumaWeightRed
 0003:0E6A0878       aSLumaWeightGre
 0003:0E6A0894       aSLumaWeightBlu
 0003:0E6A08B0       aSLumaWeightSum
 0003:0E6A08D0       aSGainCurveTabl
 0003:0E6A08F0       aSLumaOffsetD
 0003:0E6A0904       aSMakeLegalD
 0003:0E6A0918       aSUWeight0D
 0003:0E6A092C       aSUWeight1D
 0003:0E6A0940       aSUWeight2D
 0003:0E6A0954       aSVWeight0D
 0003:0E6A0968       aSVWeight1D
 0003:0E6A097C       aSVWeight2D
 0003:0E6A0990       aSGainCurverAdd
 0003:0E6A09B0       aSAlphaRrD
 0003:0E6A09C4       aSAlphaRbD
 0003:0E6A09D8       aSAlphaBrD
 0003:0E6A09EC       aSAlphaBbD
 0003:0E6A0A00       aSSaturationLev
 0003:0E6A0A1C       aSThresholdD
 0003:0E6A0A30       aSShiftD
 0003:0E6A0A40       aSModeD_0
 0003:0E6A0A50       aSShiftCoarseRi_1
 0003:0E6A0A6C       aSShiftCoarseRi_2
 0003:0E6A0A88       aSShiftFineRing_1
 0003:0E6A0AA4       aSShiftFineRing_2
 0003:0E6A0AC0       aSShiftCenterRe_0
 0003:0E6A0ADC       aSShiftCenterGr_0
 0003:0E6A0AF8       aSShiftCenterBl_0
 0003:0E6A0B14       aSTargetCoarseR_0
 0003:0E6A0B30       aSTargetCoarseG_0
 0003:0E6A0B4C       aSTargetCoarseB_0
 0003:0E6A0B68       aSTargetFineRed_0
 0003:0E6A0B80       aSTargetFineGre_0
 0003:0E6A0B9C       aSTargetFineBlu_0
 0003:0E6A0BB8       aSCutoffRedD_0
 0003:0E6A0BCC       aSCutoffGreenD_0
 0003:0E6A0BE4       aSCutoffBlueD_0
 0003:0E6A0BF8       aSThreshCoarseR_0
 0003:0E6A0C14       aSThreshCoarseG_0
 0003:0E6A0C30       aSThreshCoarseB_0
 0003:0E6A0C4C       aSThreshFineRed_0
 0003:0E6A0C64       aSThreshFineGre_0
 0003:0E6A0C80       aSThreshFineBlu_0
 0003:0E6A0C9C       aSClampDirectio
 0003:0E6A0CC4       aSActivityThres
 0003:0E6A0CDC       aSActivityDiffe
 0003:0E6A0D00       aSGradClipThres
 0003:0E6A0D1C       aSGradNoiseThre
 0003:0E6A0D38       aSGradNoiseDiff
 0003:0E6A0D60       aSZipperNoiseDi
 0003:0E6A0D8C       aSZipperNoiseDi_0
 0003:0E6A0DB8       aSMaxConstHueFa
 0003:0E6A0DD8       aSFir10x8x
 0003:0E6A0DEC       aSFir20x8x
 0003:0E6A0E00       aSCoring0x8x
 0003:0E6A0E14       aSLevel3d0x8x
 0003:0E6A0E2C       aSBlendIso0Thre
 0003:0E6A0E4C       aSBlendIso1Thre
 0003:0E6A0E6C       aSMaxChangeUpD
 0003:0E6A0E84       aSMaxChangeDown
 0003:0E6A0E9C       aSWideEdgeDetec
 0003:0E6A0EB8       aSSpecialModeD
 0003:0E6A0ED0       aSCoringMultipl
 0003:0E6A0EF4       aSCoringMultipl_0
 0003:0E6A0F18       aSCoringMultipl_1
 0003:0E6A0F40       aSCoringMultipl_2
 0003:0E6A0F64       aSCoringMultipl_3
 0003:0E6A0F8C       aSCoringMultipl_4
 0003:0E6A0FB4       aSCoringMultipl_5
 0003:0E6A0FDC       aSCoringMultipl_6
 0003:0E6A1004       aSCoringMultipl_7
 0003:0E6A1030       aSCoringMultipl_8
 0003:0E6A105C       aSCoringIndexMu
 0003:0E6A107C       aSCoringIndexMu_0
 0003:0E6A109C       aSCoringIndexMu_1
 0003:0E6A10C0       aSCoringIndexMu_2
 0003:0E6A10E0       aSCoringIndexMu_3
 0003:0E6A1100       aSCoringIndexMu_4
 0003:0E6A1124       aSCoringIndexMu_5
 0003:0E6A1148       aSCoringIndexMu_6
 0003:0E6A116C       aSCoringIndexMu_7
 0003:0E6A1190       aSCoringIndexMu_8
 0003:0E6A11B4       aSEdgeThreshD
 0003:0E6A11C8       aSFir2ClipHighD
 0003:0E6A11E0       aSFir2ClipLowD
 0003:0E6A11F8       aSMaxChangeUp5x
 0003:0E6A1214       aSMaxChangeDown_0
 0003:0E6A1230       aSCoringMultipl_9
 0003:0E6A1254       aSCoringMultipl_10
 0003:0E6A1278       aSCoringMultipl_11
 0003:0E6A12A0       aSCoringMultipl_12
 0003:0E6A12C4       aSCoringMultipl_13
 0003:0E6A12EC       aSCoringMultipl_14
 0003:0E6A1314       aSCoringMultipl_15
 0003:0E6A133C       aSCoringMultipl_16
 0003:0E6A1364       aSCoringMultipl_17
 0003:0E6A1390       aSCoringMultipl_18
 0003:0E6A13BC       aSFir2OutScaleL
 0003:0E6A13D8       aSFir2OutScaleL_0
 0003:0E6A13F8       aSFir2OutScaleL_1
 0003:0E6A1418       aSFir2OutScaleH
 0003:0E6A1434       aSFir2OutScaleH_0
 0003:0E6A1454       aSFir2OutScaleH_1
 0003:0E6A1474       aSFir2OutScaleB
 0003:0E6A1494       aSFir2OutScaleL_2
 0003:0E6A14B8       aSFir2OutScaleH_2
 0003:0E6A14DC       aSFir2OutScaleA
 0003:0E6A1508       aErrorIncorrect_1
 0003:0E6A1534       aDspImghighisop
 0003:0E6A1558       aWarningDspImgh_0
 0003:0E6A1598       aWarningDspImgh
 0003:0E6A1628       aErrorDspImghig
 0003:0E6A1678       aErrorVideoHigh
 0003:0E6A16BC       aWarningCannotG_4
 0003:0E6A16D8       aDspImgprofileh
 0003:0E6A16F8       aWarningDspImgh_1
 0003:0E6A1734       aErrorDspImghig_0
 0003:0E6A177C       aPipeDCfgidD_0
 0003:0E6A1790       aConfigStateD_0
 0003:0E6A17A0       aVersionNumberD
 0003:0E6A17B4       aDiagCaseIdD
 0003:0E6A17C8       aDebugStepIdD_0
 0003:0E6A17DC       aDebugModeD_0
 0003:0E6A17EC       aDebugConfigAdd_0
 0003:0E6A1808       aDebugAddr00x8x
 0003:0E6A1820       aDebugAddr10x8x
 0003:0E6A1838       aDebugPitch0D
 0003:0E6A184C       aDebugPitch1D
 0003:0E6A1860       aDebugWidth0D
 0003:0E6A1874       aDebugWidth1D
 0003:0E6A1888       aDebugHeight0D
 0003:0E6A18A0       aDebugHeight1D
 0003:0E6A18B8       aUseCompression
 0003:0E6A18D0       aUseStaticBadPi_0
 0003:0E6A18F8       aUseVignetteD_0
 0003:0E6A190C       aUseLensWarpD_0
 0003:0E6A1920       aUseCaWarpD_0
 0003:0E6A1934       aUseLocalExposu_0
 0003:0E6A194C       aUseChromaScale_0
 0003:0E6A1964       aUseDeferCcD
 0003:0E6A1978       aUse2ndLisoPass
 0003:0E6A1990       aUseC2yHiD
 0003:0E6A19A0       aUseAsfHighD
 0003:0E6A19B4       aUseAsfChromaD
 0003:0E6A19C8       aUseAsfMed1D
 0003:0E6A19DC       aUseShpMedD
 0003:0E6A19F0       aUseShpHighD
 0003:0E6A1A04       aUseAsfLi2D
 0003:0E6A1A18       aUseChromaFilte
 0003:0E6A1A34       aUseChromaFilte_0
 0003:0E6A1A50       aUseChromaFilte_1
 0003:0E6A1A6C       aUseChromaFilte_2
 0003:0E6A1A88       aUseChromaFilte_3
 0003:0E6A1AA8       aIsHisoVideoD
 0003:0E6A1ABC       aUpdateBreakPoi
 0003:0E6A1AD8       aUpdateCalibDat
 0003:0E6A1AF0       aBayerPatternD_0
 0003:0E6A1B04       aVignetteGainSh
 0003:0E6A1B20       aRedScaleFactor_0
 0003:0E6A1B38       aBlueScaleFacto_0
 0003:0E6A1B50       aChromaRadiusD
 0003:0E6A1B64       aVignetteGain0x
 0003:0E6A1B7C       aFpnMapWidthD
 0003:0E6A1B90       aFpnMapPitchD
 0003:0E6A1BA4       aFpnMapHeightD
 0003:0E6A1BB8       aFpnInterceptSh
 0003:0E6A1BD4       aFpnModeD
 0003:0E6A1BE4       aFpnMapAddr0x8x
 0003:0E6A1BFC       aFpnLookupTable
 0003:0E6A1C18       aCaWarpH
 0003:0E6A1C24       aCaWarpV
 0003:0E6A1C30       aGeoWarpControl
 0003:0E6A1C44       aBlackLevel
 0003:0E6A1C50       aWbGain
 0003:0E6A1C58       aLocalExposure
 0003:0E6A1C68       aChromaScale
 0003:0E6A1C78       aCcReg0x8x
 0003:0E6A1C88       aCcOut0x8x
 0003:0E6A1C98       aLnlToneCurve0x
 0003:0E6A1CB0       aRgb2yuvUserDD_0
 0003:0E6A1CC8       aLnlInputWeight
 0003:0E6A1CE0       aLnlInputWeight_0
 0003:0E6A1CF8       aLnlInputWeight_1
 0003:0E6A1D10       aUseLowNoiseLum
 0003:0E6A1D2C       aUseLowNoiseLum_0
 0003:0E6A1D48       aLnlStrengthHiD
 0003:0E6A1D60       aLnlStrengthLiD
 0003:0E6A1D78       aUpdateWbGainD
 0003:0E6A1D8C       aUpdateToneCurv
 0003:0E6A1DA4       aUpdateOthersD
 0003:0E6A1DB8       aWbSaturationLe
 0003:0E6A1DD8       aWbSaturationLe_0
 0003:0E6A1DFC       aWbSaturationLe_1
 0003:0E6A1E20       aWbSaturationLe_2
 0003:0E6A1E40       aMctfLHighAsf0x
 0003:0E6A1E5C       aMctfLLowAsf0x8
 0003:0E6A1E74       aMctfLMed2Asf0x
 0003:0E6A1E90       aMctfL4cEdge0x8
 0003:0E6A1EA8       aMctfLMix124x0x
 0003:0E6A1EC4       aMctfC80x8x
 0003:0E6A1ED8       aMctfC40x8x
 0003:0E6A1EEC       aMctfCB0x8x
 0003:0E6A1F00       aMctfLLumaNoise
 0003:0E6A1F24       aMctfLLi1Sharpe
 0003:0E6A1F40       aMctfLLi2Sharpe
 0003:0E6A1F5C       aMctfLcFinal0x8
 0003:0E6A1F74       aSecCcCCc0x8x
 0003:0E6A1F8C       aSecCcL4cEdge0x
 0003:0E6A1FA8       aSecCcLCc0x8x
 0003:0E6A1FC0       aDarkPixelThres_0
 0003:0E6A1FE4       aHotPixelThresh_0
 0003:0E6A2004       aCc3dHi0x8x
 0003:0E6A2018       aChromaMedianKT
 0003:0E6A203C       aHiLeakage
 0003:0E6A2048       aHiAntiAliasing
 0003:0E6A205C       aHiCfaNoiseFilt
 0003:0E6A2070       aHiDemosaic
 0003:0E6A207C       aAsfHi
 0003:0E6A2084       aUseDynamicBadP_0
 0003:0E6A20AC       aUseAggresiveDb_0
 0003:0E6A20D8       aUseLeakageFilt_0
 0003:0E6A20F0       aUseAntiAliasin
 0003:0E6A2108       aUseCfaNoiseFil_0
 0003:0E6A2124       aUseGrgbMismatc
 0003:0E6A2144       aUseChromaMedia_0
 0003:0E6A215C       aUseShpaForAsfD
 0003:0E6A2174       aUpdateCcD
 0003:0E6A2184       aUpdateLumaProc
 0003:0E6A21A0       aUpdateDbpStren
 0003:0E6A21BC       aUpdateCfaNoise
 0003:0E6A21DC       aHiGrgbMismatch
 0003:0E6A2208       aHiGrgbMismatch_0
 0003:0E6A223C       aHiChromaOrigin
 0003:0E6A226C       aHiChromaOrigin_0
 0003:0E6A229C       aHiChromaNoiseL
 0003:0E6A22C0       aHiChromaNoiseL_0
 0003:0E6A22E4       aAsfHigh
 0003:0E6A22F0       aAsfChroma
 0003:0E6A22FC       aAsfMed1
 0003:0E6A2308       aChromaNoiseLev
 0003:0E6A2328       aChromaNoiseLev_0
 0003:0E6A2348       aChromaOriginal
 0003:0E6A2374       aChromaOriginal_0
 0003:0E6A23A0       aSharpenMed
 0003:0E6A23AC       aChromaNoiseLev_1
 0003:0E6A23CC       aChromaNoiseLev_2
 0003:0E6A23EC       aChromaOriginal_1
 0003:0E6A2418       aChromaOriginal_2
 0003:0E6A2444       aSharpenHigh
 0003:0E6A2454       aChromaNoiseLev_3
 0003:0E6A2474       aChromaNoiseLev_4
 0003:0E6A2494       aChromaOriginal_3
 0003:0E6A24C0       aChromaOriginal_4
 0003:0E6A24EC       aChromaNoiseLev_5
 0003:0E6A250C       aChromaNoiseLev_6
 0003:0E6A252C       aChromaOriginal_5
 0003:0E6A2558       aChromaOriginal_6
 0003:0E6A2584       aChromaNoiseLev_7
 0003:0E6A25A4       aChromaNoiseLev_8
 0003:0E6A25C4       aChromaOriginal_7
 0003:0E6A25F0       aChromaOriginal_8
 0003:0E6A261C       aDarkPixelThres_1
 0003:0E6A2640       aHotPixelThresh_1
 0003:0E6A2664       aCc3dLi10x8x
 0003:0E6A2678       aChromaMedianKT_0
 0003:0E6A269C       aCfaNoiseFilter_1
 0003:0E6A26B0       aDemosaic
 0003:0E6A26BC       aLumaLi1Asf
 0003:0E6A26CC       aLumaLi1Shp
 0003:0E6A26DC       aLnlStrengthLi1
 0003:0E6A26F4       aLi1UseDynamicB
 0003:0E6A2720       aLi1UseAggresiv
 0003:0E6A2750       aLi1UseLeakageF
 0003:0E6A276C       aLi1UseAntiAlia
 0003:0E6A2788       aLi1UseCfaNoise
 0003:0E6A27A8       aLi1UseGrgbMism
 0003:0E6A27CC       aLi1UseChromaMe
 0003:0E6A27E8       aLi1UseShpaForA
 0003:0E6A2804       aLi1UseShpaForS
 0003:0E6A2820       aLi1UseLowNoise
 0003:0E6A283C       aAntiAliasingSh
 0003:0E6A2858       aLeakageAlphaRr
 0003:0E6A2870       aLeakageAlphaRb
 0003:0E6A2888       aLeakageAlphaBr
 0003:0E6A28A0       aLeakageAlphaBb
 0003:0E6A28B8       aLeakageSaturat
 0003:0E6A28D8       aAntiAliasingTh
 0003:0E6A28F8       aGrgbMismatchCo
 0003:0E6A2920       aGrgbMismatchCo_0
 0003:0E6A2950       aChromaRadiusLi
 0003:0E6A2968       aChromaNoiseLev_9
 0003:0E6A2988       aChromaNoiseLev_10
 0003:0E6A29A8       aChromaOriginal_9
 0003:0E6A29D4       aChromaOriginal_10
 0003:0E6A2A00       aAsfLi2
 0003:0E6A2A08       aVertWarp0
 0003:0E6A2A18       aVertWarp1
 0003:0E6A2A28       aVertWarp2
 0003:0E6A2A38       aVertWarp3
 0003:0E6A2A48       aAmbadspImghigh
 0003:0E6A2A70       aWarningCannotG_5
 0003:0E6A2A94       aAmbadspImghigh_0
 0003:0E6A2AC0       aWarningAmbadsp_6
 0003:0E6A2B04       aAmbadspImghigh_1
 0003:0E6A2B30       aAmbadspImghigh_2
 0003:0E6A2B5C       aDspImghighisod
 0003:0E6A2B74       aCBins_0
 0003:0E6A2B84       aSAddressIsNull
 0003:0E6A2B98       aNoBinsDirector_0
 0003:0E6A2BC4       aKAssertAtSD_1
 0003:0E6A2BD8       aCBinsHIdspStep
 0003:0E6A2BFC       aDumpS_0
 0003:0E6A2C04       aCBinsHDbgStepD
 0003:0E6A2C2C       aCBinsHDbgStepD_0
 0003:0E6A2C54       aAmbadspImghigh_3
 0003:0E6A2C78       aWarningAmbadsp_7
 0003:0E6A2CB8       aErrorAmbadspIm_0
 0003:0E6A2D04       aAmbadspImghigh_4
 0003:0E6A2D34       aErrorIncorrect_0
 0003:0E6A2D68       aWarningDspImgl
 0003:0E6A2DA4       aWarningDspImgl_0
 0003:0E6A2E10       aErrorDspImglow
 0003:0E6A2E5C       aSCmdCode0xX
 0003:0E6A2E70       aSEnableD_0
 0003:0E6A2E80       aSModeD
 0003:0E6A2E90       aSShiftCoarseRi
 0003:0E6A2EAC       aSShiftCoarseRi_0
 0003:0E6A2EC8       aSShiftFineRing
 0003:0E6A2EE4       aSShiftFineRing_0
 0003:0E6A2F00       aSShiftCenterRe
 0003:0E6A2F1C       aSShiftCenterGr
 0003:0E6A2F38       aSShiftCenterBl
 0003:0E6A2F54       aSTargetCoarseR
 0003:0E6A2F70       aSTargetCoarseG
 0003:0E6A2F8C       aSTargetCoarseB
 0003:0E6A2FA8       aSTargetFineRed
 0003:0E6A2FC0       aSTargetFineGre
 0003:0E6A2FDC       aSTargetFineBlu
 0003:0E6A2FF8       aSCutoffRedD
 0003:0E6A300C       aSCutoffGreenD
 0003:0E6A3024       aSCutoffBlueD
 0003:0E6A3038       aSThreshCoarseR
 0003:0E6A3054       aSThreshCoarseG
 0003:0E6A3070       aSThreshCoarseB
 0003:0E6A308C       aSThreshFineRed
 0003:0E6A30A4       aSThreshFineGre
 0003:0E6A30C0       aSThreshFineBlu
 0003:0E6A30DC       aSRadiusD
 0003:0E6A30EC       aSThreshUD
 0003:0E6A3100       aSThreshVD
 0003:0E6A3114       aSShiftCenterUD
 0003:0E6A312C       aSShiftCenterVD
 0003:0E6A3144       aSShiftRing1D
 0003:0E6A3158       aSShiftRing2D
 0003:0E6A316C       aSTargetUD
 0003:0E6A3180       aSTargetVD
 0003:0E6A3194       aDspImglowisodu
 0003:0E6A31AC       aCBins
 0003:0E6A31BC       aNoBinsDirector
 0003:0E6A31E8       aSAddressIs0x8x
 0003:0E6A3200       aKAssertAtSD_0
 0003:0E6A3214       aCBinsLIdspStep
 0003:0E6A3238       aDumpS
 0003:0E6A3240       aUcodeDebugData_1
 0003:0E6A325C       aCBinsLDbgStepD
 0003:0E6A3284       aCBinsLDbgStepD_0
 0003:0E6A32AC       aWarningCannotG_2
 0003:0E6A32D0       aAmbadspImglowi
 0003:0E6A32F8       aWarningAmbadsp_4
 0003:0E6A333C       aAmbadspImglowi_0
 0003:0E6A3368       aAmbadspImglowi_1
 0003:0E6A3394       aWarningCannotG_3
 0003:0E6A33B0       aDspImglowisopr
 0003:0E6A33D0       aWarningDspImgl_1
 0003:0E6A340C       aErrorDspImglow_0
 0003:0E6A3454       aPipeDCfgidD
 0003:0E6A3468       aConfigStateD
 0003:0E6A3478       aCompressionMod
 0003:0E6A3490       aBayerPatternD
 0003:0E6A34A4       aDebugStepIdD
 0003:0E6A34B8       aDebugModeD
 0003:0E6A34C8       aWidthInD
 0003:0E6A34D8       aHeightInD
 0003:0E6A34E8       aWidthPaddedD
 0003:0E6A34FC       aHeightPaddedD
 0003:0E6A3510       aWidthChromaD
 0003:0E6A3524       aHeightChromaD
 0003:0E6A3538       aPhaseIncXChrom
 0003:0E6A3554       aPhaseIncYChrom
 0003:0E6A3570       aWidthProtoD
 0003:0E6A3580       aHeightProtoD
 0003:0E6A3594       aPhaseIncXLumaA
 0003:0E6A35AC       aPhaseIncYLumaA
 0003:0E6A35C4       aWidthChromaPro
 0003:0E6A35DC       aHeightChromaPr
 0003:0E6A35F4       aPhaseIncXChrom_0
 0003:0E6A3610       aPhaseIncYChrom_0
 0003:0E6A362C       aWidthPrev1D
 0003:0E6A363C       aHeightPrev1D
 0003:0E6A3650       aPhaseIncXLumaC
 0003:0E6A3668       aPhaseIncYLumaC
 0003:0E6A3680       aPhaseIncXChrom_1
 0003:0E6A369C       aPhaseIncYChrom_1
 0003:0E6A36B8       aWidthPrev2D
 0003:0E6A36C8       aHeightPrev2D
 0003:0E6A36DC       aPhaseIncXLumaC_0
 0003:0E6A36F4       aPhaseIncYLumaC_0
 0003:0E6A370C       aPhaseIncXChrom_2
 0003:0E6A3728       aPhaseIncYChrom_2
 0003:0E6A3744       aWidthOutD
 0003:0E6A3754       aHeightOutD
 0003:0E6A3764       aPhaseIncXLumaE
 0003:0E6A377C       aPhaseIncYLumaE
 0003:0E6A3794       aPhaseIncXChrom_3
 0003:0E6A37B0       aPhaseIncYChrom_3
 0003:0E6A37CC       aUseStaticBadPi
 0003:0E6A37F0       aUseDynamicBadP
 0003:0E6A3818       aUseLeakageFilt
 0003:0E6A3830       aUseCfaNoiseFil
 0003:0E6A384C       aUseLocalExposu
 0003:0E6A3864       aUseColorCorrec
 0003:0E6A3888       aUseChromaScale
 0003:0E6A38A0       aUseChromaMedia
 0003:0E6A38B8       aUseLumaSharpen
 0003:0E6A38D0       aUseVignetteD
 0003:0E6A38E4       aUseLensWarpD
 0003:0E6A38F8       aUseCaWarpD
 0003:0E6A3908       aUsePrev1CcD
 0003:0E6A391C       aUseArtEffectD
 0003:0E6A3930       aUseSpecialGrgb
 0003:0E6A3958       aUseFastLcdPrev
 0003:0E6A3974       aIsbypasslisocf
 0003:0E6A3988       aUseAggresiveDb
 0003:0E6A39B0       aUseNewLisoFlow
 0003:0E6A39C8       aBloEeD
 0003:0E6A39D4       aBloEoD
 0003:0E6A39E0       aBloOeD
 0003:0E6A39EC       aBloOoD
 0003:0E6A39F8       aRgb2yuvUserDD
 0003:0E6A3A10       aWbGainUserCmdC
 0003:0E6A3A2C       aWbGainUserRGai
 0003:0E6A3A44       aWbGainUserGEve
 0003:0E6A3A64       aWbGainUserGOdd
 0003:0E6A3A80       aWbGainUserBGai
 0003:0E6A3A98       aCfaNoiseFilter_0
 0003:0E6A3AB8       aChromaFilterPa
 0003:0E6A3AD0       aMctfSharp0xX
 0003:0E6A3AE4       aCcRegYuv0xX
 0003:0E6A3AF8       aCc3dYuv0xX
 0003:0E6A3B08       aCcRegUser0xX
 0003:0E6A3B1C       aCc3dUser0xX
 0003:0E6A3B30       aDarkThresholdU
 0003:0E6A3B4C       aHotThresholdUs
 0003:0E6A3B68       aFir1User0xX
 0003:0E6A3B78       aFir2User0xX
 0003:0E6A3B88       aCoringUser0xX
 0003:0E6A3B9C       aLnlToneCurveUs
 0003:0E6A3BB8       aCaWarpControlH
 0003:0E6A3BE0       aCaWarpControlV
 0003:0E6A3C08       aCaWarpControlH_0
 0003:0E6A3C38       aCaWarpControlH_1
 0003:0E6A3C68       aCaWarpControlH_2
 0003:0E6A3CA4       aCaWarpControlH_3
 0003:0E6A3CE0       aCaWarpControlV_0
 0003:0E6A3D10       aCaWarpControlV_1
 0003:0E6A3D40       aCaWarpControlV_2
 0003:0E6A3D7C       aCaWarpControlV_3
 0003:0E6A3DB8       aCaWarpControlR
 0003:0E6A3DE0       aCaWarpControlB
 0003:0E6A3E08       aCaWarpControlW
 0003:0E6A3E3C       aCaWarpControlW_0
 0003:0E6A3E70       aLensWarpContro
 0003:0E6A3E94       aLensWarpContro_0
 0003:0E6A3ECC       aLensWarpContro_1
 0003:0E6A3F00       aLensWarpContro_2
 0003:0E6A3F28       aLensWarpContro_3
 0003:0E6A3F50       aLensWarpContro_4
 0003:0E6A3F7C       aLensWarpContro_5
 0003:0E6A3FA8       aLensWarpContro_6
 0003:0E6A3FC8       aLensWarpContro_7
 0003:0E6A3FE8       aLensWarpContro_8
 0003:0E6A4010       aLensWarpContro_9
 0003:0E6A4038       aLensWarpContro_10
 0003:0E6A4060       aLensWarpContro_11
 0003:0E6A4088       aLensWarpContro_12
 0003:0E6A40BC       aLensWarpContro_13
 0003:0E6A40F0       aLensWarpContro_14
 0003:0E6A4118       aLensWarpContro_15
 0003:0E6A414C       aLensWarpContro_16
 0003:0E6A4180       aLensWarpContro_17
 0003:0E6A41BC       aLensWarpContro_18
 0003:0E6A41F8       aLensWarpContro_19
 0003:0E6A4224       aLensWarpContro_20
 0003:0E6A4250       aLensWarpContro_21
 0003:0E6A427C       aLensWarpContro_22
 0003:0E6A42A8       aLensWarpContro_23
 0003:0E6A42D4       aLensWarpContro_24
 0003:0E6A42FC       aLensWarpContro_25
 0003:0E6A4324       aDebugConfigAdd
 0003:0E6A433C       aDebugAddr00xX
 0003:0E6A4350       aDebugAddr10xX
 0003:0E6A4364       aDebugPitch00xX
 0003:0E6A437C       aDebugWidth00xX
 0003:0E6A4394       aDebugHeight00x
 0003:0E6A43AC       aDebugPitch10xX
 0003:0E6A43C4       aDebugWidth10xX
 0003:0E6A43DC       aDebugHeight10x
 0003:0E6A43F4       aConfigversionn
 0003:0E6A4410       aChromaNoiseFil_0
 0003:0E6A442C       aDebugtileidx0x
 0003:0E6A4440       aMctfsharpaddr0
 0003:0E6A4454       aCcreguseraddr0
 0003:0E6A4468       aCc3duseraddr0x
 0003:0E6A447C       aDarkthresholdu
 0003:0E6A4498       aHotthresholdus
 0003:0E6A44B4       aFir1useraddr0x
 0003:0E6A44C8       aFir2useraddr0x
 0003:0E6A44DC       aCoringuseraddr
 0003:0E6A44F4       aLnltonecurveus
 0003:0E6A4510       aAmbadspImglowi_2
 0003:0E6A4538       aAmbadspImglowi_3
 0003:0E6A455C       aWarningAmbadsp_5
 0003:0E6A459C       aErrorAmbadspIm
 0003:0E6A45E8       aAmbadspImglowi_4
 0003:0E6A460C       aWarningEnableD_18
 0003:0E6A4650       aAmbadspImgsetd_10
 0003:0E6A4674       aPipeDAlgoDFunc_31
 0003:0E6A46B0       aEnbD_1
 0003:0E6A46EC       aWarningCannotG_39
 0003:0E6A4710       aAmbadspImgsetd_11
 0003:0E6A473C       aWarningAmbadsp_268
 0003:0E6A4784       aAmbadspImgsetd_12
 0003:0E6A47B0       aWarningPdefblc
 0003:0E6A47CC       aAmbadspImggetd_9
 0003:0E6A47F8       aWarningAmbadsp_269
 0003:0E6A4840       aAmbadspImggetd_10
 0003:0E6A486C       aItunerSystemIn
 0003:0E6A4880       aItunerInternal
 0003:0E6A4898       aItunerAaaFunct
 0003:0E6A48AC       aItunerAeInfo
 0003:0E6A48BC       aItunerWbSimInf
 0003:0E6A48D0       aItunerAeStatis
 0003:0E6A48EC       aItunerAwbStati
 0003:0E6A4908       aItunerAfStatis
 0003:0E6A4924       aItunerStaticBa
 0003:0E6A4948       aItunerStaticBa_0
 0003:0E6A4974       aItunerVignette
 0003:0E6A4994       aItunerVignette_0
 0003:0E6A49BC       aItunerWarpComp
 0003:0E6A49D8       aItunerDzoom
 0003:0E6A49E8       aItunerWarpComp_0
 0003:0E6A4A10       aItunerSensorIn
 0003:0E6A4A2C       aItunerStaticBl
 0003:0E6A4A48       aItunerDeferred
 0003:0E6A4A64       aItunerDynamicB
 0003:0E6A4A88       aItunerHisoDyna
 0003:0E6A4AB4       aItunerCfaLeaka
 0003:0E6A4AD0       aItunerHisoCfaL
 0003:0E6A4AF0       aItunerCfaNoise
 0003:0E6A4B08       aItunerHisoCfaN
 0003:0E6A4B28       aItunerAntiAlia
 0003:0E6A4B48       aItunerHisoAnti
 0003:0E6A4B6C       aItunerGlobalDg
 0003:0E6A4B80       aItunerWbGain
 0003:0E6A4B90       aItunerDgainSat
 0003:0E6A4BB0       aItunerLocalExp
 0003:0E6A4BC8       aItunerColorCor
 0003:0E6A4BE0       aItunerToneCurv
 0003:0E6A4BF4       aItunerRgbToYuv
 0003:0E6A4C10       aItunerChromaSc
 0003:0E6A4C24       aItunerChromaMe
 0003:0E6A4C40       aItunerHisoChro
 0003:0E6A4C64       aItunerDemosaic
 0003:0E6A4C7C       aItunerHisoDemo
 0003:0E6A4C98       aItunerSharpenB
 0003:0E6A4CAC       aItunerFinalSha
 0003:0E6A4CC8       aItunerHisoLiso
 0003:0E6A4CE8       aItunerHisoHigh
 0003:0E6A4D08       aItunerHisoMedS
 0003:0E6A4D28       aItunerHisoLiso_0
 0003:0E6A4D48       aItunerSharpenN
 0003:0E6A4D60       aItunerFinalSha_0
 0003:0E6A4D7C       aItunerHisoHigh_0
 0003:0E6A4D9C       aItunerHisoMedS_0
 0003:0E6A4DBC       aItunerHisoLiso_1
 0003:0E6A4DDC       aItunerHisoLiso_2
 0003:0E6A4DFC       aItunerFir
 0003:0E6A4E08       aItunerFinalfir
 0003:0E6A4E18       aItunerHisoHigh_1
 0003:0E6A4E30       aItunerHisoMedF
 0003:0E6A4E44       aItunerHisoLiso_3
 0003:0E6A4E5C       aItunerHisoLiso_4
 0003:0E6A4E74       aItunerCoring
 0003:0E6A4E84       aItunerFinalCor
 0003:0E6A4E98       aItunerHisoHigh_2
 0003:0E6A4EB0       aItunerHisoMedC
 0003:0E6A4EC8       aItunerHisoLiso_5
 0003:0E6A4EE4       aItunerHisoLiso_6
 0003:0E6A4F00       aItunerCoringIn
 0003:0E6A4F1C       aItunerMinCorin
 0003:0E6A4F38       aItunerFinalCor_0
 0003:0E6A4F58       aItunerFinalMin
 0003:0E6A4F78       aItunerFinalSca
 0003:0E6A4F94       aItunerHisoHigh_3
 0003:0E6A4FB8       aItunerHisoHigh_4
 0003:0E6A4FDC       aItunerHisoHigh_5
 0003:0E6A4FFC       aItunerHisoMedC_0
 0003:0E6A5020       aItunerHisoMedM
 0003:0E6A5044       aItunerHisoMedS_1
 0003:0E6A5064       aItunerScaleCor
 0003:0E6A5078       aItunerHisoLiso_7
 0003:0E6A50A0       aItunerHisoLiso_8
 0003:0E6A50C4       aItunerHisoLiso_9
 0003:0E6A50E4       aItunerHisoLiso_10
 0003:0E6A510C       aItunerHisoLiso_11
 0003:0E6A5130       aItunerHisoLiso_12
 0003:0E6A5150       aItunerVideoMct
 0003:0E6A5164       aItunerVideoMct_0
 0003:0E6A517C       aItunerCdnr
 0003:0E6A5188       aItunerHisoCdnr
 0003:0E6A519C       aItunerHisoDefe
 0003:0E6A51C0       aItunerShpAOrSp
 0003:0E6A51E8       aItunerSharpBLi
 0003:0E6A5210       aItunerAsfInfo
 0003:0E6A5220       aItunerHisoAsf
 0003:0E6A5230       aItunerHisoHigh_6
 0003:0E6A5248       aItunerHisoLowA
 0003:0E6A525C       aItunerHisoMed1
 0003:0E6A5274       aItunerHisoMed2
 0003:0E6A528C       aItunerHisoLi2n
 0003:0E6A52A4       aItunerHisoChro_0
 0003:0E6A52BC       aItunerChromaFi
 0003:0E6A52D4       aItunerHisoChro_1
 0003:0E6A52F4       aItunerGbGrMism
 0003:0E6A530C       aItunerHisoGbGr
 0003:0E6A5328       aItunerChromaAb
 0003:0E6A5348       aItunerChromaAb_0
 0003:0E6A5370       aItunerHisoChro_2
 0003:0E6A5398       aItunerHisoChro_3
 0003:0E6A53B8       aItunerHisoChro_4
 0003:0E6A53D8       aItunerHisoChro_5
 0003:0E6A53F8       aItunerHisoChro_6
 0003:0E6A541C       aItunerHisoChro_7
 0003:0E6A5448       aItunerHisoChro_8
 0003:0E6A5470       aItunerHisoChro_9
 0003:0E6A5498       aItunerHisoLuma
 0003:0E6A54B8       aItunerHisoLowA_0
 0003:0E6A54D4       aItunerHighIsoC
 0003:0E6A54EC       aItunerHisoLow2
 0003:0E6A5508       aItunerHisoLow2_0
 0003:0E6A552C       aItunerHisoFreq
 0003:0E6A5548       aItunerSensorIn_0
 0003:0E6A555C       aImgModePreview_0
 0003:0E6A5570       aAmbaitunerChec
 0003:0E6A55C0       aStxyz4Cde5Fgh0
 0003:0E6A5604       aAurPq39Ab
 0003:0E6A5624       aAurPq39Ab_0
 0003:0E6A5638       aItunerWarningS
 0003:0E6A5680       aSingleShot_1
 0003:0E6A568C       aDummyFunc
 0003:0E6A5698       aItunerWarningS_0
 0003:0E6A56DC       aItunerDebugExe
 0003:0E6A56F8       aItunerDebugSki
 0003:0E6A5714       aItunerDebugWit
 0003:0E6A5730       aAmbaitunerExec
 0003:0E6A5744       aItunerDebugSDE
 0003:0E6A5764       aItunerWarningS_1
 0003:0E6A57A4       aItunerErrorWar
 0003:0E6A57D0       aItunerDebugSDI
 0003:0E6A582C       aItunerWarningS_2
 0003:0E6A58A0       aItunerWarningS_3
 0003:0E6A5914       aItunerWarningS_4
 0003:0E6A5978       aItunerWarningS_5
 0003:0E6A59E0       aItunerWarningS_6
 0003:0E6A5A44       aItunerWarningS_7
 0003:0E6A5AA4       aItunerWarningS_8
 0003:0E6A5B04       aItunerWarningS_9
 0003:0E6A5B5C       aItunerWarningS_10
 0003:0E6A5BD0       aItunerWarningS_11
 0003:0E6A5C24       aItunerWarningS_12
 0003:0E6A5C8C       aItunerWarningS_13
 0003:0E6A5CEC       aItunerWarningS_14
 0003:0E6A5D5C       aItunerWarningS_15
 0003:0E6A5DB4       aItunerWarningS_16
 0003:0E6A5E24       aItunerWarningS_17
 0003:0E6A5E78       aItunerWarningS_18
 0003:0E6A5EE0       aItunerWarningS_19
 0003:0E6A5F48       aErrorWeDonTSup
 0003:0E6A5F70       aItunerWarningS_20
 0003:0E6A5FD4       aItunerWarningS_21
 0003:0E6A603C       aItunerWarningS_22
 0003:0E6A6090       aItunerWarningS_23
 0003:0E6A60E0       aItunerWarningS_24
 0003:0E6A6144       aItunerWarningS_25
 0003:0E6A61A8       aItunerWarningS_26
 0003:0E6A6210       aItunerWarningS_27
 0003:0E6A6264       aItunerWarningS_28
 0003:0E6A62CC       aItunerWarningS_29
 0003:0E6A6320       aItunerWarningS_30
 0003:0E6A6370       aItunerWarningS_31
 0003:0E6A63D0       aItunerWarningS_32
 0003:0E6A6424       aItunerWarningS_33
 0003:0E6A6484       aItunerWarningS_34
 0003:0E6A64EC       aItunerWarningS_35
 0003:0E6A6558       aItunerWarningS_36
 0003:0E6A65D4       aItunerWarningS_37
 0003:0E6A663C       aItunerWarningS_38
 0003:0E6A66A0       aItunerWarningS_39
 0003:0E6A6708       aItunerWarningS_40
 0003:0E6A675C       aItunerWarningS_41
 0003:0E6A67CC       aItunerWarningS_42
 0003:0E6A6830       aItunerWarningS_43
 0003:0E6A688C       aItunerWarningS_44
 0003:0E6A68F0       aItunerWarningS_45
 0003:0E6A6950       aItunerWarningS_46
 0003:0E6A69BC       aItunerWarningS_47
 0003:0E6A6A1C       aItunerWarningS_48
 0003:0E6A6A80       aItunerWarningS_49
 0003:0E6A6B14       aItunerWarningS_50
 0003:0E6A6B7C       aItunerWarningS_51
 0003:0E6A6BE0       aItunerWarningS_52
 0003:0E6A6C30       aItunerWarningS_53
 0003:0E6A6C9C       aItunerWarningS_54
 0003:0E6A6CF4       aItunerWarningS_55
 0003:0E6A6D64       aItunerWarningS_56
 0003:0E6A6DCC       aItunerWarningS_57
 0003:0E6A6E30       aItunerWarningS_58
 0003:0E6A6E9C       aItunerWarningS_59
 0003:0E6A6F1C       aItunerWarningS_60
 0003:0E6A6F98       aItunerWarningS_61
 0003:0E6A700C       aItunerWarningS_62
 0003:0E6A7068       aItunerWarningS_63
 0003:0E6A70D0       aItunerWarningS_64
 0003:0E6A7128       aItunerWarningS_65
 0003:0E6A71A0       aItunerWarningS_66
 0003:0E6A7210       aItunerWarningS_67
 0003:0E6A727C       aItunerWarningS_68
 0003:0E6A72F0       aItunerWarningS_69
 0003:0E6A7378       aItunerWarningS_70
 0003:0E6A73FC       aItunerWarningS_71
 0003:0E6A7478       aItunerWarningS_72
 0003:0E6A74EC       aItunerWarningS_73
 0003:0E6A7560       aItunerWarningS_74
 0003:0E6A75E8       aItunerWarningS_75
 0003:0E6A7658       aItunerWarningS_76
 0003:0E6A76C4       aItunerWarningS_77
 0003:0E6A7730       aItunerWarningS_78
 0003:0E6A77A8       aItunerWarningS_79
 0003:0E6A781C       aItunerWarningS_80
 0003:0E6A7898       aItunerWarningS_81
 0003:0E6A78EC       aItunerWarningS_82
 0003:0E6A7960       aItunerWarningS_83
 0003:0E6A79B8       aItunerWarningS_84
 0003:0E6A7A34       aItunerWarningS_85
 0003:0E6A7A8C       aItunerWarningS_86
 0003:0E6A7B04       aItunerWarningS_87
 0003:0E6A7B5C       aItunerWarningS_88
 0003:0E6A7BD8       aItunerWarningS_89
 0003:0E6A7C30       aItunerWarningS_90
 0003:0E6A7CAC       aItunerWarningS_91
 0003:0E6A7D04       aItunerWarningS_92
 0003:0E6A7D80       aItunerWarningS_93
 0003:0E6A7DDC       aItunerWarningS_94
 0003:0E6A7E60       aItunerWarningS_95
 0003:0E6A7EBC       aItunerWarningS_96
 0003:0E6A7F3C       aItunerWarningS_97
 0003:0E6A7FB4       aItunerWarningS_98
 0003:0E6A8028       aItunerWarningS_99
 0003:0E6A80A4       aItunerWarningS_100
 0003:0E6A8134       aItunerWarningS_101
 0003:0E6A81C0       aItunerWarningS_102
 0003:0E6A8244       aItunerWarningS_103
 0003:0E6A82A0       aItunerWarningS_104
 0003:0E6A8320       aItunerWarningS_105
 0003:0E6A8398       aItunerWarningS_106
 0003:0E6A840C       aItunerWarningS_107
 0003:0E6A8484       aItunerWarningS_108
 0003:0E6A8510       aItunerWarningS_109
 0003:0E6A859C       aItunerWarningS_110
 0003:0E6A8620       aItunerWarningS_111
 0003:0E6A867C       aItunerWarningS_112
 0003:0E6A8700       aItunerWarningS_113
 0003:0E6A877C       aItunerWarningS_114
 0003:0E6A87F4       aItunerWarningS_115
 0003:0E6A8870       aItunerWarningS_116
 0003:0E6A8900       aItunerWarningS_117
 0003:0E6A8990       aItunerWarningS_118
 0003:0E6A8A18       aItunerWarningS_119
 0003:0E6A8A74       aItunerWarningS_120
 0003:0E6A8AF8       aItunerWarningS_121
 0003:0E6A8B74       aItunerWarningS_122
 0003:0E6A8BEC       aItunerWarningS_123
 0003:0E6A8C68       aItunerWarningS_124
 0003:0E6A8CF8       aItunerWarningS_125
 0003:0E6A8D88       aItunerWarningS_126
 0003:0E6A8E10       aItunerWarningS_127
 0003:0E6A8E84       aItunerWarningS_128
 0003:0E6A8F04       aItunerWarningS_129
 0003:0E6A8F78       aItunerWarningS_130
 0003:0E6A8FEC       aItunerWarningS_131
 0003:0E6A9060       aItunerWarningS_132
 0003:0E6A90DC       aItunerWarningS_133
 0003:0E6A9140       aItunerWarningS_134
 0003:0E6A91CC       aItunerWarningS_135
 0003:0E6A9230       aItunerWarningS_136
 0003:0E6A92BC       aItunerWarningS_137
 0003:0E6A9324       aItunerWarningS_138
 0003:0E6A93B8       aItunerWarningS_139
 0003:0E6A941C       aItunerWarningS_140
 0003:0E6A949C       aItunerWarningS_141
 0003:0E6A94FC       aItunerWarningS_142
 0003:0E6A9578       aItunerWarningS_143
 0003:0E6A95D0       aItunerWarningS_144
 0003:0E6A9648       aItunerWarningS_145
 0003:0E6A96B8       aItunerWarningS_146
 0003:0E6A9728       aItunerWarningS_147
 0003:0E6A97A4       aAmbaitunerRefr
 0003:0E6A97B8       aItunerWarningS_148
 0003:0E6A9820       aItunerDebugSDX
 0003:0E6A9848       aItunerWarningS_149
 0003:0E6A98BC       aItunerDebugSD
 0003:0E6A98D4       aItunerWarningS_150
 0003:0E6A9940       aItunerWarningS_151
 0003:0E6A99A4       aItunerWarningS_152
 0003:0E6A9A08       aItunerWarningS_153
 0003:0E6A9A68       aItunerWarningS_154
 0003:0E6A9AC8       aItunerWarningS_155
 0003:0E6A9B30       aItunerWarningS_156
 0003:0E6A9B9C       aItunerWarningS_157
 0003:0E6A9C18       aItunerWarningS_158
 0003:0E6A9C80       aItunerWarningS_159
 0003:0E6A9CE4       aItunerWarningS_160
 0003:0E6A9D4C       aItunerWarningS_161
 0003:0E6A9DA0       aItunerWarningS_162
 0003:0E6A9E10       aItunerWarningS_163
 0003:0E6A9E74       aItunerWarningS_164
 0003:0E6A9ED0       aItunerWarningS_165
 0003:0E6A9F34       aItunerWarningS_166
 0003:0E6A9F94       aItunerWarningS_167
 0003:0E6AA000       aItunerWarningS_168
 0003:0E6AA060       aItunerWarningS_169
 0003:0E6AA0C0       aItunerWarningS_170
 0003:0E6AA154       aItunerWarningS_171
 0003:0E6AA1BC       aItunerWarningS_172
 0003:0E6AA21C       aItunerWarningS_173
 0003:0E6AA288       aItunerWarningS_174
 0003:0E6AA2F8       aItunerWarningS_175
 0003:0E6AA360       aItunerWarningS_176
 0003:0E6AA3C4       aItunerWarningS_177
 0003:0E6AA430       aItunerWarningS_178
 0003:0E6AA4B0       aItunerWarningS_179
 0003:0E6AA52C       aItunerWarningS_180
 0003:0E6AA5A0       aItunerWarningS_181
 0003:0E6AA5FC       aItunerWarningS_182
 0003:0E6AA660       aItunerWarningS_183
 0003:0E6AA6D8       aItunerWarningS_184
 0003:0E6AA748       aItunerWarningS_185
 0003:0E6AA7B4       aItunerWarningS_186
 0003:0E6AA828       aItunerWarningS_187
 0003:0E6AA8B0       aItunerWarningS_188
 0003:0E6AA934       aItunerWarningS_189
 0003:0E6AA9B0       aItunerWarningS_190
 0003:0E6AAA24       aItunerWarningS_191
 0003:0E6AAA98       aItunerWarningS_192
 0003:0E6AAB20       aItunerWarningS_193
 0003:0E6AAB90       aItunerWarningS_194
 0003:0E6AABFC       aItunerWarningS_195
 0003:0E6AAC68       aItunerWarningS_196
 0003:0E6AACE0       aItunerWarningS_197
 0003:0E6AAD54       aItunerWarningS_198
 0003:0E6AADD0       aItunerWarningS_199
 0003:0E6AAE44       aItunerWarningS_200
 0003:0E6AAEC0       aItunerWarningS_201
 0003:0E6AAF38       aItunerWarningS_202
 0003:0E6AAFB4       aItunerWarningS_203
 0003:0E6AB030       aItunerWarningS_204
 0003:0E6AB0AC       aItunerWarningS_205
 0003:0E6AB130       aItunerWarningS_206
 0003:0E6AB1B0       aItunerWarningS_207
 0003:0E6AB228       aItunerWarningS_208
 0003:0E6AB29C       aItunerWarningS_209
 0003:0E6AB318       aItunerWarningS_210
 0003:0E6AB3A8       aItunerWarningS_211
 0003:0E6AB434       aItunerWarningS_212
 0003:0E6AB4B8       aItunerWarningS_213
 0003:0E6AB538       aItunerWarningS_214
 0003:0E6AB5B0       aItunerWarningS_215
 0003:0E6AB624       aItunerWarningS_216
 0003:0E6AB69C       aItunerWarningS_217
 0003:0E6AB728       aItunerWarningS_218
 0003:0E6AB7B4       aItunerWarningS_219
 0003:0E6AB838       aItunerWarningS_220
 0003:0E6AB8BC       aItunerWarningS_221
 0003:0E6AB938       aItunerWarningS_222
 0003:0E6AB9B0       aItunerWarningS_223
 0003:0E6ABA2C       aItunerWarningS_224
 0003:0E6ABABC       aItunerWarningS_225
 0003:0E6ABB4C       aItunerWarningS_226
 0003:0E6ABBD4       aItunerWarningS_227
 0003:0E6ABC58       aItunerWarningS_228
 0003:0E6ABCD4       aItunerWarningS_229
 0003:0E6ABD4C       aItunerWarningS_230
 0003:0E6ABDC8       aItunerWarningS_231
 0003:0E6ABE58       aItunerWarningS_232
 0003:0E6ABEE8       aItunerWarningS_233
 0003:0E6ABF70       aItunerWarningS_234
 0003:0E6ABFE4       aItunerWarningS_235
 0003:0E6AC064       aItunerWarningS_236
 0003:0E6AC0D8       aItunerWarningS_237
 0003:0E6AC14C       aItunerWarningS_238
 0003:0E6AC1C0       aItunerWarningS_239
 0003:0E6AC23C       aItunerWarningS_240
 0003:0E6AC2C8       aItunerWarningS_241
 0003:0E6AC354       aItunerWarningS_242
 0003:0E6AC3E8       aItunerWarningS_243
 0003:0E6AC468       aItunerWarningS_244
 0003:0E6AC4E4       aItunerWarningS_245
 0003:0E6AC55C       aItunerWarningS_246
 0003:0E6AC5CC       aItunerWarningS_247
 0003:0E6AC63C       aItunerWarningS_248
 0003:0E6AC888       aDspTestCommand
 0003:0E6AC89C       aSysCmdOnOffPri
 0003:0E6AC8D4       aVoutCmdOnOffPr
 0003:0E6AC90C       aEncCmdOnOffPri
 0003:0E6AC948       aDecCmdOnOffPri
 0003:0E6AC984       aVcapCmdOnOffPr
 0003:0E6AC9BC       aIdspCmdOnOffPr
 0003:0E6AC9F4       aJpeginfoOnOffP
 0003:0E6ACA30       aH264infoOnOffP
 0003:0E6ACA6C       aCapinfoOnOffPr
 0003:0E6ACAA0       aVoutvideoOnOff
 0003:0E6ACAD4       aOsdOnOffEnable
 0003:0E6ACB00       aCvbsColorbarOn
 0003:0E6ACB38       aVininfoPrintVi
 0003:0E6ACB60       aWininfoShowAll
 0003:0E6ACB94       aDspinfoShowDsp
 0003:0E6ACBCC       aVoutinfoIdxSho
 0003:0E6ACBFC       aPpinfoShowPpSe
 0003:0E6ACC30       aPreviewinfoIdx
 0003:0E6ACC64       aPwrsavinginfoS
 0003:0E6ACC9C       aPtsOnOffShowPt
 0003:0E6ACCD4       aVinSofOnOffSho
 0003:0E6ACD04       aVinEofOnOffSho
 0003:0E6ACD34       aVideo3ainfoOnO
 0003:0E6ACD60       aStill3ainfoOnO
 0003:0E6ACD8C       aDefCmdBufOnOff
 0003:0E6ACDD8       aVdspCmdBufOnOf
 0003:0E6ACE20       aVcapCmdBufOnOf
 0003:0E6ACE68       aAsyncCmdBufOnO
 0003:0E6ACEB0       aDebugModuleLev
 0003:0E6ACEF0       aModule0CommonU
 0003:0E6ACF3C       a3VideoEncoder4
 0003:0E6ACF9C       aDbgthdThreadMa
 0003:0E6AD008       aSysCmd
 0003:0E6AD010       aDspSysCmdOn
 0003:0E6AD020       aDspSysCmdOff
 0003:0E6AD030       aVoutCmd
 0003:0E6AD03C       aDspVoutCmdOn
 0003:0E6AD04C       aDspVoutCmdOff
 0003:0E6AD060       aEncCmd
 0003:0E6AD068       aDspEncCmdOn
 0003:0E6AD078       aDspEncCmdOff
 0003:0E6AD088       aDecCmd
 0003:0E6AD090       aDspDecCmdOn
 0003:0E6AD0A0       aDspDecCmdOff
 0003:0E6AD0B0       aVcapCmd
 0003:0E6AD0BC       aDspVcapCmdOn
 0003:0E6AD0CC       aDspVcapCmdOff
 0003:0E6AD0E0       aIdspCmd
 0003:0E6AD0EC       aDspIdspCmdOn
 0003:0E6AD0FC       aDspIdspCmdOff
 0003:0E6AD110       aDebug_2
 0003:0E6AD118       aDbgthd
 0003:0E6AD120       aJpeginfo
 0003:0E6AD12C       aDspJpegBitsinf
 0003:0E6AD144       aDspJpegBitsinf_0
 0003:0E6AD15C       aCapinfo
 0003:0E6AD164       aDspStillCaptur
 0003:0E6AD180       aDspStillCaptur_0
 0003:0E6AD19C       aH264info
 0003:0E6AD1A8       aDspH264Bitsinf
 0003:0E6AD1C0       aDspH264Bitsinf_0
 0003:0E6AD1D8       aVdsp
 0003:0E6AD1E0       aVcap
 0003:0E6AD1E8       aMsglog
 0003:0E6AD1F0       aDspMsgLogOn
 0003:0E6AD200       aDspMsgLogOff
 0003:0E6AD210       aVinSof
 0003:0E6AD218       aVinEof
 0003:0E6AD220       aStill3ainfo
 0003:0E6AD22C       aStill3aInfoOn
 0003:0E6AD240       aStill3aInfoOff
 0003:0E6AD254       aVideo3ainfo
 0003:0E6AD260       aRepeatdrop
 0003:0E6AD26C       aRepeatForDropO
 0003:0E6AD280       aRepeatForDropO_0
 0003:0E6AD294       aVininfo
 0003:0E6AD29C       aWininfo
 0003:0E6AD2A4       aVinWinDimensio
 0003:0E6AD2CC       aStartxD_4
 0003:0E6AD2DC       aStartyD_4
 0003:0E6AD2EC       aWidthD_7
 0003:0E6AD2FC       aHeightD_7
 0003:0E6AD30C       aCfaWinDimensio
 0003:0E6AD320       aDummyWinDimens
 0003:0E6AD334       aStartyD_5
 0003:0E6AD344       aActiveWinDimen
 0003:0E6AD35C       aLefttopxF
 0003:0E6AD36C       aLefttopyF
 0003:0E6AD37C       aRightbotxF
 0003:0E6AD38C       aRightbotyF
 0003:0E6AD39C       aMainWinDimensi
 0003:0E6AD3B0       aDspinfo
 0003:0E6AD3B8       aVoutinfo
 0003:0E6AD3C4       aVoutidxShouldB
 0003:0E6AD3E0       aVoutsrc
 0003:0E6AD3E8       aSetVoutSrcToD
 0003:0E6AD3FC       aVoutvideo
 0003:0E6AD408       aEnableVoutVide
 0003:0E6AD41C       aDisableVoutVid
 0003:0E6AD430       aEnableVoutOsd
 0003:0E6AD440       aDisableVoutOsd
 0003:0E6AD454       aCvbsColorbar
 0003:0E6AD464       aEnableCvbsColo
 0003:0E6AD47C       aDisableCvbsCol
 0003:0E6AD494       aPivscrsrc
 0003:0E6AD4A0       aSetPivScrSrcTo
 0003:0E6AD4B8       aPivthmsrc
 0003:0E6AD4C4       aSetPivThmSrcTo
 0003:0E6AD4DC       aPpinfo
 0003:0E6AD4E4       aPreviewinfo
 0003:0E6AD4F0       aPreviewidxShou
 0003:0E6AD514       aPwrsavinginfo
 0003:0E6AD524       aDefCmdBuf
 0003:0E6AD530       aVdspCmdBuf
 0003:0E6AD540       aVcapCmdBuf
 0003:0E6AD550       aAsyncCmdBuf
 0003:0E6AD560       aSystemLogUsage
 0003:0E6AD5A8       aOnOffEnableDis
 0003:0E6AD5E8       aFlushFlushSysl
 0003:0E6AD60C       aInfoShowSyslog
 0003:0E6AD638       aDumpPathSaveSy
 0003:0E6AD668       aShowPrintSyslo
 0003:0E6AD69C       aDumpSystemLogF
 0003:0E6AD6B4       aCanNotCreateS
 0003:0E6AD6C8       aWriteSyslogBuf
 0003:0E6AD6F8       aWriteSyslogBuf_0
 0003:0E6AD72C       aFlush
 0003:0E6AD734       aInfo_2
 0003:0E6AD73C       aSystemLogInfor
 0003:0E6AD754       aSyslogBase0xX
 0003:0E6AD76C       aSyslogLimit0xX
 0003:0E6AD784       aSyslogPtr0xX
 0003:0E6AD79C       aSyslogSize0xX
 0003:0E6AD7B4       aSyslogStateS
 0003:0E6AD7C8       aEnable_3
 0003:0E6AD7D0       aDisable_3
 0003:0E6AD7D8       aDump_0
 0003:0E6AD7E0       aDumpSystemLogS
 0003:0E6AD7F4       aDumpSystemLogF_0
 0003:0E6AD80C       aShow_0
 0003:0E6AD814       aSyslog
 0003:0E6AD81C       aAmbausbSystemS
 0003:0E6AD840       aSUsbPhyIsOffTu
 0003:0E6AD864       aUdcWaitHwInitD
 0003:0E6AD87C       aSCanTWaitUsbDe
 0003:0E6AD8A8       aSUsbDeviceHwIn
 0003:0E6AD8D4       aUsbxSystemMemo
 0003:0E6AD8FC       aUsbxFailedToIn_2
 0003:0E6AD92C       aUsbxUsbxVersio
 0003:0E6AD950       aUsbxDevHasBeen
 0003:0E6AD970       aUsbxDevFailsTo
 0003:0E6AD9B0       aUsbxUsbClassDN
 0003:0E6AD9DC       aFailedToInitUs_3
 0003:0E6ADA10       aFinishInitUsbx_0
 0003:0E6ADA34       aUdcClassReleas
 0003:0E6ADA48       aMscClassReset
 0003:0E6ADA58       aMtpClassReset
 0003:0E6ADA68       aPictClassReset
 0003:0E6ADA7C       aHidClassReset
 0003:0E6ADA8C       aUvcClassReset
 0003:0E6ADA9C       aSimpleClassRes
 0003:0E6ADAB0       aCdcAcmClassRes
 0003:0E6ADAC4       aCdcAcmMultiCla
 0003:0E6ADAE0       aStreamClassRes
 0003:0E6ADAF4       aMixStorageClas
 0003:0E6ADB0C       aWarningNoReset
 0003:0E6ADB3C       aErrorSNoSystem
 0003:0E6ADB6C       aAmbausbSystemS_0
 0003:0E6ADB88       aSNotSupportNow
 0003:0E6ADBD8       aDefaultdevices
 0003:0E6ADBF8       aErrorSCanTAllo
 0003:0E6ADC38       aDefaultdevices_0
 0003:0E6ADC54       aErrorSCanTFree
 0003:0E6ADC80       aUdcVbusCheckTa
 0003:0E6ADC94       aUsbxAlreadyInC
 0003:0E6ADCB0       aErrorSNoSystem_0
 0003:0E6ADCE0       aEnableUsbIsr
 0003:0E6ADCF0       aUsbxAlreadyDis
 0003:0E6ADD0C       aDisableUsbIsr
 0003:0E6ADD1C       aUsbDeviceContr
 0003:0E6ADD40       aUdcVbusTimerIn
 0003:0E6ADD54       aUsbxFailedToCr
 0003:0E6ADD80       aUsbxFailedToCr_0
 0003:0E6ADDB0       aAmbausbdevicev
 0003:0E6ADDCC       aErrorSFailedTo
 0003:0E6ADE04       aAmbausbSystemD
 0003:0E6ADE28       aSNullUsbSystem
 0003:0E6ADE48       aSNullSystemCac
 0003:0E6ADE70       aAmbausbSystemC
 0003:0E6ADE8C       aSNullUsbClassC
 0003:0E6ADEA8       aUxSuccess
 0003:0E6ADEB4       aUxError
 0003:0E6ADEC0       aUxTooManyDevic
 0003:0E6ADED4       aUxMemoryInsuff
 0003:0E6ADEEC       aUxNoTdAvailabl
 0003:0E6ADF00       aUxNoEdAvailabl
 0003:0E6ADF14       aUxSemaphoreErr
 0003:0E6ADF28       aUxThreadError
 0003:0E6ADF38       aUxMutexError
 0003:0E6ADF48       aUxEventError
 0003:0E6ADF58       aUxMemoryCorrup
 0003:0E6ADF6C       aUxMemoryArrayF
 0003:0E6ADF84       aUxTransferStal
 0003:0E6ADF98       aUxTransferNoAn
 0003:0E6ADFB0       aUxTransferErro
 0003:0E6ADFC4       aUxTransferMiss
 0003:0E6ADFE0       aUxTransferNotR
 0003:0E6ADFF8       aUxTransferBusR
 0003:0E6AE010       aUxTransferBuff
 0003:0E6AE02C       aUxTransferAppl
 0003:0E6AE04C       aUxPortResetFai
 0003:0E6AE064       aUxControllerIn
 0003:0E6AE080       aUxNoBandwidthA
 0003:0E6AE09C       aUxDescriptorCo
 0003:0E6AE0B4       aUxOverCurrentC
 0003:0E6AE0D0       aUxDeviceEnumer
 0003:0E6AE0F0       aUxDeviceHandle
 0003:0E6AE10C       aUxConfiguratio
 0003:0E6AE12C       aUxInterfaceHan
 0003:0E6AE148       aUxEndpointHand
 0003:0E6AE164       aUxFunctionNotS
 0003:0E6AE180       aUxControllerUn
 0003:0E6AE198       aUxPortIndexUnk
 0003:0E6AE1B0       aUxNoClassMatch
 0003:0E6AE1C4       aUxHostClassAlr
 0003:0E6AE1E4       aUxHostClassUnk
 0003:0E6AE1FC       aUxConnectionIn
 0003:0E6AE218       aUxHostClassIns
 0003:0E6AE238       aUxTransferTime
 0003:0E6AE24C       aUxBufferOverfl
 0003:0E6AE260       aUxNoAlternateS
 0003:0E6AE278       aUxNoDeviceConn
 0003:0E6AE290       aUnknown_0
 0003:0E6AE298       aUnsupportOwner
 0003:0E6AE2B4       aClass0xXDoNotS
 0003:0E6AE2E0       aClassmscMediar
 0003:0E6AE2F4       aSMaxDataLength
 0003:0E6AE32C       aReadDSectorBut
 0003:0E6AE348       aFailToTakeRead
 0003:0E6AE36C       aSReadDSectorBu
 0003:0E6AE38C       aReadMediaError_0
 0003:0E6AE3AC       aWriteDSectorBu
 0003:0E6AE3C8       aWriteMediaErro_0
 0003:0E6AE3E8       aStatusErrDD
 0003:0E6AE3FC       aDriveDCardIsNo
 0003:0E6AE420       aAmbausbClassMs_0
 0003:0E6AE450       aAmbausbClassMs_1
 0003:0E6AE480       aReadcachethrea
 0003:0E6AE498       aStartReadcache
 0003:0E6AE4B4       aWaitMscCacheRe
 0003:0E6AE4DC       aSSdCardReadIsT
 0003:0E6AE520       aPleaseUseAmbau
 0003:0E6AE57C       aAmbausbClassMs
 0003:0E6AE594       aFailedToInitUs_4
 0003:0E6AE5C4       aFinishInitUsbx_1
 0003:0E6AE5E4       aCreateMscmutex
 0003:0E6AE600       aBulkInBufferSi
 0003:0E6AE630       aFailToCreateRe
 0003:0E6AE658       aFailToClearRea
 0003:0E6AE680       aSFailToCreateS
 0003:0E6AE6C0       aMscReadcacheth
 0003:0E6AE6D4       aSFailToCreateR_1
 0003:0E6AE704       aDeleteMscmutex
 0003:0E6AE720       aFailedToClearU
 0003:0E6AE754       aFinishClearUsb
 0003:0E6AE774       aMtpClassFailTo
 0003:0E6AE7A4       aMtpClassFailTo_0
 0003:0E6AE7D8       aMtpClassFailTo_1
 0003:0E6AE80C       aMtpreadcacheth
 0003:0E6AE824       aSFirstReadFail
 0003:0E6AE840       aSReadFailed
 0003:0E6AE854       aSSdCardReadIsT_0
 0003:0E6AE894       aPleaseUseAmbau_0
 0003:0E6AE8EC       aFailedToRegist
 0003:0E6AE90C       aPimaEntryRegis
 0003:0E6AE930       aFailToCreateRe_0
 0003:0E6AE958       aFailToClearRea_0
 0003:0E6AE97C       aMtpreadcacheTh
 0003:0E6AE990       aFailToCreateRe_1
 0003:0E6AE9B8       aMtpClassStart
 0003:0E6AE9C8       aFailedToTermin
 0003:0E6AE9F0       aFailedToClearM
 0003:0E6AEA14       aFailedToDelete_0
 0003:0E6AEA38       aFailedToDelete_1
 0003:0E6AEA5C       aFailedToClearP
 0003:0E6AEA78       aPimaClassClear
 0003:0E6AEA98       aSNotSupportOpe
 0003:0E6AEABC       aUdcDriverInit
 0003:0E6AEACC       aSCanTAllocateD
 0003:0E6AEAF0       aAmbausbDrvWait
 0003:0E6AEB14       aSCanTGetIsrQue
 0003:0E6AEB44       aSCanTSendIsrRe
 0003:0E6AEB68       aUdcAddIsrOpera
 0003:0E6AEB84       aSTooManyParams
 0003:0E6AEBA0       aAmbausbDrvEndp
 0003:0E6AEBC0       aError_1
 0003:0E6AEBFC       aUsbEndpointPoi
 0003:0E6AEC68       aSLogicalEndpoi
 0003:0E6AEC98       aSReachMaximumE
 0003:0E6AECC0       aAmbausbDrvEndp_0
 0003:0E6AECDC       aSNoMapForLogic
 0003:0E6AED04       aUdcDmaMemoryAl
 0003:0E6AED24       aSCanTAllocateD_0
 0003:0E6AED60       aSCanTAllocateD_1
 0003:0E6AED90       aSNoImplForForI
 0003:0E6AEDBC       aSNoImplForForI_0
 0003:0E6AEDE8       aSTxfifoSizeDOv
 0003:0E6AEE30       aSTxfifoSizeDOv_0
 0003:0E6AEE7C       aSRxfifoSizeDOv
 0003:0E6AEEC4       aUdcDmaMemoryDe
 0003:0E6AEEDC       aSBulkInDescIsN
 0003:0E6AEEF8       aSCanTFree0xXSi
 0003:0E6AEF24       aSBulkOutDescIs
 0003:0E6AEF44       aSInterruptInDe
 0003:0E6AEF68       aEndpointDestro
 0003:0E6AEF98       aResetReleaseSe
 0003:0E6AEFB4       aUdcIsrTaskEntr
 0003:0E6AEFC8       aSCanTReceiveRe
 0003:0E6AEFF0       aClearStallFor0
 0003:0E6AF008       aUsbSetInterfac
 0003:0E6AF02C       aSUnknownOperat
 0003:0E6AF048       aUsbxNoMemForIs
 0003:0E6AF06C       aUsbxUdcIsrQueu
 0003:0E6AF090       aUdcIsrQueue
 0003:0E6AF0A0       aUsbxFailedToCr_1
 0003:0E6AF0C8       aUsbRxMutex
 0003:0E6AF0D8       aUsbxFailedToCr_2
 0003:0E6AF100       aAmbausbIsrtask
 0003:0E6AF110       aFailedToCreate_8
 0003:0E6AF130       aUdcIsrTaskDest
 0003:0E6AF148       aErrorSCanTTerm
 0003:0E6AF174       aErrorSCanTDele
 0003:0E6AF19C       aErrorSCanTDele_0
 0003:0E6AF1C4       aErrorSCanTDele_1
 0003:0E6AF1EC       aUsbxConfigured
 0003:0E6AF214       aUsbxTxBufferPo
 0003:0E6AF244       aAmbausbDrvSetr
 0003:0E6AF25C       aUsbxRxBufferPo
 0003:0E6AF28C       aSDataCountDD
 0003:0E6AF2A8       aUsbxRxfiofioEm
 0003:0E6AF2C4       aUsbxAmbausbDrv
 0003:0E6AF2EC       aAmbausbDrvInit
 0003:0E6AF308       aErrorSCanTInit
 0003:0E6AF338       aUsbxFinishIsrH
 0003:0E6AF358       aFsConfiguratio
 0003:0E6AF378       aHsConfiguratio
 0003:0E6AF398       aWarningTheInte
 0003:0E6AF3F8       aDescriptorChec
 0003:0E6AF410       aSStringContain_0
 0003:0E6AF444       aAmbausbDescrip
 0003:0E6AF464       aWarningUsbStri
 0003:0E6AF4B0       aErrorDescripto_0
 0003:0E6AF4DC       aErrorPositionD
 0003:0E6AF4F8       aDpsClientStart
 0003:0E6AF518       aUsbpictbridget
 0003:0E6AF52C       aFailToInitClas
 0003:0E6AF550       aFailToReleaseD
 0003:0E6AF574       aFailToTerminat
 0003:0E6AF59C       aFailToDeleteCl
 0003:0E6AF5C0       aDeviceInfoSeem
 0003:0E6AF5E0       a1011
 0003:0E6AF5E8       aNullCbFunction
 0003:0E6AF5FC       aStreamInstance
 0003:0E6AF614       aStreamActiveIn
 0003:0E6AF628       aStreamInstance_0
 0003:0E6AF644       aStreamDeactive
 0003:0E6AF65C       aStreamnativeIn
 0003:0E6AF67C       aStreamnativeAc
 0003:0E6AF698       aStreamnativeIn_0
 0003:0E6AF6B8       aStreamnativeDe
 0003:0E6AF6D4       aAmbausbClassSt
 0003:0E6AF6F0       aStreamClass
 0003:0E6AF700       aFinishInitUsbx_2
 0003:0E6AF724       aCreatStreamFla
 0003:0E6AF750       aCreatClassStre
 0003:0E6AF77C       aNativeStreamCl
 0003:0E6AF790       aStreamingFrame
 0003:0E6AF7C8       aAmbausbClassSt_0
 0003:0E6AF7E4       aSFailedToClean_0
 0003:0E6AF808       aSStreamClassCl
 0003:0E6AF824       aNandfsPhysimpl
 0003:0E6AF83C       aKAssertAtSD_8
 0003:0E6AF850       aNandfsCheckfor
 0003:0E6AF864       aNandfsDoinsert
 0003:0E6AF874       aNandfsDoeject
 0003:0E6AF884       aPfUnmountFaile
 0003:0E6AF898       aNandfsCheckmed
 0003:0E6AF8AC       aNandfsDrvinit
 0003:0E6AF8BC       aNandfsDrvtblin
 0003:0E6AF8D0       aNandfsFinalize
 0003:0E6AF8E0       aNandfsMount
 0003:0E6AF8F0       aNandfsUnmount
 0003:0E6AF900       aNandfsFormat
 0003:0E6AF910       aNandfsGetdiski
 0003:0E6AF924       aNandfsInit
 0003:0E6AF930       aPdmOpenDiskFai
 0003:0E6AF948       aPdmOpenPartiti
 0003:0E6AF964       aAmbafsNandform
 0003:0E6AF97C       aPfFormatFailed
 0003:0E6AF990       aBlcCalibration_0
 0003:0E6AF9B4       aBlcCalibration_1
 0003:0E6AF9E4       aBlackvalueDDDD
 0003:0E6AFA00       aBlockwD
 0003:0E6AFA0C       aBlockhD
 0003:0E6AFA18       aRawpitchD
 0003:0E6AFA28       aRawwidthD
 0003:0E6AFA38       aRawheightD
 0003:0E6AFA48       aUpperthreshold
 0003:0E6AFA5C       aLowerthreshold
 0003:0E6AFA70       aOboffsetD
 0003:0E6AFA80       aAlgotypeD
 0003:0E6AFA90       aNgVarianceD
 0003:0E6AFAAC       aFpnIaHwConvBpc
 0003:0E6AFACC       aFpnIaHwConvBuf
 0003:0E6AFAF4       aFpnIaHwConvMag
 0003:0E6AFB1C       aFpnIaHwConvBad
 0003:0E6AFB54       aFpnIaHwConvBad_0
 0003:0E6AFB9C       aFpnIaHwConvBad_1
 0003:0E6AFBD0       aFpnIaHwConvBad_2
 0003:0E6AFC20       aFpnIaHwConvBad_3
 0003:0E6AFC74       aFpnIaHwConvBuf_0
 0003:0E6AFCC4       aBpcMode_0
 0003:0E6AFCD8       aBadcountD
 0003:0E6AFCE8       aFpnDecompresse
 0003:0E6AFD24       aFpnIaUnpackedS
 0003:0E6AFD64       aNgForDarkCorne
 0003:0E6AFD80       aAmpcalibVigcal
 0003:0E6AFDA0       aRawaddrXCapwDC
 0003:0E6AFDC0       aBlcBlackrD
 0003:0E6AFDD0       aErrorUnknownBa
 0003:0E6AFDF0       aKAssertAtSD_24
 0003:0E6AFE04       aChannelDDMaxDM
 0003:0E6AFE24       aErrRawDataMaxV
 0003:0E6AFE98       aErrRawDataMinV
 0003:0E6AFEC8       aMaxShadingRati
 0003:0E6AFEE0       aRGainDBGainDWb
 0003:0E6AFF08       aCalibrationFai
 0003:0E6AFF3C       aWarpToolAmbaca
 0003:0E6AFF70       aNotFoundInterv_0
 0003:0E6AFFA4       aNotFoundInterv_1
 0003:0E6AFFC4       aDeterminantAF
 0003:0E6AFFD8       aDeterminant0No
 0003:0E6AFFF8       aInverceDDF
 0003:0E6B0010       aChDDF
 0003:0E6B0020       aOutputU0FF
 0003:0E6B0034       aInputX0FF
 0003:0E6B0048       aOutputU1FF
 0003:0E6B005C       aInputX1FF
 0003:0E6B0070       aOutputU2FF
 0003:0E6B0084       aInputX2FF
 0003:0E6B0098       aOutputU3FF
 0003:0E6B00AC       aInputX3FF
 0003:0E6B00C0       aHDDF
 0003:0E6B00D0       aWarpToolAmbaca_0
 0003:0E6B0104       aPointRawDXFPoi
 0003:0E6B0130       aPointInputDXFP
 0003:0E6B0160       aPointOutputDXF
 0003:0E6B0190       aNotFoundInterv_2
 0003:0E6B01C0       aWbCalNotSuppor
 0003:0E6B01DC       aUser26
 0003:0E6B01E4       aFiq26
 0003:0E6B01EC       aIrq26
 0003:0E6B01F4       aSvc26
 0003:0E6B01FC       aUk426
 0003:0E6B0204       aUk526
 0003:0E6B020C       aUk626
 0003:0E6B0214       aUk726
 0003:0E6B021C       aUk826
 0003:0E6B0224       aUk926
 0003:0E6B022C       aUk1026
 0003:0E6B0234       aUk1126
 0003:0E6B023C       aUk1226
 0003:0E6B0244       aUk1326
 0003:0E6B024C       aUk1426
 0003:0E6B0254       aUk1526
 0003:0E6B025C       aUser32
 0003:0E6B0264       aFiq32
 0003:0E6B026C       aIrq32
 0003:0E6B0274       aSvc32
 0003:0E6B027C       aUk432
 0003:0E6B0284       aUk532
 0003:0E6B028C       aUk632
 0003:0E6B0294       aAbt32
 0003:0E6B029C       aUk832
 0003:0E6B02A4       aUk932
 0003:0E6B02AC       aUk1032
 0003:0E6B02B4       aUnd32
 0003:0E6B02BC       aUk1232
 0003:0E6B02C4       aUk1332
 0003:0E6B02CC       aUk1432
 0003:0E6B02D4       aSys32
 0003:0E6B02DC       aArmUndefinedIn
 0003:0E6B0308       aArmPrefetchExc
 0003:0E6B0328       aArmDataAbortEx
 0003:0E6B034C       aOopsCpuExcepti
 0003:0E6B0364       aPc08lxLr08lx
 0003:0E6B0388       aSp08lxIp08lxFp
 0003:0E6B03AC       aR1008lxR908lxR
 0003:0E6B03D0       aR708lxR608lxR5
 0003:0E6B03F4       aR408lxR308lxR2
 0003:0E6B0418       aR108lxR008lx
 0003:0E6B0430       aFlagsCCCC
 0003:0E6B0440       aIrqsSFiqsSMode
 0003:0E6B045C       aT
 0003:0E6B0464       aRoottask
 0003:0E6B04A0       aCmdCode0xX_6
 0003:0E6B04C0       aSensorInputSet
 0003:0E6B04D8       aCmdCode0xX
 0003:0E6B04F4       aSensorId0xX
 0003:0E6B0510       aFieldFormat0xX
 0003:0E6B052C       aSensorResoluti
 0003:0E6B0548       aSensorPattern0
 0003:0E6B0564       aFirstLineField
 0003:0E6B0580       aFirstLineField_0
 0003:0E6B059C       aFirstLineField_1
 0003:0E6B05B8       aFirstLineField_2
 0003:0E6B05D4       aFirstLineField_3
 0003:0E6B05F0       aFirstLineField_4
 0003:0E6B060C       aFirstLineField_5
 0003:0E6B0628       aFirstLineField_6
 0003:0E6B0644       aSensorReadoutM
 0003:0E6B0660       aCmdCode0xX_9
 0003:0E6B0678       aEnable0xX_5
 0003:0E6B0690       aFixedPatternNo
 0003:0E6B06B4       aCmdCode0xX_0
 0003:0E6B06D8       aFpnPixelMode0x
 0003:0E6B06FC       aRowGainEnable0
 0003:0E6B0720       aColumnGainEnab
 0003:0E6B0744       aNumOfRows0xX
 0003:0E6B0768       aNumOfCols0xX
 0003:0E6B078C       aFpnPitch0xX
 0003:0E6B07B0       aFpnPixelsAddr0
 0003:0E6B07D4       aFpnPixelsBufSi
 0003:0E6B07F8       aInterceptShift
 0003:0E6B081C       aInterceptsAndS
 0003:0E6B0840       aRowGainAddr0xX
 0003:0E6B0864       aColumnGainAddr
 0003:0E6B0888       aCfaDomainLeaka
 0003:0E6B08A8       aCmdCode0xX_1
 0003:0E6B08C4       aEnable0xX
 0003:0E6B08E0       aAlphaRr0xX
 0003:0E6B08FC       aAlphaRb0xX
 0003:0E6B0918       aAlphaBr0xX
 0003:0E6B0934       aAlphaBb0xX
 0003:0E6B0950       aSaturationLeve
 0003:0E6B096C       aAntiAliasingCm
 0003:0E6B0980       aCmdCode0xX_2
 0003:0E6B0994       aEnable0xX_0
 0003:0E6B09A8       aThreshold0xX
 0003:0E6B09BC       aShift0xX
 0003:0E6B09D0       aSetVinConfigCm
 0003:0E6B09E4       aCmdCode0xX_3
 0003:0E6B0A04       aVinWidthU
 0003:0E6B0A20       aVinHeightU
 0003:0E6B0A3C       aVinConfigDramA
 0003:0E6B0A5C       aConfigDataSize
 0003:0E6B0A78       aSensorResoluti_0
 0003:0E6B0A98       aSensorBayerPat
 0003:0E6B0AB8       aVinSetDly0xX
 0003:0E6B0AD8       aVinEnhanceMode
 0003:0E6B0AF8       aVinPanasonicMo
 0003:0E6B0B18       aVinConfigData
 0003:0E6B0B2C       a08x08x08x08x
 0003:0E6B0B44       aCmdCode0xX_17
 0003:0E6B0B70       aBlackLevelGlob
 0003:0E6B0B90       aGlobalOffsetEe
 0003:0E6B0BB4       aGlobalOffsetEo
 0003:0E6B0BD8       aGlobalOffsetOe
 0003:0E6B0BFC       aGlobalOffsetOo
 0003:0E6B0C20       aBlackLevelOffs
 0003:0E6B0C44       aBlackLevelOffs_0
 0003:0E6B0C68       aBlackLevelOffs_1
 0003:0E6B0C8C       aGainDepedentOf
 0003:0E6B0CB0       aGainDepedentOf_0
 0003:0E6B0CD4       aGainDepedentOf_1
 0003:0E6B0CF8       aDefBlk1Red0xX
 0003:0E6B0D1C       aDefBlk1Green0x
 0003:0E6B0D40       aDefBlk1Blue0xX
 0003:0E6B0D64       aBayerPattern0x
 0003:0E6B0D88       aCmdCode0xX_5
 0003:0E6B0DAC       aRgbGainAdjustm
 0003:0E6B0DC4       aCmdCode0xX_4
 0003:0E6B0DD8       aRGain0xX
 0003:0E6B0DEC       aGEvenGain0xX
 0003:0E6B0E00       aGOddGain0xX
 0003:0E6B0E14       aBGain0xX
 0003:0E6B0E28       aDigitalGainSat
 0003:0E6B0E4C       aLevelRed0xX
 0003:0E6B0E68       aLevelGreenEven
 0003:0E6B0E84       aLevelGreenOdd0
 0003:0E6B0EA0       aLevelBlue0xX
 0003:0E6B0EBC       aVignetteCompen
 0003:0E6B0ED8       aEnable0xX_1
 0003:0E6B0EFC       aGainShift0xX
 0003:0E6B0F20       aTileGainAddr0x
 0003:0E6B0F44       aTileGainAddrGr
 0003:0E6B0F68       aTileGainAddrGr_0
 0003:0E6B0F8C       aTileGainAddrBl
 0003:0E6B0FB0       aLocalExposureC
 0003:0E6B0FC4       aGroupIndex0xX
 0003:0E6B0FE4       aEnable0xX_2
 0003:0E6B1004       aRadius0xX
 0003:0E6B1024       aLumaWeightRed0
 0003:0E6B1044       aLumaWeightGree
 0003:0E6B1064       aLumaWeightBlue
 0003:0E6B1084       aLumaWeightSumS
 0003:0E6B10A4       aGainCurveTable
 0003:0E6B10C4       aLumaOffset0xX
 0003:0E6B10E4       aColorCorrectio
 0003:0E6B10FC       aNoInterpolatio
 0003:0E6B111C       aYuv422Foramt0x
 0003:0E6B113C       aUvCenter0xX
 0003:0E6B115C       aMultiRed0xX
 0003:0E6B117C       aMultiGreen0xX
 0003:0E6B119C       aMultiBlue0xX
 0003:0E6B11BC       aInLookupTableA
 0003:0E6B11DC       aMatrixAddr0xX
 0003:0E6B11FC       aOutputLookupBy
 0003:0E6B121C       aOutLookupTable
 0003:0E6B123C       aRgbToYuvSetupC
 0003:0E6B1254       aGroupIndex0xX_0
 0003:0E6B1270       aMatrixValuesU0
 0003:0E6B128C       aYOffsetD
 0003:0E6B12A4       aUOffsetD
 0003:0E6B12BC       aVOffsetD
 0003:0E6B12D4       aChromaScaleCmd
 0003:0E6B12E8       aMakeLegal0xX
 0003:0E6B1304       aUWeight0D
 0003:0E6B131C       aUWeight1D
 0003:0E6B1334       aUWeight2D
 0003:0E6B134C       aVWeight0D
 0003:0E6B1364       aVWeight1D
 0003:0E6B137C       aVWeight2D
 0003:0E6B1394       aGainCurverAddr
 0003:0E6B13B0       aBadPixelCorrec
 0003:0E6B13CC       aCmdCode0xX_7
 0003:0E6B13F8       aDynamicBadPixe
 0003:0E6B1424       aDynamicBadPixe_0
 0003:0E6B1450       aCorrectionMode
 0003:0E6B147C       aHotPixelThresh
 0003:0E6B14A8       aDarkPixelThres
 0003:0E6B14D4       aHotShift040xX
 0003:0E6B1500       aHotShift50xX
 0003:0E6B152C       aDarkShift040xX
 0003:0E6B1558       aDarkShift50xX
 0003:0E6B1584       aCfaNoiseFilter
 0003:0E6B159C       aEnable0xX_3
 0003:0E6B15B8       aMode0xX
 0003:0E6B15D4       aShiftCoarseRin
 0003:0E6B15F0       aShiftCoarseRin_0
 0003:0E6B160C       aShiftFineRing1
 0003:0E6B1628       aShiftFineRing2
 0003:0E6B1644       aShiftCenterRed
 0003:0E6B1660       aShiftCenterGre
 0003:0E6B167C       aShiftCenterBlu
 0003:0E6B1698       aTargetCoarseRe
 0003:0E6B16B4       aTargetCoarseGr
 0003:0E6B16D0       aTargetCoarseBl
 0003:0E6B16EC       aTargetFineRed0
 0003:0E6B1708       aTargetFineGree
 0003:0E6B1724       aTargetFineBlue
 0003:0E6B1740       aCutoffRed0xX
 0003:0E6B175C       aCutoffGreen0xX
 0003:0E6B1778       aCutoffBlue0xX
 0003:0E6B1794       aThreshCoarseRe
 0003:0E6B17B0       aThreshCoarseGr
 0003:0E6B17CC       aThreshCoarseBl
 0003:0E6B17E8       aThreshFineRed0
 0003:0E6B1804       aThreshFineGree
 0003:0E6B1820       aThreshFineBlue
 0003:0E6B183C       aDemoasicFilter
 0003:0E6B1850       aCmdCode0xX_8
 0003:0E6B1874       aEnableCorrecti
 0003:0E6B1898       aGrgbMismatchWi
 0003:0E6B18BC       aGrgbMismatchRe
 0003:0E6B18E0       aGroupIndex0xX_1
 0003:0E6B190C       aEnable0xX_4
 0003:0E6B1938       aClampDirection
 0003:0E6B1964       aActivityThresh
 0003:0E6B1990       aActivityDiffer
 0003:0E6B19BC       aGradClipThresh
 0003:0E6B19E8       aGradNoiseThres
 0003:0E6B1A14       aGradNoiseDiffe
 0003:0E6B1A40       aZipperNoiseDif
 0003:0E6B1A6C       aZipperNoiseDif_0
 0003:0E6B1A98       aMaxConstHueFac
 0003:0E6B1AC4       aChromaNoiseFil
 0003:0E6B1ADC       aRadius0xX_0
 0003:0E6B1AF4       aMode0xX_0
 0003:0E6B1B0C       aThreshU0xX
 0003:0E6B1B24       aThreshV0xX
 0003:0E6B1B3C       aShiftCenterU0x
 0003:0E6B1B54       aShiftCenterV0x
 0003:0E6B1B6C       aShiftRing10xX
 0003:0E6B1B84       aShiftRing20xX
 0003:0E6B1B9C       aTargetU0xX
 0003:0E6B1BB4       aTargetV0xX
 0003:0E6B1BCC       aChromaMedianFi
 0003:0E6B1BE8       aK0123TableAddr
 0003:0E6B1C04       aUSatT00xX
 0003:0E6B1C20       aUSatT10xX
 0003:0E6B1C3C       aVSatT00xX
 0003:0E6B1C58       aVSatT10xX
 0003:0E6B1C74       aUActT00xX
 0003:0E6B1C90       aUActT10xX
 0003:0E6B1CAC       aVActT00xX
 0003:0E6B1CC8       aVActT10xX
 0003:0E6B1CE4       aLumaSharpening
 0003:0E6B1CF8       aCmdCode0xX_10
 0003:0E6B1D20       aGroupIndex0xX_2
 0003:0E6B1D48       aEnable0xX_6
 0003:0E6B1D70       aUseGeneratedLo
 0003:0E6B1D98       aInputBEnable0x
 0003:0E6B1DC0       aInputCEnable0x
 0003:0E6B1DE8       aFirsInputFromB
 0003:0E6B1E10       aCoring1InputFr
 0003:0E6B1E38       aAbs0xX
 0003:0E6B1E60       aYuv0xX
 0003:0E6B1E88       aClipLow0xX
 0003:0E6B1EB0       aClipHigh0xX
 0003:0E6B1ED8       aMaxChangeDown0
 0003:0E6B1F00       aMaxChangeUp0xX
 0003:0E6B1F28       aMaxChangeDownC
 0003:0E6B1F50       aMaxChangeUpCen
 0003:0E6B1F78       aGradThresh00xX
 0003:0E6B1FA0       aGradThresh10xX
 0003:0E6B1FC8       aSmoothShift0xX
 0003:0E6B1FF0       aEdgeShift0xX
 0003:0E6B2018       aAlphaTableAddr
 0003:0E6B2040       aWideWeight0xX
 0003:0E6B2068       aNarrowWeight0x
 0003:0E6B2090       aEdgeThresholdM
 0003:0E6B20B8       aEdgeThresh0xX
 0003:0E6B20E0       aLumaSharpening_0
 0003:0E6B2100       aCmdCode0xX_11
 0003:0E6B211C       aGroupIndex0xX_3
 0003:0E6B2138       aEnableFir10xX
 0003:0E6B2154       aEnableFir20xX
 0003:0E6B2170       aAddInNonAlpha1
 0003:0E6B218C       aAddInAlpha10xX
 0003:0E6B21A8       aAddInAlpha20xX
 0003:0E6B21C4       aFir1ClipLow0xX
 0003:0E6B21E0       aFir1ClipHigh0x
 0003:0E6B21FC       aFir2ClipLow0xX
 0003:0E6B2218       aFir2ClipHigh0x
 0003:0E6B2234       aCoeffFir1Addr0
 0003:0E6B2250       aCoeffFir2Addr0
 0003:0E6B226C       aCoringTableAdd
 0003:0E6B2288       aLumaSharpening_1
 0003:0E6B22A0       aCmdCode0xX_12
 0003:0E6B22CC       aGroupIndex0xX_4
 0003:0E6B22F8       aEnable0xX_7
 0003:0E6B2324       aOutputNormalLu
 0003:0E6B2350       aOutputLowNoise
 0003:0E6B237C       aInputWeightRed
 0003:0E6B23A8       aInputWeightGre
 0003:0E6B23D4       aInputWeightBlu
 0003:0E6B2400       aInputShiftRed0
 0003:0E6B242C       aInputShiftGree
 0003:0E6B2458       aInputShiftBlue
 0003:0E6B2484       aInputClipRed0x
 0003:0E6B24B0       aInputClipGreen
 0003:0E6B24DC       aInputClipBlue0
 0003:0E6B2508       aInputOffsetRed
 0003:0E6B2534       aInputOffsetGre
 0003:0E6B2560       aInputOffsetBlu
 0003:0E6B258C       aOutputNormalLu_0
 0003:0E6B25B8       aOutputNormalLu_1
 0003:0E6B25E4       aOutputNormalLu_2
 0003:0E6B2610       aOutputLowNoise_0
 0003:0E6B263C       aOutputLowNoise_1
 0003:0E6B2668       aOutputLowNoise_2
 0003:0E6B2694       aOutputCombinat
 0003:0E6B26C0       aOutputCombinat_0
 0003:0E6B26EC       aToneCurveAddr0
 0003:0E6B2718       aPlumasharpenin
 0003:0E6B2734       aCmdCode0xX_13
 0003:0E6B275C       aGroupIndex0xX_5
 0003:0E6B2784       aShiftY0xX
 0003:0E6B27AC       aShiftU0xX
 0003:0E6B27D4       aShiftV0xX
 0003:0E6B27FC       aOffsetY0xX
 0003:0E6B2824       aOffsetU0xX
 0003:0E6B284C       aOffsetV0xX
 0003:0E6B2874       aBitsU0xX
 0003:0E6B289C       aBitsV0xX
 0003:0E6B28C4       aToneBased3dLev
 0003:0E6B28EC       aLumaSharpening_2
 0003:0E6B2910       aGroupIndex0xX_6
 0003:0E6B2934       aEdgeThresholdM_0
 0003:0E6B2958       aIsoThresholdMu
 0003:0E6B297C       aEdgeThreshold0
 0003:0E6B29A0       aEdgeThreshold1
 0003:0E6B29C4       aDirThreshold00
 0003:0E6B29E8       aDirThreshold10
 0003:0E6B2A0C       aIsoThreshold00
 0003:0E6B2A30       aIsoThreshold10
 0003:0E6B2A54       aLumaSharpening_3
 0003:0E6B2A78       aCmdCode0xX_14
 0003:0E6B2A9C       aGroupIndex0xX_7
 0003:0E6B2AC0       aSelect0xX
 0003:0E6B2AE4       aLow0xX
 0003:0E6B2B08       aLow00xX
 0003:0E6B2B2C       aLowDelta0xX
 0003:0E6B2B50       aLowVal0xX
 0003:0E6B2B74       aHigh0xX
 0003:0E6B2B98       aHigh00xX
 0003:0E6B2BBC       aHighDelta0xX
 0003:0E6B2BE0       aHighVal0xX
 0003:0E6B2C04       aBaseVal0xX
 0003:0E6B2C28       aArea0xX
 0003:0E6B2C4C       aLevelControlCl
 0003:0E6B2C70       aLevelControlCl_0
 0003:0E6B2C94       aLevelControlCl_1
 0003:0E6B2CB8       aLevelControlCl_2
 0003:0E6B2CDC       aAaaStatisticsS
 0003:0E6B2CF8       aCmdCode0xX_15
 0003:0E6B2D18       aOn0xX
 0003:0E6B2D38       aAutoShift0xX
 0003:0E6B2D58       aDataFifoBase0x
 0003:0E6B2D78       aDataFifoLimit0
 0003:0E6B2D98       aDataFifo2Base0
 0003:0E6B2DB8       aDataFifo2Limit
 0003:0E6B2DD8       aAwbTileNumColU
 0003:0E6B2DF8       aAwbTileNumRowU
 0003:0E6B2E18       aAwbTileColStar
 0003:0E6B2E38       aAwbTileRowStar
 0003:0E6B2E58       aAwbTileWidthU
 0003:0E6B2E78       aAwbTileHeightU
 0003:0E6B2E98       aAwbTileActiveW
 0003:0E6B2EB8       aAwbTileActiveH
 0003:0E6B2ED8       aAwbPixMinValue
 0003:0E6B2EF8       aAwbPixMaxValue
 0003:0E6B2F18       aAeTileNumColU
 0003:0E6B2F38       aAeTileNumRowU
 0003:0E6B2F58       aAeTileColStart
 0003:0E6B2F78       aAeTileRowStart
 0003:0E6B2F98       aAeTileWidthU
 0003:0E6B2FB8       aAeTileHeightU
 0003:0E6B2FD8       aAePixMinValueU
 0003:0E6B2FF8       aAePixMaxValueU
 0003:0E6B3018       aAfTileNumColU
 0003:0E6B3038       aAfTileNumRowU
 0003:0E6B3058       aAfTileColStart
 0003:0E6B3078       aAfTileRowStart
 0003:0E6B3098       aAfTileWidthU
 0003:0E6B30B8       aAfTileHeightU
 0003:0E6B30D8       aAfTileActiveWi
 0003:0E6B30F8       aAfTileActiveHe
 0003:0E6B3118       aAaaPseudoYSetu
 0003:0E6B3130       aCmdCode0xX_16
 0003:0E6B3148       aMode0xX_1
 0003:0E6B3160       aSumShift0xX
 0003:0E6B3178       aPixelWeightU0x
 0003:0E6B3194       aToneCurveU0xX
 0003:0E6B31AC       aAaaStatisticsS_0
 0003:0E6B31C8       aAfHorizontalFi
 0003:0E6B31F4       aAfFilter1Selec
 0003:0E6B3220       aAfHorizontalFi_0
 0003:0E6B324C       aAfHorizontalFi_1
 0003:0E6B3278       aAfHorizontalFi_2
 0003:0E6B32A4       aAfHorizontalFi_3
 0003:0E6B32D0       aAfHorizontalFi_4
 0003:0E6B32FC       aAfHorizontalFi_5
 0003:0E6B3328       aAfHorizontalFi_6
 0003:0E6B3354       aAfVerticalFilt
 0003:0E6B3380       aAfTileFv1Horiz
 0003:0E6B33AC       aAfTileFv1Verti
 0003:0E6B33D8       aAfTileFv1Horiz_0
 0003:0E6B3404       aAfTileFv1Verti_0
 0003:0E6B3430       aAaaStatisticsS_1
 0003:0E6B344C       aAfHorizontalFi_7
 0003:0E6B3478       aAfFilter2Selec
 0003:0E6B34A4       aAfHorizontalFi_8
 0003:0E6B34D0       aAfHorizontalFi_9
 0003:0E6B34FC       aAfHorizontalFi_10
 0003:0E6B3528       aAfHorizontalFi_11
 0003:0E6B3554       aAfHorizontalFi_12
 0003:0E6B3580       aAfHorizontalFi_13
 0003:0E6B35AC       aAfHorizontalFi_14
 0003:0E6B35D8       aAfVerticalFilt_0
 0003:0E6B3604       aAfTileFv2Horiz
 0003:0E6B3630       aAfTileFv2Verti
 0003:0E6B365C       aAfTileFv2Horiz_0
 0003:0E6B3688       aAfTileFv2Verti_0
 0003:0E6B36B4       aAaaEarlyWbGain
 0003:0E6B36CC       aRedMultiplier0
 0003:0E6B36F0       aGreenMultiplie
 0003:0E6B3714       aGreenMultiplie_0
 0003:0E6B3738       aBlueMultiplier
 0003:0E6B375C       aEnableAeWbGain
 0003:0E6B3780       aEnableAfWbGain
 0003:0E6B37A4       aEnableHistogra
 0003:0E6B37C8       aRedWbMultiplie
 0003:0E6B37EC       aGreenWbMultipl
 0003:0E6B3810       aGreenWbMultipl_0
 0003:0E6B3834       aBlueWbMultipli
 0003:0E6B3858       aAaaFloatingTil
 0003:0E6B3878       aFrameSyncId0xX
 0003:0E6B389C       aNumberOfTiles0
 0003:0E6B38C0       aFloatingTileCo
 0003:0E6B38E4       aSetWarpControl
 0003:0E6B38FC       aCmdCode0xX_18
 0003:0E6B392C       aWarpControl0xX
 0003:0E6B395C       aWarpHorizontal
 0003:0E6B398C       aWarpVerticalTa
 0003:0E6B39BC       aActualLeftTopX
 0003:0E6B39E8       aActualLeftTopY
 0003:0E6B3A14       aActualRightBot
 0003:0E6B3A40       aActualRightBot_0
 0003:0E6B3A6C       aZoomX0xX
 0003:0E6B3A9C       aZoomY0xX
 0003:0E6B3ACC       aXCenterOffsetU
 0003:0E6B3AF8       aYCenterOffsetU
 0003:0E6B3B24       aGridArrayWidth
 0003:0E6B3B50       aGridArrayHeigh
 0003:0E6B3B7C       aHorzGridSpacin
 0003:0E6B3BAC       aVertGridSpacin
 0003:0E6B3BDC       aVertWarpEnable
 0003:0E6B3C0C       aVertWarpGridAr
 0003:0E6B3C38       aVertWarpGridAr_0
 0003:0E6B3C64       aVertWarpHorzGr
 0003:0E6B3C94       aVertWarpVertGr
 0003:0E6B3CC4       aForceV4tapDisa
 0003:0E6B3CF4       aHorSkewPhaseIn
 0003:0E6B3D20       aDummyWindowXLe
 0003:0E6B3D4C       aDummyWindowYTo
 0003:0E6B3D78       aDummyWindowWid
 0003:0E6B3DA4       aDummyWindowHei
 0003:0E6B3DD0       aCfaOutputWidth
 0003:0E6B3DFC       aCfaOutputHeigh
 0003:0E6B3E28       aExtraSec2VertO
 0003:0E6B3E58       aChromaticAberr
 0003:0E6B3E80       aHorzWarpEnable
 0003:0E6B3EB0       aHorzPassGridAr
 0003:0E6B3EDC       aHorzPassGridAr_0
 0003:0E6B3F08       aHorzPassHorzGr
 0003:0E6B3F38       aHorzPassVertGr
 0003:0E6B3F68       aVertPassGridAr
 0003:0E6B3F94       aVertPassGridAr_0
 0003:0E6B3FC0       aVertPassHorzGr
 0003:0E6B3FF0       aVertPassVertGr
 0003:0E6B4020       aRedScaleFactor
 0003:0E6B4050       aBlueScaleFacto
 0003:0E6B4080       aDumpIdspConfig
 0003:0E6B4098       aDramAddr0xX
 0003:0E6B40AC       aDramSizeU
 0003:0E6B40BC       aMode0xX_2
 0003:0E6B40D0       aBatchCmdSeqNum
 0003:0E6B4104       aProcessIdspBat
 0003:0E6B411C       aIdspCmdBufAddr
 0003:0E6B4138       aCmdBufSizeU
 0003:0E6B4150       aBatchCmdSeqNum_0
 0003:0E6B417C       aProcessIdspBat_0
 0003:0E6B419C       aChannelId0xX
 0003:0E6B41B8       aStreamType0xX
 0003:0E6B41D4       aBatchCmdSeqNum_1
 0003:0E6B41EC       aErrorDspImgcor
 0003:0E6B4230       aErrorDspImgcor_0
 0003:0E6B4278       aShutterLineSea
 0003:0E6B4298       aShutterLineSea_0
 0003:0E6B42BC       aSensorStatusFp
 0003:0E6B42EC       aFlickerRate50h
 0003:0E6B430C       aFlickerRate60h
 0003:0E6B432C       aAeAlgorithmIni
 0003:0E6B4358       aFrameRate3d
 0003:0E6B4378       aAeInitEvTableN
 0003:0E6B4390       aSUnitAgcIdxDIs
 0003:0E6B43EC       aHalfVideoFrame
 0003:0E6B449C       aFullVideoFrame
 0003:0E6B4838       aAeInitIntercha
 0003:0E6B4864       aNoSupperThisIn
 0003:0E6B4898       aAeMaxAgcDbErro
 0003:0E6B48BC       aMaxAgcDbDDDDDD
 0003:0E6B48EC       aMaxDgainDbDDDD
 0003:0E6B4920       aVideoNo5d
 0003:0E6B4930       aAeLumaStat5dAe
 0003:0E6B49A4       aAeControl2Init
 0003:0E6B49BC       aAeAlgorithmIni_0
 0003:0E6B49FC       a1111AeAlgorith
 0003:0E6B4A30       aSSceneModeD
 0003:0E6B4A48       aEvIndex5dNfInd
 0003:0E6B4A8C       aMainFps5dAgcIn
 0003:0E6B4AD0       aAmbaAeLibRevis
 0003:0E6B4AF8       aVinChgNormal
 0003:0E6B4B18       aVinChgFast
 0003:0E6B4B34       aVinChgFlocked
 0003:0E6B4B54       aAdjAeawbValueO
 0003:0E6B4BE4       aAutoKnee5d
 0003:0E6B4BFC       aDoNotNeedToDoA
 0003:0E6B4C34       aAntiFlickerDet
 0003:0E6B4C60       aAntiFlickerIsD
 0003:0E6B4C8C       aAntiFlickerDhz
 0003:0E6B4CB0       aEnableAntiFlic
 0003:0E6B4CDC       aCanTDoAntiFlic
 0003:0E6B4D0C       aDisableAntiFli
 0003:0E6B4D38       aFocusDistance5
 0003:0E6B4D70       aStillFlashPost
 0003:0E6B4D98       aStillPost
 0003:0E6B4DB8       aStillNormal
 0003:0E6B4DDC       aStillTargetDSt
 0003:0E6B4E08       aShotCountD
 0003:0E6B4E1C       aStillLumaIdxD
 0003:0E6B4E38       aEnablePreFlash
 0003:0E6B4E50       aEvIndex5dNfInd_0
 0003:0E6B4E9C       aStillCurrEvidx
 0003:0E6B4EBC       aAeCurrStepDTar
 0003:0E6B4EF4       aEvIndex5dAeTar
 0003:0E6B4F38       aEvIndex5dNfInd_1
 0003:0E6B4F98       aPostEvIndex5dN
 0003:0E6B4FFC       aVinNumDLvNoD
 0003:0E6B5018       aVinNumDLvD
 0003:0E6B5030       aVideoAeMode5dE
 0003:0E6B50A8       aStillAeMode5dE
 0003:0E6B5120       aLumaIdxDEvInde
 0003:0E6B5140       aCurrentOutdoor
 0003:0E6B5160       aLvD
 0003:0E6B516C       a6d6d6d6d6d6d6d
 0003:0E6B5194       aIsoCal
 0003:0E6B519C       aVideo_1
 0003:0E6B51A4       aStill_0
 0003:0E6B51AC       aInfo
 0003:0E6B51B4       aLuma
 0003:0E6B51BC       aStillIso
 0003:0E6B51C8       aStillShutter
 0003:0E6B51D8       aStillIris
 0003:0E6B51E4       a6d6d6d6d
 0003:0E6B51FC       aAaee
 0003:0E6B5204       aTImgprocAeVide
 0003:0E6B5234       aTImgprocAeStil
 0003:0E6B5264       aTImgprocAeInfo
 0003:0E6B5298       aTImgprocAeOnOf
 0003:0E6B52C4       aTImgprocAeLuma
 0003:0E6B5300       aTImgprocAeExpI
 0003:0E6B5348       aMode0Iso
 0003:0E6B5398       aTImgprocAeStil_0
 0003:0E6B53C4       aTImgprocAeStil_1
 0003:0E6B53F8       aTImgprocAeStil_2
 0003:0E6B5424       aAmbaimgprocIni
 0003:0E6B5444       aSImgparamInitE
 0003:0E6B5468       aNoThisAdjTable
 0003:0E6B5484       aAmbaimgAdjtask
 0003:0E6B54A0       aSDRval0xXD_1
 0003:0E6B54BC       aAmbaimgAdjtask_0
 0003:0E6B54CC       aSS_1
 0003:0E6B54D8       aAdjipfunctmpAd
 0003:0E6B54F4       aAmbaimgAdjtask_1
 0003:0E6B551C       aAmbaimgadjctrl
 0003:0E6B5534       aAmbaimgAetaskM
 0003:0E6B5550       aSDRval0xXD
 0003:0E6B556C       aAmbaimgAetask
 0003:0E6B557C       aSS
 0003:0E6B5588       aAeipfunctmpAeC
 0003:0E6B55A4       aAmbaimgaectrlt
 0003:0E6B55BC       aAmbaimgAwbtask
 0003:0E6B55D8       aSDRval0xXD_0
 0003:0E6B55F4       aAmbaimgAwbtask_0
 0003:0E6B5604       aSS_0
 0003:0E6B5610       aAwbipfunctmpAw
 0003:0E6B562C       aAmbaimgAwbtask_1
 0003:0E6B5654       aAmbaimgawbctrl
 0003:0E6B566C       aStillBasicCont
 0003:0E6B5684       aBadPixel5d5d5d
 0003:0E6B56A0       aAntialiasingst_0
 0003:0E6B56BC       aGbgrmismatch5d_0
 0003:0E6B56DC       aChromamedian5d
 0003:0E6B5704       aDemosaic5d5d5d
 0003:0E6B5730       aChromaFilter5d
 0003:0E6B5754       aCdnrmode5dCdnr
 0003:0E6B5774       aShpaselect5d
 0003:0E6B5784       aSharpena
 0003:0E6B5790       aSharpenb
 0003:0E6B579C       aStillLowIso
 0003:0E6B57AC       aEvindex5d
 0003:0E6B57C0       aNfindex5d
 0003:0E6B57D4       aHisoStillBasic
 0003:0E6B57F4       aHisodefercolor
 0003:0E6B5810       aS5d5d5d5d5d5d5
 0003:0E6B5844       aSEithermaxchan
 0003:0E6B58B4       aST05d5d5dT15d5
 0003:0E6B5944       aS5d5d5d5d5d5d5_0
 0003:0E6B59AC       aSEnable5d5d5d5
 0003:0E6B59CC       aS5d5d5d5d
 0003:0E6B59E0       aSEnable5d5d5d5_0
 0003:0E6B5A04       aHisocdnrCdnrmo
 0003:0E6B5A30       aHisoasf
 0003:0E6B5A38       aHisohighasf
 0003:0E6B5A44       aHisomed1asf
 0003:0E6B5A50       aHisomed2asf
 0003:0E6B5A5C       aHisolowasf
 0003:0E6B5A68       aHisohighsharp
 0003:0E6B5A78       aHisomedsharp
 0003:0E6B5A88       aHisolisharp
 0003:0E6B5A94       aHisochromaasf
 0003:0E6B5AA4       aHisochromafilt
 0003:0E6B5AB8       aHisochromafilt_0
 0003:0E6B5AD0       aHisochromafilt_1
 0003:0E6B5AE4       aHisochromafilt_2
 0003:0E6B5AF8       aHisochromafilt_3
 0003:0E6B5B10       aHisochromafilt_4
 0003:0E6B5B2C       aHisochromafilt_5
 0003:0E6B5B48       aHisochromafilt_6
 0003:0E6B5B64       aHisochromafilt_7
 0003:0E6B5B80       aHisolumafilter
 0003:0E6B5B98       aHisolowasfcomb
 0003:0E6B5BAC       aHisolicombine
 0003:0E6B5BBC       aHisoli2ndasf
 0003:0E6B5BCC       aLi2ndsharp
 0003:0E6B5BD8       aAmbaAdjStillHi
 0003:0E6B5BF8       aSStart_1
 0003:0E6B5C04       aStillHighIso
 0003:0E6B5C18       aSEnd_0
 0003:0E6B5C24       aAmbaimgVdspHan
 0003:0E6B5C48       aSDRval0xXSizeD_0
 0003:0E6B5C6C       aAmbaImgResetVi
 0003:0E6B5C94       aSChnoDMatrixth
 0003:0E6B5CC4       aWbCalibrationV
 0003:0E6B5CFC       aAwbControl2Ini
 0003:0E6B5D18       aS1ID
 0003:0E6B5D28       aSD_0
 0003:0E6B5D34       aS2AwbCurrInfoV
 0003:0E6B5D6C       aS2ID
 0003:0E6B5D7C       aAmbaAwbLibRevi
 0003:0E6B5DA4       aAeEvidxD
 0003:0E6B5DBC       aOutdoorChkD
 0003:0E6B5DD4       aOrgAwb5d5d5d
 0003:0E6B5DEC       aD75ACDSD
 0003:0E6B5E10       aD40ACDSD
 0003:0E6B5E34       aAdAdD
 0003:0E6B5E4C       aAwbTilesValueE
 0003:0E6B5E94       aStillAwbDDD
 0003:0E6B5EB0       aLutNo5dSpeed5d
 0003:0E6B5EE0       aVinNumDStillAw
 0003:0E6B5F08       aSkipFramesD
 0003:0E6B5F44       aPostStillAwbDD
 0003:0E6B5F78       a1AwbNoWhitesD6
 0003:0E6B5FAC       a2AwbNoWhitesD6
 0003:0E6B5FE0       a5d5d5d
 0003:0E6B5FEC       aOutdoorChkD_0
 0003:0E6B6000       aWhitePatchLutC
 0003:0E6B6018       a6d6d6d6d_0
 0003:0E6B602C       aAwbWhiteChk
 0003:0E6B603C       a6d6d6d6d6d6d6d_0
 0003:0E6B6104       aStaticUint8Awb
 0003:0E6B6134       aStaticUint32Aw
 0003:0E6B6160       aStaticUint32Aw_0
 0003:0E6B618C       aAwbCalibration
 0003:0E6B61A4       aAwbCalibration_0
 0003:0E6B61BC       aCalSettingSetG
 0003:0E6B61E4       aCalSettingSetG_0
 0003:0E6B620C       aCalSettingSetG_1
 0003:0E6B6234       aCalSettingSetG_2
 0003:0E6B625C       aCalSettingSetG_3
 0003:0E6B6284       aCalSettingSetG_4
 0003:0E6B62AC       aCalSettingTarg
 0003:0E6B62D4       aCalSettingTarg_0
 0003:0E6B62FC       aCalSettingTarg_1
 0003:0E6B6324       aCalSettingTarg_2
 0003:0E6B634C       aCalSettingTarg_3
 0003:0E6B6374       aCalSettingTarg_4
 0003:0E6B639C       aCalSettingComp
 0003:0E6B63C4       aCalSettingComp_0
 0003:0E6B63EC       aCalSettingComp_1
 0003:0E6B6414       aCalSettingComp_2
 0003:0E6B643C       aCalSettingComp_3
 0003:0E6B6464       aCalSettingComp_4
 0003:0E6B648C       aWhiteLutNo5d
 0003:0E6B64A0       aVideoAwb5d5d5d
 0003:0E6B64BC       aStillAwb5d5d5d
 0003:0E6B64D8       aVideo_2
 0003:0E6B64E0       aStill_1
 0003:0E6B64E8       aInfo_0
 0003:0E6B64F0       aCalOff
 0003:0E6B64F8       aCalOn
 0003:0E6B6500       aAawwbb
 0003:0E6B6508       aTImgprocAwbPrt
 0003:0E6B653C       aTImgprocAwbVid
 0003:0E6B656C       aTImgprocAwbInf
 0003:0E6B6594       aTImgprocAwbOnO
 0003:0E6B65C0       aIqtMemmgrInit
 0003:0E6B65D0       aSDRval0xXSizeD_1
 0003:0E6B65F0       aIqtParamInit
 0003:0E6B6614       aSChannelcountD_1
 0003:0E6B662C       aSceneModeScene
 0003:0E6B665C       aSceneModeScene_0
 0003:0E6B668C       aSceneModeScene_1
 0003:0E6B66BC       aSceneModeScene_2
 0003:0E6B66EC       aSceneModeScene_3
 0003:0E6B671C       aSceneModeScene_4
 0003:0E6B674C       aSceneModeScene_5
 0003:0E6B6780       aSceneModeScene_6
 0003:0E6B67B4       aSceneModeScene_7
 0003:0E6B67E8       aSceneModeScene_8
 0003:0E6B6818       aSceneModeScene_9
 0003:0E6B6850       aSceneModeScene_10
 0003:0E6B6880       aSceneModeScene_11
 0003:0E6B68B4       aSceneModeScene_12
 0003:0E6B68E8       aSceneModeScene_13
 0003:0E6B6918       aSceneModeScene_14
 0003:0E6B694C       aSceneModeScene_15
 0003:0E6B697C       aSceneModeScene_16
 0003:0E6B69B0       aSceneModeScene_17
 0003:0E6B69E0       aSceneModeScene_18
 0003:0E6B6A14       aSceneModeScene_19
 0003:0E6B6A54       aSceneModeScene_20
 0003:0E6B6A84       aSceneModeScene_21
 0003:0E6B6AB8       aSceneModeScene_22
 0003:0E6B6AE8       aSceneModeScene_23
 0003:0E6B6B1C       aSceneModeScene_24
 0003:0E6B6B4C       aSceneModeScene_25
 0003:0E6B6B80       aSceneModeScene_26
 0003:0E6B6BB0       aSceneModeScene_27
 0003:0E6B6BE0       aSceneModeScene_28
 0003:0E6B6C14       aSceneModeScene_29
 0003:0E6B6C44       aSceneModeScene_30
 0003:0E6B6C78       aSceneModeScene_31
 0003:0E6B6CA8       aSceneModeScene_32
 0003:0E6B6CE0       aSceneModeScene_33
 0003:0E6B6D14       aSceneModeScene_34
 0003:0E6B6D4C       aSceneModeScene_35
 0003:0E6B6D7C       aSceneModeScene_36
 0003:0E6B6DB4       aSceneModeScene_37
 0003:0E6B6DE4       aSceneModeScene_38
 0003:0E6B6E18       aScSceneDetect
 0003:0E6B6E28       aSDD
 0003:0E6B6E3C       aSceneOff3dScen
 0003:0E6B6E6C       aSceneTvOff3dSc
 0003:0E6B6E9C       aSceneSvOff3dSc
 0003:0E6B6ECC       aSceneAvOnly3dS
 0003:0E6B6EFC       aSceneNight3dSc
 0003:0E6B6F34       aSceneSports3dS
 0003:0E6B6F6C       aScenePortrait3
 0003:0E6B6FA4       aSceneSandSnow3
 0003:0E6B6FDC       aSceneFireWork3
 0003:0E6B7018       aSceneBackLight
 0003:0E6B7054       aSceneTripod3dS
 0003:0E6B7090       aSceneMacro3dSc
 0003:0E6B70CC       aSceneArena3dSc
 0003:0E6B7100       aSceneMuseum3dS
 0003:0E6B7134       aSceneChildren3
 0003:0E6B7168       aSceneFisheye3d
 0003:0E6B719C       aSceneThroughGl
 0003:0E6B71D0       aScenePhotoFram
 0003:0E6B7204       aSceneSelfPortr
 0003:0E6B7238       aSceneCarDv13d
 0003:0E6B7258       aSceneAuto3d
 0003:0E6B7274       a5d5d
 0003:0E6B727C       aChno5dSum5d
 0003:0E6B7294       aVideoSceneMode
 0003:0E6B72C4       aStillSceneMode
 0003:0E6B72E0       aVideoCurrScene
 0003:0E6B7318       aStillCurrScene
 0003:0E6B7338       aTImgprocScHist
 0003:0E6B7390       aHisto
 0003:0E6B7398       aDigitalNoEffec
 0003:0E6B73D0       aDigitalSepia3d
 0003:0E6B7408       aDigitalBw3dDig
 0003:0E6B7440       aDigital70film3
 0003:0E6B7478       aDigitalPopart3
 0003:0E6B74B0       aDigitalPinhole
 0003:0E6B74D0       aDigitalEffectD
 0003:0E6B74EC       aCfastrDSharpst
 0003:0E6B7510       aIafdecfashiftD
 0003:0E6B752C       aIafdesharpenas
 0003:0E6B755C       aIafdesharpenab
 0003:0E6B7584       aIafdesharpenan
 0003:0E6B75AC       aAdjfuncA9Memmg
 0003:0E6B75C4       aSDRval0xXSizeD_2
 0003:0E6B75E4       aAdjfuncA9Param
 0003:0E6B75FC       aSChannelcountD_2
 0003:0E6B7614       aCfa5d5d5d5d5d5
 0003:0E6B7658       aAdjChromaasfCo
 0003:0E6B7670       aS_3
 0003:0E6B7678       aSEnableD
 0003:0E6B768C       a2dSFirCoef5d5d
 0003:0E6B76EC       aSFirSpecifyStr
 0003:0E6B7748       aST0t15d5d5d5dA
 0003:0E6B777C       aST0t1div5d5d5d
 0003:0E6B77A4       aSLevelstradjus
 0003:0E6B77D0       aSPerDirFirDirA
 0003:0E6B780C       aSPerDirFirDirS
 0003:0E6B7848       aSPerDirFirIsoS
 0003:0E6B7884       aAdjAsfControl
 0003:0E6B7898       aSAdapt5d5d5d5d
 0003:0E6B78C4       aSLevelstradjus_0
 0003:0E6B78F8       aAdjSharpFilter
 0003:0E6B7914       aSboth5d5d5d5d5
 0003:0E6B7938       aScoring5d5d5d5
 0003:0E6B7964       aScoringidxscal
 0003:0E6B7990       aSmincoringresu
 0003:0E6B79BC       aSscalecoring5d
 0003:0E6B79E4       aSnSpaFirSpecif
 0003:0E6B7A44       a2dSnSpaFircoef
 0003:0E6B7AA8       aSnSpatfirPerDi
 0003:0E6B7AEC       aSnSpatfirPerDi_0
 0003:0E6B7B30       aSnSpatfirPerDi_1
 0003:0E6B7B74       aSnLevelstradju
 0003:0E6B7BA8       aSfirSpecifyStr
 0003:0E6B7C00       a2dSfirFircoeff
 0003:0E6B7C64       aSfirPerDirFirD
 0003:0E6B7CA0       aSfirPerDirFirD_0
 0003:0E6B7CE0       aSfirPerDirFirI
 0003:0E6B7D20       aVideo_3
 0003:0E6B7D28       aPadja9funcpara
 0003:0E6B7D7C       aNfIndex5dBadpi
 0003:0E6B7DA4       aNfIndex5dChrom
 0003:0E6B7DD8       aNfIndex5dDemos
 0003:0E6B7E10       aNfIndex5dCfa5d
 0003:0E6B7E60       aNfindex5dMctfE
 0003:0E6B7E80       aNfindex5dMctfC
 0003:0E6B7EC4       aNfindex5dMctfY
 0003:0E6B7EF0       aNfIndex5dChrom_0
 0003:0E6B7F0C       a5d5d5d5d5d
 0003:0E6B7F24       aNfindex5dCdnrm
 0003:0E6B7F50       aAntialiasingst_1
 0003:0E6B7F6C       aGbgrmismatch5d_1
 0003:0E6B7F88       aNfindex5dShpas
 0003:0E6B7FA4       aSharpena_0
 0003:0E6B7FB0       aNfindex5dShpab
 0003:0E6B7FE0       aNfindex5dShpac
 0003:0E6B8018       aNfindex5dShpac_0
 0003:0E6B8054       aNfindex5dShpam
 0003:0E6B8090       aNfindex5dShpas_0
 0003:0E6B80C8       aNfindex5dShpan
 0003:0E6B8134       aNfindex5d2dShp
 0003:0E6B81A8       aNfindex5dShpan_0
 0003:0E6B81F8       aNfindex5dShpan_1
 0003:0E6B824C       aNfindex5dShpan_2
 0003:0E6B82A0       aNfindex5dShpan_3
 0003:0E6B82E4       aNfindex5dShpaf
 0003:0E6B834C       aNfindex5d2dShp_0
 0003:0E6B83BC       aNfindex5dShpaf_0
 0003:0E6B8408       aNfindex5dShpaf_1
 0003:0E6B8454       aNfindex5dShpaf_2
 0003:0E6B84A0       aSharpenb_0
 0003:0E6B84AC       aNfindex5dShpbb
 0003:0E6B84DC       aNfindex5dShpbc
 0003:0E6B8514       aNfindex5dShpbc_0
 0003:0E6B8550       aNfindex5dShpbm
 0003:0E6B858C       aNfindex5dShpbs
 0003:0E6B85C4       aNfindex5dShpbn
 0003:0E6B8630       aNfindex5d2dShp_1
 0003:0E6B86A4       aNfindex5dShpbn_0
 0003:0E6B86F4       aNfindex5dShpbn_1
 0003:0E6B8748       aNfindex5dShpbn_2
 0003:0E6B879C       aNfindex5dShpbn_3
 0003:0E6B87E0       aNfindex5dShpbf
 0003:0E6B8848       aNfindex5d2dShp_2
 0003:0E6B88B8       aNfindex5dShpbf_0
 0003:0E6B88FC       aNfindex5dShpbf_1
 0003:0E6B8940       aNfindex5dShpbf_2
 0003:0E6B8994       aDmaWaitOverTim
 0003:0E6B89FC       aVcapSetup
 0003:0E6B8A08       aCmdCode0xX_19
 0003:0E6B8A1C       aChannelId0xX_0
 0003:0E6B8A40       aStreamType0xX_0
 0003:0E6B8A64       aVidSkipD
 0003:0E6B8A84       aInputFormatD
 0003:0E6B8AA4       aSensorIdD
 0003:0E6B8AC4       aKeepStatesD
 0003:0E6B8AE4       aInterlacedOutp
 0003:0E6B8B04       aVidcapWD
 0003:0E6B8B24       aVidcapHD
 0003:0E6B8B44       aMainWD
 0003:0E6B8B64       aMainHD
 0003:0E6B8B84       aPreviewWALcdWD
 0003:0E6B8BA4       aPreviewHALcdHD
 0003:0E6B8BC4       aInputCenterX0x
 0003:0E6B8BE8       aInputCenterY0x
 0003:0E6B8C0C       aZoomFactorX0xX
 0003:0E6B8C30       aZoomFactorY0xX
 0003:0E6B8C54       aCmdreaddlyD
 0003:0E6B8C74       aSensorReadoutM_0
 0003:0E6B8C98       aNoiseFilterStr
 0003:0E6B8CB8       aMctfChanD
 0003:0E6B8CD8       aMctsChanD
 0003:0E6B8CF8       aCcEnD
 0003:0E6B8D18       aCmprEnD
 0003:0E6B8D38       aCmprDitherD
 0003:0E6B8D58       aModeD
 0003:0E6B8D78       aImageStabilize
 0003:0E6B8D98       aBitResolutionD
 0003:0E6B8DB8       aBayerPatternD_1
 0003:0E6B8DD8       aPreviewFormatA
 0003:0E6B8DF8       aPreviewFormatB
 0003:0E6B8E18       aNoPipelineflus
 0003:0E6B8E38       aPreviewFrameRa
 0003:0E6B8E58       aPreviewWBTvWD
 0003:0E6B8E78       aPreviewHBTvHD
 0003:0E6B8E98       aPreviewFrameRa_0
 0003:0E6B8EB8       aPreviewAStopD
 0003:0E6B8ED8       aPreviewASrcD
 0003:0E6B8EF8       aPreviewBSrcD
 0003:0E6B8F18       aPreviewBStopD
 0003:0E6B8F38       aNumOfPrevsXDir
 0003:0E6B8F58       aNumOfPrevsYDir
 0003:0E6B8F78       aPrevADestD
 0003:0E6B8F98       aPrevBDestD
 0003:0E6B8FB8       aPrevCDestD
 0003:0E6B8FD8       aAllowNoHisoMod
 0003:0E6B8FF8       aNumRawBufferMo
 0003:0E6B9018       aVinFrameRateD
 0003:0E6B9038       aVoutFrameRateD
 0003:0E6B9058       aPipWD
 0003:0E6B9078       aPipHD
 0003:0E6B9098       aVcapCmdMsgDecR
 0003:0E6B90B8       aPipFrameDecRat
 0003:0E6B90D8       aVinFrameRateFr
 0003:0E6B90F8       aVoutFrameRateF
 0003:0E6B9118       aPtsDeltaD
 0003:0E6B9138       aVideoDelayMode
 0003:0E6B9158       aVprocLowDelayM
 0003:0E6B9178       aMaxHisoWD
 0003:0E6B9198       aMaxHisoHD
 0003:0E6B91B8       aEisUpdateAddr0
 0003:0E6B91DC       aBbarSzMbsD
 0003:0E6B91FC       aNumStreamsD
 0003:0E6B921C       aDigitalEffectI
 0003:0E6B923C       aPreviewSrcWAD
 0003:0E6B925C       aPreviewSrcHAD
 0003:0E6B927C       aPreviewSrcXOff
 0003:0E6B929C       aPreviewSrcYOff
 0003:0E6B92BC       aMainWExtraD
 0003:0E6B92DC       aPipDramWD
 0003:0E6B92FC       aPipDramHD
 0003:0E6B931C       aSec2OutExtraD
 0003:0E6B933C       aVwarpBlkHD
 0003:0E6B935C       aDelayLinesD
 0003:0E6B937C       aVcapCmdReqAhea
 0003:0E6B939C       aNoH264EncodeD
 0003:0E6B93BC       aEnableSec1RawO
 0003:0E6B93DC       aVinVoutVsyncFl
 0003:0E6B93FC       aSec3InputWaitL
 0003:0E6B941C       aRawCaptureReso
 0003:0E6B9440       aVcapPrevSetup
 0003:0E6B9450       aPreviewIdD
 0003:0E6B946C       aPreviewFormatD
 0003:0E6B9488       aPreviewWD
 0003:0E6B94A4       aPreviewHD
 0003:0E6B94C0       aPreviewFrameRa_1
 0003:0E6B94DC       aPreviewSrcD
 0003:0E6B94F8       aPreviewStopD
 0003:0E6B9514       aPreviewDestD
 0003:0E6B9530       aPreviewSrcWD
 0003:0E6B954C       aPreviewSrcHD
 0003:0E6B9568       aPreviewSrcXOff_0
 0003:0E6B9584       aPreviewSrcYOff_0
 0003:0E6B95A0       aCmdVcapMctfMvS
 0003:0E6B95B8       aCmdCode0xX_20
 0003:0E6B95DC       aNoiseFilterStr_0
 0003:0E6B9600       aMctfChan0xX
 0003:0E6B9624       aMctsChan0xX
 0003:0E6B9648       aCcEn0xX
 0003:0E6B966C       aCmprEn0xX
 0003:0E6B9690       aCmprDither0xX
 0003:0E6B96B4       aMode0xX_3
 0003:0E6B96D8       aImageStabilize_0
 0003:0E6B96FC       aBitrateY0xX
 0003:0E6B9720       aBitrateUv0xX
 0003:0E6B9744       aUseZmvAsPredic
 0003:0E6B9768       aReserved0xX
 0003:0E6B978C       aMctfCfgDbase0x
 0003:0E6B97B0       aCcCfgDbase0xX
 0003:0E6B97D4       aCmprCfgDbase0x
 0003:0E6B97F8       aLoadcfgType0xX
 0003:0E6B981C       aVcapMctfMvStab
 0003:0E6B983C       aMctfConfigUpda
 0003:0E6B985C       aMctfHistUpdate
 0003:0E6B987C       aMctfCurvesUpda
 0003:0E6B989C       aMctsConfigUpda
 0003:0E6B98BC       aShpbConfigUpda
 0003:0E6B98DC       aShpcConfigUpda
 0003:0E6B98FC       aShpbFir1Update
 0003:0E6B991C       aShpbFir2Update
 0003:0E6B993C       aShpcFir1Update
 0003:0E6B995C       aShpcFir2Update
 0003:0E6B997C       aShpbAlphasUpda
 0003:0E6B999C       aShpcAlphasUpda
 0003:0E6B99BC       aToneHistUpdate
 0003:0E6B99DC       aShpbCoring1Upd
 0003:0E6B99FC       aShpcCoring1Upd
 0003:0E6B9A1C       aShpbCoring2Upd
 0003:0E6B9A3C       aShpbLinearUpda
 0003:0E6B9A5C       aShpcLinearUpda
 0003:0E6B9A7C       aShpbInvLinearU
 0003:0E6B9A9C       aShpcInvLinearU
 0003:0E6B9ABC       aMctf3dLevelUpd
 0003:0E6B9ADC       aShpb3dLevelUpd
 0003:0E6B9AFC       aCcConfigUpdate
 0003:0E6B9B1C       aCcInputTableUp
 0003:0E6B9B3C       aCcOutputTableU
 0003:0E6B9B5C       aCc3dTableUpdat
 0003:0E6B9B7C       aCcMatrixUpdate
 0003:0E6B9B9C       aCcBlendInputUp
 0003:0E6B9BBC       aCmprAllUpdateD
 0003:0E6B9BDC       aMctfMctsAllUpd
 0003:0E6B9BFC       aCcAllUpdateD
 0003:0E6B9C1C       aVcapTmrMode
 0003:0E6B9C2C       aTimerScalerD
 0003:0E6B9C44       aDisplayOptD
 0003:0E6B9C5C       aVideoTermOptD
 0003:0E6B9C74       aVdsp1IntOptD
 0003:0E6B9C8C       aVcapStillCapIn
 0003:0E6B9CA4       aChannelIdD
 0003:0E6B9CCC       aStreamTypeD
 0003:0E6B9CF4       aMainJpgWD
 0003:0E6B9D1C       aMainJpgHD
 0003:0E6B9D44       aEncodeJpgWD
 0003:0E6B9D6C       aEncodeJpgHD
 0003:0E6B9D94       aEncodeXCtrOffs
 0003:0E6B9DBC       aEncodeYCtrOffs
 0003:0E6B9DE4       aThumbnailWActi
 0003:0E6B9E0C       aThumbnailHActi
 0003:0E6B9E34       aThumbnailWDram
 0003:0E6B9E5C       aThumbnailHDram
 0003:0E6B9E84       aBlankPeriodDur
 0003:0E6B9EB0       aIsUseCompactio
 0003:0E6B9ED8       aScreenThumbnai
 0003:0E6B9F00       aScreenThumbnai_0
 0003:0E6B9F28       aScreenThumbnai_1
 0003:0E6B9F50       aScreenThumbnai_2
 0003:0E6B9F78       aThumbBlankPeri
 0003:0E6B9FA4       aScreenNailBlan
 0003:0E6B9FD0       aSnSrcD
 0003:0E6B9FF8       aTnSrcD
 0003:0E6BA020       aSkipfrmD
 0003:0E6BA048       aSkipMainD
 0003:0E6BA070       aSkipfrmSnD
 0003:0E6BA098       aSkipfrmTnD
 0003:0E6BA0C0       aIdspCfgAddrTyp
 0003:0E6BA0E8       aIdspCfgAddr0xX
 0003:0E6BA114       aInputTypeD
 0003:0E6BA13C       aIsoProcessingM
 0003:0E6BA164       aIsForegroundPi
 0003:0E6BA18C       aSkipJpgMainD
 0003:0E6BA1B4       aSkipJpgSnD
 0003:0E6BA1DC       aSkipJpgTnD
 0003:0E6BA204       aExternalInputB
 0003:0E6BA230       aExternalInputB_0
 0003:0E6BA258       aExternalInputB_1
 0003:0E6BA280       aExternalInputB_2
 0003:0E6BA2A8       aExternalInputB_3
 0003:0E6BA2D0       aExternalInputB_4
 0003:0E6BA2F8       aExternalInputB_5
 0003:0E6BA320       aExternalInputB_6
 0003:0E6BA348       aExternalInputI
 0003:0E6BA370       aExternalInputI_0
 0003:0E6BA398       aIsMe1OutputD
 0003:0E6BA3C0       aOutputBufCntlD
 0003:0E6BA3E8       aOutputCodingTy
 0003:0E6BA410       aLisoHisoCfgAdd
 0003:0E6BA43C       aMainJpgActiveW
 0003:0E6BA464       aMainJpgActiveH
 0003:0E6BA48C       aVcapIntervalCa
 0003:0E6BA4A0       aChannelId0xX_1
 0003:0E6BA4B4       aStreamType0xX_1
 0003:0E6BA4C8       aMode0xX_4
 0003:0E6BA4D8       aIntervalCapAct
 0003:0E6BA4F4       aFramesToCap0xX
 0003:0E6BA50C       aVcapRepeatDrop
 0003:0E6BA520       aChannelIdD_0
 0003:0E6BA534       aStreamTypeD_0
 0003:0E6BA548       aModeSelD
 0003:0E6BA55C       aFrameCntD
 0003:0E6BA570       aVcapSlowShutte
 0003:0E6BA584       aSlowShutterUps
 0003:0E6BA5A8       aVcapOsdBlend
 0003:0E6BA5B8       aChannelIdD_1
 0003:0E6BA5CC       aStreamTypeD_1
 0003:0E6BA5E0       aEnableD_4
 0003:0E6BA5F4       aAreaIdD
 0003:0E6BA608       aSyncEncD
 0003:0E6BA61C       aOsdAddrY0xX
 0003:0E6BA634       aOsdAddrUv0xX
 0003:0E6BA64C       aAlphaAddrY0xX
 0003:0E6BA664       aAlphaAddrUv0xX
 0003:0E6BA67C       aOsdWidthD
 0003:0E6BA690       aOsdPitchD
 0003:0E6BA6A4       aOsdHeightD
 0003:0E6BA6B8       aOsdStartXD
 0003:0E6BA6CC       aOsdStartYD
 0003:0E6BA6E0       aVcapMctfGmv
 0003:0E6BA6F0       aEnable0xX_8
 0003:0E6BA700       aGmv0xX
 0003:0E6BA70C       aStillSendInput
 0003:0E6BA724       aCmdCode0xX_21
 0003:0E6BA740       aChannelIdD_2
 0003:0E6BA75C       aStreamType0xX_2
 0003:0E6BA778       aRawCompression
 0003:0E6BA794       aStopControlD
 0003:0E6BA7B0       aInputTypeD_0
 0003:0E6BA7CC       aNumFbD
 0003:0E6BA7E8       aFbIdDD
 0003:0E6BA804       aBlendAlphaDD
 0003:0E6BA820       aBlendFbIdDD
 0003:0E6BA83C       aBlendOutFbIdDD
 0003:0E6BA858       aVcapSetSensorF
 0003:0E6BA874       aChannelIdD_3
 0003:0E6BA890       aStreamTypeD_2
 0003:0E6BA8AC       aVideoFramerate
 0003:0E6BA8C8       aFramerateD
 0003:0E6BA8E4       aBitrateD
 0003:0E6BA900       aPtsDeltaD_0
 0003:0E6BA91C       aVcapCmdMsgDecR_0
 0003:0E6BA938       aPipFrameDecRat_0
 0003:0E6BA954       aVcapHvFlipCntl
 0003:0E6BA968       aHorFlip0xX
 0003:0E6BA97C       aVerFlip0xX
 0003:0E6BA990       aVcapSetVideoEx
 0003:0E6BA9A8       aChannelIdD_4
 0003:0E6BA9C0       aStreamTypeD_3
 0003:0E6BA9D8       aMemoryTypeD
 0003:0E6BA9F0       aAllocationType
 0003:0E6BAA08       aNumFrmBufD
 0003:0E6BAA20       aBufWidthD
 0003:0E6BAA38       aBufHeightD
 0003:0E6BAA50       aLuImgWidthD
 0003:0E6BAA68       aLuImgHeightD
 0003:0E6BAA80       aLuImgRowOfsD
 0003:0E6BAA98       aLuImgColOfsD
 0003:0E6BAAB0       aChImgRowOfsD
 0003:0E6BAAC8       aChImgColOfsD
 0003:0E6BAAE0       aChromaFormatD
 0003:0E6BAAF8       aColocateTypeD
 0003:0E6BAB10       aAllocationMode
 0003:0E6BAB28       aOverflowCntlD
 0003:0E6BAB40       aBufAddr0xX
 0003:0E6BAB58       aPoolBufNum0xX
 0003:0E6BAB70       aVcapInitiateVi
 0003:0E6BAB94       aChannelIdD_5
 0003:0E6BABAC       aStreamTypeD_4
 0003:0E6BABC4       aMemoryTypeD_0
 0003:0E6BABDC       aStopConditionD
 0003:0E6BABF4       aRawCapCompress
 0003:0E6BAC14       aRawCapSkipCoun
 0003:0E6BAC34       aRawCapDoneSwCt
 0003:0E6BAC54       aRawBufferProcC
 0003:0E6BAC74       aRawCapSyncEnco
 0003:0E6BAC94       aVideoJpegEncod
 0003:0E6BACAC       aChromaFormatD_0
 0003:0E6BACC8       aBufWidthD_0
 0003:0E6BACE4       aBufHeightD_0
 0003:0E6BAD00       aLumaImgWidthD
 0003:0E6BAD1C       aLumaImgHeightD
 0003:0E6BAD38       aLumaImgRowOffs
 0003:0E6BAD54       aLumaImgColOffs
 0003:0E6BAD70       aChromaImgRowOf
 0003:0E6BAD8C       aChromaImgColOf
 0003:0E6BADA8       aBufDaddr0xX
 0003:0E6BADC8       aChannelIdD_6
 0003:0E6BADDC       aVcapSendInputD
 0003:0E6BADF4       aRawCompression_0
 0003:0E6BAE10       aStopControlD_0
 0003:0E6BAE24       aInputTypeD_1
 0003:0E6BAE38       aNumFbLd
 0003:0E6BAE48       aFbIdLdLdLdLd
 0003:0E6BAE68       aBlendAlphLdLdL
 0003:0E6BAE8C       aBlendFbIdLdLdL
 0003:0E6BAEB0       aBlendOutFbIdLd
 0003:0E6BAED8       aCmdVcapThResta
 0003:0E6BAEEC       aInitSkipCntD
 0003:0E6BAF08       aVidCapWD
 0003:0E6BAF24       aVidCapHD
 0003:0E6BAF40       aRawBufferDestC
 0003:0E6BAF5C       aCmdVcapVideoRa
 0003:0E6BAF7C       aChannelIdD_7
 0003:0E6BAF98       aStreamTypeD_5
 0003:0E6BAFB4       aModeD_0
 0003:0E6BAFD0       aSrcAddr0xX
 0003:0E6BAFF0       aSrcWidthD
 0003:0E6BB00C       aSrcHeightD
 0003:0E6BB028       aSrcPitchD
 0003:0E6BB044       aSrcComprD
 0003:0E6BB060       aIdspCfgAddrTyp_0
 0003:0E6BB07C       aIdspCfgAddr0xX_0
 0003:0E6BB09C       aCleanRawDstAdd
 0003:0E6BB0BC       aCleanRawDstWid
 0003:0E6BB0D8       aCleanRawDstHei
 0003:0E6BB0F4       aCleanRawDstPit
 0003:0E6BB110       aCleanRawDstCom
 0003:0E6BB12C       aCmdVcapSetActi
 0003:0E6BB144       aSourceVinD
 0003:0E6BB15C       aOutChannelIdD
 0003:0E6BB174       aActiveIdcD
 0003:0E6BB18C       aProcIdD
 0003:0E6BB1A4       aInputXOfsD
 0003:0E6BB1BC       aInputYOfsD
 0003:0E6BB1D4       aInputWidthD
 0003:0E6BB1EC       aInputHeightD
 0003:0E6BB204       aMainWidthD
 0003:0E6BB21C       aMainHeightD
 0003:0E6BB234       aPipWidthD
 0003:0E6BB24C       aPipHeightD
 0003:0E6BB264       aPrev0WidthD
 0003:0E6BB27C       aPrev0HeightD
 0003:0E6BB294       aPrev1WidthD
 0003:0E6BB2AC       aPrev1HeightD
 0003:0E6BB2C4       aFlipCntlD
 0003:0E6BB2E0       aNoiseFilterStr_1
 0003:0E6BB2FC       aMctfChanD_0
 0003:0E6BB318       aMctsChanD_0
 0003:0E6BB334       aCcEnD_0
 0003:0E6BB350       aCmprEnD_0
 0003:0E6BB36C       aCmprDitherD_0
 0003:0E6BB388       aModeD_1
 0003:0E6BB3A4       aEnableQuickPre
 0003:0E6BB3C0       aMainOutputDest
 0003:0E6BB3DC       aPrevAOutputDes
 0003:0E6BB3F8       aPrevBOutputDes
 0003:0E6BB414       aPrevCOutputDes
 0003:0E6BB430       aCmdVcapMultiSt
 0003:0E6BB44C       aEncoderIdD
 0003:0E6BB46C       aProcIdD_0
 0003:0E6BB48C       aOutputDestinat
 0003:0E6BB4AC       aOutputChannelN
 0003:0E6BB4CC       aOutputStreamNu
 0003:0E6BB4EC       aPostprocTypeD
 0003:0E6BB50C       aNumOfInputsD
 0003:0E6BB52C       aInputPpCfgAddr
 0003:0E6BB558       aInputChannelNu
 0003:0E6BB584       aInputStreamNum
 0003:0E6BB5B0       aOutputXOfsD
 0003:0E6BB5DC       aOutputYOfsD
 0003:0E6BB608       aOutuputWidthD
 0003:0E6BB634       aOutputHeightD
 0003:0E6BB660       aOutputBufIdD
 0003:0E6BB68C       aIsR2yDirPassTh
 0003:0E6BB6B8       aIsUsingDefault
 0003:0E6BB6E4       aIsUsingY2yStag
 0003:0E6BB710       aIsRotateD
 0003:0E6BB73C       aIsUsingBlendin
 0003:0E6BB768       aIsBlendingOutU
 0003:0E6BB794       aIsRotate2ndBle
 0003:0E6BB7C0       aY2yIdspCmdBuff
 0003:0E6BB7EC       aY2yOrFirstBlen
 0003:0E6BB818       aY2yOrFirstBlen_0
 0003:0E6BB844       aY2yOrFirstBlen_1
 0003:0E6BB870       aSecondBlending
 0003:0E6BB89C       aSecondBlending_0
 0003:0E6BB8C8       aSecondBlending_1
 0003:0E6BB8F4       aY2yOrBlendingI
 0003:0E6BB920       aY2yOrBlendingI_0
 0003:0E6BB94C       aY2yOrBlendingO
 0003:0E6BB978       aY2yOrBlendingO_0
 0003:0E6BB9A4       aY2yOrBlendingO_1
 0003:0E6BB9D0       aY2yOrBlendingO_2
 0003:0E6BB9FC       aY2yOrBlendingO_3
 0003:0E6BBA28       aIsAlphaStreamV
 0003:0E6BBA54       aAlphaLumaValue
 0003:0E6BBA80       aAlphaUValueD
 0003:0E6BBAAC       aAlphaVValueD
 0003:0E6BBAD8       aAlphaLumaDramA
 0003:0E6BBB04       aAlphaChromaDra
 0003:0E6BBB30       aCmdVcapSetTime
 0003:0E6BBB58       aCmdCode0xX_22
 0003:0E6BBB78       aVinIdD
 0003:0E6BBB98       aNumTimeMuxedCh
 0003:0E6BBBB8       aChanDestArrayD
 0003:0E6BBC00       aPdmInitDiskman
 0003:0E6BBC1C       aPfInitPrfile2F
 0003:0E6BBC34       aPfAttachFailed
 0003:0E6BBC50       aExfat
 0003:0E6BBC5C       aFat32
 0003:0E6BBC68       aMswin41
 0003:0E6BBC74       aNoName
 0003:0E6BBC80       aFat12
 0003:0E6BBC8C       aFat16
 0003:0E6BBC98       aAmbafsCreatefa
 0003:0E6BBCAC       aKAssertAtSD_4
 0003:0E6BBCC0       aCreatesystemar
 0003:0E6BBCD4       aAmbafsCreatebo
 0003:0E6BBCEC       aCreateupcaseta
 0003:0E6BBD00       aFat12_0
 0003:0E6BBD08       aFat12_1
 0003:0E6BBD10       aFat12CanTSuppo
 0003:0E6BBD38       aFat16_0
 0003:0E6BBD40       aFat16_1
 0003:0E6BBD48       aFat16CanTSuppo
 0003:0E6BBD70       aFat32_0
 0003:0E6BBD78       aFat32_1
 0003:0E6BBD80       aFat32CanTSuppo
 0003:0E6BBDA8       aExfat_0
 0003:0E6BBDB0       aExfat_1
 0003:0E6BBDB8       aExfatCanTSuppo
 0003:0E6BBDE0       aLowLevel1Forma
 0003:0E6BBDFC       aLowLevel2Forma
 0003:0E6BBE18       aLowLevel3Forma
 0003:0E6BBE34       aSpcValueD
 0003:0E6BBE44       aInvalidSecperc
 0003:0E6BBE60       aBootsecValueD
 0003:0E6BBE74       aCanTSupportThi
 0003:0E6BBEA4       aCanTSupportThi_0
 0003:0E6BBED0       aFlprf2formatDr
 0003:0E6BBEEC       aFl2prf2formatD
 0003:0E6BBF08       aSd1prf2formatD
 0003:0E6BBF24       aSd2prf2formatD
 0003:0E6BC030       aRpdevClockset
 0003:0E6BC040       aSSetDClockIsNo
 0003:0E6BC064       aSSetDClockFail
 0003:0E6BC080       aAmbaipcClockin
 0003:0E6BC094       aAmbarpdevClk
 0003:0E6BC0A4       aSAmbaipcAllocF
 0003:0E6BC0D4       aErrorDspImgcor_95
 0003:0E6BC128       aErrorDspImgcor_96
 0003:0E6BC17C       aErrorDspImgcor_73
 0003:0E6BC1C4       aErrorDspImgcor_74
 0003:0E6BC20C       aDspImgcoreproc
 0003:0E6BC234       aErrorPmodePipe_1
 0003:0E6BC24C       aSWarpControlDV
 0003:0E6BC28C       aTransformedHor
 0003:0E6BC2B8       aUseLogicalMap
 0003:0E6BC2C8       aUsePhysicalMap
 0003:0E6BC2DC       aTransformedVer
 0003:0E6BC308       aDspImgcoreproc_0
 0003:0E6BC324       aS_7
 0003:0E6BC32C       aErrorPcalibinf
 0003:0E6BC37C       aDspImgcoreproc_1
 0003:0E6BC39C       aSThetaF
 0003:0E6BC3B0       aErrorPwarpcalc
 0003:0E6BC404       aDspImgwarpgett
 0003:0E6BC41C       aErrorDspImgwar
 0003:0E6BC450       aDspImgwarpgene
 0003:0E6BC46C       aSWDHDTweDTheD
 0003:0E6BC48C       aErrorCalcGridN
 0003:0E6BC4C8       aDspImgcoreproc_2
 0003:0E6BC4F0       aSThetaFWarpenb
 0003:0E6BC528       aErrorDspImgcor_89
 0003:0E6BC578       aErrorDspImgcor_90
 0003:0E6BC5F0       aErrorUnknownFi
 0003:0E6BC60C       aErrorUnknownFi_0
 0003:0E6BC628       a2d_0
 0003:0E6BC630       aLinearThenGamm
 0003:0E6BC64C       aGammaFLinearTh
 0003:0E6BEA48       aErrorShpModeSh_1
 0003:0E6BEA7C       aErrorShpModeSh
 0003:0E6BEAB0       aErrorShpModeSh_0
 0003:0E6BEC04       aErrorDspImgcor_9
 0003:0E6BEC50       aErrorDspImgcor_10
 0003:0E6BECA0       aWarningIncorre_2
 0003:0E6BECE0       aErrorDspImgcor_3
 0003:0E6BED2C       aErrorDspImgcor_4
 0003:0E6BED7C       aErrorDspImgcor_11
 0003:0E6BEDD0       aErrorDspImgcor_12
 0003:0E6BEE24       aWarningInvalid
 0003:0E6BEE54       aSensorWindowOf
 0003:0E6BEE8C       aSensorWindowWi_0
 0003:0E6BEEB8       aErrorDspImgcor_93
 0003:0E6BEF0C       aErrorDspImgcor_94
 0003:0E6BEF60       aErrorDspImgcor_7
 0003:0E6BEFAC       aErrorDspImgcor_8
 0003:0E6BEFF8       aWarningIncorre_1
 0003:0E6BF018       aErrorDspImgcor_87
 0003:0E6BF060       aErrorDspImgcor_88
 0003:0E6BF0A8       aDeleting
 0003:0E6BF0B4       aSyntaxError
 0003:0E6BF0C4       aErrorDiscardin
 0003:0E6BF0D8       aErrorPopping
 0003:0E6BF0E8       aMemoryExhauste
 0003:0E6BF0FC       aCleanupDiscard
 0003:0E6BF11C       aCleanupPopping
 0003:0E6BF130       aLineDSS
 0003:0E6BF144       aCannotLoadFile
 0003:0E6BF15C       aCannotLoadText
 0003:0E6BF170       aAmbashellCmdma
 0003:0E6BF184       aSInputCmdNumbe
 0003:0E6BF4FC       aEcho
 0003:0E6BF504       aDmesg
 0003:0E6BF50C       aSleep
 0003:0E6BF514       aReadb
 0003:0E6BF51C       aReadl
 0003:0E6BF524       aReadw
 0003:0E6BF52C       aWriteb
 0003:0E6BF534       aWritel
 0003:0E6BF53C       aWritew
 0003:0E6BF544       aNftl
 0003:0E6BF560       aFirmfl
 0003:0E6BF594       aMkdir
 0003:0E6BF5BC       aSavebin_0
 0003:0E6BF5C4       aUnterminatedSt
 0003:0E6BF5D8       aFatalFlexScann
 0003:0E6BF60C       aFatalFlexScann_0
 0003:0E6BF644       aFatalErrorScan
 0003:0E6BF670       aOutOfDynamicMe
 0003:0E6BF6A0       aFlexScannerPus
 0003:0E6BF6C0       aOutOfDynamicMe_0
 0003:0E6BF6EC       aOutOfDynamicMe_1
 0003:0E6BF720       aKAssertAtSD_23
 0003:0E6BF734       aMyYyinput
 0003:0E6BF740       aSTotalInputCmd
 0003:0E6BF774       aMyFatalError
 0003:0E6BFE80       aGlyphDict
 0003:0E6C08C4       aRomfs
 0003:0E6C08CC       aProclsinitOutO
 0003:0E6C08E8       aProcquickstatO
 0003:0E6C0904       aProcreadgetbuf
 0003:0E6C0918       aVfsTooMuchPage
 0003:0E6C0938       aSAmbakalEventf
 0003:0E6C0960       aSAmbakalEventf_0
 0003:0E6C0988       aSAmbakalMsgque
 0003:0E6C09B0       aProcreadscatte
 0003:0E6C09C0       aProcgather
 0003:0E6C09CC       aVfsTooMuchPage_0
 0003:0E6C09F0       aProcwrite
 0003:0E6C09FC       aProcwriteError
 0003:0E6C0A18       aProcwriteError_0
 0003:0E6C0A44       aRenameSToSFail
 0003:0E6C0A70       aRenameFailed
 0003:0E6C0A88       aIgnoreUnknownP
 0003:0E6C0AA0       aAmbaipcVfsinit
 0003:0E6C0AB0       aFailedToCreate_0
 0003:0E6C0AD4       aFailedToCreate_1
 0003:0E6C0AFC       aFailedToCreate_2
 0003:0E6C0B28       aFailedToMalloc
 0003:0E6C0B58       aAmbaipcVfsOps
 0003:0E6C0B68       aFailedToCreate_3
 0003:0E6C0B8C       aFailedToMalloc_0
 0003:0E6C0BC0       aAmbaipcVfsSg
 0003:0E6C0BD0       aFailedToCreate_4
 0003:0E6C0BFC       aFailedToCreate_5
 0003:0E6C0C2C       aAipcVfs
 0003:0E6C0C38       aSAmbaipcAllocF_1
 0003:0E6C0C54       aAmbalinkReserv
 0003:0E6C0C78       aAmbalinkAtagin
 0003:0E6C0C8C       aAmbalinkMalloc
 0003:0E6C0CA4       aGetPartitionTa
 0003:0E6C0CC0       aKAssertAtSD_18
 0003:0E6C0CD4       aAmbalinkAtag0x
 0003:0E6C0CF8       aAmbalinkMem0x0
 0003:0E6C0D1C       aAmbalinkRev0x0
 0003:0E6C0D38       aAmbalinkWifi08
 0003:0E6C0D58       aAmbalinkPpm20x
 0003:0E6C0D78       aAmbalinkCmdlin
 0003:0E6C0D90       aLoad_1
 0003:0E6C0D98       aSensor_2
 0003:0E6C0DA0       aSystem
 0003:0E6C0DA8       aFrmCmdLoad
 0003:0E6C0DC0       aVringDPPP
 0003:0E6C0DD4       aRpcLuMsgfwInit_1
 0003:0E6C0DE8       aRpcLuMsgfwInit
 0003:0E6C0DFC       aRpcLuMsgfwInit_0
 0003:0E6C0E18       aSCientCreation
 0003:0E6C0E34       aRpcLuMsgfwInit_2
 0003:0E6C0E4C       aRpcLuMsgfwSend_0
 0003:0E6C0E60       aSAmbaipcClient_0
 0003:0E6C0E84       aRMsgfwSendFunc
 0003:0E6C0E9C       aRpcRMsgfwInit
 0003:0E6C0EB0       aSInvalidStackI
 0003:0E6C0EE4       aIMsgfwSvc
 0003:0E6C0EF0       aSAmbaipcSvcreg
 0003:0E6C0F1C       aSdsetcmdreg
 0003:0E6C0F28       aKAssertAtSD_6
 0003:0E6C0F3C       aAmbartslSdwrit
 0003:0E6C0F54       aAmbartslSdread
 0003:0E6C0F68       aAmbartslSdsend
 0003:0E6C0F7C       aAmbartslSdseti
 0003:0E6C0F90       aSdClockSourceF
 0003:0E6C0FB4       aSdcalcclkForSd
 0003:0E6C0FF4       aSddatadone
 0003:0E6C1004       aLen0xXErrCnt0x_0
 0003:0E6C1024       aCTest
 0003:0E6C1030       aGetdevErrorD_0
 0003:0E6C1044       aDFilesWithRand_1
 0003:0E6C1070       aCTestD
 0003:0E6C107C       aCTestDTestDPat
 0003:0E6C1098       aWriteDBytesRan_0
 0003:0E6C10C8       aFopenSFailedD_0
 0003:0E6C10E0       aFailedWroteDBy_0
 0003:0E6C1100       aFcloseFailedD_0
 0003:0E6C1114       aFailedReadDByt_0
 0003:0E6C1134       aWriteRandomPat_1
 0003:0E6C116C       aWriteRandomPat_2
 0003:0E6C1190       aDFilesWithRand_2
 0003:0E6C11C0       aTestFioprfRand_1
 0003:0E6C11E4       aUsageSSlotSize
 0003:0E6C1314       aKeep
 0003:0E6C131C       aTestFioprfRand_2
 0003:0E6C1340       aCThroughputDBi
 0003:0E6C1358       aLargeFileWrite_2
 0003:0E6C1380       aLargeFileWrite_3
 0003:0E6C13A8       aBsDD_0
 0003:0E6C13BC       aFopenFailedD_0
 0003:0E6C13D0       aFwriteFailedD_0
 0003:0E6C13E4       aFseekFailedD_0
 0003:0E6C13F8       aFcloseFailedD_1
 0003:0E6C140C       aBsDWroteDBytes_0
 0003:0E6C1424       aBsDWriteTimeEl_0
 0003:0E6C144C       aBsDWriteThroug_0
 0003:0E6C1474       aLargeFileReadW_2
 0003:0E6C1498       aLargeFileReadW_3
 0003:0E6C14C0       aFreadFailedD_0
 0003:0E6C14D4       aBsDReadDBytes_0
 0003:0E6C14EC       aBsDReadTimeEla_0
 0003:0E6C1510       aBsDReadThrough_0
 0003:0E6C1538       aCThruputTxt
 0003:0E6C1548       aLargeFileWrite_4
 0003:0E6C1570       aLargeFileReadW_4
 0003:0E6C1598       aFioprfTestThru
 0003:0E6C15B0       aGetdevErrorD_1
 0003:0E6C15C4       aAreaSizeDMb
 0003:0E6C15D8       aCTest_0
 0003:0E6C15E4       aCTestD_0
 0003:0E6C15F0       aThroughputDBin
 0003:0E6C1604       aSomeFwriteFail
 0003:0E6C1624       aAreaDStartFrom
 0003:0E6C1640       aWriteTimeElaps
 0003:0E6C1660       aWriteThroughpu
 0003:0E6C1680       aSomeFreadFaile
 0003:0E6C16A0       aReadTimeElapse_0
 0003:0E6C16BC       aReadThroughput
 0003:0E6C16DC       aDFF
 0003:0E6C16E8       aKAssertAtSD_27
 0003:0E6C16FC       aCTestLogCsv
 0003:0E6C1710       aCThroughputOne
 0003:0E6C1728       aFailedToCreate_9
 0003:0E6C1760       aStartToWriteDa
 0003:0E6C1794       aWritingDataToC
 0003:0E6C17B4       aAmbafsWriteFai
 0003:0E6C17D0       aCThroughput2ch
 0003:0E6C17EC       aFopenFailedSD
 0003:0E6C1804       aStartToWriteDa_0
 0003:0E6C183C       aUsageSSlotUsag
 0003:0E6C1A54       aRandWrite
 0003:0E6C1A60       aAlign
 0003:0E6C1A68       aMulti_0
 0003:0E6C1A70       aBsNumBiggerThe
 0003:0E6C1A88       aTestFioprfThru_0
 0003:0E6C1AA8       aClkon
 0003:0E6C1AB0       aClkoff
 0003:0E6C1ACC       aParse
 0003:0E6C1AD4       aTimeout
 0003:0E6C1ADC       aErase_0
 0003:0E6C1AFC       aUsageSRandIncD
 0003:0E6C1B40       aTestSdReadSect
 0003:0E6C1B54       aKAssertAtSD_28
 0003:0E6C1B68       aNotAMemoryCard
 0003:0E6C1B7C       aOutOfMemory_0
 0003:0E6C1B8C       aReadFromSector
 0003:0E6C1BB4       aSectorDByteDIs
 0003:0E6C1BE4       aDump_3
 0003:0E6C1BEC       aSectorD0xX
 0003:0E6C1C00       a02x_2
 0003:0E6C1C08       a4x
 0003:0E6C1C10       aFailed_0
 0003:0E6C1C1C       aSuccess_0
 0003:0E6C1C28       aUsageSRandIncD_0
 0003:0E6C1C68       aTestSdWriteSec
 0003:0E6C1C80       aRand
 0003:0E6C1C88       aZero
 0003:0E6C1C90       aWriteToSectorD
 0003:0E6C1CB8       aUsageSKhzSd1Sd
 0003:0E6C1CD4       aSdMmcDesiredCl
 0003:0E6C1CF0       aSdMmcActualClk
 0003:0E6C1D0C       aUsageSSd1Sd2
 0003:0E6C1D24       aSdclkTurnedOff
 0003:0E6C1D38       aNoMbrOnTheMedi
 0003:0E6C1D50       aBootType0xX
 0003:0E6C1D64       aStartHeadD
 0003:0E6C1D74       aStartSectorD
 0003:0E6C1D88       aStartCylinderD
 0003:0E6C1D9C       aFatType0xX
 0003:0E6C1DAC       aEndingHeadD
 0003:0E6C1DC0       aEndSectorD
 0003:0E6C1DD0       aEndCylinderD
 0003:0E6C1DE4       aStratLbaD
 0003:0E6C1DF4       aTotalSectorsD
 0003:0E6C1E08       aJumpCommandX
 0003:0E6C1E1C       aCreateSysIdS
 0003:0E6C1E30       aPartitionOffse
 0003:0E6C1E48       aVolumeLengthD
 0003:0E6C1E5C       aFatOffsetD
 0003:0E6C1E70       aFatLengthD
 0003:0E6C1E84       aClusterHeapOff
 0003:0E6C1EA0       aClusterCountD
 0003:0E6C1EB4       aFirstclusterOf
 0003:0E6C1ED0       aVolumeSeriaNum
 0003:0E6C1EEC       aFileSystemRevi
 0003:0E6C1F08       aVolumeFlagsD
 0003:0E6C1F1C       aBytesPerSector
 0003:0E6C1F38       aSpcShiftD
 0003:0E6C1F48       aNumberOfFatsD
 0003:0E6C1F60       aDriveSelect0xX
 0003:0E6C1F78       aPercentInUseD
 0003:0E6C1F90       aParameterGuidX
 0003:0E6C1FB4       aEraseBlockSize
 0003:0E6C1FCC       aPageSize0xX
 0003:0E6C1FE0       aSpareSectors0x
 0003:0E6C1FF8       aRandomAccessTi
 0003:0E6C2010       aProgrammingTim
 0003:0E6C2028       aReadCycleD
 0003:0E6C203C       aWriteCycleD
 0003:0E6C2050       aCheckSum0xX
 0003:0E6C2064       aNoBsInfo
 0003:0E6C2074       aCreateSysIdS_0
 0003:0E6C2088       aSectorSizeD
 0003:0E6C209C       aSectorPerClust
 0003:0E6C20B4       aReservedSecD
 0003:0E6C20C8       aNumbersOfFatsD
 0003:0E6C20E0       aNumbersOfRootD
 0003:0E6C20FC       aSectorsPerFatD
 0003:0E6C2114       aNumbersOfSideD
 0003:0E6C212C       aNumbersOfHidde
 0003:0E6C2148       aTotalSectorsD_0
 0003:0E6C215C       aVolumeSn0xX
 0003:0E6C2170       aPhyicalDiskNum
 0003:0E6C218C       aExtendedBootsi
 0003:0E6C21AC       aFileSystemType
 0003:0E6C21C4       aSectorPerFat32
 0003:0E6C21DC       aFsVersonD
 0003:0E6C21EC       aRootClusterD
 0003:0E6C2200       aFsInfoD
 0003:0E6C2210       aBackupBootSect
 0003:0E6C2228       aNoFsInfo
 0003:0E6C2238       aLeadSignaureXX
 0003:0E6C2258       aStructureSigna
 0003:0E6C227C       aNextClusterCou
 0003:0E6C2298       aNextFreeCluste
 0003:0E6C22B4       aUsageSMbrBsFsS
 0003:0E6C22DC       aReadBsFromSect
 0003:0E6C22FC       aGetFsInfoFromS
 0003:0E6C2318       aFailedRvalD
 0003:0E6C232C       aSuccess_1
 0003:0E6C2338       aUsageSShowSd1S
 0003:0E6C2390       aShow_3
 0003:0E6C2398       aData_0
 0003:0E6C23A0       aSdmmcDInitTime
 0003:0E6C23C4       aSdmmcDTranTime
 0003:0E6C23E8       aUsageSClkSd1Sd
 0003:0E6C2440       aTestSdMaxFreq
 0003:0E6C2454       aSdio
 0003:0E6C245C       aSdMaxClockDKhz
 0003:0E6C2474       aMustOver10000K
 0003:0E6C248C       aSetToDKhz
 0003:0E6C249C       aUsageSSBlkEBlk
 0003:0E6C24E8       aEraseFromSecto
 0003:0E6C2508       aMmcCardOnlySup
 0003:0E6C2530       aFail_0
 0003:0E6C2538       aSuccess_2
 0003:0E6C2544       aUsageSPinDrivi
 0003:0E6C25A4       aSmioPinDDMa
 0003:0E6C25C0       aSetSmioPinDToD
 0003:0E6C25DC       aCdwp
 0003:0E6C25E4       aUsageSLoopCoun
 0003:0E6C2604       aFailedCmd0
 0003:0E6C2610       aFailedCmd8
 0003:0E6C261C       aOcrOfCardIs0xX
 0003:0E6C2630       aFailAcmd41D
 0003:0E6C2640       aFailedInAcmd41
 0003:0E6C2654       aGiveUpPollingA_0
 0003:0E6C266C       aCardDoesnTSupp
 0003:0E6C268C       aFailedDCmd11
 0003:0E6C269C       aCmd11Success
 0003:0E6C26AC       aFailedD
 0003:0E6C26B8       aSuccess_3
 0003:0E6C26C4       aForever
 0003:0E6C26CC       aTestLoopCountD
 0003:0E6C26E4       a0x8x0x8x
 0003:0E6C26F4       aUsageSSd0Sd1Rc
 0003:0E6C2710       aValidTestTarge
 0003:0E6C2730       aS_18
 0003:0E6C2738       aLen0xXErrCnt0x_1
 0003:0E6C2758       aSdDelayCrtlCri
 0003:0E6C2770       aKAssertAtSD_29
 0003:0E6C2784       aNull
 0003:0E6C278C       aCTest_1
 0003:0E6C2798       aGetdevErrorD_2
 0003:0E6C27AC       aCTestD_1
 0003:0E6C27B8       aCTestDTestDPat_0
 0003:0E6C27D4       aFopenSFailedD_1
 0003:0E6C27EC       aFailedWroteDBy_1
 0003:0E6C280C       aFcloseFailed18
 0003:0E6C2824       aFailedReadDByt_1
 0003:0E6C2844       aFcloseFailed20
 0003:0E6C285C       aDFilesWithRand_3
 0003:0E6C288C       aASdShmooTxt
 0003:0E6C289C       aFopenSdShmooTx
 0003:0E6C28BC       aFailedDDataOut
 0003:0E6C293C       aFailedDDataOut_0
 0003:0E6C29A8       aSuccessDataOut
 0003:0E6C2A10       aSuccessDataOut_0
 0003:0E6C2A8C       aSuccessDataOut_1
 0003:0E6C2AF4       aDrivingStrengt
 0003:0E6C2B18       aDrivingStrengt_0
 0003:0E6C2B3C       aDrivingStrengt_1
 0003:0E6C2B60       aDrivingStrengt_2
 0003:0E6C2B84       aDrivingStrengt_3
 0003:0E6C2BA4       aDrivingStrengt_4
 0003:0E6C2BC8       aDrivingStrengt_5
 0003:0E6C2BE8       aDrivingStrengt_6
 0003:0E6C2C0C       aStartTestingSd
 0003:0E6C2C28       aSdShmooCpFileO
 0003:0E6C2C4C       aSdShmooFormatS
 0003:0E6C2C70       aSdShmooOpenASd
 0003:0E6C2C98       aCSdShmooTxt
 0003:0E6C2CAC       aSdShmooOpenSFa
 0003:0E6C2CC8       aSdShmooCpFileI
 0003:0E6C2CE8       aDataOutputDela
 0003:0E6C2DD8       aUsageSSlotAllU
 0003:0E6C3064       aMode_1
 0003:0E6C306C       aSdShmooChkRegF
 0003:0E6C30A0       aSdShmooDelayCr
 0003:0E6C30E0       aSdShmooDelayCr_0
 0003:0E6C3120       aAllDly
 0003:0E6C3128       aAllStr
 0003:0E6C3130       a12ma_0
 0003:0E6C3138       a18ma_0
 0003:0E6C3140       aSdShmooSaveSdS
 0003:0E6C316C       aSdShmooSetBack
 0003:0E6C31C0       aCardInitFailed
 0003:0E6C31D4       aSdShmooTestSdS
 0003:0E6C3218       aSCfaHeader
 0003:0E6C3234       aVideo_4
 0003:0E6C323C       aStill_2
 0003:0E6C3244       aAwbtilecolstar
 0003:0E6C3260       aAwbtilerowstar
 0003:0E6C327C       aAwbtilewidthD
 0003:0E6C3298       aAwbtileheightD
 0003:0E6C32B4       aAwbtileactivew
 0003:0E6C32D0       aAwbtileactiveh
 0003:0E6C32EC       aAwbrgbshiftD
 0003:0E6C3308       aAwbyshiftD
 0003:0E6C3324       aAwbminmaxshift
 0003:0E6C3340       aAetilecolstart
 0003:0E6C335C       aAetilerowstart
 0003:0E6C3378       aAetilewidthD
 0003:0E6C3394       aAetileheightD
 0003:0E6C33B0       aAeyshiftD
 0003:0E6C33CC       aAelinearyshift
 0003:0E6C33E8       aAftilecolstart
 0003:0E6C3404       aAftilerowstart
 0003:0E6C3420       aAftilewidthD
 0003:0E6C343C       aAftileheightD
 0003:0E6C3458       aAftileactivewi
 0003:0E6C3474       aAftileactivehe
 0003:0E6C3490       aAfyshiftD
 0003:0E6C34AC       aAfcfayshiftD
 0003:0E6C34C8       aAwbtilenumcolD_0
 0003:0E6C34E4       aAwbtilenumrowD
 0003:0E6C3500       aAetilenumcolD
 0003:0E6C351C       aAetilenumrowD
 0003:0E6C3538       aAftilenumcolD
 0003:0E6C3554       aAftilenumrowD
 0003:0E6C3570       aTotalslicesxD
 0003:0E6C358C       aTotalslicesyD
 0003:0E6C35A8       aSliceindexxD
 0003:0E6C35C4       aSliceindexyD
 0003:0E6C35E0       aSlicewidthD
 0003:0E6C35FC       aSliceheightD
 0003:0E6C3618       aSlicestartxD
 0003:0E6C3634       aSlicestartyD
 0003:0E6C3650       aChannelidD
 0003:0E6C366C       aSCfaStatisticI
 0003:0E6C368C       aAwb
 0003:0E6C369C       aIndexSumrSumgS
 0003:0E6C36D4       a5d5d5d5d5d5d
 0003:0E6C3700       aAe
 0003:0E6C3710       aIndexLinyCount
 0003:0E6C3738       a5d5d5d5d
 0003:0E6C3758       aAf
 0003:0E6C3768       aIndexSumySumfv
 0003:0E6C378C       a5d5d5d5d_0
 0003:0E6C37A8       aFloatAwb
 0003:0E6C37BC       aIndexSumrSumgS_0
 0003:0E6C3804       a5d10d10d10d10d
 0003:0E6C382C       aFloatAe
 0003:0E6C3840       aIndexLinyCount_0
 0003:0E6C3870       a5d10d10d10d
 0003:0E6C388C       aFloatAf
 0003:0E6C38A0       aIndexSumySumfv_0
 0003:0E6C38D0       aSRgbHeader
 0003:0E6C38EC       aAwbtilecolstar_0
 0003:0E6C3908       aAwbtilerowstar_0
 0003:0E6C3924       aAwbtilewidthD_0
 0003:0E6C3940       aAwbtileheightD_0
 0003:0E6C395C       aAwbtileactivew_0
 0003:0E6C3978       aAwbtileactiveh_0
 0003:0E6C3994       aAwbrgbshiftD_0
 0003:0E6C39B0       aAwbyshiftD_0
 0003:0E6C39CC       aAwbminmaxshift_0
 0003:0E6C39E8       aAetilecolstart_0
 0003:0E6C3A04       aAetilerowstart_0
 0003:0E6C3A20       aAetilewidthD_0
 0003:0E6C3A3C       aAetileheightD_0
 0003:0E6C3A58       aAeyshiftD_0
 0003:0E6C3A74       aAelinearyshift_0
 0003:0E6C3A90       aAftilecolstart_0
 0003:0E6C3AAC       aAftilerowstart_0
 0003:0E6C3AC8       aAftilewidthD_0
 0003:0E6C3AE4       aAftileheightD_0
 0003:0E6C3B00       aAftileactivewi_0
 0003:0E6C3B1C       aAftileactivehe_0
 0003:0E6C3B38       aAfyshiftD_0
 0003:0E6C3B54       aAfcfayshiftD_0
 0003:0E6C3B70       aAwbtilenumcolD_1
 0003:0E6C3B8C       aAwbtilenumrowD_0
 0003:0E6C3BA8       aAetilenumcolD_0
 0003:0E6C3BC4       aAetilenumrowD_0
 0003:0E6C3BE0       aAftilenumcolD_0
 0003:0E6C3BFC       aAftilenumrowD_0
 0003:0E6C3C18       aTotalslicesxD_0
 0003:0E6C3C34       aTotalslicesyD_0
 0003:0E6C3C50       aSliceindexxD_0
 0003:0E6C3C6C       aSliceindexyD_0
 0003:0E6C3C88       aSlicewidthD_0
 0003:0E6C3CA4       aSliceheightD_0
 0003:0E6C3CC0       aSlicestartxD_0
 0003:0E6C3CDC       aSlicestartyD_0
 0003:0E6C3CF8       aChannelidD_0
 0003:0E6C3D14       aSRgbStatisticI
 0003:0E6C3D34       aIndexSumy
 0003:0E6C3D44       a5d5d_2
 0003:0E6C3D50       aIndexSumfySumf
 0003:0E6C3D74       aIndexSumy_0
 0003:0E6C3D88       a5d10d
 0003:0E6C3D94       aIndexSumfv1hSu
 0003:0E6C3DD0       a5d10d10d10d10d_0
 0003:0E6C3DF4       aErrorPmodePipe_2
 0003:0E6C3E0C       aTransformedHor_0
 0003:0E6C3E3C       aTransformedVer_0
 0003:0E6C3E68       aDspImgcoreproc_3
 0003:0E6C3E88       aS_8
 0003:0E6C3E90       aErrorPcalibinf_0
 0003:0E6C3EE0       aDspImgcoreproc_4
 0003:0E6C3F0C       aSCawarpenbDEnb
 0003:0E6C3F3C       aErrorDspImgcor_91
 0003:0E6C3F8C       aErrorDspImgcor_92
 0003:0E6C3FE0       aErrorDspImgcor_85
 0003:0E6C4028       aErrorDspImgcor_86
 0003:0E6C409C       aErrorDspImgcor_22
 0003:0E6C40E8       aErrorDspImgcor_23
 0003:0E6C4138       aErrorDspImgcor_20
 0003:0E6C4180       aErrorDspImgcor_21
 0003:0E6C41C8       aErrorUndefined
 0003:0E6C4200       aErrorPleaseInp
 0003:0E6C4238       aErrorColorCorr_0
 0003:0E6C4298       aErrorUsingImgd
 0003:0E6C42E8       aErrorDspImgcor_18
 0003:0E6C4334       aErrorDspImgcor_19
 0003:0E6C4380       aErrorDspImgcor_17
 0003:0E6C43CC       aErrorColorCorr
 0003:0E6C43FC       aWarningColorCo
 0003:0E6C445C       aANewCc3dTableI
 0003:0E6C4484       aWarningColorCo_0
 0003:0E6C44E8       aANewHisoCc3dTa
 0003:0E6C4514       aErrorDspImgcor_24
 0003:0E6C456C       aErrorDspImgcor_25
 0003:0E6C45C4       aErrorDspImgpro
 0003:0E6C4618       aErrorDspImgpro_0
 0003:0E6C466C       aUsePincc3dhiso
 0003:0E6C4690       aErrorDspImgcor_13
 0003:0E6C46D8       aErrorDspImgcor_14
 0003:0E6C4720       aErrorDspImgcor_5
 0003:0E6C4768       aErrorDspImgcor_6
 0003:0E6C47B4       aFunctionname
 0003:0E6C47C4       aParam
 0003:0E6C47CC       aWarningSYtones
 0003:0E6C4804       aWarningSYtoneb
 0003:0E6C483C       aWarningSUtones
 0003:0E6C4874       aWarningSUtoneb
 0003:0E6C48AC       aWarningSVtones
 0003:0E6C48E4       aWarningSVtoneb
 0003:0E6C491C       aWarningSSpecif
 0003:0E6C4954       aWarningSStreng
 0003:0E6C4990       aWarningSStreng_0
 0003:0E6C49CC       aWarningSPerdir
 0003:0E6C4A18       aWarningSPerdir_0
 0003:0E6C4A64       aWarningSPerdir_1
 0003:0E6C4AAC       aWarningSCoefsD
 0003:0E6C4AEC       aWarningSLowdel
 0003:0E6C4B24       aWarningSHighde
 0003:0E6C4B5C       aWarningSMethod
 0003:0E6C4B90       aS_5
 0003:0E6C4B98       aS_6
 0003:0E6C4BA0       aCoring
 0003:0E6C4BB0       a4d
 0003:0E6C4BB8       aSpecifyD
 0003:0E6C4BCC       aPerdirfirisost
 0003:0E6C4C04       aPerdirfirdirst
 0003:0E6C4C3C       aPerdirfirdiram
 0003:0E6C4C74       aCoefsDDDDDDDDD
 0003:0E6C4CD0       aStrengthisoD
 0003:0E6C4CE4       aStrengthdirD
 0003:0E6C4CF8       aEdgethreshD
 0003:0E6C4D0C       aWideedgedetect
 0003:0E6C4D24       aLowD
 0003:0E6C4D30       aLowdeltaD
 0003:0E6C4D44       aLowstrengthD
 0003:0E6C4D58       aMidstrengthD
 0003:0E6C4D6C       aHighD
 0003:0E6C4D7C       aHighdeltaD
 0003:0E6C4D90       aHighstrengthD
 0003:0E6C4DA8       aMethodD
 0003:0E6C4DB8       aYtoneoffsetD
 0003:0E6C4DCC       aYtoneshiftD
 0003:0E6C4DE0       aYtonebitsD
 0003:0E6C4DF4       aUtoneoffsetD
 0003:0E6C4E08       aUtoneshiftD
 0003:0E6C4E1C       aUtonebitsD
 0003:0E6C4E30       aVtoneoffsetD
 0003:0E6C4E44       aVtoneshiftD
 0003:0E6C4E58       aVtonebitsD
 0003:0E6C4E6C       aTableDDDDDDDDD
 0003:0E6C4EC8       aTableChecksumD
 0003:0E6C4EE0       aErrorAmbadspIm_1
 0003:0E6C4F20       aWarningCoringD
 0003:0E6C4F74       aSet1stsharpenn
 0003:0E6C4F94       aSet1stsharpenn_0
 0003:0E6C4FC0       aSharpenMinCori
 0003:0E6C4FDC       aSet1stsharpenn_1
 0003:0E6C5008       aSharpenCoringI
 0003:0E6C5024       aSet1stsharpenn_2
 0003:0E6C504C       aSharpenScaleCo
 0003:0E6C5064       aWarningEnableD_1
 0003:0E6C50AC       aWarningModeDSh
 0003:0E6C50EC       aWarningEdgethr
 0003:0E6C5138       aWarningWideedg
 0003:0E6C5188       aSet1stsharpenn_3
 0003:0E6C51A0       aThreeD
 0003:0E6C51A8       aSet1stsharpenn_4
 0003:0E6C51C0       aNoiseFir
 0003:0E6C51CC       aLevelStrAdjust
 0003:0E6C51E0       aAmbadspImgset1
 0003:0E6C5208       aPipeDAlgoDFunc_13
 0003:0E6C5244       aSelectD
 0003:0E6C5254       aAmbadspImgset1_0
 0003:0E6C5280       aAmbadspImgset1_1
 0003:0E6C52AC       aSharpenFir
 0003:0E6C52B8       aAmbadspImgset1_2
 0003:0E6C52F0       aMinCoringResul
 0003:0E6C5304       aAmbadspImgset1_3
 0003:0E6C533C       aCoringIndexSca
 0003:0E6C5350       aAmbadspImgset1_4
 0003:0E6C5384       aScaleCoring
 0003:0E6C5394       aAmbadspImgset1_5
 0003:0E6C53B8       aEnableDModeDEd
 0003:0E6C53F0       aThreed
 0003:0E6C53F8       aUp5x5DDown5x5D
 0003:0E6C541C       aAmbadspImgsets_4
 0003:0E6C5444       aMaxchangeupDMa
 0003:0E6C546C       aNoiseFir_0
 0003:0E6C5478       aWarningCannotG_19
 0003:0E6C549C       aAmbadspImgset1_6
 0003:0E6C54CC       aWarningAmbadsp_35
 0003:0E6C5514       aAmbadspImgset1_7
 0003:0E6C5544       aWarningPselect
 0003:0E6C5560       aAmbadspImgget1
 0003:0E6C5590       aWarningAmbadsp_36
 0003:0E6C55D8       aAmbadspImgget1_0
 0003:0E6C5610       aAmbadspImgset1_8
 0003:0E6C5648       aWarningAmbadsp_37
 0003:0E6C5698       aAmbadspImgset1_9
 0003:0E6C56D0       aWarningPcoring
 0003:0E6C56EC       aAmbadspImgget1_1
 0003:0E6C5724       aWarningAmbadsp_38
 0003:0E6C5774       aAmbadspImgget1_2
 0003:0E6C57B4       aAmbadspImgset1_10
 0003:0E6C57E8       aWarningAmbadsp_39
 0003:0E6C5834       aAmbadspImgset1_11
 0003:0E6C5868       aWarningPfirIsE
 0003:0E6C5880       aAmbadspImgget1_3
 0003:0E6C58B4       aWarningAmbadsp_40
 0003:0E6C5900       aAmbadspImgget1_4
 0003:0E6C5944       aAmbadspImgset1_12
 0003:0E6C5984       aWarningAmbadsp_41
 0003:0E6C59DC       aAmbadspImgset1_13
 0003:0E6C5A1C       aWarningPlevelI
 0003:0E6C5A38       aAmbadspImgget1_5
 0003:0E6C5A78       aWarningAmbadsp_42
 0003:0E6C5AD0       aAmbadspImgget1_6
 0003:0E6C5B20       aAmbadspImgset1_14
 0003:0E6C5B60       aWarningAmbadsp_43
 0003:0E6C5BBC       aAmbadspImgset1_15
 0003:0E6C5BFC       aAmbadspImgget1_7
 0003:0E6C5C3C       aWarningAmbadsp_44
 0003:0E6C5C98       aAmbadspImgget1_8
 0003:0E6C5CE8       aAmbadspImgset1_16
 0003:0E6C5D24       aWarningAmbadsp_45
 0003:0E6C5D78       aAmbadspImgset1_17
 0003:0E6C5DB4       aAmbadspImgget1_9
 0003:0E6C5DF0       aWarningAmbadsp_46
 0003:0E6C5E44       aAmbadspImgget1_10
 0003:0E6C5EA0       aAmbadspImgset1_18
 0003:0E6C5ECC       aWarningAmbadsp_47
 0003:0E6C5F10       aAmbadspImgset1_19
 0003:0E6C5F40       aWarningPbothIs
 0003:0E6C5F5C       aAmbadspImgget1_11
 0003:0E6C5F88       aWarningAmbadsp_48
 0003:0E6C5FD0       aAmbadspImgget1_12
 0003:0E6C6010       aAmbadspImgset1_20
 0003:0E6C6040       aWarningAmbadsp_49
 0003:0E6C6088       aAmbadspImgset1_21
 0003:0E6C60B8       aWarningPsharpe
 0003:0E6C60DC       aAmbadspImgget1_13
 0003:0E6C610C       aWarningAmbadsp_50
 0003:0E6C6154       aAmbadspImgget1_14
 0003:0E6C6184       aErrorDspImgcor_77
 0003:0E6C61C8       aErrorDspImgcor_78
 0003:0E6C620C       aErrorDspImgcor_79
 0003:0E6C6254       aErrorDspImgcor_80
 0003:0E6C62A0       aErrorDspImgcor_81
 0003:0E6C62EC       aErrorDspImgcor_82
 0003:0E6C6338       aErrorDspImgcor_83
 0003:0E6C6384       aErrorDspImgcor_84
 0003:0E6C63DC       aErrorDspImgcor_97
 0003:0E6C641C       aErrorDspImgcor_98
 0003:0E6C6460       aWarningGainDDD
 0003:0E6C6490       aIncorrectWbGai
 0003:0E6C64A4       aIncorrectDgain
 0003:0E6C64C4       aIncorrectGloba
 0003:0E6C66A4       aHighisoPostExe
 0003:0E6C66F8       aErrorDspImgcor_99
 0003:0E6C6744       aErrorDspImgcor_100
 0003:0E6C6834       aFunctionname_0
 0003:0E6C6844       aWarningEnableD_2
 0003:0E6C6878       aAdaptThreed
 0003:0E6C6888       aWarningAdaptAl
 0003:0E6C68C8       aWarningAdaptAl_0
 0003:0E6C6904       aWarningAdaptAl_1
 0003:0E6C6944       aWarningAdaptAl_2
 0003:0E6C6980       aWarningAdaptT0
 0003:0E6C69BC       aWarningAdaptT0_0
 0003:0E6C69EC       aWarningAdaptT0_1
 0003:0E6C6A24       aWarningAdaptT0_2
 0003:0E6C6A54       aWarningAdaptT1
 0003:0E6C6A90       aWarningAdaptT1_0
 0003:0E6C6AC0       aWarningAdaptT1_1
 0003:0E6C6AF8       aWarningAdaptT1_2
 0003:0E6C6B28       aWarningT1UpDSm
 0003:0E6C6B58       aWarningT1DownD
 0003:0E6C6B8C       aLevelStrAdjust_0
 0003:0E6C6BA0       aT0t1Div
 0003:0E6C6BAC       aEnableD_0
 0003:0E6C6BC0       aDirectionaldec
 0003:0E6C6BDC       aDirectionaldec_0
 0003:0E6C6BF8       aAdaptAlphaminu
 0003:0E6C6C14       aAdaptAlphamaxu
 0003:0E6C6C30       aAdaptT0upD
 0003:0E6C6C44       aAdaptT1upD
 0003:0E6C6C58       aAdaptAlphamind
 0003:0E6C6C74       aAdaptAlphamaxd
 0003:0E6C6C90       aAdaptT0downD
 0003:0E6C6CA8       aAdaptT1downD
 0003:0E6C6CC0       aLevelstradjust
 0003:0E6C6CD0       aT0t1div
 0003:0E6C6CD8       aMaxchangeupD
 0003:0E6C6CE8       aMaxchangedownD
 0003:0E6C6CFC       aSetadvancespat
 0003:0E6C6D14       aAmbadspImgseta_2
 0003:0E6C6D38       aPipeDAlgoDFunc_14
 0003:0E6C6D74       aWarningCannotG_20
 0003:0E6C6D98       aAmbadspImgseta_3
 0003:0E6C6DC8       aWarningAmbadsp_51
 0003:0E6C6E10       aAmbadspImgseta_4
 0003:0E6C6E40       aWarningPasfIsE
 0003:0E6C6E58       aAmbadspImggeta_1
 0003:0E6C6E88       aWarningAmbadsp_52
 0003:0E6C6ED0       aAmbadspImggeta_2
 0003:0E6C6F00       aWarningActivit
 0003:0E6C6F44       aWarningActivit_0
 0003:0E6C6F94       aWarningGradcli
 0003:0E6C6FDC       aWarningGradnoi
 0003:0E6C7024       aWarningZippern
 0003:0E6C707C       aWarningZippern_0
 0003:0E6C70D4       aWarningBlackwh
 0003:0E6C7124       aWarningClampdi
 0003:0E6C7174       aAmbadspImgsetd_7
 0003:0E6C718C       aPipeDAlgoDFunc_7
 0003:0E6C71C8       aActivitythresh
 0003:0E6C7224       aZippernoisedif
 0003:0E6C72BC       aWarningCannotG_13
 0003:0E6C72E0       aAmbadspImgsetd_8
 0003:0E6C7304       aWarningAmbadsp_22
 0003:0E6C7340       aAmbadspImgsetd_9
 0003:0E6C7364       aWarningPdemosa
 0003:0E6C7384       aAmbadspImggetd_5
 0003:0E6C73A8       aWarningAmbadsp_23
 0003:0E6C73E4       aAmbadspImggetd_6
 0003:0E6C7408       aWarningLevelbl
 0003:0E6C7458       aWarningLevelgr
 0003:0E6C74AC       aWarningLevelgr_0
 0003:0E6C7500       aWarningLevelre
 0003:0E6C754C       aAmbadspImgsetd_1
 0003:0E6C7570       aPipeDAlgoDFunc_0
 0003:0E6C75AC       aLevelredDLevel
 0003:0E6C75F8       aWarningCannotG_6
 0003:0E6C761C       aAmbadspImgsetd_2
 0003:0E6C764C       aWarningAmbadsp_8
 0003:0E6C7694       aAmbadspImgsetd_3
 0003:0E6C76C4       aWarningPdgains
 0003:0E6C76E4       aAmbadspImggetd_1
 0003:0E6C7714       aWarningAmbadsp_9
 0003:0E6C775C       aAmbadspImggetd_2
 0003:0E6C778C       aWarningCoringD_0
 0003:0E6C77E4       aSetfinalsharpe
 0003:0E6C7804       aSetfinalsharpe_0
 0003:0E6C7830       aSharpenMinCori_0
 0003:0E6C784C       aSetfinalsharpe_1
 0003:0E6C7878       aSharpenCoringI_0
 0003:0E6C7894       aSetfinalsharpe_2
 0003:0E6C78BC       aSharpenScaleCo_0
 0003:0E6C78D4       aWarningEnableD_3
 0003:0E6C791C       aWarningModeDSh_0
 0003:0E6C7960       aWarningEdgethr_0
 0003:0E6C79B0       aWarningWideedg_0
 0003:0E6C7A00       aSetfinalsharpe_3
 0003:0E6C7A1C       aThreeD_0
 0003:0E6C7A24       aSetfinalsharpe_4
 0003:0E6C7A40       aNoiseFir_1
 0003:0E6C7A4C       aLevelStrAdjust_1
 0003:0E6C7A60       aAmbadspImgsetf
 0003:0E6C7A90       aPipeDAlgoDFunc_15
 0003:0E6C7ACC       aAmbadspImgsetf_0
 0003:0E6C7AF8       aSharpenFir_0
 0003:0E6C7B04       aAmbadspImgsetf_1
 0003:0E6C7B3C       aMinCoringResul_0
 0003:0E6C7B50       aAmbadspImgsetf_2
 0003:0E6C7B88       aCoringIndexSca_0
 0003:0E6C7B9C       aScaleCoring_0
 0003:0E6C7BAC       aAmbadspImgsets_5
 0003:0E6C7BD0       aEnableDModeDEd_0
 0003:0E6C7C08       aThreed_0
 0003:0E6C7C10       aUp5x5DDown5x5D_0
 0003:0E6C7C34       aAmbadspImgsets_6
 0003:0E6C7C60       aMaxchangeupDMa_0
 0003:0E6C7C88       aNoiseFir_2
 0003:0E6C7CA4       aWarningCannotG_21
 0003:0E6C7CC8       aAmbadspImgsetf_3
 0003:0E6C7D00       aWarningAmbadsp_53
 0003:0E6C7D60       aWarningAmbadsp_54
 0003:0E6C7DC0       aWarningAmbadsp_55
 0003:0E6C7E14       aAmbadspImgsetf_4
 0003:0E6C7E4C       aWarningPcoring_0
 0003:0E6C7E68       aAmbadspImggetf
 0003:0E6C7EA0       aWarningAmbadsp_56
 0003:0E6C7F00       aWarningAmbadsp_57
 0003:0E6C7F60       aWarningAmbadsp_58
 0003:0E6C7FB4       aAmbadspImggetf_0
 0003:0E6C7FF4       aAmbadspImgsetf_5
 0003:0E6C8028       aWarningAmbadsp_59
 0003:0E6C8088       aWarningAmbadsp_60
 0003:0E6C80E8       aWarningAmbadsp_61
 0003:0E6C8138       aAmbadspImgsetf_6
 0003:0E6C8170       aWarningPfirIsE_0
 0003:0E6C8188       aAmbadspImggetf_1
 0003:0E6C81BC       aWarningAmbadsp_62
 0003:0E6C821C       aWarningAmbadsp_63
 0003:0E6C827C       aWarningAmbadsp_64
 0003:0E6C82CC       aAmbadspImggetf_2
 0003:0E6C8314       aAmbadspImgsetf_7
 0003:0E6C8354       aWarningAmbadsp_65
 0003:0E6C83C0       aWarningAmbadsp_66
 0003:0E6C842C       aWarningAmbadsp_67
 0003:0E6C8488       aAmbadspImgsetf_8
 0003:0E6C84CC       aWarningPlevelI_0
 0003:0E6C84E8       aAmbadspImggetf_3
 0003:0E6C8528       aWarningAmbadsp_68
 0003:0E6C8594       aWarningAmbadsp_69
 0003:0E6C8600       aWarningAmbadsp_70
 0003:0E6C865C       aAmbadspImggetf_4
 0003:0E6C86B0       aAmbadspImgsetf_9
 0003:0E6C86F4       aWarningAmbadsp_71
 0003:0E6C8760       aWarningAmbadsp_72
 0003:0E6C87CC       aWarningAmbadsp_73
 0003:0E6C8828       aAmbadspImgsetf_10
 0003:0E6C886C       aAmbadspImggetf_5
 0003:0E6C88B0       aWarningAmbadsp_74
 0003:0E6C891C       aWarningAmbadsp_75
 0003:0E6C8988       aWarningAmbadsp_76
 0003:0E6C89E4       aAmbadspImggetf_6
 0003:0E6C8A38       aAmbadspImgsetf_11
 0003:0E6C8A74       aWarningAmbadsp_77
 0003:0E6C8ADC       aWarningAmbadsp_78
 0003:0E6C8B44       aWarningAmbadsp_79
 0003:0E6C8B9C       aAmbadspImgsetf_12
 0003:0E6C8BDC       aAmbadspImggetf_7
 0003:0E6C8C18       aWarningAmbadsp_80
 0003:0E6C8C80       aWarningAmbadsp_81
 0003:0E6C8CE8       aWarningAmbadsp_82
 0003:0E6C8D40       aAmbadspImggetf_8
 0003:0E6C8D90       aAmbadspImgsetf_13
 0003:0E6C8DC0       aWarningAmbadsp_83
 0003:0E6C8E18       aWarningAmbadsp_84
 0003:0E6C8E70       aWarningAmbadsp_85
 0003:0E6C8EB8       aAmbadspImgsetf_14
 0003:0E6C8EE8       aWarningPmaxbot
 0003:0E6C8F04       aAmbadspImggetf_9
 0003:0E6C8F34       aWarningAmbadsp_86
 0003:0E6C8F8C       aWarningAmbadsp_87
 0003:0E6C8FE4       aWarningAmbadsp_88
 0003:0E6C902C       aAmbadspImggetf_10
 0003:0E6C9064       aAmbadspImgsetf_15
 0003:0E6C9094       aWarningAmbadsp_89
 0003:0E6C90EC       aWarningAmbadsp_90
 0003:0E6C9144       aWarningAmbadsp_91
 0003:0E6C9190       aAmbadspImgsetf_16
 0003:0E6C91C0       aWarningPsharpe_0
 0003:0E6C91E4       aAmbadspImggetf_11
 0003:0E6C9214       aWarningAmbadsp_92
 0003:0E6C926C       aWarningAmbadsp_93
 0003:0E6C92C4       aWarningAmbadsp_94
 0003:0E6C9310       aAmbadspImggetf_12
 0003:0E6C9340       aWarningNarrowe
 0003:0E6C9380       aWarningWideena
 0003:0E6C93BC       aWarningWidesaf
 0003:0E6C9404       aWarningWidethr
 0003:0E6C944C       aAmbadspImgsets_7
 0003:0E6C946C       aPipeDAlgoDFunc_17
 0003:0E6C94A8       aGbgrmismatchNa
 0003:0E6C94FC       aWarningCannotG_23
 0003:0E6C9520       aAmbadspImgsetg
 0003:0E6C9548       aWarningAmbadsp_97
 0003:0E6C9588       aAmbadspImgsetg_0
 0003:0E6C95B0       aWarningPgbgrmi
 0003:0E6C95D4       aAmbadspImggetg
 0003:0E6C95FC       aWarningAmbadsp_98
 0003:0E6C963C       aAmbadspImggetg_0
 0003:0E6C9664       aSethighisoadva
 0003:0E6C9684       aSethighisohigh
 0003:0E6C96A8       aSethighisolowa
 0003:0E6C96CC       aSethighisomed1
 0003:0E6C96F0       aWarningLevelSt
 0003:0E6C9748       aWarningT0t1Div
 0003:0E6C9798       aSethighisomed2
 0003:0E6C97BC       aSethighisoli2n
 0003:0E6C97E0       aSethighisochro
 0003:0E6C9808       aWarningEnableD_7
 0003:0E6C983C       aThreed_1
 0003:0E6C9844       aWarningAlphama
 0003:0E6C9878       aWarningAlphami
 0003:0E6C98AC       aWarningT0DShou
 0003:0E6C98DC       aWarningT0DShou_0
 0003:0E6C9904       aWarningT1DShou
 0003:0E6C9934       aWarningT1DShou_0
 0003:0E6C995C       aWarningT1DSmal
 0003:0E6C9988       aLevelStrAdjust_2
 0003:0E6C999C       aT0t1Div_0
 0003:0E6C99A8       aWarningLevelSt_0
 0003:0E6C99E0       aWarningT0t1Div_0
 0003:0E6C9A10       aAmbadspImgseth_24
 0003:0E6C9A3C       aPipeDAlgoDFunc_20
 0003:0E6C9A78       aAmbadspImgseth_25
 0003:0E6C9AA8       aAmbadspImgseth_26
 0003:0E6C9AD8       aAmbadspImgseth_27
 0003:0E6C9B08       aAmbadspImgseth_28
 0003:0E6C9B38       aAmbadspImgseth_29
 0003:0E6C9B68       aAmbadspImgseth_30
 0003:0E6C9B9C       aEnableD_2
 0003:0E6C9BB0       aDirectionaldec_1
 0003:0E6C9BCC       aDirectionaldec_2
 0003:0E6C9BE8       aAlphaminD
 0003:0E6C9BFC       aAlphamaxD
 0003:0E6C9C10       aT0D
 0003:0E6C9C1C       aT1D
 0003:0E6C9C28       aLevelstradjust_0
 0003:0E6C9C38       aT0t1div_0
 0003:0E6C9C40       aMaxchangeD
 0003:0E6C9C50       aWarningCannotG_26
 0003:0E6C9C74       aAmbadspImgseth_31
 0003:0E6C9CA8       aWarningAmbadsp_130
 0003:0E6C9CF8       aAmbadspImgseth_32
 0003:0E6C9D30       aAmbadspImgseth_33
 0003:0E6C9D68       aWarningAmbadsp_131
 0003:0E6C9DBC       aAmbadspImgseth_34
 0003:0E6C9DF8       aAmbadspImgseth_35
 0003:0E6C9E30       aWarningAmbadsp_132
 0003:0E6C9E84       aAmbadspImgseth_36
 0003:0E6C9EBC       aAmbadspImgseth_37
 0003:0E6C9EF4       aWarningAmbadsp_133
 0003:0E6C9F48       aAmbadspImgseth_38
 0003:0E6C9F84       aAmbadspImgseth_39
 0003:0E6C9FBC       aWarningAmbadsp_134
 0003:0E6CA010       aAmbadspImgseth_40
 0003:0E6CA04C       aAmbadspImgseth_41
 0003:0E6CA088       aWarningAmbadsp_135
 0003:0E6CA0DC       aAmbadspImgseth_42
 0003:0E6CA118       aAmbadspImgseth_43
 0003:0E6CA154       aWarningAmbadsp_136
 0003:0E6CA1A8       aAmbadspImgseth_44
 0003:0E6CA1E4       aWarningHighiso_6
 0003:0E6CA204       aAmbadspImggeth_13
 0003:0E6CA238       aWarningAmbadsp_137
 0003:0E6CA288       aAmbadspImggeth_14
 0003:0E6CA2C0       aWarningHighiso_7
 0003:0E6CA2E8       aAmbadspImggeth_15
 0003:0E6CA320       aWarningAmbadsp_138
 0003:0E6CA374       aAmbadspImggeth_16
 0003:0E6CA3B0       aWarningHighiso_8
 0003:0E6CA3D4       aAmbadspImggeth_17
 0003:0E6CA40C       aWarningAmbadsp_139
 0003:0E6CA460       aAmbadspImggeth_18
 0003:0E6CA498       aWarningHighiso_9
 0003:0E6CA4C0       aAmbadspImggeth_19
 0003:0E6CA4F8       aWarningAmbadsp_140
 0003:0E6CA54C       aAmbadspImggeth_20
 0003:0E6CA588       aWarningHighiso_10
 0003:0E6CA5B0       aAmbadspImggeth_21
 0003:0E6CA5E8       aWarningAmbadsp_141
 0003:0E6CA63C       aAmbadspImggeth_22
 0003:0E6CA678       aWarningHighiso_11
 0003:0E6CA6A0       aAmbadspImggeth_23
 0003:0E6CA6DC       aWarningAmbadsp_142
 0003:0E6CA730       aAmbadspImggeth_24
 0003:0E6CA76C       aWarningHighiso_12
 0003:0E6CA794       aAmbadspImggeth_25
 0003:0E6CA7D0       aWarningAmbadsp_143
 0003:0E6CA824       aAmbadspImggeth_26
 0003:0E6CA860       aWarningStrengt_0
 0003:0E6CA8A8       aAmbadspImgseth
 0003:0E6CA8CC       aPipeDAlgoDFunc_19
 0003:0E6CA908       aStrengthD_0
 0003:0E6CA91C       aWarningEnbDSho_3
 0003:0E6CA95C       aWarningSaturat_0
 0003:0E6CA9AC       aAmbadspImgsetc_22
 0003:0E6CA9CC       aEnbDAlpharrDAl_0
 0003:0E6CAA1C       aWarningEnbDSho_4
 0003:0E6CAA6C       aWarningCorrect_0
 0003:0E6CAAC8       aWarningHotpixe_0
 0003:0E6CAB28       aWarningDarkpix_0
 0003:0E6CAB88       aAmbadspImgseth_0
 0003:0E6CABB8       aEnbDHotpixelst_0
 0003:0E6CAC04       aWarningEnbDSho_5
 0003:0E6CAC48       aWarningExtentf
 0003:0E6CAC9C       aWarningExtentr
 0003:0E6CACF4       aWarningNoisele
 0003:0E6CAD48       aWarningOrigina_1
 0003:0E6CADA0       aWarningStrengt_1
 0003:0E6CADF4       aWarningSelecti
 0003:0E6CAE50       aWarningSelecti_0
 0003:0E6CAEB4       aWarningSelecti_1
 0003:0E6CAF18       aWarningSelecti_2
 0003:0E6CAF80       aAmbadspImgseth_1
 0003:0E6CAFA8       aEnbDNoiselevel
 0003:0E6CAFFC       aExtentfineDDDS
 0003:0E6CB05C       aWarningNarrowe_0
 0003:0E6CB0A4       aWarningWideena_0
 0003:0E6CB0E8       aWarningWidesaf_0
 0003:0E6CB134       aWarningWidethr_0
 0003:0E6CB180       aAmbadspImgsets_8
 0003:0E6CB1A8       aGbgrmismatchNa_0
 0003:0E6CB1F0       aWarningActivit_1
 0003:0E6CB23C       aWarningActivit_2
 0003:0E6CB294       aWarningGradcli_0
 0003:0E6CB2E0       aWarningGradnoi_0
 0003:0E6CB330       aWarningZippern_1
 0003:0E6CB390       aWarningZippern_2
 0003:0E6CB3EC       aWarningBlackwh_0
 0003:0E6CB444       aWarningClampdi_0
 0003:0E6CB49C       aAmbadspImgseth_2
 0003:0E6CB4BC       aActivitythresh_0
 0003:0E6CB518       aZippernoisedif_0
 0003:0E6CB5A4       aWarningEnableD_5
 0003:0E6CB5F0       aWarningCbadapt_1
 0003:0E6CB64C       aWarningCradapt_1
 0003:0E6CB6A8       aWarningCbnonad_0
 0003:0E6CB704       aWarningCrnonad_0
 0003:0E6CB760       aWarningCbadapt_2
 0003:0E6CB7B8       aWarningCradapt_2
 0003:0E6CB810       aAmbadspImgseth_3
 0003:0E6CB83C       aEnableD_1
 0003:0E6CB84C       aCbadaptivestre_0
 0003:0E6CB880       aCbnonadaptives_0
 0003:0E6CB8B8       aCbadaptiveamou_0
 0003:0E6CB8E8       aWarningEnableD_6
 0003:0E6CB938       aAmbadspImgseth_4
 0003:0E6CB964       aWarningCdnrmod_0
 0003:0E6CB9BC       aWarningCdnrstr_0
 0003:0E6CBA1C       aAmbadspImgseth_5
 0003:0E6CBA50       aCdnrmodeDCdnrs_0
 0003:0E6CBA74       aWarningCannotG_25
 0003:0E6CBA98       aAmbadspImgseth_6
 0003:0E6CBAC4       aWarningAmbadsp_112
 0003:0E6CBB0C       aAmbadspImgseth_7
 0003:0E6CBB3C       aWarningHighiso
 0003:0E6CBB64       aAmbadspImggeth
 0003:0E6CBB90       aWarningAmbadsp_113
 0003:0E6CBBD8       aAmbadspImggeth_0
 0003:0E6CBC08       aAmbadspImgseth_8
 0003:0E6CBC38       aWarningAmbadsp_114
 0003:0E6CBC84       aAmbadspImgseth_9
 0003:0E6CBCB8       aWarningHighiso_0
 0003:0E6CBCE0       aAmbadspImggetc_13
 0003:0E6CBD0C       aWarningAmbadsp_115
 0003:0E6CBD50       aAmbadspImggetc_14
 0003:0E6CBD7C       aAmbadspImgseth_10
 0003:0E6CBDB8       aWarningAmbadsp_116
 0003:0E6CBE08       aAmbadspImgseth_11
 0003:0E6CBE44       aWarningHighiso_1
 0003:0E6CBE68       aAmbadspImggetd_7
 0003:0E6CBE9C       aWarningAmbadsp_117
 0003:0E6CBEE8       aAmbadspImggetd_8
 0003:0E6CBF1C       aAmbadspImgseth_12
 0003:0E6CBF4C       aWarningAmbadsp_118
 0003:0E6CBF94       aAmbadspImgseth_13
 0003:0E6CBFC4       aWarningHighiso_2
 0003:0E6CBFEC       aAmbadspImggeth_1
 0003:0E6CC01C       aWarningAmbadsp_119
 0003:0E6CC064       aAmbadspImggeth_2
 0003:0E6CC094       aAmbadspImgseth_14
 0003:0E6CC0C0       aWarningAmbadsp_120
 0003:0E6CC108       aAmbadspImgseth_15
 0003:0E6CC138       aWarningHighiso_3
 0003:0E6CC164       aAmbadspImggeth_3
 0003:0E6CC190       aWarningAmbadsp_121
 0003:0E6CC1D8       aAmbadspImggeth_4
 0003:0E6CC208       aAmbadspImgseth_16
 0003:0E6CC230       aWarningAmbadsp_122
 0003:0E6CC274       aAmbadspImgseth_17
 0003:0E6CC2A0       aWarningPdemosa_0
 0003:0E6CC2C0       aAmbadspImggeth_5
 0003:0E6CC2E8       aWarningAmbadsp_123
 0003:0E6CC32C       aAmbadspImggeth_6
 0003:0E6CC358       aAmbadspImgseth_18
 0003:0E6CC38C       aWarningAmbadsp_124
 0003:0E6CC3D8       aAmbadspImgseth_19
 0003:0E6CC40C       aWarningHighiso_4
 0003:0E6CC438       aAmbadspImggeth_7
 0003:0E6CC46C       aWarningAmbadsp_125
 0003:0E6CC4B8       aAmbadspImggeth_8
 0003:0E6CC4EC       aAmbadspImgseth_20
 0003:0E6CC520       aWarningAmbadsp_126
 0003:0E6CC570       aAmbadspImgseth_21
 0003:0E6CC5A8       aWarningHighiso_5
 0003:0E6CC5DC       aAmbadspImggeth_9
 0003:0E6CC610       aWarningAmbadsp_127
 0003:0E6CC660       aAmbadspImggeth_10
 0003:0E6CC698       aAmbadspImgseth_22
 0003:0E6CC6D4       aWarningAmbadsp_128
 0003:0E6CC72C       aAmbadspImgseth_23
 0003:0E6CC76C       aWarningPcdnrIs_0
 0003:0E6CC788       aAmbadspImggeth_11
 0003:0E6CC7C4       aWarningAmbadsp_129
 0003:0E6CC81C       aAmbadspImggeth_12
 0003:0E6CC85C       aWarningEnableD_8
 0003:0E6CC8AC       aWarningModeDSh_1
 0003:0E6CC8F4       aWarningEdgethr_1
 0003:0E6CC948       aWarningWideedg_1
 0003:0E6CC9A0       aSethighisohigh_0
 0003:0E6CC9C0       aThreeD_1
 0003:0E6CC9C8       aSethighisohigh_1
 0003:0E6CC9E8       aNoiseFir_3
 0003:0E6CC9F4       aLevelStrAdjust_3
 0003:0E6CCA08       aWarningLevelSt_1
 0003:0E6CCA5C       aWarningCoringD_1
 0003:0E6CCAB8       aSethighisohigh_2
 0003:0E6CCAE0       aSethighisohigh_3
 0003:0E6CCB14       aSharpenMinCori_1
 0003:0E6CCB30       aWarningSharpen
 0003:0E6CCBA0       aSethighisohigh_4
 0003:0E6CCBD4       aSharpenCoringI_1
 0003:0E6CCBF0       aWarningSharpen_0
 0003:0E6CCC60       aSethighisohigh_5
 0003:0E6CCC90       aSharpenScaleCo_1
 0003:0E6CCCA8       aWarningSharpen_1
 0003:0E6CCD10       aAmbadspImgseth_45
 0003:0E6CCD40       aPipeDAlgoDFunc_21
 0003:0E6CCD7C       aEnableDModeDEd_1
 0003:0E6CCDB4       aThreed_2
 0003:0E6CCDBC       aUp5x5DDown5x5D_1
 0003:0E6CCDE0       aAmbadspImgprin
 0003:0E6CCE14       aMaxchangeupDMa_1
 0003:0E6CCE3C       aNoiseFir_4
 0003:0E6CCE48       aAmbadspImgseth_46
 0003:0E6CCE7C       aAmbadspImgseth_47
 0003:0E6CCEB0       aSharpenFir_1
 0003:0E6CCEBC       aAmbadspImgseth_48
 0003:0E6CCEFC       aMinCoringResul_1
 0003:0E6CCF10       aAmbadspImgseth_49
 0003:0E6CCF50       aCoringIndexSca_1
 0003:0E6CCF64       aAmbadspImgseth_50
 0003:0E6CCFA0       aScaleCoring_1
 0003:0E6CCFB0       aWarningEnableD_9
 0003:0E6CCFFC       aWarningModeDSh_2
 0003:0E6CD044       aWarningEdgethr_2
 0003:0E6CD098       aWarningWideedg_2
 0003:0E6CD0EC       aSethighisomeds
 0003:0E6CD10C       aSethighisomeds_0
 0003:0E6CD12C       aWarningLevelSt_2
 0003:0E6CD180       aWarningCoringD_2
 0003:0E6CD1DC       aSet1stsharpenn_5
 0003:0E6CD1FC       aSethighisomeds_1
 0003:0E6CD22C       aWarningSharpen_2
 0003:0E6CD29C       aSethighisomeds_2
 0003:0E6CD2D0       aWarningSharpen_3
 0003:0E6CD340       aSethighisomeds_3
 0003:0E6CD36C       aWarningSharpen_4
 0003:0E6CD3D0       aDspImgprintset
 0003:0E6CD3FC       aAmbadspImgprin_0
 0003:0E6CD42C       aAmbadspImgseth_51
 0003:0E6CD460       aAmbadspImgseth_52
 0003:0E6CD490       aAmbadspImgseth_53
 0003:0E6CD4CC       aAmbadspImgseth_54
 0003:0E6CD50C       aAmbadspImgseth_55
 0003:0E6CD544       aWarningCannotG_27
 0003:0E6CD568       aAmbadspImgseth_56
 0003:0E6CD59C       aWarningAmbadsp_144
 0003:0E6CD5F0       aAmbadspImgseth_57
 0003:0E6CD628       aAmbadspImgseth_58
 0003:0E6CD660       aWarningAmbadsp_145
 0003:0E6CD6B0       aAmbadspImgseth_59
 0003:0E6CD6E8       aAmbadspImgseth_60
 0003:0E6CD728       aWarningAmbadsp_146
 0003:0E6CD780       aAmbadspImgseth_61
 0003:0E6CD7C0       aAmbadspImgseth_62
 0003:0E6CD7FC       aWarningAmbadsp_147
 0003:0E6CD850       aAmbadspImgseth_63
 0003:0E6CD88C       aAmbadspImgseth_64
 0003:0E6CD8D4       aWarningAmbadsp_148
 0003:0E6CD938       aAmbadspImgseth_65
 0003:0E6CD980       aAmbadspImgseth_66
 0003:0E6CD9C8       aWarningAmbadsp_149
 0003:0E6CDA28       aAmbadspImgseth_67
 0003:0E6CDA70       aAmbadspImgseth_68
 0003:0E6CDAB4       aWarningAmbadsp_150
 0003:0E6CDB10       aAmbadspImgseth_69
 0003:0E6CDB54       aWarningHighiso_13
 0003:0E6CDB80       aAmbadspImggeth_27
 0003:0E6CDBB4       aWarningAmbadsp_151
 0003:0E6CDC04       aAmbadspImggeth_28
 0003:0E6CDC3C       aWarningHighiso_14
 0003:0E6CDC6C       aAmbadspImggeth_29
 0003:0E6CDCA4       aWarningAmbadsp_152
 0003:0E6CDCF4       aAmbadspImggeth_30
 0003:0E6CDD2C       aWarningHighiso_15
 0003:0E6CDD54       aAmbadspImggeth_31
 0003:0E6CDD94       aWarningAmbadsp_153
 0003:0E6CDDEC       aAmbadspImggeth_32
 0003:0E6CDE2C       aWarningHighiso_16
 0003:0E6CDE58       aAmbadspImggeth_33
 0003:0E6CDE94       aWarningAmbadsp_154
 0003:0E6CDEE8       aAmbadspImggeth_34
 0003:0E6CDF24       aWarningHighiso_17
 0003:0E6CDF4C       aAmbadspImggeth_35
 0003:0E6CDF94       aWarningAmbadsp_155
 0003:0E6CDFF8       aAmbadspImggeth_36
 0003:0E6CE040       aAmbadspImggeth_37
 0003:0E6CE088       aWarningAmbadsp_156
 0003:0E6CE0E8       aAmbadspImggeth_38
 0003:0E6CE130       aAmbadspImggeth_39
 0003:0E6CE174       aWarningAmbadsp_157
 0003:0E6CE1D0       aAmbadspImggeth_40
 0003:0E6CE214       aAmbadspImgseth_70
 0003:0E6CE248       aWarningAmbadsp_158
 0003:0E6CE29C       aAmbadspImgseth_71
 0003:0E6CE2D0       aAmbadspImgseth_72
 0003:0E6CE304       aWarningAmbadsp_159
 0003:0E6CE354       aAmbadspImgseth_73
 0003:0E6CE38C       aAmbadspImgseth_74
 0003:0E6CE3C8       aWarningAmbadsp_160
 0003:0E6CE420       aAmbadspImgseth_75
 0003:0E6CE460       aAmbadspImgseth_76
 0003:0E6CE49C       aWarningAmbadsp_161
 0003:0E6CE4F0       aAmbadspImgseth_77
 0003:0E6CE52C       aAmbadspImgseth_78
 0003:0E6CE574       aWarningAmbadsp_162
 0003:0E6CE5D4       aAmbadspImgseth_79
 0003:0E6CE61C       aAmbadspImgseth_80
 0003:0E6CE664       aWarningAmbadsp_163
 0003:0E6CE6C4       aAmbadspImgseth_81
 0003:0E6CE70C       aAmbadspImgseth_82
 0003:0E6CE750       aWarningAmbadsp_164
 0003:0E6CE7AC       aAmbadspImgseth_83
 0003:0E6CE7F0       aWarningHighiso_18
 0003:0E6CE81C       aAmbadspImggeth_41
 0003:0E6CE850       aWarningAmbadsp_165
 0003:0E6CE8A0       aAmbadspImggeth_42
 0003:0E6CE8D4       aWarningHighiso_19
 0003:0E6CE900       aAmbadspImggeth_43
 0003:0E6CE934       aWarningAmbadsp_166
 0003:0E6CE984       aAmbadspImggeth_44
 0003:0E6CE9BC       aWarningHighiso_20
 0003:0E6CE9E4       aAmbadspImggeth_45
 0003:0E6CEA20       aWarningAmbadsp_167
 0003:0E6CEA78       aAmbadspImggeth_46
 0003:0E6CEAB8       aWarningHighiso_21
 0003:0E6CEAE4       aAmbadspImggeth_47
 0003:0E6CEB20       aWarningAmbadsp_168
 0003:0E6CEB74       aAmbadspImggeth_48
 0003:0E6CEBB0       aWarningHighiso_22
 0003:0E6CEBD8       aAmbadspImggeth_49
 0003:0E6CEC20       aWarningAmbadsp_169
 0003:0E6CEC80       aAmbadspImggeth_50
 0003:0E6CECC8       aAmbadspImggeth_51
 0003:0E6CED10       aWarningAmbadsp_170
 0003:0E6CED70       aAmbadspImggeth_52
 0003:0E6CEDB8       aAmbadspImggeth_53
 0003:0E6CEDFC       aWarningAmbadsp_171
 0003:0E6CEE58       aAmbadspImggeth_54
 0003:0E6CEE9C       aWarningEnableD_10
 0003:0E6CEEEC       aWarningModeDSh_3
 0003:0E6CEF34       aWarningEdgethr_3
 0003:0E6CEF8C       aWarningWideedg_3
 0003:0E6CEFE4       aSethighisoliso
 0003:0E6CF004       aThreeD_2
 0003:0E6CF00C       aSethighisoliso_0
 0003:0E6CF030       aNoiseFir_5
 0003:0E6CF03C       aLevelStrAdjust_4
 0003:0E6CF050       aWarningCoringD_3
 0003:0E6CF0AC       aSethighisoliso_1
 0003:0E6CF0D4       aSethighisoliso_2
 0003:0E6CF108       aSharpenMinCori_2
 0003:0E6CF124       aSethighisoliso_3
 0003:0E6CF158       aSharpenCoringI_2
 0003:0E6CF174       aSethighisoliso_4
 0003:0E6CF1A4       aSharpenScaleCo_2
 0003:0E6CF1BC       aAmbadspImgseth_84
 0003:0E6CF1F0       aPipeDAlgoDFunc_22
 0003:0E6CF22C       aEnableDModeDEd_2
 0003:0E6CF264       aThreed_3
 0003:0E6CF26C       aUp5x5DDown5x5D_2
 0003:0E6CF290       aAmbadspImgprin_1
 0003:0E6CF2C4       aMaxchangeupDMa_2
 0003:0E6CF2EC       aNoiseFir_6
 0003:0E6CF2F8       aAmbadspImgseth_85
 0003:0E6CF330       aAmbadspImgseth_86
 0003:0E6CF364       aSharpenFir_2
 0003:0E6CF370       aAmbadspImgseth_87
 0003:0E6CF3B0       aMinCoringResul_2
 0003:0E6CF3C4       aAmbadspImgseth_88
 0003:0E6CF404       aCoringIndexSca_2
 0003:0E6CF418       aAmbadspImgseth_89
 0003:0E6CF454       aScaleCoring_2
 0003:0E6CF464       aWarningEnableD_11
 0003:0E6CF4B4       aWarningModeDSh_4
 0003:0E6CF4FC       aWarningEdgethr_4
 0003:0E6CF554       aWarningWideedg_4
 0003:0E6CF5AC       aSethighisoliso_5
 0003:0E6CF5CC       aSethighisoliso_6
 0003:0E6CF5F0       aWarningCoringD_4
 0003:0E6CF64C       aSethighisoliso_7
 0003:0E6CF674       aSethighisoliso_8
 0003:0E6CF6A8       aSethighisoliso_9
 0003:0E6CF6DC       aSethighisoliso_10
 0003:0E6CF70C       aAmbadspImgseth_90
 0003:0E6CF740       aAmbadspImgprin_2
 0003:0E6CF774       aAmbadspImgseth_91
 0003:0E6CF7AC       aAmbadspImgseth_92
 0003:0E6CF7E0       aAmbadspImgseth_93
 0003:0E6CF820       aAmbadspImgseth_94
 0003:0E6CF860       aAmbadspImgseth_95
 0003:0E6CF89C       aWarningCannotG_28
 0003:0E6CF8C0       aAmbadspImgseth_96
 0003:0E6CF8F8       aWarningAmbadsp_172
 0003:0E6CF94C       aAmbadspImgseth_97
 0003:0E6CF984       aAmbadspImgseth_98
 0003:0E6CF9BC       aWarningAmbadsp_173
 0003:0E6CFA0C       aAmbadspImgseth_99
 0003:0E6CFA44       aAmbadspImgseth_100
 0003:0E6CFA84       aWarningAmbadsp_174
 0003:0E6CFADC       aAmbadspImgseth_101
 0003:0E6CFB1C       aAmbadspImgseth_102
 0003:0E6CFB58       aWarningAmbadsp_175
 0003:0E6CFBB0       aAmbadspImgseth_103
 0003:0E6CFBEC       aAmbadspImgseth_104
 0003:0E6CFC34       aWarningAmbadsp_176
 0003:0E6CFC98       aAmbadspImgseth_105
 0003:0E6CFCE4       aAmbadspImgseth_106
 0003:0E6CFD2C       aWarningAmbadsp_177
 0003:0E6CFD90       aAmbadspImgseth_107
 0003:0E6CFDD8       aAmbadspImgseth_108
 0003:0E6CFE1C       aWarningAmbadsp_178
 0003:0E6CFE7C       aAmbadspImgseth_109
 0003:0E6CFEC0       aWarningHighiso_23
 0003:0E6CFEEC       aAmbadspImggeth_55
 0003:0E6CFF24       aWarningAmbadsp_179
 0003:0E6CFF74       aAmbadspImggeth_56
 0003:0E6CFFAC       aWarningHighiso_24
 0003:0E6CFFDC       aAmbadspImggeth_57
 0003:0E6D0014       aWarningAmbadsp_180
 0003:0E6D0064       aAmbadspImggeth_58
 0003:0E6D009C       aWarningHighiso_25
 0003:0E6D00C4       aAmbadspImggeth_59
 0003:0E6D0104       aWarningAmbadsp_181
 0003:0E6D015C       aAmbadspImggeth_60
 0003:0E6D019C       aWarningHighiso_26
 0003:0E6D01C8       aAmbadspImggeth_61
 0003:0E6D0204       aWarningAmbadsp_182
 0003:0E6D025C       aAmbadspImggeth_62
 0003:0E6D0298       aWarningHighiso_27
 0003:0E6D02C0       aAmbadspImggeth_63
 0003:0E6D0308       aWarningAmbadsp_183
 0003:0E6D036C       aAmbadspImggeth_64
 0003:0E6D03B8       aAmbadspImggeth_65
 0003:0E6D0400       aWarningAmbadsp_184
 0003:0E6D0464       aAmbadspImggeth_66
 0003:0E6D04AC       aAmbadspImggeth_67
 0003:0E6D04F0       aWarningAmbadsp_185
 0003:0E6D0550       aAmbadspImggeth_68
 0003:0E6D0594       aAmbadspImgseth_110
 0003:0E6D05CC       aWarningAmbadsp_186
 0003:0E6D0620       aAmbadspImgseth_111
 0003:0E6D0658       aAmbadspImgseth_112
 0003:0E6D0690       aWarningAmbadsp_187
 0003:0E6D06E0       aAmbadspImgseth_113
 0003:0E6D0718       aAmbadspImgseth_114
 0003:0E6D0758       aWarningAmbadsp_188
 0003:0E6D07B0       aAmbadspImgseth_115
 0003:0E6D07F0       aAmbadspImgseth_116
 0003:0E6D082C       aWarningAmbadsp_189
 0003:0E6D0884       aAmbadspImgseth_117
 0003:0E6D08C0       aAmbadspImgseth_118
 0003:0E6D0908       aWarningAmbadsp_190
 0003:0E6D096C       aAmbadspImgseth_119
 0003:0E6D09B8       aAmbadspImgseth_120
 0003:0E6D0A00       aWarningAmbadsp_191
 0003:0E6D0A64       aAmbadspImgseth_121
 0003:0E6D0AAC       aAmbadspImgseth_122
 0003:0E6D0AF0       aWarningAmbadsp_192
 0003:0E6D0B50       aAmbadspImgseth_123
 0003:0E6D0B94       aWarningHighiso_28
 0003:0E6D0BC0       aAmbadspImggeth_69
 0003:0E6D0BF8       aWarningAmbadsp_193
 0003:0E6D0C48       aAmbadspImggeth_70
 0003:0E6D0C80       aWarningHighiso_29
 0003:0E6D0CAC       aAmbadspImggeth_71
 0003:0E6D0CE4       aWarningAmbadsp_194
 0003:0E6D0D34       aAmbadspImggeth_72
 0003:0E6D0D6C       aWarningHighiso_30
 0003:0E6D0D94       aAmbadspImggeth_73
 0003:0E6D0DD4       aWarningAmbadsp_195
 0003:0E6D0E2C       aAmbadspImggeth_74
 0003:0E6D0E6C       aWarningHighiso_31
 0003:0E6D0E98       aAmbadspImggeth_75
 0003:0E6D0ED4       aWarningAmbadsp_196
 0003:0E6D0F2C       aAmbadspImggeth_76
 0003:0E6D0F68       aWarningHighiso_32
 0003:0E6D0F90       aAmbadspImggeth_77
 0003:0E6D0FD8       aWarningAmbadsp_197
 0003:0E6D103C       aAmbadspImggeth_78
 0003:0E6D1088       aAmbadspImggeth_79
 0003:0E6D10D0       aWarningAmbadsp_198
 0003:0E6D1134       aAmbadspImggeth_80
 0003:0E6D117C       aAmbadspImggeth_81
 0003:0E6D11C0       aWarningAmbadsp_199
 0003:0E6D1220       aAmbadspImggeth_82
 0003:0E6D1264       aWarningEnableD_12
 0003:0E6D12B0       aWarningNoisele_0
 0003:0E6D1304       aWarningNoisele_1
 0003:0E6D1354       aWarningOrigina_2
 0003:0E6D13B0       aWarningOrigina_3
 0003:0E6D140C       aWarningRadiusD_1
 0003:0E6D145C       aAmbadspImghigh_5
 0003:0E6D1484       aPipeDAlgoDFunc_23
 0003:0E6D14C0       aEnableDNoisele_0
 0003:0E6D14F0       aOriginalblends_0
 0003:0E6D1538       aAmbadspImghigh_6
 0003:0E6D1568       aEdgestartcbDEd
 0003:0E6D15A8       aWarningEnableD_13
 0003:0E6D15F0       aWarningNoisele_2
 0003:0E6D1644       aWarningNoisele_3
 0003:0E6D1698       aWarningOrigina_4
 0003:0E6D16F4       aWarningOrigina_5
 0003:0E6D1750       aAmbadspImghigh_7
 0003:0E6D1778       aEnableDNoisele_1
 0003:0E6D17E0       aWarningEnableD_14
 0003:0E6D1828       aWarningNoisele_4
 0003:0E6D187C       aWarningNoisele_5
 0003:0E6D18D0       aWarningOrigina_6
 0003:0E6D192C       aWarningOrigina_7
 0003:0E6D1988       aAmbadspImghigh_8
 0003:0E6D19B0       aWarningEnableD_15
 0003:0E6D19F8       aWarningNoisele_6
 0003:0E6D1A4C       aWarningNoisele_7
 0003:0E6D1AA0       aWarningOrigina_8
 0003:0E6D1AFC       aWarningOrigina_9
 0003:0E6D1B58       aAmbadspImghigh_9
 0003:0E6D1B80       aWarningEnableD_16
 0003:0E6D1BCC       aWarningNoisele_8
 0003:0E6D1C24       aWarningNoisele_9
 0003:0E6D1C7C       aWarningOrigina_10
 0003:0E6D1CDC       aWarningOrigina_11
 0003:0E6D1D3C       aAmbadspImghigh_10
 0003:0E6D1D68       aWarningCannotG_29
 0003:0E6D1D8C       aAmbadspImghigh_11
 0003:0E6D1DBC       aWarningAmbadsp_200
 0003:0E6D1E08       aAmbadspImghigh_12
 0003:0E6D1E3C       aWarningPchroma_2
 0003:0E6D1E64       aAmbadspImghigh_13
 0003:0E6D1E94       aWarningAmbadsp_201
 0003:0E6D1EE0       aAmbadspImghigh_14
 0003:0E6D1F14       aAmbadspImghigh_15
 0003:0E6D1F4C       aWarningAmbadsp_202
 0003:0E6D1F9C       aAmbadspImghigh_16
 0003:0E6D1FD4       aWarningPchroma_3
 0003:0E6D2000       aAmbadspImghigh_17
 0003:0E6D2038       aWarningAmbadsp_203
 0003:0E6D2088       aAmbadspImghigh_18
 0003:0E6D20C0       aAmbadspImghigh_19
 0003:0E6D20F0       aWarningAmbadsp_204
 0003:0E6D213C       aAmbadspImghigh_20
 0003:0E6D216C       aWarningPchroma_4
 0003:0E6D2190       aAmbadspImghigh_21
 0003:0E6D21C0       aWarningAmbadsp_205
 0003:0E6D220C       aAmbadspImghigh_22
 0003:0E6D223C       aAmbadspImghigh_23
 0003:0E6D226C       aWarningAmbadsp_206
 0003:0E6D22B8       aAmbadspImghigh_24
 0003:0E6D22E8       aWarningPchroma_5
 0003:0E6D230C       aAmbadspImghigh_25
 0003:0E6D233C       aWarningAmbadsp_207
 0003:0E6D2388       aAmbadspImghigh_26
 0003:0E6D23B8       aAmbadspImghigh_27
 0003:0E6D23E8       aWarningAmbadsp_208
 0003:0E6D2434       aAmbadspImghigh_28
 0003:0E6D2464       aWarningPchroma_6
 0003:0E6D2488       aAmbadspImghigh_29
 0003:0E6D24B8       aWarningAmbadsp_209
 0003:0E6D2504       aAmbadspImghigh_30
 0003:0E6D2534       aAmbadspImghigh_31
 0003:0E6D2568       aWarningAmbadsp_210
 0003:0E6D25B8       aAmbadspImghigh_32
 0003:0E6D25EC       aWarningPchroma_7
 0003:0E6D2614       aAmbadspImghigh_33
 0003:0E6D2648       aWarningAmbadsp_211
 0003:0E6D2698       aAmbadspImghigh_34
 0003:0E6D26CC       aWarningT0DShou_1
 0003:0E6D2714       aWarningT1DShou_1
 0003:0E6D275C       aWarningT1DSmal_0
 0003:0E6D27A0       aWarningMaxchan
 0003:0E6D2800       aWarningSignalp
 0003:0E6D2854       aHighisosetluma
 0003:0E6D2870       aEitherMaxChang
 0003:0E6D2890       aThreeD_3
 0003:0E6D2898       aAmbadspImghigh_35
 0003:0E6D28C0       aPipeDAlgoDFunc_24
 0003:0E6D28FC       aT0DT1DAlphamax
 0003:0E6D2964       aEithermaxchang
 0003:0E6D2980       aThreed_4
 0003:0E6D2988       aWarningT0DShou_2
 0003:0E6D29CC       aWarningT1DShou_2
 0003:0E6D2A10       aWarningT1DSmal_1
 0003:0E6D2A50       aWarningMaxchan_0
 0003:0E6D2AAC       aWarningSignalp_0
 0003:0E6D2AFC       aHighisosetlowa
 0003:0E6D2B14       aAmbadspImghigh_36
 0003:0E6D2B38       aWarningT0cbDSh
 0003:0E6D2B88       aWarningT1cbDSh
 0003:0E6D2BD8       aWarningT1CbDSm
 0003:0E6D2C28       aWarningMaxchan_1
 0003:0E6D2C90       aWarningSignalp_1
 0003:0E6D2CEC       aHighisosetchro
 0003:0E6D2D10       aCbEithermaxcha
 0003:0E6D2D2C       aWarningT0crDSh
 0003:0E6D2D7C       aWarningT1crDSh
 0003:0E6D2DCC       aWarningT1CrDSm
 0003:0E6D2E1C       aWarningMaxchan_2
 0003:0E6D2E84       aWarningSignalp_2
 0003:0E6D2EE0       aCrEithermaxcha
 0003:0E6D2EFC       aAmbadspImghigh_37
 0003:0E6D2F2C       aT0cbDT1cbDAlph
 0003:0E6D2FA0       aT0crDT1cbDAlph
 0003:0E6D3014       aWarningT0cbDSh_0
 0003:0E6D3064       aWarningT1cbDSh_0
 0003:0E6D30B4       aWarningT1CbDSm_0
 0003:0E6D3104       aWarningMaxchan_3
 0003:0E6D316C       aWarningSignalp_3
 0003:0E6D31C8       aHighisosetchro_0
 0003:0E6D31EC       aWarningT0crDSh_0
 0003:0E6D323C       aWarningT1crDSh_0
 0003:0E6D328C       aWarningT1CrDSm_0
 0003:0E6D32DC       aWarningMaxchan_4
 0003:0E6D3344       aWarningSignalp_4
 0003:0E6D33A0       aAmbadspImghigh_38
 0003:0E6D33D0       aWarningT0cbDSh_1
 0003:0E6D3424       aWarningT1cbDSh_1
 0003:0E6D3478       aWarningT1CbDSm_1
 0003:0E6D34CC       aWarningMaxchan_5
 0003:0E6D3538       aWarningSignalp_5
 0003:0E6D3598       aHighisosetchro_1
 0003:0E6D35C0       aWarningT0crDSh_1
 0003:0E6D3614       aWarningT1crDSh_1
 0003:0E6D3668       aWarningT1CrDSm_1
 0003:0E6D36BC       aWarningMaxchan_6
 0003:0E6D3728       aWarningSignalp_6
 0003:0E6D3788       aAmbadspImghigh_39
 0003:0E6D37BC       aSet1stsharpenn_6
 0003:0E6D37DC       aHighisosethigh
 0003:0E6D37FC       aFreqRecover
 0003:0E6D380C       aAmbadspImghigh_40
 0003:0E6D3838       aMaxdownDMaxupD
 0003:0E6D3850       aLevel
 0003:0E6D3858       aWarningT0cbDSh_2
 0003:0E6D38A0       aWarningT1cbDSh_2
 0003:0E6D38E8       aWarningT1cbDSm
 0003:0E6D392C       aWarningMaxchan_7
 0003:0E6D398C       aWarningSignalp_7
 0003:0E6D39E0       aWarningT0crDSh_2
 0003:0E6D3A28       aWarningT1crDSh_2
 0003:0E6D3A70       aWarningT1crDSm
 0003:0E6D3AB4       aWarningMaxchan_8
 0003:0E6D3B14       aWarningSignalp_8
 0003:0E6D3B68       aWarningT0yDSho
 0003:0E6D3BB0       aWarningT1yDSho
 0003:0E6D3BF8       aWarningT1yDSma
 0003:0E6D3C3C       aWarningMaxchan_9
 0003:0E6D3C98       aWarningSignalp_9
 0003:0E6D3CE8       aHighisosethigh_0
 0003:0E6D3D04       aYEithermaxchan
 0003:0E6D3D20       aAmbadspImghigh_41
 0003:0E6D3D48       aT0yDT1yDAlpham
 0003:0E6D3DB8       aWarningEnableD_17
 0003:0E6D3E04       aAmbadspImghigh_42
 0003:0E6D3E2C       aEnableD_3
 0003:0E6D3E3C       aHighisosethigh_1
 0003:0E6D3E5C       aBlendLuma
 0003:0E6D3E68       aAmbadspImghigh_43
 0003:0E6D3E94       aWarningCannotG_30
 0003:0E6D3EB8       aAmbadspImghigh_44
 0003:0E6D3EE8       aWarningAmbadsp_212
 0003:0E6D3F34       aAmbadspImghigh_45
 0003:0E6D3F68       aWarningPlumano
 0003:0E6D3F90       aAmbadspImghigh_46
 0003:0E6D3FC0       aWarningAmbadsp_213
 0003:0E6D400C       aAmbadspImghigh_47
 0003:0E6D4040       aAmbadspImghigh_48
 0003:0E6D4070       aWarningAmbadsp_214
 0003:0E6D40B8       aAmbadspImghigh_49
 0003:0E6D40E8       aWarningPlowasf
 0003:0E6D410C       aAmbadspImghigh_50
 0003:0E6D413C       aWarningAmbadsp_215
 0003:0E6D4184       aAmbadspImghigh_51
 0003:0E6D41B4       aAmbadspImghigh_52
 0003:0E6D41EC       aWarningAmbadsp_216
 0003:0E6D423C       aAmbadspImghigh_53
 0003:0E6D4274       aWarningPchroma_8
 0003:0E6D42A0       aAmbadspImghigh_54
 0003:0E6D42D8       aWarningAmbadsp_217
 0003:0E6D4328       aAmbadspImghigh_55
 0003:0E6D4360       aAmbadspImghigh_56
 0003:0E6D4398       aWarningAmbadsp_218
 0003:0E6D43E8       aAmbadspImghigh_57
 0003:0E6D4420       aWarningPchroma_9
 0003:0E6D444C       aAmbadspImghigh_58
 0003:0E6D4484       aWarningAmbadsp_219
 0003:0E6D44D4       aAmbadspImghigh_59
 0003:0E6D450C       aAmbadspImghigh_60
 0003:0E6D4548       aWarningAmbadsp_220
 0003:0E6D459C       aAmbadspImghigh_61
 0003:0E6D45D8       aWarningPchroma_10
 0003:0E6D4608       aAmbadspImghigh_62
 0003:0E6D4644       aWarningAmbadsp_221
 0003:0E6D4698       aAmbadspImghigh_63
 0003:0E6D46D4       aAmbadspImghigh_64
 0003:0E6D4708       aWarningAmbadsp_222
 0003:0E6D4754       aAmbadspImghigh_65
 0003:0E6D4788       aWarningPhighis
 0003:0E6D47B0       aAmbadspImghigh_66
 0003:0E6D47E4       aWarningAmbadsp_223
 0003:0E6D4830       aAmbadspImghigh_67
 0003:0E6D4864       aAmbadspImghigh_68
 0003:0E6D4894       aWarningAmbadsp_224
 0003:0E6D48DC       aAmbadspImghigh_69
 0003:0E6D490C       aWarningPhighis_0
 0003:0E6D4930       aAmbadspImghigh_70
 0003:0E6D4960       aWarningAmbadsp_225
 0003:0E6D49A8       aAmbadspImghigh_71
 0003:0E6D49D8       aAmbadspImghigh_72
 0003:0E6D4A08       aWarningAmbadsp_226
 0003:0E6D4A54       aAmbadspImghigh_73
 0003:0E6D4A84       aWarningPhighis_1
 0003:0E6D4AAC       aAmbadspImghigh_74
 0003:0E6D4ADC       aWarningAmbadsp_227
 0003:0E6D4B28       aAmbadspImghigh_75
 0003:0E6D4B5C       aAmbadspImghigh_76
 0003:0E6D4B94       aWarningAmbadsp_228
 0003:0E6D4BE4       aAmbadspImghigh_77
 0003:0E6D4C1C       aWarningPhighis_2
 0003:0E6D4C48       aAmbadspImghigh_78
 0003:0E6D4C80       aWarningAmbadsp_229
 0003:0E6D4CD0       aAmbadspImghigh_79
 0003:0E6D4D08       aSControl0x04x
 0003:0E6D4D20       aEnableVideoInp
 0003:0E6D4D3C       aEnableCaptureW
 0003:0E6D4D58       aValidDataClock
 0003:0E6D4D90       aValidDataClock_0
 0003:0E6D4DC8       aOperatingModeS
 0003:0E6D4DE4       aOperatingModeM
 0003:0E6D4E00       aOperatingModeB
 0003:0E6D4E2C       aOperatingModeU
 0003:0E6D4E4C       aSyncModeBt656E
 0003:0E6D4E78       aSyncModeBt601E
 0003:0E6D4EA0       aEmbeddedSyncCo
 0003:0E6D4EDC       aEmbeddedSyncCo_0
 0003:0E6D4F10       aEmbeddedSyncCo_1
 0003:0E6D4F3C       aEmbeddedSyncCo_2
 0003:0E6D4F68       aEmbeddedSyncCo_3
 0003:0E6D4FA4       aVsyncPolarityA
 0003:0E6D4FC4       aVsyncPolarityA_0
 0003:0E6D4FE4       aHsyncPolarityA
 0003:0E6D5004       aHsyncPolarityA_0
 0003:0E6D5024       aField0Polarity
 0003:0E6D5040       aIsSonySpecific
 0003:0E6D5064       aIsSonySpecific_0
 0003:0E6D5088       aEnableBt656Err
 0003:0E6D50AC       aToggleHsyncDur
 0003:0E6D50D0       aToggleHsyncDur_0
 0003:0E6D513C       aSInputconfig0x
 0003:0E6D5154       aPadTypeLvds
 0003:0E6D5168       aPadTypeLvcmos
 0003:0E6D5180       aDataRateDual
 0003:0E6D5194       aDataRateSingle
 0003:0E6D51AC       aDataWidth2Pixe
 0003:0E6D51C4       aDataWidth1Pixe
 0003:0E6D51DC       aInputSourceGpi
 0003:0E6D51F4       aInputSourceLvd
 0003:0E6D520C       aColorSpaceOfIn
 0003:0E6D5234       aColorSpaceOfIn_0
 0003:0E6D525C       aDataTypeYuv422
 0003:0E6D5288       aDataTypeRaw10B
 0003:0E6D52A4       aDataTypeRaw12B
 0003:0E6D52C0       aDataTypeRaw14B
 0003:0E6D52DC       aInputOrderOfYu
 0003:0E6D5308       aInputOrderOfYu_0
 0003:0E6D5334       aInputOrderOfYu_1
 0003:0E6D5360       aInputOrderOfYu_2
 0003:0E6D538C       aInputOrderOfYu_3
 0003:0E6D53BC       aInputOrderOfYu_4
 0003:0E6D53EC       aInputOrderOfYu_5
 0003:0E6D541C       aInputOrderOfYu_6
 0003:0E6D544C       aSensorInterfac
 0003:0E6D5468       aSensorInterfac_0
 0003:0E6D5488       aSerialInterfac
 0003:0E6D54A8       aSerialInterfac_0
 0003:0E6D54C8       aSStatus0x04x
 0003:0E6D54DC       aBeginofframeDe
 0003:0E6D54F8       aTrigger0Trigge
 0003:0E6D5514       aTrigger0NoTrig
 0003:0E6D5530       aTrigger1Trigge
 0003:0E6D554C       aTrigger1NoTrig
 0003:0E6D5568       aFifoOverflowD
 0003:0E6D5580       aShortLineD
 0003:0E6D5594       aShortFrameD
 0003:0E6D55A8       aCurrentvideofi
 0003:0E6D55C4       aLossOfHsync1Hs
 0003:0E6D55F0       aLossOfHsync0Hs
 0003:0E6D5618       aLossOfVsync1Vs
 0003:0E6D5644       aLossOfVsync0Vs
 0003:0E6D566C       aFrameEndD
 0003:0E6D5680       aMasterModeFram
 0003:0E6D569C       aCapturedWindow
 0003:0E6D56B8       aUcBt656ErrorsD
 0003:0E6D56D0       aIllegalProgram
 0003:0E6D56EC       aSlvsControl0x0
 0003:0E6D5704       aSlvsModeEnable
 0003:0E6D571C       aSonySensorMode
 0003:0E6D5734       aSyncCodeRepeat
 0003:0E6D575C       aSyncCodeRepeat_0
 0003:0E6D5788       aEnableSyncCode
 0003:0E6D57B0       aEnableNJitterS
 0003:0E6D57D4       aStallVinWhenSl
 0003:0E6D57F8       aApplyNewParamA
 0003:0E6D5820       aApplyNewParamA_0
 0003:0E6D5848       aNumberOfActive
 0003:0E6D586C       aEnableVsyncMax
 0003:0E6D588C       aAllowVariableL
 0003:0E6D58B0       aNumberOfCodeCh
 0003:0E6D58CC       aSlvsControl10x
 0003:0E6D58E4       aSlvsSyncCodeRe
 0003:0E6D5908       aSlvsSyncCodeLs
 0003:0E6D5928       aSlvsDetectEavD
 0003:0E6D5940       aSlvsStatus0x04
 0003:0E6D5958       aReceiverHadLoc
 0003:0E6D5984       aReceiverEntere
 0003:0E6D59AC       aVsyncPositiveE
 0003:0E6D59D0       aVsyncNegativeE
 0003:0E6D59F4       aOneFullActiveL
 0003:0E6D5A1C       aMaxFrameHeight
 0003:0E6D5A40       aReceivedNewPro
 0003:0E6D5A6C       aOutputStallSee
 0003:0E6D5A88       aInputEndOfLine
 0003:0E6D5AAC       aOutputEndOfLin
 0003:0E6D5AD0       aSyncCodeMatchD
 0003:0E6D5AF4       aPixelCaptureAc
 0003:0E6D5B14       aValidPixelHasB
 0003:0E6D5B3C       aSolHasBeenSent
 0003:0E6D5B60       aEolHasBeenSent
 0003:0E6D5B84       aSyncCodeErrorH
 0003:0E6D5BB0       aSlvsDebug0x04x
 0003:0E6D5BC8       aSlvsReceiverLo
 0003:0E6D5BEC       aSlvsReceiverWa
 0003:0E6D5C10       aCurrentVsyncSt
 0003:0E6D5C30       aSerialSyncCode
 0003:0E6D5C50       aHblank0xX
 0003:0E6D5C64       aVsyncGreaterTh
 0003:0E6D5C84       aNewProgramingI
 0003:0E6D5CA8       aOutputStall0xX
 0003:0E6D5CC0       aSyncCodeWordCo
 0003:0E6D5CE0       aPixelDepth0xX
 0003:0E6D5CF8       aNumberOfActive_0
 0003:0E6D5D18       aMipiConfig00x0
 0003:0E6D5D30       aMipiConfig10x0
 0003:0E6D5D48       aVirtualchannel
 0003:0E6D5D64       aVirtualchannel_0
 0003:0E6D5D80       aMipiLogicEnabl
 0003:0E6D5D9C       aMipiHsSettleCo
 0003:0E6D5DBC       aDecompressionI
 0003:0E6D5DFC       aDecompressionI_0
 0003:0E6D5E3C       aDataTypeSelect
 0003:0E6D5E6C       aDataTypeSelect_0
 0003:0E6D5E98       aDataTypeSelect_1
 0003:0E6D5EC4       aDataTypeSelect_2
 0003:0E6D5EF0       aDataTypeSelect_3
 0003:0E6D5F1C       aDataTypeSelect_4
 0003:0E6D5F50       aDataTypeSelect_5
 0003:0E6D5F88       aDataTypeSelect_6
 0003:0E6D5FC0       aDataTypeSelect_7
 0003:0E6D5FF0       aDataTypeMask0x
 0003:0E6D6008       aByteSwappingSh
 0003:0E6D6030       aMipiError0x04x
 0003:0E6D6048       a0DataLane0SotH
 0003:0E6D606C       a1DataLane1SotH
 0003:0E6D6090       a2DataLane2SotH
 0003:0E6D60B4       a3DataLane3SotH
 0003:0E6D60D8       a42BitOfErrorsD
 0003:0E6D6100       a51BitOfEroorCo
 0003:0E6D6128       a6CrcErrorDetec
 0003:0E6D6144       a7UnknownPacket
 0003:0E6D6168       a8FrameendFrame
 0003:0E6D6190       a9DataLane0SotH
 0003:0E6D61B8       a10DataLane1Sot
 0003:0E6D61E0       a11DataLane2Sot
 0003:0E6D6208       a12DataLane3Sot
 0003:0E6D6230       aMipiPhyState0x
 0003:0E6D624C       a0RxHighSpeedCl
 0003:0E6D6268       a1RxUltraLowPow
 0003:0E6D6290       a2ClockLaneUltr
 0003:0E6D62B8       a3ClockLaneStop
 0003:0E6D62D4       a4DataLane0Ultr
 0003:0E6D62FC       a5DataLane0Stop
 0003:0E6D631C       a6DataLane1Ultr
 0003:0E6D6344       a7DataLane1Stop
 0003:0E6D6364       a8DataLane2Ultr
 0003:0E6D638C       a9DataLane2Stop
 0003:0E6D63AC       a10DataLane3Ult
 0003:0E6D63D4       a11DataLane3Sto
 0003:0E6D63F4       aMipiPhyStatus0
 0003:0E6D6410       a0Rxactivehs00x
 0003:0E6D642C       a1Rxactivehs10x
 0003:0E6D6448       a2Rxactivehs20x
 0003:0E6D6464       a3Rxactivehs30x
 0003:0E6D6480       a4Errcontrol00x
 0003:0E6D649C       a5Errcontrol10x
 0003:0E6D64B8       a6Errcontrol20x
 0003:0E6D64D4       a7Errcontrol30x
 0003:0E6D64F0       aVinInfoParseBe
 0003:0E6D6508       aSVActiveD
 0003:0E6D651C       aSHActiveD
 0003:0E6D6530       aSVTotalD
 0003:0E6D6544       aSHTotalD
 0003:0E6D6558       aSMinvD
 0003:0E6D6568       aSMinhD
 0003:0E6D6578       aSVoutstart00xX
 0003:0E6D6590       aSVoutstart10xX
 0003:0E6D65A8       aSCaptureUUUU
 0003:0E6D65C4       aSlvsSavToSavFr
 0003:0E6D65E8       aSlvsEavColumnA
 0003:0E6D6614       aSlvsVsyncMaxD
 0003:0E6D662C       aSlvsLineSyncTi
 0003:0E6D6664       aSlvsDataLaneRe
 0003:0E6D667C       aLogical0123456
 0003:0E6D66B0       aPhysicalUUUUUU
 0003:0E6D66F0       aSlvsSyncCodeRe_0
 0003:0E6D6708       aActiveVideoSav
 0003:0E6D6744       aVerticalBlanki
 0003:0E6D6784       aMipiCrcErrorfr
 0003:0E6D67AC       aMipiFramenumbe
 0003:0E6D67CC       aVinInfoParseEn
 0003:0E6D67E4       aSEndpointStatu
 0003:0E6D6808       aSelfTestFailed
 0003:0E6D681C       aPartialDeletio
 0003:0E6D6830       aStoreNotAvaila
 0003:0E6D6844       aSpecByFormatUn
 0003:0E6D6860       aNoValidObjectI
 0003:0E6D6878       aInvalidCodeFor
 0003:0E6D688C       aUnknownVendorC
 0003:0E6D68A0       aCaptureAlready
 0003:0E6D68BC       aDeviceBusy
 0003:0E6D68C8       aInvalidParentO
 0003:0E6D68E0       aInvalidDeviceP
 0003:0E6D68FC       aInvalidDeviceP_0
 0003:0E6D6918       aInvalidParamet
 0003:0E6D692C       aSessionAlready
 0003:0E6D6944       aTransactionCan
 0003:0E6D695C       aSpecByDestinat
 0003:0E6D697C       aInvalidObjectP
 0003:0E6D6998       aInvalidObjectP_0
 0003:0E6D69B4       aInvalidObjectP_1
 0003:0E6D69D0       aInvalidObjectR
 0003:0E6D69EC       aGroupNotSuppor
 0003:0E6D6A00       aInvalidDataset
 0003:0E6D6A10       aSpecByGroupUns
 0003:0E6D6A2C       aSpecByDepthUns
 0003:0E6D6A48       aObjectTooLarge
 0003:0E6D6A5C       aObjectPropNotS
 0003:0E6D6A78       aUnknown_1
 0003:0E6D6A80       aUxDeviceClassP_5
 0003:0E6D6AA4       aError_2
 0003:0E6D6AD0       aSPimaIsNull
 0003:0E6D6B10       aPtpRspBlkStart
 0003:0E6D6B48       aRspCode0xXS
 0003:0E6D6B5C       aParam10xX
 0003:0E6D6B6C       aParam20xX
 0003:0E6D6B7C       aParam30xX
 0003:0E6D6B8C       aPtpRspBlkEnd
 0003:0E6D6BC4       aGetDeviceInfo
 0003:0E6D6BD4       aOpenSenssion
 0003:0E6D6BE4       aCloseSession
 0003:0E6D6BF4       aGetStorageIds
 0003:0E6D6C04       aGetStorageInfo
 0003:0E6D6C18       aGetNumObjects
 0003:0E6D6C28       aGetObjectHandl
 0003:0E6D6C3C       aGetObjectInfo
 0003:0E6D6C4C       aGetObject
 0003:0E6D6C58       aGetThumb
 0003:0E6D6C64       aDeleteObject
 0003:0E6D6C74       aSendObjectInfo
 0003:0E6D6C88       aSendObject
 0003:0E6D6C94       aFormatStore
 0003:0E6D6CA4       aGetDevicePropV
 0003:0E6D6CBC       aSetDevicePropV
 0003:0E6D6CD4       aGetPartialObje
 0003:0E6D6CE8       aGetDevicePrope
 0003:0E6D6D04       aGetObjectPrope
 0003:0E6D6D24       aGetObjectPrope_0
 0003:0E6D6D40       aGetObjectPrope_1
 0003:0E6D6D5C       aGetObjectPrope_2
 0003:0E6D6D78       aUnknown_2
 0003:0E6D6DA0       aUxDeviceClassI
 0003:0E6D6DCC       aUxSlaveClassTh_0
 0003:0E6D6DF4       aPtpCmdBlkStart
 0003:0E6D6E2C       aOpCode0xXS
 0003:0E6D6E40       aParam10xX_0
 0003:0E6D6E50       aParam20xX_0
 0003:0E6D6E60       aParam30xX_0
 0003:0E6D6E70       aParam40xX
 0003:0E6D6E80       aParam50xX
 0003:0E6D6E90       aPtpCmdBlkEnd
 0003:0E6D6EC8       aMtpDrvOperatio
 0003:0E6D6EF4       aUsbResetByHost
 0003:0E6D6F08       aUsbVbusDisconn
 0003:0E6D6F20       aUsbVbusConnect
 0003:0E6D6F34       aSystemTimerThr
 0003:0E6D6F68       aSvFRatio0xXCal
 0003:0E6D6FC8       aAeIsoCalFunc
 0003:0E6D6FD8       aS_4
 0003:0E6D6FE0       aEvGetTvValue
 0003:0E6D6FF0       aErrorInImgGetT
 0003:0E6D7014       aKAssertAtSD_2
 0003:0E6D7028       aTvFIndexDTv4Sh
 0003:0E6D7074       aAvF
 0003:0E6D7088       aBvFLuxNumberD
 0003:0E6D70AC       aColumnNumberOr
 0003:0E6D712C       aKAssertAtSD_10
 0003:0E6D7140       aAmbafsNullprfi
 0003:0E6D7158       aPdmOpenDiskFai_1
 0003:0E6D7170       aPdmOpenPartiti_1
 0003:0E6D718C       aNoName_0
 0003:0E6D7998       aUsageSDriveOp
 0003:0E6D79B0       aValidOps
 0003:0E6D79C0       aInfoInformatio
 0003:0E6D79E0       aInsertSoftware
 0003:0E6D79FC       aEjectSoftwareE
 0003:0E6D7A18       aSyncSyncCardOp
 0003:0E6D7A38       aEnFfmonEnableF
 0003:0E6D7A60       aDisFfmonDisabl
 0003:0E6D7A88       aMountSlot
 0003:0E6D7A98       aUnmountSlot
 0003:0E6D7AAC       aFastEcnSlotPag
 0003:0E6D7AC8       aReinitReInitia
 0003:0E6D7AF4       aSdWorkingFrequ
 0003:0E6D7B10       aKhz
 0003:0E6D7B1C       aIostatEnable
 0003:0E6D7B2C       aIostatDisable
 0003:0E6D7B40       aIostatDiagramB
 0003:0E6D7B60       aFat32Ecl
 0003:0E6D7B6C       aDebou
 0003:0E6D7B74       aFat12_2
 0003:0E6D7B7C       aFat16s
 0003:0E6D7B84       aExtendedMsDosF
 0003:0E6D7B9C       aFat16_2
 0003:0E6D7BA4       aFat32_3
 0003:0E6D7BAC       aFat32l
 0003:0E6D7BB4       aExfat_3
 0003:0E6D7BBC       aFat16l
 0003:0E6D7BC4       aExtendedMsDosF_0
 0003:0E6D7BDC       aRomfs_0
 0003:0E6D7BE4       aUnknown_4
 0003:0E6D7BEC       aNoDiagram
 0003:0E6D7BF8       a5dSecs
 0003:0E6D7C08       aD_1
 0003:0E6D7C10       aSwitch_0
 0003:0E6D7C18       aDrvinfo
 0003:0E6D7C20       aInfo_4
 0003:0E6D7C28       aCannotGetStatu_0
 0003:0E6D7C3C       aMemoryIOCombo_0
 0003:0E6D7C50       aMechanicalMemo_0
 0003:0E6D7C64       aSdxcMemory_0
 0003:0E6D7C70       aSdhcMemory_0
 0003:0E6D7C7C       aSdMemory_0
 0003:0E6D7C88       aMmcMemory_0
 0003:0E6D7C94       aMemory_0
 0003:0E6D7C9C       aUnknown_5
 0003:0E6D7CA4       aSlotCInfo
 0003:0E6D7CB4       aPresentS
 0003:0E6D7CC4       aTypeS
 0003:0E6D7CD0       aNameS_0
 0003:0E6D7CDC       aBusWidthD
 0003:0E6D7CEC       aTotalSectorsD_1
 0003:0E6D7D00       aSectorSizeD_0
 0003:0E6D7D14       aWriteProtectS
 0003:0E6D7D28       aFormatS
 0003:0E6D7D38       aSpeedS
 0003:0E6D7D44       aInsert_0
 0003:0E6D7D4C       aCardAlreadyPre
 0003:0E6D7D64       aCardInserted
 0003:0E6D7D74       aCannotInsertCa
 0003:0E6D7D8C       aEject
 0003:0E6D7D94       aCardEjected
 0003:0E6D7DA4       aCannotEjectCar
 0003:0E6D7DB8       aMount
 0003:0E6D7DC0       aMountFail
 0003:0E6D7DD0       aUnmount
 0003:0E6D7DD8       aUnmountFail
 0003:0E6D7DE8       aReinit
 0003:0E6D7DF0       aNoCardInSlot
 0003:0E6D7E04       aNotSupported
 0003:0E6D7E14       aCannotReinitCa
 0003:0E6D7E2C       aIostatEnable_0
 0003:0E6D7E3C       aIoStatisticsEn
 0003:0E6D7E54       aIostatDisable_0
 0003:0E6D7E64       aIoStatisticsDi
 0003:0E6D7E7C       aIostat
 0003:0E6D7E84       aReadDiagram
 0003:0E6D7EE4       aWriteDiagram
 0003:0E6D7EF4       aIoStatistics
 0003:0E6D7F04       aBytesReadU
 0003:0E6D7F14       aReadTimeElapse_1
 0003:0E6D7F30       aBytesWritenU
 0003:0E6D7F44       aWriteTimeElaps_0
 0003:0E6D7F60       aReadThroughput_0
 0003:0E6D7F80       aWriteThroughpu_0
 0003:0E6D7FA0       aGetIoStatistic
 0003:0E6D7FBC       aUsageSFile
 0003:0E6D7FD0       aCwdSIsOffline
 0003:0E6D7FE8       aSSS_0
 0003:0E6D7FF8       aSSNotFound
 0003:0E6D800C       aUsageSPath
 0003:0E6D8020       aSSS_1
 0003:0E6D8030       aCwdSIsOffline_0
 0003:0E6D8048       aCdSFailed
 0003:0E6D8058       aSSS_2
 0003:0E6D8064       aUsage1SRASHFil
 0003:0E6D808C       aUsage2SDRASHDi
 0003:0E6D80BC       aCwdSIsOffline_1
 0003:0E6D80D4       aSSS_3
 0003:0E6D80E4       aNumberOfChange
 0003:0E6D80FC       aDoChmoddirFail
 0003:0E6D8110       aUsageSPathPatt
 0003:0E6D812C       aUsageSSYyyyMmD
 0003:0E6D8150       aSun
 0003:0E6D8154       aMon
 0003:0E6D8158       aTue
 0003:0E6D815C       aWed
 0003:0E6D8160       aThu
 0003:0E6D8164       aFri
 0003:0E6D8168       aSat
 0003:0E6D816C       aJan
 0003:0E6D8170       aFeb
 0003:0E6D8174       aMar
 0003:0E6D8178       aApr
 0003:0E6D817C       aMay
 0003:0E6D8180       aJun
 0003:0E6D8184       aJul
 0003:0E6D8188       aAug
 0003:0E6D818C       aSep
 0003:0E6D8190       aOct
 0003:0E6D8194       aNov
 0003:0E6D8198       aDec
 0003:0E6D819C       a3s3s02d02d02d0
 0003:0E6D81C0       aUsage_2
 0003:0E6D81C8       aSRtosDspOnOffR
 0003:0E6D81F8       aSRtosDspDspDeb
 0003:0E6D8238       aFailedToSetMes
 0003:0E6D8258       aRtosMessageOn
 0003:0E6D826C       aRtosMessageOff
 0003:0E6D8280       aDspMessageOn
 0003:0E6D8294       aDspMessageOff
 0003:0E6D82A8       aRtos
 0003:0E6D82B0       aDspDebug
 0003:0E6D82BC       aProg
 0003:0E6D82C4       aPrepro
 0003:0E6D82CC       aStorage0
 0003:0E6D82D8       aStorage1_0
 0003:0E6D82E4       aIndexforvideor
 0003:0E6D82FC       aUsersetting
 0003:0E6D8308       aCalibrationdat
 0003:0E6D832C       aAmbanftlGetsta_0
 0003:0E6D8348       aCSBin
 0003:0E6D8354       aAmbafsFopenFai_1
 0003:0E6D8370       aAmbanftlReadDF
 0003:0E6D8398       aCwdSIsOffline_2
 0003:0E6D83B0       a4l
 0003:0E6D83B8       a4h_0
 0003:0E6D83C0       aValidTargetsFo
 0003:0E6D83E0       aS_25
 0003:0E6D83E8       aUsageSDrivePar
 0003:0E6D8404       aParamFat12Fat1
 0003:0E6D8478       aMediaUnavailab
 0003:0E6D848C       aSS_11
 0003:0E6D8498       aFormatSuccessf
 0003:0E6D84AC       aSupportedBuilt
 0003:0E6D84CC       aS_26
 0003:0E6D84D4       aStartTimeDMs
 0003:0E6D84E8       aCCCCCS2d4d2d2d
 0003:0E6D8518       aEndTimeDMs
 0003:0E6D852C       aDFilesTotalTak
 0003:0E6D855C       aNul
 0003:0E6D8560       aJan_0
 0003:0E6D8564       aFeb_0
 0003:0E6D8568       aMar_0
 0003:0E6D856C       aApr_0
 0003:0E6D8570       aMay_0
 0003:0E6D8574       aJun_0
 0003:0E6D8578       aJul_0
 0003:0E6D857C       aAug_0
 0003:0E6D8580       aSep_0
 0003:0E6D8584       aOct_0
 0003:0E6D8588       aNov_0
 0003:0E6D858C       aDec_0
 0003:0E6D8590       aS_19
 0003:0E6D8598       aCwdSIsOffline_3
 0003:0E6D85B4       aUsageSDir
 0003:0E6D85C8       aSSCannotCreate
 0003:0E6D85EC       aCwdSIsOffline_4
 0003:0E6D8604       aMkdirSFailed
 0003:0E6D8614       aNftlStg
 0003:0E6D8620       aNftlStg2_0
 0003:0E6D862C       aNftlIdx_0
 0003:0E6D8638       aNftlPrf_0
 0003:0E6D8644       aNftlCal_0
 0003:0E6D868C       aDeinit
 0003:0E6D8694       aStatus_2
 0003:0E6D869C       aRclmBb
 0003:0E6D86A4       aBbm
 0003:0E6D86A8       aL2p
 0003:0E6D86AC       aP2l
 0003:0E6D86B0       aUlba
 0003:0E6D86B8       aUupba
 0003:0E6D86C0       aUsageSRandIncD_1
 0003:0E6D86F8       aRand_0
 0003:0E6D8700       aDump_4
 0003:0E6D8708       aStg2
 0003:0E6D8710       aInvalidArgumen
 0003:0E6D8724       aOutOfMemory_1
 0003:0E6D8734       aReadSectorDWit
 0003:0E6D8758       aReadError
 0003:0E6D8768       aSectorDByteDIs_0
 0003:0E6D87AC       a2x
 0003:0E6D87CC       aFailed_1
 0003:0E6D87D8       aSuccess_4
 0003:0E6D87E4       aUsageSRandIncD_2
 0003:0E6D881C       aZero_0
 0003:0E6D8824       aWriteSectorDWi
 0003:0E6D884C       aVerifySectorDW
 0003:0E6D8874       a4l_0
 0003:0E6D887C       aWriteSectorDEr
 0003:0E6D8894       aReadSectorDErr
 0003:0E6D88AC       aVerifySectorDE
 0003:0E6D88D0       a4h_1
 0003:0E6D88D8       aUsageSSMMeSRan
 0003:0E6D891C       aAmbshNftlPread
 0003:0E6D8930       aKAssertAtSD_30
 0003:0E6D8944       aReadBlockDPage
 0003:0E6D8970       aPageDByteDIs0x
 0003:0E6D899C       aUsageSSMMeSRan_0
 0003:0E6D89E0       aAmbshNftlPwrit
 0003:0E6D89F4       aWriteBlockDPag
 0003:0E6D8A20       aUsageSS
 0003:0E6D8A30       aEraseSucceed
 0003:0E6D8A40       aEraseFailed
 0003:0E6D8A50       aUsageSSStartLb
 0003:0E6D8A78       aStartLbaStartL
 0003:0E6D8A9C       aBlocksNumberOf
 0003:0E6D8AC4       aCleanUpFromLog
 0003:0E6D8AEC       aEraseLogicalBl
 0003:0E6D8B0C       aEraseLogicalBl_0
 0003:0E6D8B2C       aUsageSBsAreasS
 0003:0E6D8B4C       aAmbshNftlThrup
 0003:0E6D8B60       aAreaSizeDMb_0
 0003:0E6D8B74       aOutOfMemory_2
 0003:0E6D8B84       aAreaDStartFrom_0
 0003:0E6D8BA0       aWriteTimeElaps_1
 0003:0E6D8BC0       aWriteTimeThrou
 0003:0E6D8BE8       aReadTimeElapse_2
 0003:0E6D8C04       aReadTimeThroug
 0003:0E6D8C28       aDFF_0
 0003:0E6D8C34       aDNftlLogCsv
 0003:0E6D8C44       aFopenFailedD_1
 0003:0E6D8C58       aFwriteFailedD_1
 0003:0E6D8C6C       aUsageSSAllMode
 0003:0E6D8CD4       aSNftlInitFaile
 0003:0E6D8CEC       aSNftlInitSucce
 0003:0E6D8D04       aUsageSSAll
 0003:0E6D8D18       aSNftlDeinitFai
 0003:0E6D8D34       aSNftlDeinitSuc
 0003:0E6D8D78       aNameS_1
 0003:0E6D8D88       aNotInitialized
 0003:0E6D8D9C       aStartichunkblk
 0003:0E6D8DB4       aIchunkblksD
 0003:0E6D8DC8       aStartftlblkD
 0003:0E6D8DDC       aFtlblocksD
 0003:0E6D8DF0       aLblksperzoneD
 0003:0E6D8E04       aPblksperzoneD
 0003:0E6D8E18       aRblksPerZoneD
 0003:0E6D8E30       aTotalzonesD
 0003:0E6D8E44       aNumbbD
 0003:0E6D8E54       aTotalLogicalBl
 0003:0E6D8E70       aTotalsecsD
 0003:0E6D8E84       aTotalSizeDKb
 0003:0E6D8E9C       aWrprotectD
 0003:0E6D8EB0       aUsageSSAllInit
 0003:0E6D8F0C       aS_20
 0003:0E6D8F14       aSReclaimBadBlo
 0003:0E6D8F34       aBeforeReclaimT
 0003:0E6D8F58       aAfterReclaimTh
 0003:0E6D8F7C       aFalseBadBlocks
 0003:0E6D8F94       aNumberOfBadBlk
 0003:0E6D8FBC       aNumberOfFailed
 0003:0E6D8FD8       aNumberOfFailed_0
 0003:0E6D8FF4       aNumberOfFailed_1
 0003:0E6D9014       aZoneDDD
 0003:0E6D9028       aOriginalBbInfo
 0003:0E6D9040       aBadBlocksD
 0003:0E6D9054       aAvaiableSpareB
 0003:0E6D9070       aMinimunSpareBl
 0003:0E6D909C       aUsageSSBlockPa
 0003:0E6D90C4       aTheMaximunBloc
 0003:0E6D90E8       aNoPhysicalAddr
 0003:0E6D9100       aPhysicalAddres
 0003:0E6D9120       aBlockD
 0003:0E6D912C       aPageD_0
 0003:0E6D9138       aAbsolutePageD
 0003:0E6D914C       aSectorD
 0003:0E6D9158       aAbsoluteSector
 0003:0E6D9170       aNoLogicalAddre
 0003:0E6D9184       aLogicalAddress
 0003:0E6D91A4       aSUsedLogicalBl
 0003:0E6D91C8       aNumberOfUsedLo
 0003:0E6D91EC       aTotalNumberOfL
 0003:0E6D9210       aSUnusedPhysica
 0003:0E6D9238       a4d_1
 0003:0E6D9240       a4d_2
 0003:0E6D9248       aNumberOfUnused
 0003:0E6D9270       aTotalNumberOfP
 0003:0E6D9298       aValidTestTarge_0
 0003:0E6D92BC       aS_27
 0003:0E6D92C4       aReady
 0003:0E6D92CC       aCompleted
 0003:0E6D92D8       aTerminated
 0003:0E6D92E4       aSuspended
 0003:0E6D92F0       aSleep_0
 0003:0E6D92F8       aQueueSusp
 0003:0E6D9304       aSemaphoreSusp
 0003:0E6D9314       aEventFlag
 0003:0E6D9320       aBlockMemory
 0003:0E6D9330       aByteMemory
 0003:0E6D933C       aIoDriver
 0003:0E6D9348       aFile
 0003:0E6D9350       aTcpIp
 0003:0E6D9358       aMutexSusp
 0003:0E6D9364       aUsageSTskProfi
 0003:0E6D9380       aSTskTaskInfo
 0003:0E6D939C       aSIrqResetAllId
 0003:0E6D93C8       aSProfileResetP
 0003:0E6D93F8       aIdPriPreemptSc
 0003:0E6D94E0       a3d5d9d7d16s9d9
 0003:0E6D9514       aReset_2
 0003:0E6D951C       aProfile_1
 0003:0E6D9524       aUsageSAddrVal
 0003:0E6D953C       aUsageSAddr
 0003:0E6D9550       a0x2x
 0003:0E6D9558       a0x4x
 0003:0E6D9560       a0x8x
 0003:0E6D9568       aUsageRebootYes
 0003:0E6D9580       aRebooting
 0003:0E6D9594       aUsageSFile_0
 0003:0E6D95A8       aCwdSIsOffline_5
 0003:0E6D95C0       aSSS_4
 0003:0E6D95D0       aSSNotFound_0
 0003:0E6D95E4       aUsageSFilename
 0003:0E6D9610       aNoDriveAssigne
 0003:0E6D9624       aMediaUnavailab_0
 0003:0E6D9638       aUnknownSyntax
 0003:0E6D964C       aSSErrD
 0003:0E6D9660       aUsageSSec
 0003:0E6D9674       aUsageSSrStandb
 0003:0E6D968C       aStandby_0
 0003:0E6D9694       aUsageSDriveNam
 0003:0E6D96B0       aDriveCVolumeIs
 0003:0E6D96D0       aVolumeS
 0003:0E6D96DC       aTotalClustersL
 0003:0E6D96F4       aEmptyClustersL
 0003:0E6D970C       aBytesPerSector_0
 0003:0E6D9724       aSectorsPerClus
 0003:0E6D9740       aClustersPerGro
 0003:0E6D9758       aEmptyClusterGr
 0003:0E6D9774       aTotalSpaceLldK
 0003:0E6D978C       aUsedSpaceLldKb
 0003:0E6D97A4       aFreeSpaceLldKb
 0003:0E6D97BC       aGetFreeDirecto
 0003:0E6D97E0       aFreeDirectoryE
 0003:0E6D97FC       aSetVolumeOnCDr
 0003:0E6D9820       aVolumeOnCDrive
 0003:0E6D9840       aRaster1
 0003:0E6D9848       aRaster5
 0003:0E6D99F8       aPsnames
 0003:0E6D9A00       aNull_0
 0003:0E6D9A06       aNonmarkingretu
 0003:0E6D9A17       aNotequal
 0003:0E6D9A20       aInfinity
 0003:0E6D9A29       aLessequal
 0003:0E6D9A33       aGreaterequal
 0003:0E6D9A40       aPartialdiff
 0003:0E6D9A4C       aSummation
 0003:0E6D9A56       aProduct
 0003:0E6D9A5E       aPi
 0003:0E6D9A61       aIntegral
 0003:0E6D9A6A       aOmega
 0003:0E6D9A70       aRadical
 0003:0E6D9A78       aApproxequal
 0003:0E6D9A84       aDelta
 0003:0E6D9A8A       aNonbreakingspa
 0003:0E6D9A9B       aLozenge
 0003:0E6D9AA3       aApple
 0003:0E6D9AA9       aFranc
 0003:0E6D9AAF       aGbreve
 0003:0E6D9AB6       aGbreve_0
 0003:0E6D9ABD       aIdotaccent
 0003:0E6D9AC8       aScedilla
 0003:0E6D9AD1       aScedilla_0
 0003:0E6D9ADA       aCacute
 0003:0E6D9AE1       aCacute_0
 0003:0E6D9AE8       aCcaron
 0003:0E6D9AEF       aCcaron_0
 0003:0E6D9AF6       aDcroat
 0003:0E6D9AFD       aNotdef
 0003:0E6D9B05       aSpace
 0003:0E6D9B0B       aExclam
 0003:0E6D9B12       aQuotedbl
 0003:0E6D9B1B       aNumbersign
 0003:0E6D9B26       aDollar
 0003:0E6D9B2D       aPercent
 0003:0E6D9B35       aAmpersand
 0003:0E6D9B3F       aQuoteright
 0003:0E6D9B4A       aParenleft
 0003:0E6D9B54       aParenright
 0003:0E6D9B5F       aAsterisk
 0003:0E6D9B68       aPlus
 0003:0E6D9B6D       aComma
 0003:0E6D9B73       aHyphen
 0003:0E6D9B7A       aPeriod
 0003:0E6D9B81       aSlash
 0003:0E6D9B87       aZero_1
 0003:0E6D9B8C       aOne
 0003:0E6D9B90       aTwo
 0003:0E6D9B94       aThree
 0003:0E6D9B9A       aFour
 0003:0E6D9B9F       aFive
 0003:0E6D9BA4       aSix
 0003:0E6D9BA8       aSeven
 0003:0E6D9BAE       aEight
 0003:0E6D9BB4       aNine
 0003:0E6D9BB9       aColon
 0003:0E6D9BBF       aSemicolon
 0003:0E6D9BC9       aLess
 0003:0E6D9BCE       aEqual
 0003:0E6D9BD4       aGreater
 0003:0E6D9BDC       aQuestion
 0003:0E6D9BE5       aAt
 0003:0E6D9BE8       aAbcdefghijklmn
 0003:0E6D9C1C       aBracketleft
 0003:0E6D9C28       aBackslash
 0003:0E6D9C32       aBracketright
 0003:0E6D9C3F       aAsciicircum
 0003:0E6D9C4B       aUnderscore
 0003:0E6D9C56       aQuoteleft
 0003:0E6D9C60       aAbcdefghijklmn_0
 0003:0E6D9C94       aBraceleft
 0003:0E6D9C9E       aBar
 0003:0E6D9CA2       aBraceright
 0003:0E6D9CAD       aAsciitilde
 0003:0E6D9CB8       aExclamdown
 0003:0E6D9CC3       aCent
 0003:0E6D9CC8       aSterling
 0003:0E6D9CD1       aFraction
 0003:0E6D9CDA       aYen
 0003:0E6D9CDE       aFlorin
 0003:0E6D9CE5       aSection
 0003:0E6D9CED       aCurrency
 0003:0E6D9CF6       aQuotesingle
 0003:0E6D9D02       aQuotedblleft
 0003:0E6D9D0F       aGuillemotleft
 0003:0E6D9D1D       aGuilsinglleft
 0003:0E6D9D2B       aGuilsinglright
 0003:0E6D9D3A       aFi
 0003:0E6D9D3D       aFl
 0003:0E6D9D40       aEndash
 0003:0E6D9D47       aDagger
 0003:0E6D9D4E       aDaggerdbl
 0003:0E6D9D58       aPeriodcentered
 0003:0E6D9D67       aParagraph
 0003:0E6D9D71       aBullet
 0003:0E6D9D78       aQuotesinglbase
 0003:0E6D9D87       aQuotedblbase
 0003:0E6D9D94       aQuotedblright
 0003:0E6D9DA2       aGuillemotright
 0003:0E6D9DB1       aEllipsis
 0003:0E6D9DBA       aPerthousand
 0003:0E6D9DC6       aQuestiondown
 0003:0E6D9DD3       aGrave
 0003:0E6D9DD9       aAcute
 0003:0E6D9DDF       aCircumflex
 0003:0E6D9DEA       aTilde
 0003:0E6D9DF0       aMacron
 0003:0E6D9DF7       aBreve
 0003:0E6D9DFD       aDotaccent
 0003:0E6D9E07       aDieresis
 0003:0E6D9E10       aRing
 0003:0E6D9E15       aCedilla
 0003:0E6D9E1D       aHungarumlaut
 0003:0E6D9E2A       aOgonek
 0003:0E6D9E31       aCaron
 0003:0E6D9E37       aEmdash
 0003:0E6D9E3E       aAe_0
 0003:0E6D9E41       aOrdfeminine
 0003:0E6D9E4D       aLslash
 0003:0E6D9E54       aOslash
 0003:0E6D9E5B       aOe
 0003:0E6D9E5E       aOrdmasculine
 0003:0E6D9E6B       aAe_1
 0003:0E6D9E6E       aDotlessi
 0003:0E6D9E77       aLslash_0
 0003:0E6D9E7E       aOslash_0
 0003:0E6D9E85       aOe_0
 0003:0E6D9E88       aGermandbls
 0003:0E6D9E93       aOnesuperior
 0003:0E6D9E9F       aLogicalnot
 0003:0E6D9EAA       aMu
 0003:0E6D9EAD       aTrademark
 0003:0E6D9EB7       aEth
 0003:0E6D9EBB       aOnehalf
 0003:0E6D9EC3       aPlusminus
 0003:0E6D9ECD       aThorn
 0003:0E6D9ED3       aOnequarter
 0003:0E6D9EDE       aDivide
 0003:0E6D9EE5       aBrokenbar
 0003:0E6D9EEF       aDegree
 0003:0E6D9EF6       aThorn_0
 0003:0E6D9EFC       aThreequarters
 0003:0E6D9F0A       aTwosuperior
 0003:0E6D9F16       aRegistered
 0003:0E6D9F21       aMinus
 0003:0E6D9F27       aEth_0
 0003:0E6D9F2B       aMultiply
 0003:0E6D9F34       aThreesuperior
 0003:0E6D9F42       aCopyright
 0003:0E6D9F4C       aAacute
 0003:0E6D9F53       aAcircumflex
 0003:0E6D9F5F       aAdieresis
 0003:0E6D9F69       aAgrave
 0003:0E6D9F70       aAring
 0003:0E6D9F76       aAtilde
 0003:0E6D9F7D       aCcedilla
 0003:0E6D9F86       aEacute
 0003:0E6D9F8D       aEcircumflex
 0003:0E6D9F99       aEdieresis
 0003:0E6D9FA3       aEgrave
 0003:0E6D9FAA       aIacute
 0003:0E6D9FB1       aIcircumflex
 0003:0E6D9FBD       aIdieresis
 0003:0E6D9FC7       aIgrave
 0003:0E6D9FCE       aNtilde
 0003:0E6D9FD5       aOacute
 0003:0E6D9FDC       aOcircumflex
 0003:0E6D9FE8       aOdieresis
 0003:0E6D9FF2       aOgrave
 0003:0E6D9FF9       aOtilde
 0003:0E6DA000       aScaron
 0003:0E6DA007       aUacute
 0003:0E6DA00E       aUcircumflex
 0003:0E6DA01A       aUdieresis
 0003:0E6DA024       aUgrave
 0003:0E6DA02B       aYacute
 0003:0E6DA032       aYdieresis
 0003:0E6DA03C       aZcaron
 0003:0E6DA043       aAacute_0
 0003:0E6DA04A       aAcircumflex_0
 0003:0E6DA056       aAdieresis_0
 0003:0E6DA060       aAgrave_0
 0003:0E6DA067       aAring_0
 0003:0E6DA06D       aAtilde_0
 0003:0E6DA074       aCcedilla_0
 0003:0E6DA07D       aEacute_0
 0003:0E6DA084       aEcircumflex_0
 0003:0E6DA090       aEdieresis_0
 0003:0E6DA09A       aEgrave_0
 0003:0E6DA0A1       aIacute_0
 0003:0E6DA0A8       aIcircumflex_0
 0003:0E6DA0B4       aIdieresis_0
 0003:0E6DA0BE       aIgrave_0
 0003:0E6DA0C5       aNtilde_0
 0003:0E6DA0CC       aOacute_0
 0003:0E6DA0D3       aOcircumflex_0
 0003:0E6DA0DF       aOdieresis_0
 0003:0E6DA0E9       aOgrave_0
 0003:0E6DA0F0       aOtilde_0
 0003:0E6DA0F7       aScaron_0
 0003:0E6DA0FE       aUacute_0
 0003:0E6DA105       aUcircumflex_0
 0003:0E6DA111       aUdieresis_0
 0003:0E6DA11B       aUgrave_0
 0003:0E6DA122       aYacute_0
 0003:0E6DA129       aYdieresis_0
 0003:0E6DA133       aZcaron_0
 0003:0E6DA13A       aExclamsmall
 0003:0E6DA146       aHungarumlautsm
 0003:0E6DA158       aDollaroldstyle
 0003:0E6DA167       aDollarsuperior
 0003:0E6DA176       aAmpersandsmall
 0003:0E6DA185       aAcutesmall
 0003:0E6DA190       aParenleftsuper
 0003:0E6DA1A2       aParenrightsupe
 0003:0E6DA1B5       aTwodotenleader
 0003:0E6DA1C4       aOnedotenleader
 0003:0E6DA1D3       aZerooldstyle
 0003:0E6DA1E0       aOneoldstyle
 0003:0E6DA1EC       aTwooldstyle
 0003:0E6DA1F8       aThreeoldstyle
 0003:0E6DA206       aFouroldstyle
 0003:0E6DA213       aFiveoldstyle
 0003:0E6DA220       aSixoldstyle
 0003:0E6DA22C       aSevenoldstyle
 0003:0E6DA23A       aEightoldstyle
 0003:0E6DA248       aNineoldstyle
 0003:0E6DA255       aCommasuperior
 0003:0E6DA263       aThreequarterse
 0003:0E6DA277       aPeriodsuperior
 0003:0E6DA286       aQuestionsmall
 0003:0E6DA294       aAsuperior
 0003:0E6DA29E       aBsuperior
 0003:0E6DA2A8       aCentsuperior
 0003:0E6DA2B5       aDsuperior
 0003:0E6DA2BF       aEsuperior
 0003:0E6DA2C9       aIsuperior
 0003:0E6DA2D3       aLsuperior
 0003:0E6DA2DD       aMsuperior
 0003:0E6DA2E7       aNsuperior
 0003:0E6DA2F1       aOsuperior
 0003:0E6DA2FB       aRsuperior
 0003:0E6DA305       aSsuperior
 0003:0E6DA30F       aTsuperior
 0003:0E6DA319       aFf
 0003:0E6DA31C       aFfi
 0003:0E6DA320       aFfl
 0003:0E6DA324       aParenleftinfer
 0003:0E6DA336       aParenrightinfe
 0003:0E6DA349       aCircumflexsmal
 0003:0E6DA359       aHyphensuperior
 0003:0E6DA368       aGravesmall
 0003:0E6DA373       aAsmall
 0003:0E6DA37A       aBsmall
 0003:0E6DA381       aCsmall
 0003:0E6DA388       aDsmall
 0003:0E6DA38F       aEsmall
 0003:0E6DA396       aFsmall
 0003:0E6DA39D       aGsmall
 0003:0E6DA3A4       aHsmall
 0003:0E6DA3AB       aIsmall
 0003:0E6DA3B2       aJsmall
 0003:0E6DA3B9       aKsmall
 0003:0E6DA3C0       aLsmall
 0003:0E6DA3C7       aMsmall
 0003:0E6DA3CE       aNsmall
 0003:0E6DA3D5       aOsmall
 0003:0E6DA3DC       aPsmall
 0003:0E6DA3E3       aQsmall
 0003:0E6DA3EA       aRsmall
 0003:0E6DA3F1       aSsmall
 0003:0E6DA3F8       aTsmall
 0003:0E6DA3FF       aUsmall
 0003:0E6DA406       aVsmall
 0003:0E6DA40D       aWsmall
 0003:0E6DA414       aXsmall
 0003:0E6DA41B       aYsmall
 0003:0E6DA422       aZsmall
 0003:0E6DA429       aColonmonetary
 0003:0E6DA437       aOnefitted
 0003:0E6DA441       aRupiah
 0003:0E6DA448       aTildesmall
 0003:0E6DA453       aExclamdownsmal
 0003:0E6DA463       aCentoldstyle
 0003:0E6DA470       aLslashsmall
 0003:0E6DA47C       aScaronsmall
 0003:0E6DA488       aZcaronsmall
 0003:0E6DA494       aDieresissmall
 0003:0E6DA4A2       aBrevesmall
 0003:0E6DA4AD       aCaronsmall
 0003:0E6DA4B8       aDotaccentsmall
 0003:0E6DA4C7       aMacronsmall
 0003:0E6DA4D3       aFiguredash
 0003:0E6DA4DE       aHypheninferior
 0003:0E6DA4ED       aOgoneksmall
 0003:0E6DA4F9       aRingsmall
 0003:0E6DA503       aCedillasmall
 0003:0E6DA510       aQuestiondownsm
 0003:0E6DA522       aOneeighth
 0003:0E6DA52C       aThreeeighths
 0003:0E6DA539       aFiveeighths
 0003:0E6DA545       aSeveneighths
 0003:0E6DA552       aOnethird
 0003:0E6DA55B       aTwothirds
 0003:0E6DA565       aZerosuperior
 0003:0E6DA572       aFoursuperior
 0003:0E6DA57F       aFivesuperior
 0003:0E6DA58C       aSixsuperior
 0003:0E6DA598       aSevensuperior
 0003:0E6DA5A6       aEightsuperior
 0003:0E6DA5B4       aNinesuperior
 0003:0E6DA5C1       aZeroinferior
 0003:0E6DA5CE       aOneinferior
 0003:0E6DA5DA       aTwoinferior
 0003:0E6DA5E6       aThreeinferior
 0003:0E6DA5F4       aFourinferior
 0003:0E6DA601       aFiveinferior
 0003:0E6DA60E       aSixinferior
 0003:0E6DA61A       aSeveninferior
 0003:0E6DA628       aEightinferior
 0003:0E6DA636       aNineinferior
 0003:0E6DA643       aCentinferior
 0003:0E6DA650       aDollarinferior
 0003:0E6DA65F       aPeriodinferior
 0003:0E6DA66E       aCommainferior
 0003:0E6DA67C       aAgravesmall
 0003:0E6DA688       aAacutesmall
 0003:0E6DA694       aAcircumflexsma
 0003:0E6DA6A5       aAtildesmall
 0003:0E6DA6B1       aAdieresissmall
 0003:0E6DA6C0       aAringsmall
 0003:0E6DA6CB       aAesmall
 0003:0E6DA6D3       aCcedillasmall
 0003:0E6DA6E1       aEgravesmall
 0003:0E6DA6ED       aEacutesmall
 0003:0E6DA6F9       aEcircumflexsma
 0003:0E6DA70A       aEdieresissmall
 0003:0E6DA719       aIgravesmall
 0003:0E6DA725       aIacutesmall
 0003:0E6DA731       aIcircumflexsma
 0003:0E6DA742       aIdieresissmall
 0003:0E6DA751       aEthsmall
 0003:0E6DA75A       aNtildesmall
 0003:0E6DA766       aOgravesmall
 0003:0E6DA772       aOacutesmall
 0003:0E6DA77E       aOcircumflexsma
 0003:0E6DA78F       aOtildesmall
 0003:0E6DA79B       aOdieresissmall
 0003:0E6DA7AA       aOesmall
 0003:0E6DA7B2       aOslashsmall
 0003:0E6DA7BE       aUgravesmall
 0003:0E6DA7CA       aUacutesmall
 0003:0E6DA7D6       aUcircumflexsma
 0003:0E6DA7E7       aUdieresissmall
 0003:0E6DA7F6       aYacutesmall
 0003:0E6DA802       aThornsmall
 0003:0E6DA80D       aYdieresissmall
 0003:0E6DA81C       a001000
 0003:0E6DA824       a001001
 0003:0E6DA82C       a001002
 0003:0E6DA834       a001003
 0003:0E6DA83C       aBlack
 0003:0E6DA842       aBold
 0003:0E6DA847       aBook
 0003:0E6DA84C       aLight
 0003:0E6DA852       aMedium
 0003:0E6DA859       aRegular
 0003:0E6DA861       aRoman
 0003:0E6DA867       aSemibold
 0003:0E6DB1D8       aSfntTable
 0003:0E6DB1E4       aPostscriptFont
 0003:0E6DB1FC       aGlyphDict_0
 0003:0E6DB218       aSfnt
 0003:0E6DB220       aPostscriptCmap
 0003:0E6DB234       aCharsetRegistr
 0003:0E6DB248       aCharsetEncodin
 0003:0E6DB86C       aXf86DriverName
 0003:0E6DB880       aTruetype
 0003:0E6DB88C       aTruetypeEngine
 0003:0E6DB89C       aTtGlyf
 0003:0E6DB8A4       aTruetype_0
 0003:0E6DB8B0       aSfnt_0
 0003:0E6DB8B8       aNotdef_0
 0003:0E6DB948       aDfkaishoSb
 0003:0E6DB98C       aHuatiansongti
 0003:0E6DBE8C       aSyncDebug
 0003:0E6DBE98       aEnableDebugTim
 0003:0E6DBEAC       aClearDebugTimi
 0003:0E6DBEC0       aPrintDebugTimi
 0003:0E6DBED4       aDropRepeat
 0003:0E6DBEE0       aSensorCmdLoad
 0003:0E6DBEF0       aSensorSyncDebu
 0003:0E6DBF14       aAeEnableDebugT
 0003:0E6DBF3C       aClearDebugTimi_0
 0003:0E6DBF58       aPrintDebugTimi_0
 0003:0E6DBF74       aDropRepeatDDDD
 0003:0E6DBF98       aLoad_2
 0003:0E6DBFA0       aDebug_7
 0003:0E6DBFA8       aSystemCmdLoad
 0003:0E6DBFB8       aImageSystemDeb
 0003:0E6DC004       aErrorDspImgcor_26
 0003:0E6DC05C       aErrorDspImgcor_27
 0003:0E6DC0B4       aWarningDspImgc
 0003:0E6DC114       aErrorDspImgcor_28
 0003:0E6DC168       aErrorDspImgcor_29
 0003:0E6DC1BC       aWarningDspImgc_0
 0003:0E6DC218       aErrorDspImgcor_30
 0003:0E6DC278       aErrorDspImgcor_31
 0003:0E6DC2D8       aWarningDspImgc_1
 0003:0E6DC340       aErrorDspImgcor_32
 0003:0E6DC3A0       aErrorDspImgcor_33
 0003:0E6DC404       aWarningDspImgc_2
 0003:0E6DC46C       aErrorDspImgcor_34
 0003:0E6DC4C8       aErrorDspImgcor_35
 0003:0E6DC524       aWarningDspImgc_3
 0003:0E6DC588       aErrorDspImgcor_36
 0003:0E6DC5D8       aErrorDspImgcor_37
 0003:0E6DC628       aWarningDspImgc_4
 0003:0E6DC680       aErrorDspImgcor_38
 0003:0E6DC6D0       aErrorDspImgcor_39
 0003:0E6DC720       aWarningDspImgc_5
 0003:0E6DC778       aErrorDspImgcor_40
 0003:0E6DC7C8       aErrorDspImgcor_41
 0003:0E6DC8C0       aErrorUndefined_0
 0003:0E6DC8E4       aErrorUndefined_1
 0003:0E6DC904       aErrorDspImgcor_1
 0003:0E6DC954       aErrorDspImgcor_2
 0003:0E6DC9A4       aErrorDspImgcor_15
 0003:0E6DC9E8       aErrorDspImgcor_16
 0003:0E6DCA2C       aErrorDspImgcor_75
 0003:0E6DCA74       aErrorDspImgcor_76
 0003:0E6DCABC       aErrorDspImgpro_1
 0003:0E6DCB10       aErrorDspImgpro_2
 0003:0E6DCB64       aUsePincc3dhiso_0
 0003:0E6DCB88       aErrorDspImgcor_42
 0003:0E6DCBC8       aErrorDspImgcor_43
 0003:0E6DCC0C       aErrorDspImgcor_44
 0003:0E6DCC54       aErrorDspImgcor_45
 0003:0E6DCC9C       aErrorDspImgcor_46
 0003:0E6DCCE4       aErrorDspImgcor_47
 0003:0E6DCD2C       aErrorDspImgcor_48
 0003:0E6DCD74       aErrorDspImgcor_49
 0003:0E6DCDC4       aErrorDspImgcor_50
 0003:0E6DCE0C       aErrorDspImgcor_51
 0003:0E6DCE58       aErrorDspImgcor_52
 0003:0E6DCEA4       aErrorDspImgcor_53
 0003:0E6DCEF8       aErrorDspImgcor_54
 0003:0E6DCF4C       aErrorDspImgcor_55
 0003:0E6DCFA0       aErrorDspImgcor_56
 0003:0E6DCFF8       aErrorDspImgcor_57
 0003:0E6DD044       aErrorDspImgcor_58
 0003:0E6DD094       aErrorAmbadspIm_2
 0003:0E6DD0E4       aErrorDspImgcor_59
 0003:0E6DD13C       aErrorDspImgcor_60
 0003:0E6DD198       aErrorDspImgcor_61
 0003:0E6DD1F0       aErrorDspImgcor_62
 0003:0E6DD248       aErrorDspImgcor_63
 0003:0E6DD2AC       aErrorDspImgcor_64
 0003:0E6DD310       aErrorDspImgcor_65
 0003:0E6DD374       aErrorDspImgcor_66
 0003:0E6DD3D8       aErrorDspImgcor_67
 0003:0E6DD438       aErrorDspImgcor_68
 0003:0E6DD498       aErrorDspImgcor_69
 0003:0E6DD4E8       aErrorDspImgcor_70
 0003:0E6DD538       aErrorDspImgcor_71
 0003:0E6DD588       aErrorDspImgcor_72
 0003:0E6DD5E0       aUvcDefaultUnkn
 0003:0E6DD608       aUvcItProcessEx
 0003:0E6DD638       aSOutOfRangeInU
 0003:0E6DD65C       aSUnknownBreque
 0003:0E6DD67C       aUvcItProcessAu
 0003:0E6DD6A8       aUvcProcessRequ
 0003:0E6DD6C0       aSUnsupportedCo
 0003:0E6DD6EC       aUnknownControl
 0003:0E6DD70C       aProcessRequest
 0003:0E6DD730       aUvcRequestErro
 0003:0E6DD76C       aSUnknownVcRequ
 0003:0E6DD790       aProcessPowerMo
 0003:0E6DD7AC       aPowerModeContr
 0003:0E6DD7D0       aPowerModeContr_0
 0003:0E6DD7F4       aPowerModeContr_1
 0003:0E6DD814       aProcessVideoCo
 0003:0E6DD834       aSUnknownVsCont
 0003:0E6DD860       aProcessVideoSt
 0003:0E6DD8A8       aUvcProcessRequ_0
 0003:0E6DD8C0       aSUnknownInterf
 0003:0E6DD8E4       aUvcPuProcessBr
 0003:0E6DD924       aUvcPuProcessCo
 0003:0E6DD960       aUvcPuProcessHu
 0003:0E6DD998       aUvcPuProcessSh
 0003:0E6DD9D8       aUvcPuProcessSa
 0003:0E6DDA18       aUvcPuProcessPo
 0003:0E6DDA58       aUnknownPuContr
 0003:0E6DDA7C       aUxDeviceClassU_2
 0003:0E6DDAA4       aSCanTGetDataFo_1
 0003:0E6DDAD8       aCd001
 0003:0E6DDAE0       aTransferreques
 0003:0E6DDB04       aErrorSDonTSupp
 0003:0E6DDB34       aUsbxEp0xXTxErr
 0003:0E6DDB80       aUsbxEpDTxZerol
 0003:0E6DDBD4       aTransferreques_0
 0003:0E6DDBF8       aSSemaInError0x
 0003:0E6DDC14       aCompletionCode
 0003:0E6DDC2C       aNoDescOrDmaIsN
 0003:0E6DDC54       aDmaStatus0xX
 0003:0E6DDC68       aDescIsNull
 0003:0E6DDC78       aGetreceivedada
 0003:0E6DDC9C       aTransfercallba
 0003:0E6DDCC0       aOverflowCondit
 0003:0E6DDD00       aSSemaPutOutFai
 0003:0E6DDD28       aDonTKnowHowToH
 0003:0E6DDD60       aSSemaPutOutFai_0
 0003:0E6DDD88       aSSemaPutOutFai_1
 0003:0E6DDDB0       aDescIsNullForP
 0003:0E6DDDCC       aRxlengthIs0xff
 0003:0E6DDDF4       aSemaPutInFaile
 0003:0E6DDE10       a0xX2RxLengthD
 0003:0E6DDE2C       aTransferoutpac
 0003:0E6DDE48       aRequiresetstal
 0003:0E6DDE68       aRequiresetstal_0
 0003:0E6DDE88       aRequireclearst
 0003:0E6DDEAC       aRequireclearst_0
 0003:0E6DDECC       aDescD0xXStatus
 0003:0E6DDF14       a0xXBnaOccursSt
 0003:0E6DDF38       a0xXBnaOccurs
 0003:0E6DDFA4       aElapsedTime10u
 0003:0E6DDFC8       aIdTimePercentT
 0003:0E6DDFF0       a3d10u101fS
 0003:0E6DE008       a10u101fInterru
 0003:0E6DE050       a100f101fError
 0003:0E6DE098       aIdSensitiveEna
 0003:0E6DE0BC       a3d8s8s8u
 0003:0E6DE0D0       aLevel_0
 0003:0E6DE0D8       aEdge
 0003:0E6DE0E0       aEnable_6
 0003:0E6DE0E8       aDisable_5
 0003:0E6DE0F8       aS10s8u
 0003:0E6DE140       aNoName_1
 0003:0E6DE21C       aExfat_2
 0003:0E6E02C8       nullsub_2
 0003:0E6E02CC       nullsub_3
 0003:0E6E1EDC       jpt_E6E1ED8
 0003:0E6E1F38       def_E6E1ED8
 0003:0E6E23F0       jpt_E6E23EC
 0003:0E6E24D8       def_E6E23EC
 0003:0E6E2F78       jpt_E6E2F74
 0003:0E6E3034       def_E6E2F74
 0003:0E6E3094       jpt_E6E3090
 0003:0E6E313C       def_E6E3090
 0003:0E6E534C       jpt_E6E5348
 0003:0E6E5408       def_E6E5348
 0003:0E6E5454       jpt_E6E5450
 0003:0E6E5510       def_E6E5450
 0003:0E6E6FA4       jpt_E6E6FA0
 0003:0E6E6FE4       def_E6E6FA0
 0003:0E6E710C       jpt_E6E7108
 0003:0E6E71E0       def_E6E7108
 0003:0E6EEC04       jpt_E6EEC00
 0003:0E6EEC4C       def_E6EEC00
 0003:0E708F78       jpt_E708F74
 0003:0E709020       def_E708F74
 0003:0E7091F0       jpt_E7091EC
 0003:0E7092C0       def_E7091EC
 0003:0E70A0E4       jpt_E70A0E0
 0003:0E70A0E8       def_E70A0E0
 0003:0E70A46C       jpt_E70A468
 0003:0E70A614       def_E70A468
 0003:0E70BF20       jpt_E70BF1C
 0003:0E70BF58       def_E70BF1C
 0003:0E70C5D8       jpt_E70C5D4
 0003:0E70C5DC       def_E70C5D4
 0003:0E71AF24       jpt_E71AF20
 0003:0E71AF54       def_E71AF20
 0003:0E7295EC       a0123456789abcd
 0003:0E729BD4       jpt_E729BD0
 0003:0E729D7C       def_E729BD0
 0003:0E729DA8       jpt_E729DA4
 0003:0E729F30       def_E729DA4
 0003:0E72B218       jpt_E72B214
 0003:0E72B2B4       def_E72B214
 0003:0E72B308       def_E72B33C
 0003:0E72B340       jpt_E72B33C
 0003:0E72BDBC       jpt_E72BDB8
 0003:0E72C0CC       def_E72BDB8
 0003:0E72C328       jpt_E72C324
 0003:0E72C37C       def_E72C324
 0003:0E72C8E4       jpt_E72C8E0
 0003:0E72CA4C       def_E72C8E0
 0003:0E72F028       jpt_E72F024
 0003:0E72F080       def_E72F024
 0003:0E738128       jpt_E738124
 0003:0E738148       def_E738124
 0003:0E738178       jpt_E738174
 0003:0E7382AC       def_E738174
 0003:0E7397AC       nullsub_4
 0003:0E73A2A8       jpt_E73A2A4
 0003:0E73A588       def_E73A2A4
 0003:0E74BED8       nullsub_5
 0003:0E74BEDC       nullsub_6
 0003:0E74BEE0       nullsub_7
 0003:0E74BEE4       nullsub_8
 0003:0E74BEE8       nullsub_9
 0003:0E75F894       jpt_E75F890
 0003:0E75F8F8       def_E75F890
 0003:0E760F78       jpt_E760F74
 0003:0E760FA8       def_E760F74
 0003:0E763444       jpt_E763440
 0003:0E76350C       def_E763440
 0003:0E764DA4       aHjltzl
 0003:0E764DAC       aNan
 0003:0E764DB0       aNan_0
 0003:0E764DB4       aInf
 0003:0E764DB8       aInf_0
 0003:0E76E684       jpt_E76E680
 0003:0E76E72C       def_E76E680
 0003:0E777BD4       nullsub_10
 0003:0E784338       nullsub_11
 0003:0E78433C       nullsub_12
 0003:0E784340       nullsub_13
 0003:0E784344       nullsub_14
 0003:0E784348       nullsub_15
 0003:0E78434C       nullsub_16
 0003:0E784350       nullsub_17
 0003:0E784A60       def_E784A94
 0003:0E784A98       jpt_E784A94
 0003:0E784B28       def_E784B44
 0003:0E784B48       jpt_E784B44
 0003:0E78AF44       jpt_E78AF40
 0003:0E78B038       def_E78AF40
 0003:0E78B150       jpt_E78B14C
 0003:0E78B1E0       def_E78B14C
 0003:0E79B3A4       jpt_E79B3A0
 0003:0E79B3D4       def_E79B3A0
 0003:0E79B6DC       jpt_E79B6D8
 0003:0E79B83C       def_E79B6D8
 0003:0E79B85C       jpt_E79B858
 0003:0E79B954       def_E79B858
 0003:0E79D780       jpt_E79D77C
 0003:0E79D7C4       def_E79D77C
 0003:0E79D80C       jpt_E79D808
 0003:0E79D854       def_E79D808
 0003:0E79D8F0       jpt_E79D8EC
 0003:0E79D934       def_E79D8EC
 0003:0E79D97C       jpt_E79D978
 0003:0E79D9C4       def_E79D978
 0003:0E7A172C       jpt_E7A1728
 0003:0E7A18A8       def_E7A1728
 0003:0E7A3544       jpt_E7A3540
 0003:0E7A36A8       def_E7A3540
 0003:0E7B0A08       jpt_E7B0A04
 0003:0E7B0BC8       def_E7B0A04
 0003:0E7B2B94       jpt_E7B2B90
 0003:0E7B2C28       def_E7B2B90
 0003:0E7B5958       nullsub_18
 0003:0E7BF0E0       jpt_E7BF0DC
 0003:0E7BF268       def_E7BF0DC
 0003:0E7C3CEC       jpt_E7C3CE8
 0003:0E7C3E0C       def_E7C3CE8
 0003:0E7C6CD8       jpt_E7C6CD4
 0003:0E7C71D4       def_E7C6CD4
 0003:0E7CAD48       jpt_E7CAD44
 0003:0E7CADC0       def_E7CAD44
 0003:0E7CB174       nullsub_64
 0003:0E7CB178       nullsub_19
 0003:0E7CEB44       jpt_E7CEB40
 0003:0E7CEB78       def_E7CEB40
 0003:0E7D01B4       jpt_E7D01B0
 0003:0E7D0424       def_E7D01B0
 0003:0E7D3480       jpt_E7D347C
 0003:0E7D34D4       def_E7D347C
 0003:0E7D3A78       jpt_E7D3A74
 0003:0E7D3ACC       def_E7D3A74
 0003:0E7DB498       jpt_E7DB494
 0003:0E7DB4F4       def_E7DB494
 0003:0E7DE7F8       jpt_E7DE7F4
 0003:0E7DE858       def_E7DE7F4
 0003:0E7DE950       jpt_E7DE94C
 0003:0E7DE988       def_E7DE94C
 0003:0E7DFBF4       jpt_E7DFBF0
 0003:0E7DFC48       def_E7DFBF0
 0003:0E7DFC70       jpt_E7DFC6C
 0003:0E7DFCA8       def_E7DFC6C
 0003:0E7E2044       jpt_E7E2040
 0003:0E7E2130       def_E7E2040
 0003:0E7EDA28       nullsub_20
 0003:0E7F0E2C       nullsub_21
 0003:0E7F2490       jpt_E7F248C
 0003:0E7F2510       def_E7F248C
 0003:0E7F7F5C       jpt_E7F7F58
 0003:0E7F7FB0       def_E7F7F58
 0003:0E800428       jpt_E800424
 0003:0E800478       def_E800424
 0003:0E801AC0       jpt_E801ABC
 0003:0E801B90       def_E801ABC
 0003:0E801D74       jpt_E801D70
 0003:0E801FE0       def_E801D70
 0003:0E80226C       jpt_E802268
 0003:0E8022EC       def_E802268
 0003:0E802428       jpt_E802424
 0003:0E802470       def_E802424
 0003:0E8043BC       jpt_E8043B8
 0003:0E804400       def_E8043B8
 0003:0E804618       jpt_E804614
 0003:0E804664       def_E804614
 0003:0E807140       jpt_E80713C
 0003:0E80736C       def_E80713C
 0003:0E807C40       jpt_E807C3C
 0003:0E807EF4       def_E807C3C
 0003:0E80C2D0       jpt_E80C2CC
 0003:0E80C320       def_E80C2CC
 0003:0E8109CC       jpt_E8109C8
 0003:0E810A08       def_E8109C8
 0003:0E810B30       jpt_E810B2C
 0003:0E810CEC       def_E810B2C
 0003:0E81108C       jpt_E811088
 0003:0E8110B0       def_E811088
 0003:0E811450       jpt_E81144C
 0003:0E8114A0       def_E81144C
 0003:0E813B4C       jpt_E813B48
 0003:0E813BB8       def_E813B48
 0003:0E814E50       jpt_E814E4C
 0003:0E814EB8       def_E814E4C
 0003:0E815CBC       jpt_E815CB8
 0003:0E815E10       def_E815CB8
 0003:0E81A504       jpt_E81A500
 0003:0E81A5EC       def_E81A500
 0003:0E81AFBC       jpt_E81AFB8
 0003:0E81B050       def_E81AFB8
 0003:0E82FE4C       jpt_E82FE48
 0003:0E82FEAC       def_E82FE48
 0003:0E83018C       jpt_E830188
 0003:0E830200       def_E830188
 0003:0E8302DC       jpt_E8302D8
 0003:0E830350       def_E8302D8
 0003:0E830948       jpt_E830944
 0003:0E830A70       def_E830944
 0003:0E835154       jpt_E835150
 0003:0E8353A4       def_E835150
 0003:0E838A10       jpt_E838A0C
 0003:0E838F70       def_E838A0C
 0003:0E839594       nullsub_22
 0003:0E83D0A4       jpt_E83D0A0
 0003:0E83D14C       def_E83D0A0
 0003:0E83E7E0       jpt_E83E7DC
 0003:0E83E904       def_E83E7DC
 0003:0E841AC8       jpt_E841AC4
 0003:0E841BE8       def_E841AC4
 0003:0E841D2C       jpt_E841D28
 0003:0E841DE4       def_E841D28
 0003:0E842210       jpt_E84220C
 0003:0E842344       def_E84220C
 0003:0E8476D8       jpt_E8476D4
 0003:0E847760       def_E8476D4
 0003:0E848E18       jpt_E848E14
 0003:0E8493F0       def_E848E14
 0003:0E84A0FC       jpt_E84A0F8
 0003:0E84A30C       def_E84A0F8
 0003:0E85E288       jpt_E85E284
 0003:0E85E504       def_E85E284
 0003:0E8619BC       jpt_E8619B8
 0003:0E861B18       def_E8619B8
 0003:0E861BE8       jpt_E861BE4
 0003:0E861C30       def_E861BE4
 0003:0E861C6C       jpt_E861C68
 0003:0E861CB4       def_E861C68
 0003:0E861CE4       jpt_E861CE0
 0003:0E861D58       def_E861CE0
 0003:0E861D80       jpt_E861D7C
 0003:0E861DC8       def_E861D7C
 0003:0E862D98       jpt_E862D94
 0003:0E862E74       def_E862D94
 0003:0E86306C       jpt_E863068
 0003:0E8630BC       def_E863068
 0003:0E865850       jpt_E86584C
 0003:0E865898       def_E86584C
 0003:0E8659BC       jpt_E8659B8
 0003:0E865A24       def_E8659B8
 0003:0E867658       jpt_E867654
 0003:0E8676B4       def_E867654
 0003:0E868CA4       jpt_E868CA0
 0003:0E868E04       def_E868CA0
 0003:0E869BB4       jpt_E869BB0
 0003:0E869D54       def_E869BB0
 0003:0E869E1C       jpt_E869E18
 0003:0E869F34       def_E869E18
 0003:0E86C548       jpt_E86C544
 0003:0E86C590       def_E86C544
 0003:0E86D79C       jpt_E86D798
 0003:0E86D8C4       def_E86D798
 0003:0E8749F4       jpt_E8749F0
 0003:0E874A24       def_E8749F0
 0003:0E875A5C       jpt_E875A58
 0003:0E875A88       def_E875A58
 0003:0E875BB0       jpt_E875BAC
 0003:0E875BC8       def_E875BAC
 0003:0E87AADC       nullsub_23
 0003:0E87AB38       nullsub_24
 0003:0E87F930       jpt_E87F92C
 0003:0E880F48       def_E87F92C
 0003:0E881138       jpt_E881134
 0003:0E881E88       def_E881134
 0003:0E882050       jpt_E88204C
 0003:0E8844E8       def_E88204C
 0003:0E884614       jpt_E884610
 0003:0E884AB8       def_E884610
 0003:0E884AE0       jpt_E884ADC
 0003:0E884F40       def_E884ADC
 0003:0E886238       jpt_E886234
 0003:0E886604       def_E886234
 0003:0E89A7BC       jpt_E89A7B8
 0003:0E89A8D0       def_E89A7B8
 0003:0E89B68C       jpt_E89B688
 0003:0E89B6D0       def_E89B688
 0003:0E89B77C       jpt_E89B778
 0003:0E89B858       jpt_E89B854
 0003:0E89B890       def_E89B778
 0003:0E89B924       def_E89B854
 0003:0E89B954       jpt_E89B950
 0003:0E89B98C       def_E89B950
 0003:0E89B9A8       jpt_E89B9A4
 0003:0E89B9E0       def_E89B9A4
 0003:0E8A4420       def_E8A44B0
 0003:0E8A44B4       jpt_E8A44B0
 0003:0E8A4A54       jpt_E8A4A50
 0003:0E8A5320       def_E8A4A50
 0003:0E8A85F0       jpt_E8A85EC
 0003:0E8A8674       def_E8A85EC
 0003:0E8B78B0       jpt_E8B78AC
 0003:0E8B79A0       def_E8B78AC
 0003:0E8B7FBC       nullsub_52
 0003:0E8BB9A0       nullsub_25
 0003:0E8BB9A4       nullsub_26
 0003:0E8BB9A8       nullsub_27
 0003:0E8BB9AC       nullsub_28
 0003:0E8BB9B0       nullsub_29
 0003:0E8BB9B4       nullsub_30
 0003:0E8BDA48       nullsub_31
 0003:0E8BE434       jpt_E8BE430
 0003:0E8BE5E0       def_E8BE430
 0003:0E8BE600       jpt_E8BE5FC
 0003:0E8BE6E8       def_E8BE5FC
 0003:0E8BE854       jpt_E8BE850
 0003:0E8BE8D8       def_E8BE850
 0003:0E8C0B2C       jpt_E8C0B28
 0003:0E8C0C64       def_E8C0B28
 0003:0E8C15F8       jpt_E8C15F4
 0003:0E8C1950       def_E8C15F4
 0003:0E8C64DC       jpt_E8C64D8
 0003:0E8C67E0       def_E8C64D8
 0003:0E8C6F74       jpt_E8C6F70
 0003:0E8C71F4       def_E8C6F70
 0003:0E8C8A9C       jpt_E8C8A98
 0003:0E8C8AD4       def_E8C8A98
 0003:0E8C8C40       jpt_E8C8C3C
 0003:0E8C8C80       def_E8C8C3C
 0003:0E8C8C98       jpt_E8C8C94
 0003:0E8C8CFC       def_E8C8C94
 0003:0E8CAD48       jpt_E8CAD44
 0003:0E8CADA8       def_E8CAD44
 0003:0E8D6420       jpt_E8D641C
 0003:0E8D6514       def_E8D641C
 0003:0E8DB928       jpt_E8DB924
 0003:0E8DB98C       def_E8DB924
 0003:0E8DD6F0       jpt_E8DD6EC
 0003:0E8DD7F0       def_E8DD6EC
 0003:0E8DD89C       jpt_E8DD898
 0003:0E8DD97C       def_E8DD898
 0003:0E8DD9AC       jpt_E8DD9A8
 0003:0E8DDA5C       def_E8DD9A8
 0003:0E8DE698       aAmbausbHostIni
 0003:0E8DE6BC       aSOwnerError
 0003:0E8DEBF0       jpt_E8DEBEC
 0003:0E8DEC48       def_E8DEBEC
 0003:0E8E704C       jpt_E8E7048
 0003:0E8E81C0       def_E8E7048
 0003:0E8ECF40       jpt_E8ECF3C
 0003:0E8ECF50       def_E8ECF3C
 0003:0E8ECFDC       jpt_E8ECFD8
 0003:0E8ED010       def_E8ECFD8
 0003:0E8EE004       jpt_E8EE000
 0003:0E8EE3AC       def_E8EE000
 0003:0E8F68C4       nullsub_60
 0003:0E8F68C8       nullsub_32
 0003:0E8F691C       nullsub_33
 0003:0E8F6920       nullsub_34
 0003:0E8F987C       jpt_E8F9878
 0003:0E8F99AC       def_E8F9878
 0003:0E8F9F40       jpt_E8F9F3C
 0003:0E8FA090       def_E8F9F3C
 0003:0E903A98       nullsub_35
 0003:0E9100F4       jpt_E9100F0
 0003:0E910938       def_E9100F0
 0003:0E913130       jpt_E91312C
 0003:0E9131A8       def_E91312C
 0003:0E916D28       jpt_E916D24
 0003:0E916DF0       def_E916D24
 0003:0E918718       jpt_E918714
 0003:0E918924       def_E918714
 0003:0E91F15C       jpt_E91F158
 0003:0E91F254       def_E91F158
 0003:0E9225C8       def_E922630
 0003:0E922634       jpt_E922630
 0003:0E923D04       def_E923D80
 0003:0E923D84       jpt_E923D80
 0003:0E92592C       jpt_E925928
 0003:0E92593C       def_E925928
 0003:0E925B50       def_E925B94
 0003:0E925B98       jpt_E925B94
 0003:0E927CA8       jpt_E927CA4
 0003:0E927CB8       def_E927CA4
 0003:0E9287FC       def_E928838
 0003:0E92883C       jpt_E928838
 0003:0E928D3C       def_E928D80
 0003:0E928D84       jpt_E928D80
 0003:0E929464       jpt_E929460
 0003:0E929494       def_E929460
 0003:0E929574       jpt_E929570
 0003:0E9295A0       def_E929570
 0003:0E92960C       jpt_E929608
 0003:0E929650       def_E929608
 0003:0E929758       jpt_E929754
 0003:0E929788       def_E929754
 0003:0E92991C       jpt_E929918
 0003:0E929938       def_E929918
 0003:0E92999C       jpt_E929998
 0003:0E9299B8       def_E929998
 0003:0E929A28       jpt_E929A24
 0003:0E929A44       def_E929A24
 0003:0E92E258       nullsub_56
 0003:0E9306EC       jpt_E9306E8
 0003:0E93071C       def_E9306E8
 0003:0E9310EC       jpt_E9310E8
 0003:0E931360       def_E9310E8
 0003:0E931744       a2140
 0003:0E93174C       aHttpAmbtwsvn2S
 0003:0E9323DC       a2243
 0003:0E9323E4       aHttpAmbtwsvn2S_6
 0003:0E932870       a2241
 0003:0E932878       aHttpAmbtwsvn2S_0
 0003:0E93352C       a2262
 0003:0E933534       aHttpAmbtwsvn2S_1
 0003:0E9335E8       nullsub_53
 0003:0E933738       a2316
 0003:0E933740       aHttpAmbtwsvn2S_2
 0003:0E936434       jpt_E936430
 0003:0E936528       def_E936430
 0003:0E9365B8       jpt_E9365B4
 0003:0E937174       def_E9365B4
 0003:0E93C958       jpt_E93C954
 0003:0E93D0CC       def_E93C954
 0003:0E93D24C       jpt_E93D248
 0003:0E93D280       def_E93D248
 0003:0E93D730       jpt_E93D72C
 0003:0E93D8CC       def_E93D72C
 0003:0E942064       nullsub_36
 0003:0E9458D0       jpt_E9458CC
 0003:0E945D28       def_E9458CC
 0003:0E947218       jpt_E947214
 0003:0E9474C4       def_E947214
 0003:0E947A80       jpt_E947A7C
 0003:0E947AF8       def_E947A7C
 0003:0E94BD28       jpt_E94BD24
 0003:0E94BE48       def_E94BD24
 0003:0E94BE64       jpt_E94BE60
 0003:0E94BF80       def_E94BE60
 0003:0E94DD74       aUxSystemInitia
 0003:0E94DD8C       aUxMutex
 0003:0E94DD98       aErrorSCanTCrea
 0003:0E94DDC0       aUxSystemDestro
 0003:0E94DDD4       aErrorSCanTCrea_0
 0003:0E94E65C       aErrorDescripto
 0003:0E94E680       aErrorRealSizeI
 0003:0E94EA70       aUxDeviceStackI
 0003:0E94EA8C       aUxTransferRequ
 0003:0E94EAB4       aSCanTFindInter
 0003:0E94EADC       aUsbxBufferSize
 0003:0E94EB0C       aUxTransferRequ_0
 0003:0E94EBD8       aUsbxFailedToIn
 0003:0E94EC14       aUsbxFinishInit
 0003:0E94EC3C       aAmbausbdUvcRes
 0003:0E94EC50       aSFailedToClean
 0003:0E94EC70       aSUvcClassClean
 0003:0E94EF0C       aUdcHidDefaultE
 0003:0E94EF2C       aSStart
 0003:0E94EF3C       aReportidD
 0003:0E94EF50       aLengthD
 0003:0E94EF64       a03d0xX
 0003:0E94EF74       aAmbausbdHidSen
 0003:0E94EF8C       aSReportLenthDC
 0003:0E94EFBC       aSNoRunningClas
 0003:0E94EFD4       aUsbxFailedToIn_0
 0003:0E94F010       aUsbxFinishInit_0
 0003:0E94F038       aAmbausbdHidRes
 0003:0E94F04C       aSFailedToClear
 0003:0E94F074       aHidClassClearS
 0003:0E951000       aAcmActive
 0003:0E95100C       aAcmDeactive
 0003:0E95101C       aFailedToInitUs
 0003:0E95104C       aFinishInitUsbx
 0003:0E95106C       aAmbausbClassCd
 0003:0E951088       aSFailedToClear_0
 0003:0E9510B4       aCdcAcmClassCle
 0003:0E951288       aCdcAcmDual1Act
 0003:0E9512A4       aCdcAcmDual1Dea
 0003:0E9512BC       aCdcAcmDual2Act
 0003:0E9512D8       aCdcAcmDual2Dea
 0003:0E9512F0       aFailedToInitUs_0
 0003:0E951324       aFinishInitUsbC
 0003:0E95134C       aFailedToInitUs_1
 0003:0E951380       aFinishInitUsbC_0
 0003:0E9513A8       aAmbausbClassCd_0
 0003:0E9513CC       aSFailedToClear_1
 0003:0E9513F8       aCdcAcmClassCle_0
 0003:0E95163C       aFailedToInitUs_2
 0003:0E951770       aSimpleClassIsA
 0003:0E95178C       aSimpleClassIsD
 0003:0E9517AC       aUsbxFailedToIn_1
 0003:0E9517E8       aUsbxFinishInit_1
 0003:0E951810       aAmbausbClassSi
 0003:0E95182C       aSFailedToClear_2
 0003:0E951858       aSimpleClassCle
 0003:0E951C10       aUxUtilityGetSy
 0003:0E951C30       aSNoSystemCache
 0003:0E953CEC       jpt_E953CE8
 0003:0E953DD0       def_E953CE8
 0003:0E956ACC       jpt_E956AC8
 0003:0E956B64       def_E956AC8
 0003:0E958D94       jpt_E958D90
 0003:0E958F60       def_E958D90
 0003:0E95C6C0       jpt_E95C6BC
 0003:0E95C788       def_E95C6BC
 0003:0E95D914       jpt_E95D910
 0003:0E95DC84       def_E95D910
 0003:0E961404       aHjltzl_0
 0003:0E96140C       aCcn
 0003:0E96B9EC       jpt_E96B9E8
 0003:0E96BB60       def_E96B9E8
 0003:0E96FC10       def_E96FC4C
 0003:0E96FC50       jpt_E96FC4C
 0003:0E970FBC       jpt_E970FB8
 0003:0E971098       def_E970FB8
 0003:0E973454       def_E973480
 0003:0E973484       jpt_E973480
 0003:0E9739A4       def_E973A08
 0003:0E973A0C       jpt_E973A08
 0003:0E973F94       a2191
 0003:0E973F9C       aHttpAmbtwsvn2S_3
 0003:0E974698       a2242
 0003:0E9746A0       aHttpAmbtwsvn2S_7
 0003:0E974C90       aHttpAmbtwsvn2S_4
 0003:0E975438       a2246
 0003:0E975440       aHttpAmbtwsvn2S_8
 0003:0E975970       aHttpAmbtwsvn2S_5
 0003:0E9759B0       a2316_0
 0003:0E97BEBC       jpt_E97BEB8
 0003:0E97BED4       def_E97BEB8
 0003:0E97DCB0       jpt_E97DCAC
 0003:0E97DF08       def_E97DCAC
 0003:0E97ED94       jpt_E97ED90
 0003:0E97F1F0       def_E97ED90
 0003:0E97F2A8       jpt_E97F2A4
 0003:0E97F418       def_E97F2A4
 0003:0E9801A4       jpt_E9801A0
 0003:0E980378       def_E9801A0
 0003:0E984F30       jpt_E984F2C
 0003:0E984F48       def_E984F2C
 0003:0E98682C       aS
 0003:0E986834       aUxUtilityPrint
 0003:0E98684C       aSCanTCreatePri
 0003:0E986874       aSCanTCreatePri_0
 0003:0E9868A0       aUxPrintThread
 0003:0E9868B0       aSCanTCreatePri_1
 0003:0E9868D8       aUxUtilityPrint_0
 0003:0E9868F4       aSCanTDeletePri
 0003:0E98691C       a08uUsb
 0003:0E986AD8       jpt_E986AD4
 0003:0E986BB0       def_E986AD4
 0003:0E986BC8       aUsbxInterfaceN
 0003:0E986CE4       aUxUtilityFreeS
 0003:0E986D04       aSCanTFree0xXCo
 0003:0E9872D4       a08uDFullSpeed
 0003:0E9872EC       aUdcHandlerEndp
 0003:0E987308       aSCanTGetEndpoi
 0003:0E987330       aUdcHandlerEndp_0
 0003:0E987A00       aUxPictbridgeCl
 0003:0E987A20       aUxPictbridgeCl_0
 0003:0E987A40       aUxPictbridgeTh
 0003:0E987C0C       aFailedToClearD
 0003:0E987C30       aFailedToDelete
 0003:0E987C50       aFailToDeleteEv
 0003:0E987C6C       aFailToDeleteSe
 0003:0E987F40       aUxDeviceClassP
 0003:0E987F68       aSErrorDuringGe
 0003:0E987F9C       aSErrorDuringGe_0
 0003:0E987FD0       aSTxAborted
 0003:0E987FE4       aSTxFailed
 0003:0E988278       aUxSlaveClassPi
 0003:0E98871C       aUndefined
 0003:0E988728       aGeneralError
 0003:0E988738       aSessionNotOpen
 0003:0E98874C       aInvalidTransac
 0003:0E988764       aOperationNotSu
 0003:0E98877C       aParameterNotSu
 0003:0E988794       aIncompleteTran
 0003:0E9887A8       aInvalidStorage
 0003:0E9887BC       aInvalidObjectH
 0003:0E9887D4       aDeviceProperty
 0003:0E9887F4       aInvalidObjectF
 0003:0E988810       aStorageFull
 0003:0E988820       aObjectWritePro
 0003:0E988838       aStorageReadOnl
 0003:0E98884C       aAccessDeny
 0003:0E988858       aNoThumbnailPre
 0003:0E9889F0       aUxDeviceClassC
 0003:0E988A1C       aSSetLineStateD
 0003:0E988A44       aSetControlLine
 0003:0E988A74       aUdcCdcAcmGetCo
 0003:0E988A94       aSInstanceDReac
 0003:0E98A844       a0123456789abcd_0
 0003:0E98AE7C       jpt_E98AE78
 0003:0E98AF58       def_E98AE78
 0003:0E98B3F8       nullsub_37
 0003:0E98E98C       nullsub_38
 0003:0E9A7720       nullsub_54
 0003:0E9B0268       nullsub_39
 0003:0E9B3320       nullsub_40
 0003:0E9C3798       a0123456789abcd_1
 0003:0E9C3B60       jpt_E9C3B5C
 0003:0E9C3EEC       def_E9C3B5C
 0003:0E9C3F1C       aUxDeviceStackD
 0003:0E9C3F40       aSStringContain
 0003:0E9C3F74       aSUnsupportedDe
 0003:0E9C59E4       jpt_E9C59E0
 0003:0E9C5BA0       def_E9C59E0
 0003:0E9D2998       nullsub_55
 0003:0E9D7C90       aUnknownError
 0003:0E9D7CAC       aLibopusUnknown
 0003:0E9E12E8       aUsbAmbausbDrvS
 0003:0E9E28D8       aUxDeviceClassP_0
 0003:0E9E2904       aSCanTAllocateM
 0003:0E9E2D10       aUxDeviceClassP_1
 0003:0E9E2D38       aSErrorDuringGe_1
 0003:0E9E2D6C       aSErrorDuringGe_2
 0003:0E9E2DA0       aSTxAborted_0
 0003:0E9E2DB4       aSTxFailed_0
 0003:0E9E367C       aUxDeviceClassP_2
 0003:0E9E36A8       aSDataLengthDMa
 0003:0E9E39D0       aUdcPimaObjectP
 0003:0E9E39F0       aSNoCallbackFun
 0003:0E9E4274       aWrongDataInfoD
 0003:0E9E42B8       aSendOrGetFunct
 0003:0E9E42E0       aCustomCommandD
 0003:0E9E4B68       nullsub_57
 0003:0E9E4B80       nullsub_58
 0003:0E9E6C18       nullsub_59
 0003:0EA05EB0       jpt_EA05EAC
 0003:0EA05F00       def_EA05EAC
 0003:0EA287C4       nullsub_65
 0003:0EA30C4C       jpt_EA30C48
 0003:0EA31734       def_EA30C48
 0003:0EA32878       jpt_EA32874
 0003:0EA328C0       def_EA32874
 0003:0EA333BC       jpt_EA333B8
 0003:0EA33480       def_EA333B8
 0003:0EA482D4       nullsub_61
 0003:0EA4BED4       jpt_EA4BED0
 0003:0EA4BF04       def_EA4BED0
 0003:0EA4C4C0       jpt_EA4C4BC
 0003:0EA4C534       def_EA4C4BC
 0003:0EA4E744       jpt_EA4E740
 0003:0EA4E7A8       def_EA4E740
 0003:0EA4E874       jpt_EA4E870
 0003:0EA4E8A0       def_EA4E870
 0003:0EA4EB98       jpt_EA4EB94
 0003:0EA4EBCC       def_EA4EB94
 0003:0EA51040       jpt_EA5103C
 0003:0EA51060       def_EA5103C
 0003:0EA510D0       jpt_EA510CC
 0003:0EA510F0       def_EA510CC
 0003:0EA51190       jpt_EA5118C
 0003:0EA511B0       def_EA5118C
 0003:0EA51220       jpt_EA5121C
 0003:0EA51240       def_EA5121C
 0003:0EA512C8       jpt_EA512C4
 0003:0EA512E8       def_EA512C4
 0003:0EA5136C       jpt_EA51368
 0003:0EA5138C       def_EA51368
 0003:0EA513FC       jpt_EA513F8
 0003:0EA5141C       def_EA513F8
 0003:0EA514D0       jpt_EA514CC
 0003:0EA514F0       def_EA514CC
 0003:0EA515B8       jpt_EA515B4
 0003:0EA515D8       def_EA515B4
 0003:0EA516A0       jpt_EA5169C
 0003:0EA516C0       def_EA5169C
 0003:0EA51774       jpt_EA51770
 0003:0EA51794       def_EA51770
 0003:0EA518D4       jpt_EA518D0
 0003:0EA518F4       def_EA518D0
 0003:0EA51B8C       jpt_EA51B88
 0003:0EA51BAC       def_EA51B88
 0003:0EA51F88       nullsub_41
 0003:0EA57620       jpt_EA5761C
 0003:0EA576D4       def_EA5761C
 0003:0EA5863C       jpt_EA58638
 0003:0EA58698       def_EA58638
 0003:0EA586A0       aUxDeviceClassU_0
 0003:0EA586BC       aSClassDCodeDoe
 0003:0EA58908       aUxDeviceClassU
 0003:0EA58928       aSCanTAllocateS
 0003:0EA58950       aUxDeviceClassT
 0003:0EA58974       aUxSlaveClassUv
 0003:0EA58990       aSCanTCreateThr
 0003:0EA589AC       aSCanTAllocateS_0
 0003:0EA589DC       aUvcEventThread
 0003:0EA589F8       aSCanTCreateEve
 0003:0EA58A1C       aUvcEventThread_0
 0003:0EA58A30       aSCanTCreateEve_0
 0003:0EA58B60       aUxDeviceClassU_1
 0003:0EA58B7C       aSCanTDeleteUvc
 0003:0EA58BA0       aSDeleteUvcSema
 0003:0EA58BD0       aSCanTDeleteUvc_0
 0003:0EA58BFC       aSDeleteUvcEven
 0003:0EA59828       jpt_EA59824
 0003:0EA5988C       def_EA59824
 0003:0EA59E04       aUvcFormatDFram
 0003:0EA59E28       aWarningConfigU
 0003:0EA59E74       aWarningConfigU_0
 0003:0EA59EC0       aProcessProbeCo
 0003:0EA59F7C       aProcessCommitC
 0003:0EA59FD0       jpt_EA59FCC
 0003:0EA5A020       def_EA59FCC
 0003:0EA5A180       aUxSlaveClassSt
 0003:0EA5A1E0       aDeleteThreadFa
 0003:0EA5AC50       aUxDeviceClassS
 0003:0EA5AC70       aSReceiveLength
 0003:0EA5AC94       aSSignaureError
 0003:0EA5ACAC       aSReceiveTimeou
 0003:0EA5ACD0       aSCanTReceiveDa
 0003:0EA5BB88       aMscMmcModeSens
 0003:0EA5BF1C       jpt_EA5BF18
 0003:0EA5BF68       def_EA5BF18
 0003:0EA5BFA4       aUxDeviceClassS_0
 0003:0EA5BFC8       aSNoActionForDi
 0003:0EA5BFEC       aSNoActionForEn
 0003:0EA5C654       aMscReadCdFaile
 0003:0EA5D11C       jpt_EA5D118
 0003:0EA5D16C       def_EA5D118
 0003:0EA5D280       aDeleteInterrup
 0003:0EA5D298       aSCanTDeleteInt
 0003:0EA5D2CC       aSDeletePimaInt
 0003:0EA5D304       aUxDeviceClassP_4
 0003:0EA5D320       aSCanTDeletePim
 0003:0EA5D348       aSEventArrayIsN
 0003:0EA5D5C0       aUxDeviceClassP_3
 0003:0EA5D5E8       aSCancelWlength
 0003:0EA5D604       aSCanTGetDataFo
 0003:0EA5D638       aSResetWlengthD
 0003:0EA5D650       aSCanTGetDataFo_0
 0003:0EA5D684       aSUnknownComman
 0003:0EA5D6E0       jpt_EA5D6DC
 0003:0EA5D754       def_EA5D6DC
 0003:0EA5D75C       aUxDeviceClassS_3
 0003:0EA5D77C       aSCommandD
 0003:0EA5D790       aSClassDCodeDoe_0
 0003:0EA5D8B4       aUxDeviceClassS_4
 0003:0EA5D8D8       aSCanTAllocateM_0
 0003:0EA5D908       aUxSlaveClassSi
 0003:0EA5D928       aUxSlaveClassSi_0
 0003:0EA5DA80       aUxDeviceClassS_1
 0003:0EA5DAA8       aSDonTSupportSt
 0003:0EA5DB10       jpt_EA5DB0C
 0003:0EA5DB84       def_EA5DB0C
 0003:0EA5E3FC       aUsbxEpDRxError
 0003:0EA5E444       a0xXRxSemaOutEr
 0003:0EA5E494       aUsbxEpDRxError_0
 0003:0EA5E63C       jpt_EA5E638
 0003:0EA5E68C       def_EA5E638
 0003:0EA5E728       aUxSlaveClassCd_0
 0003:0EA5E748       aUxSlaveClassCd_1
 0003:0EA5E888       aUxDeviceClassC_0
 0003:0EA5E8A8       aSCanTDeleteInM
 0003:0EA5E8D0       aSCanTDeleteOut
 0003:0EA5E918       jpt_EA5E914
 0003:0EA5E96C       def_EA5E914
 0003:0EA5EA98       aUxSlaveClassTh
 0003:0EA5EAB0       aUxDeviceClassH
 0003:0EA5EBA8       jpt_EA5EBA4
 0003:0EA5EC20       def_EA5EBA4
 0003:0EA5ECA8       aHidDeleteThrea
 0003:0EA5ECCC       aHidDeleteThrea_0
 0003:0EA5EF88       jpt_EA5EF84
 0003:0EA5EFC4       def_EA5EF84
 0003:0EA5EFE4       jpt_EA5EFE0
 0003:0EA5F020       def_EA5EFE0
 0003:0EA5F274       a08uStartNative
 0003:0EA5F290       a08uCloseNative
 0003:0EA5F344       aUxDeviceClassS_2
 0003:0EA5F368       aDeactiveEp0xXI
 0003:0EA63338       jpt_EA63334
 0003:0EA6337C       def_EA63334
 0003:0EA636B4       jpt_EA636B0
 0003:0EA636F8       def_EA636B0
 0003:0EA64980       nullsub_42
 0003:0EA6BE68       jpt_EA6BE64
 0003:0EA6BF5C       def_EA6BE64
 0003:0EA6C064       nullsub_62
 0003:0EA6C194       jpt_EA6C190
 0003:0EA6C28C       def_EA6C190
 0003:0EA6C3AC       nullsub_63
 0003:0EA6CAB0       nullsub_43
 0003:0EA6E098       jpt_EA6E094
 0003:0EA6E0D4       def_EA6E094
 0003:0EA73F50       def_EA73F98
 0003:0EA73F9C       jpt_EA73F98
 0003:0EA75048       jpt_EA75044
 0003:0EA750D0       def_EA75044
 0003:0EA7590C       nullsub_44
 0003:0EA75964       jpt_EA75960
 0003:0EA759E8       def_EA75960
 0003:0EA760F4       jpt_EA760F0
 0003:0EA76138       def_EA760F0
 0003:0EA76158       jpt_EA76154
 0003:0EA761CC       def_EA76154
 0003:0EA763C0       jpt_EA763BC
 0003:0EA767B0       def_EA763BC
 0003:0EA7735C       def_EA77410
 0003:0EA77414       jpt_EA77410
 0003:0EA79D48       jpt_EA79D44
 0003:0EA79D84       def_EA79D44
 0003:0EA7BF8C       jpt_EA7BF88
 0003:0EA7BFF0       def_EA7BF88
 0003:0EA7FE70       jpt_EA7FE6C
 0003:0EA80C58       def_EA7FE6C
 0003:0EA8205C       jpt_EA82058
 0003:0EA8209C       def_EA82058
 0003:0EA82A38       jpt_EA82A34
 0003:0EA82A78       def_EA82A34
 0003:0EA83BB8       aUxDeviceClassU_3
 0003:0EA83BD4       aSWaitSemaphore
 0003:0EA83BF8       aUdcUvcEventThr
 0003:0EA83CC4       aUsbxCanTSendHi
 0004:0EA8CACC       a245893
 0004:0EA8CADC       aSldmp
 0004:0EA8EA01       aSuccess_5
 0004:0EA8EA09       aInvalidArgumen_0
 0004:0EA8EA1A       aBufferTooSmall
 0004:0EA8EA2B       aInternalError
 0004:0EA8EA3A       aCorruptedStrea
 0004:0EA8EA4B       aRequestNotImpl
 0004:0EA8EA63       aInvalidState
 0004:0EA8EA71       aMemoryAllocati
 0004:0EA8F180       a2AfkpuzBd
 0004:0ECB69D4       aAmbademo
 0004:0ECB84E4       aFc300x_1
 0004:0ECB8504       aDji
 0004:0ECB8524       aV01325432_2
 0004:0ECB8580       aJpg_2
 0004:0ECB8585       aMov_2
 0004:0ECB858A       aAac
 0004:0ECBA15C       aAmbaDspImgAlgo
 0004:0ECBA1BC       aAmbaDspYuv420
 0004:0ECBA1CC       aAmbaDspYuv422
 0004:0ED8608C       aUbiMtd8RootUbi
 0004:0ED860DC       a23697071727374
 0004:0ED8AF14       aSuperviewwarpt
 0004:0ED8B024       aSuperviewwarpt_0
 0004:0ED8B184       aSuperviewwarpt_1
 0004:0ED90DC8       aAmbacamRev
 0004:0EDA98BC       aAmbarell
 0004:0EDA98C8       aA9DscEvkPlatfo
 0004:0EDA98DC       a1000
 0004:0EDA98F0       aAmbarell_0
 0004:0EDA98FC       aA9DscEvkPlatfo_0
 0004:0EDA9910       a1000_1
 0004:0EDA9924       aAmbarella_0
 0004:0EDA9930       aA9MtpDevice_0
 0004:0EDA9940       a1000_0
 0004:0EDA9948       aV10
 0004:0EDA9950       aA9MtpClientDis
 0004:0EDA996C       aA9MtpClientSdS
 0004:0EDA9A34       aCAmbaMtpTxt
 0004:0EDA9A44       aAmbarella_1
 0004:0EDA9A50       aA9DscPlatform
 0004:0EDA9A60       a6668828
 0004:0EDA9C40       aBpcMode
 0004:0EDB4C34       aDjiPrivate
 0004:0EDB4D40       aFc300x_2
 0004:0EDBC634       aCa90
 0004:0EDBC654       aCode
 0004:0EDBD51C       aBbt23tbb
 0004:0EDBD638       aDBinsH01MctfHi
 0004:0EDBD684       aDBinsH02MctfLo
 0004:0EDBD6D0       aDBinsH03MctfMe
 0004:0EDBD71C       aDBinsH04MctfL4
 0004:0EDBD768       aDBinsH05MctfMi
 0004:0EDBD7B4       aDBinsH06MctfC8
 0004:0EDBD800       aDBinsH07MctfC4
 0004:0EDBD84C       aDBinsH08MctfCB
 0004:0EDBD898       aDBinsH09MctfLC
 0004:0EDBD8E4       aDBinsH10MctfLi
 0004:0EDBD930       aDBinsH11MctfLi
 0004:0EDBD97C       aDBinsH12MctfFi
 0004:0EDBD9C8       aDBinsH13SecCcC
 0004:0EDBDA14       aDBinsH14SecCcL
 0004:0EDBDA60       aDBinsH15SecCcL
 0004:0EDBDAAC       aDBinsH16CcRegB
 0004:0EDBDAF8       aDBinsH17Cc3dHi
 0004:0EDBDB44       aDBinsH18Cc3dLi
 0004:0EDBDB90       aDBinsH19CcOutB
 0004:0EDBDBDC       aDBinsH20DarkTh
 0004:0EDBDC28       aDBinsH21HotThr
 0004:0EDBDC74       aDBinsH22DarkTh
 0004:0EDBDCC0       aDBinsH23HotThr
 0004:0EDBDD0C       aDBinsH24LocalE
 0004:0EDBDD58       aDBinsH25Chroma
 0004:0EDBDDA4       aDBinsH26Chroma
 0004:0EDBDDF0       aDBinsH27Chroma
 0004:0EDBDE3C       aDBinsH28LnlTon
 0004:0EDBDE88       aDBinsH29Fir1Hi
 0004:0EDBDED4       aDBinsH30Fir2Hi
 0004:0EDBDF20       aDBinsH31Coring
 0004:0EDBDF6C       aDBinsH32Fir1CA
 0004:0EDBDFB8       aDBinsH33Fir2CA
 0004:0EDBE004       aDBinsH34Coring
 0004:0EDBE050       aDBinsH35Fir1Me
 0004:0EDBE09C       aDBinsH36Fir2Me
 0004:0EDBE0E8       aDBinsH37Coring
 0004:0EDBE134       aDBinsH38Fir1Me
 0004:0EDBE180       aDBinsH39Fir2Me
 0004:0EDBE1CC       aDBinsH40Coring
 0004:0EDBE218       aDBinsH41Fir1Hi
 0004:0EDBE264       aDBinsH42Fir2Hi
 0004:0EDBE2B0       aDBinsH43Coring
 0004:0EDBE2FC       aDBinsH44Fir1Li
 0004:0EDBE348       aDBinsH45Fir2Li
 0004:0EDBE394       aDBinsH46Coring
 0004:0EDBE3E0       aDBinsH47Fir1Li
 0004:0EDBE42C       aDBinsH48Fir2Li
 0004:0EDBE478       aDBinsH49Coring
 0004:0EDBE4C4       aDBinsH50Fir1Hi
 0004:0EDBE510       aDBinsH51Fir2Hi
 0004:0EDBE55C       aDBinsH52Coring
 0004:0EDBE5A8       aDBinsH533dLeve
 0004:0EDBE5F4       aDBinsH543dLeve
 0004:0EDBE640       aDBinsH553dLeve
 0004:0EDBE68C       aDBinsH56Vignet
 0004:0EDBE6D8       aDBinsH57CaWarp
 0004:0EDBE724       aDBinsH58CaWarp
 0004:0EDBE770       aDBinsH59GeoWar
 0004:0EDBE7BC       aDBinsH60GeoWar
 0004:0EDBE808       aDBinsH61FpnMap
 0004:0EDBE854       aDBinsH62FpnLoo
 0004:0EDBE8A0       aDBinsH633dLeve
 0004:0EDBE8EC       aDBinsH643dLeve
 0004:0EDBE938       aDBinsH653dLeve
 0004:0EDBE984       aDBinsH663dLeve
 0004:0EDBE9D0       aDBinsL01Mctfsh
 0004:0EDBEA1C       aDBinsL02Ccregu
 0004:0EDBEA68       aDBinsL03Cc3dus
 0004:0EDBEAB4       aDBinsL04Darkth
 0004:0EDBEB00       aDBinsL05Hotthr
 0004:0EDBEB4C       aDBinsL06Fir1us
 0004:0EDBEB98       aDBinsL07Fir2us
 0004:0EDBEBE4       aDBinsL08Coring
 0004:0EDBEC30       aDBinsL09Lnlton
 0004:0EDBEC7C       aRed
 0004:0EDBF150       a2014AmbarellaU
 0004:0EDF41E0       aUxSlaveClassSt_0
 0004:0EDF41F8       aUxSlaveClassCd
 0004:0EDF4210       aUxSlaveClassPi_0
 0004:0EDF4224       aUxSlaveClassHi
 0004:0EDF4238       aUxSlaveClassSi_1
 0004:0EDF4250       aUxSlaveClassUv_0
 0004:0EDF4264       aExpressl
 0004:0EDF4270       aUsbxStorageDev
 0004:0EDF4284       a2001
 0004:0EDF4318       aCopyrightC1996
 0004:0EDF4384       aFiletype_0
 0004:0EDF7764       aDdiscvryDps
 0004:0EDF7774       aHdiscvryDps
 0004:0EDF7784       aDrequestDps
 0004:0EDF7794       aDrsponseDps
 0004:0EDF77A4       aPimaClientStor
 0004:0EDF77C0       aPimaClientStor_0
 0004:0EDF77DC       aXmlVersion10
 0004:0EDF77F0       aDpsXmlnsHttpWw
 0004:0EDF781C       aDps
 0004:0EDF7820       aOutput_0
 0004:0EDF7828       aInput
 0004:0EDF7830       aResult
 0004:0EDF7838       aConfigureprint
 0004:0EDF7850       aDpsversions
 0004:0EDF785C       aVendorname
 0004:0EDF7868       aVendorspecific
 0004:0EDF7880       aProductname
 0004:0EDF788C       aSerialno
 0004:0EDF7898       aCapability
 0004:0EDF78A4       aGetcapability
 0004:0EDF78B4       aQualities
 0004:0EDF78C0       aPapersizes
 0004:0EDF78CC       aPapertypes
 0004:0EDF78D8       aFiletypes
 0004:0EDF78E4       aDateprints
 0004:0EDF78F0       aFilenameprints
 0004:0EDF7900       aImageoptimizes
 0004:0EDF7910       aLayouts
 0004:0EDF7918       aFixedsizes
 0004:0EDF7924       aCroppings
 0004:0EDF7930       aCharrepertoire
 0004:0EDF7940       aGetdevicestatu
 0004:0EDF7950       aNotifydevicest
 0004:0EDF7964       aNotifyjobstatu
 0004:0EDF7974       aStartjob
 0004:0EDF7980       aAbortjob
 0004:0EDF798C       aContinuejob
 0004:0EDF7998       aQuality
 0004:0EDF79A0       aPapersize_0
 0004:0EDF79AC       aPapertype
 0004:0EDF79B8       aFiletype
 0004:0EDF79C4       aDateprint
 0004:0EDF79D0       aFilenameprint
 0004:0EDF79E0       aImageoptimize
 0004:0EDF79F0       aLayout
 0004:0EDF79F8       aJobconfig
 0004:0EDF7A04       aPrintinfo
 0004:0EDF7A10       aFileid
 0004:0EDF7A18       aFilename
 0004:0EDF7A24       aDate
 0004:0EDF7A2C       aPapersize
 0004:0EDF7A38       aVersion
 0004:0EDF7A40       aXmlns
 0004:0EDF7A48       aHttpWwwCipaJpD
 0004:0EE052F0       aStgStg2IdxPrfC
 0004:0EE06EA8       aMicrosoftCom10
 0004:0EE26C90       a3333
 0004:0EE27C2C       a98765443210
 0004:0EE27E2C       aSg
 0004:0EE28760       a98765443210_0

Program entry point at 0003:00000000
