
 Start         Length     Name                   Class
 0001:00000000 000803620H .text                  CODE
 0002:00000000 0000D3800H .data                  DATA
 0003:00000000 000400000H .bss.noinit            BSS
 0004:00000000 0053291C0H .bss                   BSS


  Address         Publics by Value

 0001:00000000       __ddr_resv_end
 0001:00000020       Undefined_Handler
 0001:00000064       SWI_Handler
 0001:00000068       Prefetch_Handler
 0001:000000AC       DataAbort_Handler
 0001:000000F0       IRQ_IsrAddr
 0001:000000F4       FIQ_IsrAddr
 0001:000000F8       Exception_HandlerAddr
 0001:00000104       __AmbaProgramStart
 0001:00000200       arr_count_up_a
 0001:0000D9B0       nullsub_44
 0001:0000EE10       nullsub_45
 0001:0000F958       nullsub_46
 0001:000106E8       nullsub_47
 0001:00012CBC       nullsub_48
 0001:00013A8C       __udivsi3
 0001:00014C6C       memset_zero
 0001:000187C8       nullsub_49
 0001:00019EB0       nullsub_50
 0001:0001AAE0       memset
 0001:0001AB18       memset_1
 0001:0001CC84       nullsub_1
 0001:00028138       aDji_adjGetNoDa
 0001:0002815C       a_decide_pivadj
 0001:00028174       aS
 0001:00028190       aStillmodeDShin
 0001:000281D4       aAmba_adjpivcon
 0001:000281FC       aSStart_4
 0001:00028208       aSWbgainGainr5d
 0001:00028240       aPivStillmodeDS
 0001:00028288       aSEnd
 0001:00028294       aLoadbin
 0001:0002829C       aSavebin
 0001:000282A4       aSize6dTypeDAdd
 0001:000282E0       aEnablebintest
 0001:000282F0       aVideo
 0001:000282F8       aUsageTImgprocA
 0001:00028318       aSavebinVideoPh
 0001:00028364       aLoadbinVideoPh
 0001:000283CC       aDjiaudiodemuxg
 0001:000283EC       aSUGetTheAudioR
 0001:00028414       aDjiaudiodecget
 0001:00028430       aBeepplaybackta
 0001:00028444       aPlay
 0001:0002844C       aStop_2
 0001:00028454       aWorngSettingFo
 0001:00028480       aWrongAudioDebu
 0001:000284B4       aBeep
 0001:000284BC       aDebug_0
 0001:000284C4       aWorngSetting_0
 0001:000284EC       aSetoutput
 0001:000284F8       aAucodecSetAudi
 0001:0002852C       aSetinput
 0001:00028538       aAucodecSetAu_0
 0001:00028568       aWrite
 0001:00028570       aAucodecAmbaaud
 0001:00028594       aRead
 0001:0002859C       aAucodecAmbaa_0
 0001:000285CC       aAmbadsp_totalc
 0001:000285EC       aAmbadsp_totaln
 0001:00028610       aDspDebugLogDat
 0001:0002862C       a3x32BitOsdBuff
 0001:00028654       aBufferForImage
 0001:00028674       aBufferForIma_0
 0001:00028690       aBufferForAudio
 0001:000286C0       aBufferForAud_0
 0001:000286EC       aDspWorkAreaD
 0001:00028700       aPhotoLiveview
 0001:00028710       aAmbadsp_stillc
 0001:00028738       aMoveRec
 0001:00028744       aAmbadsp_videorecmemD
 0001:0002876C       aStillPlayback
 0001:0002877C       aAmbadsp_stillpbmemD
 0001:000287A4       aVideoPlayback
 0001:000287B4       aAmbadsp_videopbmemD
 0001:000287DC       aXcode_2
 0001:000287E4       aAmbadsp_videoxcodememD
 0001:00028810       aTuing
 0001:00028818       aAmbadsp_videot
 0001:00028844       aBufferForUserc
 0001:00028864       aAmbadsp_tota_0
 0001:00028888       aAmbabufferinit
 0001:00028898       aK_assertAtS_14
 0001:000288AC       aDjinoncachedbu
 0001:000288C4       aSFreeMemorySpa
 0001:000288EC       aSAllocateNonca
 0001:000289B0       aPhotopredictqp
 0001:000289C8       aErrSNbppOverDs
 0001:000289F4       aBppUNbppU
 0001:00028A1C       aNoDataPrgbdata
 0001:00028A44       aTbppUAfdatafv2
 0001:00028AB8       a4k2kLiveview
 0001:00028AC8       aRawCapture
 0001:00028AD4       aVideoTuner
 0001:00028AE0       a4k2kMctf
 0001:00028AEC       aXcodeTo720p
 0001:00028AFC       aXcodeToWvga
 0001:00028B0C       aXcodeToWqvga
 0001:00028B1C       a12m_4000x3000
 0001:00028B2C       a8m_3264x2448
 0001:00028B3C       a5m_2592x1944
 0001:00028B4C       a9m_4000x2250
 0001:00028B5C       a6m_3264x1836
 0001:00028B6C       a4m_2592x1458
 0001:00028B7C       a4096x2160p25
 0001:00028B8C       a4096x2160p24
 0001:00028B9C       a4k2kp30
 0001:00028BA4       a4k2kp25
 0001:00028BAC       a4k2kp24
 0001:00028BB4       a1440p60
 0001:00028BBC       a3840x1920p30
 0001:00028BCC       a1520p30
 0001:00028BD4       a1520p25
 0001:00028BDC       a1520p24
 0001:00028BE4       a1080p120
 0001:00028BF0       a1080p60
 0001:00028BF8       a1080p50
 0001:00028C00       a1080p48
 0001:00028C08       a1080p30_0
 0001:00028C10       a1080p25
 0001:00028C18       a1080p24
 0001:00028C20       a1920x960p60
 0001:00028C2C       a1920x960p30
 0001:00028C38       a720p240
 0001:00028C40       a720p120
 0001:00028C48       a720p60
 0001:00028C50       a720p50
 0001:00028C58       a720p48
 0001:00028C60       a720p30_0
 0001:00028C68       a720p25
 0001:00028C70       a720p24
 0001:00028D98       aDjiJpegQuality
 0001:00028DAC       aJpggentaskentr
 0001:00028DBC       aJpggenProcessY
 0001:00028DDC       aBaoDbgInJpggen
 0001:00028E28       aBaoDbgInJpgg_0
 0001:00028ECC       aBaoDbgYuvSendi
 0001:00028F08       aBaoDbgYuvCntDA
 0001:00028F4C       aBaoDbgYuvIpcRe
 0001:00028F80       aDSvn_viewA9s_2
 0001:0002901C       aBaoDbgYuvAmbai
 0001:00029068       aBaoDbgYuvSleep
 0001:00029088       aBaoDbgYuvGetBa
 0001:000290C8       aBaoDbgYuvLinux
 0001:00029100       aBaoDbgYuvNotCl
 0001:00029140       aBaoDbgYuvNot_0
 0001:00029190       aBaoDbgYuvNot_1
 0001:000291D8       aBaoDbgYuvNot_2
 0001:00029218       aErrSTargetbppO
 0001:00029248       aStartGenerateT
 0001:00029268       aReleaseThmBufD
 0001:0002927C       aSUStartToHoriz
 0001:000292B8       aEndGenerateThu
 0001:000292D0       aYuvinfo_pitchU
 0001:00029310       aDownscaleSpent
 0001:00029340       aStartGenerateS
 0001:00029360       aReleaseScrBufD
 0001:00029374       aEndGenerateScr
 0001:0002938C       aStartGenerateM
 0001:000293A4       aReleaseMainBuf
 0001:000293B8       aEndGenerateMai
 0001:000293CC       aJpegcntD
 0001:000293D8       aJpegbits_remai
 0001:000293F4       aStorage_eventh
 0001:0002940C       aSDPjpeginfoPic
 0001:0002944C       aJpegBitstreamO
 0001:0002949C       aSentToJpeginfo
 0001:000294B8       aSetG_ambastora
 0001:000294DC       aErrAmbastorage
 0001:00029500       aErrTakeG_ambas
 0001:00029528       aFrametypeRawPi
 0001:00029550       aFrametypeClean
 0001:00029580       aFrametypeMainY
 0001:000295AC       aFrametypeMainU
 0001:000295D8       aFrametypeScrPi
 0001:0002961C       aFrametypeMainP
 0001:00029660       aAmbakal_msgq_1
 0001:00029698       aDjiexifgenerat
 0001:000296FC       aSDTheWbGainrUG
 0001:00029760       aSUGetDji_ust_p
 0001:00029788       aStoragetaskent
 0001:000297A4       aAmbakal_msgq_2
 0001:000297E4       aFrametypeMai_0
 0001:0002982C       aFrametypeThmPi
 0001:00029874       aFrametypeScr_0
 0001:000298BC       aMovieThumbnail
 0001:000298D4       aSDSdCardIsFull
 0001:000298F0       aSDDjipanofname
 0001:00029914       aSDAmbadcf_crea
 0001:00029940       aStillFileNameS
 0001:00029954       a4d02d02d02d02d
 0001:00029974       aSTheCurrentTim
 0001:00029990       aSU1g_capture_n
 0001:000299C4       aSU2g_capture_n
 0001:000299F8       aSavedYMovieThu
 0001:00029A18       aErrWriteYMovie
 0001:00029A3C       aSavedUvMovieTh
 0001:00029A60       aErrWriteUvMovi
 0001:00029A84       aSOpenFileSFail
 0001:00029AB4       aSUErrPexiffmti
 0001:00029AE8       aBaoDbgJpgtype_
 0001:00029B78       aBaoDbgExifUUUU
 0001:00029BC0       aBaoDbgStoraget
 0001:00029C08       aBaoDbgStorag_0
 0001:00029C48       aBaoDbgSendingH
 0001:00029C7C       aBaoDbgCntDAmba
 0001:00029CBC       aBaoDbgIpcRetur
 0001:00029CEC       aDSvn_viewA9s_0
 0001:00029D88       aBaoDbgAmbaipc_
 0001:00029DD0       aBaoDbgSleeping
 0001:00029DEC       aBaoDbgGetBackH
 0001:00029E38       aBaoDbgLinuxHdr
 0001:00029E68       aBaoDbgNotClear
 0001:00029EA4       aBaoDbgNotCle_0
 0001:00029EF0       aBaoDbgNotCle_1
 0001:00029F34       aBaoDbgSaveThum
 0001:00029F54       aBaoDbgImageSto
 0001:00029F8C       aBaoDbgClearHdr
 0001:00029FD4       aSavedJpegS
 0001:00029FE4       aSetTheDngInfoF
 0001:0002A000       aCorrectTheDngB
 0001:0002A020       aStoreTheDngSFa
 0001:0002A03C       aGetFileExtPosE
 0001:0002A054       a_dng_2
 0001:0002A05C       aSaveJpegFail
 0001:0002A070       aCreateJpegFail
 0001:0002A09C       aCreateJpegFa_0
 0001:0002A0B4       aSavedJpegS_0
 0001:0002A0C8       aSaveJpegFail_0
 0001:0002A0DC       aCreateJpegFa_1
 0001:0002A108       aCreateJpegFa_2
 0001:0002A120       aSetTheDngInf_0
 0001:0002A13C       aCorrectTheDn_0
 0001:0002A15C       aStoreTheDngS_0
 0001:0002A178       aInvaidUserSett
 0001:0002A1A4       aBaoDbgClearH_0
 0001:0002A1D8       aErrCreatingG_a
 0001:0002A204       aAmbacapturesto
 0001:0002A21C       aBurstStop
 0001:0002A228       aNumcaptureD
 0001:0002A238       aCurrentModeDoe
 0001:0002A25C       aCapture_start
 0001:0002A270       aActiveRawHDVD
 0001:0002A28C       aTotalCaptureNu
 0001:0002A2B8       aDjiAllocateRaw
 0001:0002A2E8       aCaptureDFrameS
 0001:0002A2FC       aErrStillCaptur
 0001:0002A328       aErrStillCapt_0
 0001:0002A358       aSendCaptureSta
 0001:0002A374       aSBeyondProcess
 0001:0002A394       aRawDataReadyAd
 0001:0002A3B0       aAmbakal_msgque
 0001:0002A3E8       aRawcapcntD
 0001:0002A3F8       aStillCfa3aData
 0001:0002A414       aStillRgb3aData
 0001:0002A430       aGetLcdQvYuvDat
 0001:0002A444       aGetTvQvYuvData
 0001:0002A458       aGetThmYuvData
 0001:0002A46C       aAmbakal_msgq_0
 0001:0002A4A4       aGetScrYuvData
 0001:0002A4B8       aGetMainYuvData
 0001:0002A4CC       aNotEncodeModeS
 0001:0002A4E8       aSetG_capture_e
 0001:0002A50C       aInLiveview_c_0
 0001:0002A528       aOutLiveview__0
 0001:0002A540       aInAmbapll_se_1
 0001:0002A55C       aOutAmbapll_s_2
 0001:0002A57C       aStartSensorC_0
 0001:0002A59C       aEndSensorCon_0
 0001:0002A5B8       aShutterTimeDMs
 0001:0002A5D0       aBackToLiveview
 0001:0002A5E8       aBackToLivevi_0
 0001:0002A5FC       aBackToLivevi_1
 0001:0002A628       aBackToLivevi_2
 0001:0002A64C       aInAmbapll_seti
 0001:0002A664       aOutAmbapll_s_3
 0001:0002A680       aSetPhotoLivevi
 0001:0002A69C       aLeaveAmbacaptu
 0001:0002A6C4       aCaptureDone_0
 0001:0002A6D4       aQuickviewtimeu
 0001:0002A6E4       aReceicedCaptur
 0001:0002A704       aG_capture_qvcn
 0001:0002A718       aReleaseLcdBufD
 0001:0002A72C       aReleaseTvBufD
 0001:0002A740       aStillCapturePr
 0001:0002A760       aKeydetectD
 0001:0002A780       aSensorstillcon
 0001:0002A7A0       aSensorstillc_0
 0001:0002A7C0       aRawcapstartD
 0001:0002A7E0       aRawcapdoneD
 0001:0002A800       aSensorliveview
 0001:0002A820       aSensorlivevi_0
 0001:0002A840       aDspliveviewsta
 0001:0002A860       aDspliveviewdon
 0001:0002A880       aRaw2rawstartD
 0001:0002A8A0       aRaw2rawdoneD
 0001:0002A8C0       aRaw2yuvstartD
 0001:0002A8E0       aMainyuvdoneD
 0001:0002A900       aLcdqvyuvdoneD
 0001:0002A920       aTvqvyuvdoneD
 0001:0002A940       aThmyuvstartD
 0001:0002A960       aThmyuvdoneD
 0001:0002A980       aScryuvstartD
 0001:0002A9A0       aScryuvdoneD
 0001:0002A9C0       aMainjpegstartD
 0001:0002A9E0       aMainjpegdoneD
 0001:0002AA00       aThmjpegstartD
 0001:0002AA20       aThmjpegdoneD
 0001:0002AA40       aScrjpegstartD
 0001:0002AA60       aScrjpegdoneD
 0001:0002AA80       aStoragestartD
 0001:0002AAA0       aStoragedoneD
 0001:0002AAE4       aSensorStillCon
 0001:0002AB04       aRawCaptureD
 0001:0002AB24       aSensorLiveview
 0001:0002AB44       aDspBackToLivev
 0001:0002AB64       aR2r3aGeneratio
 0001:0002AB84       aTotalYuvGenera
 0001:0002ABA4       aTotalJpegGener
 0001:0002ABC4       aSspTotalProces
 0001:0002ABE4       aStorageD
 0001:0002AC04       aAmbacapture_ta
 0001:0002AC1C       aSFailToCreat_3
 0001:0002AC3C       aSFailToCreateR
 0001:0002AC60       aSFailToCreateY
 0001:0002AC84       aSFailToCreat_4
 0001:0002ACA8       aAmbacaptureman
 0001:0002ACC0       aAmbacaptureyuv
 0001:0002ACD8       aAmbacapturejpg
 0001:0002ACF0       aDjiquickviewti
 0001:0002AD08       aSTimerChangeIn
 0001:0002AD38       aSTimerChangeFa
 0001:0002AD78       aPreparecleanra
 0001:0002AD90       a2225S
 0001:0002ADC4       aSrcctx_pipeD_0
 0001:0002ADD8       aSAmbadsp_imgin
 0001:0002ADF4       aSAmbadsp_img_0
 0001:0002AE10       aErrorAllocateN
 0001:0002AE40       aPreparestatist
 0001:0002AE58       a2226S
 0001:0002AE8C       aPreparefastmod
 0001:0002AEAC       a2227S
 0001:0002AEE0       aGetWarpCompe_3
 0001:0002AF04       aAmputcalibb_10
 0001:0002AF20       aAmputcalibvi_4
 0001:0002AF3C       aPreparelisofil
 0001:0002AF58       a2228S
 0001:0002AF8C       aLisoCurrentWid
 0001:0002AFA4       aCurrentHeigh_0
 0001:0002AFBC       aCurrentStart_0
 0001:0002AFD4       aCurrentStart_1
 0001:0002B034       aDji_dsp_img_fi
 0001:0002B058       aDji_dsp_img__0
 0001:0002B0B4       aDji_dsp_img__1
 0001:0002B110       aDji_dsp_img__2
 0001:0002B168       aDji_dsp_img__3
 0001:0002B190       aDji_dsp_img__4
 0001:0002B1B8       aDji_dsp_img__5
 0001:0002B1E0       aDji_dsp_img__6
 0001:0002B20C       aPreparehisofil
 0001:0002B228       aStartPrepareHi
 0001:0002B24C       a2229S
 0001:0002B280       aHisoCurrentWid
 0001:0002B298       aCurrentHeigh_1
 0001:0002B2AC       aCurrentStart_2
 0001:0002B2C0       aCurrentStart_3
 0001:0002B2D8       aImgsensorinfo_
 0001:0002B300       aYuvgentaskentr
 0001:0002B310       aSSkipForRawBuf
 0001:0002B32C       aDisableBackgro
 0001:0002B354       aTakeLcdBufD
 0001:0002B364       aTakeTvBufD
 0001:0002B374       aGenerateThmFor
 0001:0002B3AC       aMovieFormatU
 0001:0002B3BC       aQv_lcd_widthDQ
 0001:0002B3E4       aTakeThmBufD
 0001:0002B3F4       aTakeScrBufD
 0001:0002B404       aQv_tv_window_w
 0001:0002B434       aTakeMainBufD
 0001:0002B448       aSSkipForRawB_0
 0001:0002B464       aStartR2yD
 0001:0002B474       aYuvgenProcessY
 0001:0002B494       aSSkipForRawB_1
 0001:0002B4B0       aStartGenerat_0
 0001:0002B4D4       aGeneratingThum
 0001:0002B4F0       aEndGenerateT_0
 0001:0002B50C       aStartGenerat_1
 0001:0002B530       aTakeSrcBufD
 0001:0002B540       aEndGenerateS_0
 0001:0002B55C       aSSkipForRawB_2
 0001:0002B578       aCurrentModeD_0
 0001:0002B59C       aThereIsNoSuppo
 0001:0002B5CC       aNoVcapIsr
 0001:0002B5D8       aDbgCaptureTest
 0001:0002B5EC       aStart_3
 0001:0002B5F4       aDbgcaptest_num
 0001:0002B614       aDbgcaptest_tim
 0001:0002B634       aDbgcaptest_dzo
 0001:0002B654       aStop_4
 0001:0002B65C       aDcim
 0001:0002B664       aMedia
 0001:0002B66C       aDji_
 0001:0002B674       aDjidcf_dmfmode
 0001:0002B688       aSDjiustuserset
 0001:0002B6B8       aDjidcf_dmffids
 0001:0002B6CC       aSDjiromdatamis
 0001:0002B704       aDjidcf_dmffidg
 0001:0002B718       aSDjiromdatam_0
 0001:0002B750       aSDjidcf_dmfmod
 0001:0002B770       aSDjidcf_dmffid
 0001:0002B790       a_mov_1
 0001:0002B798       a_mp4_1
 0001:0002B7A4       aRootdriveShoul
 0001:0002B7C4       aSetTheDcfOverf
 0001:0002B7E4       aClearTheDcfOve
 0001:0002B808       aWrongFileType
 0001:0002B818       aPleaseEnterFul
 0001:0002B830       aCanNotFindTheF
 0001:0002B84C       aFileTypeIsConf
 0001:0002B864       aIllegalDirname
 0001:0002B87C       aIllegalDirnoD
 0001:0002B890       aThisIsNotAVali
 0001:0002B8B4       aIllegalFilenam
 0001:0002B8CC       aIllegalFilenoD
 0001:0002B8E0       aThisIsNotAVa_0
 0001:0002B904       aCanNotFindTh_0
 0001:0002B920       aCanNotFindTh_1
 0001:0002B93C       aCanNotFindTheL
 0001:0002B958       aThereIsNoValid
 0001:0002B988       aCanNotFindTheP
 0001:0002B9A8       aCanNotFindTheN
 0001:0002B9C4       aInvalidFiletyp
 0001:0002B9D8       aAlreadyReachTh
 0001:0002BA08       aCanNotCreateNe
 0001:0002BA20       aBeginToUpdateT
 0001:0002BA50       aAmbadcf_dele_2
 0001:0002BA64       aAmbadcf_delete
 0001:0002BA7C       aAmbadcf_dele_0
 0001:0002BA94       aThisFileIsRead
 0001:0002BAAC       aAmbadcf_dele_1
 0001:0002BAC4       aCanNotDeleteFi
 0001:0002BAE4       aSFailedToRemov
 0001:0002BB18       a_dng_1
 0001:0002BB20       aSUCurrentFileN
 0001:0002BB54       a_srt_0
 0001:0002BB5C       aSUCurrentFil_0
 0001:0002BB90       a_html_0
 0001:0002BB98       aBeginToDeleteP
 0001:0002BBB8       aCanNotDeleteDi
 0001:0002BBD8       a_
 0001:0002BBE0       a_jpg_1
 0001:0002BBF0       aCanNotUpdateCu
 0001:0002BC08       aCanNotUpdatePr
 0001:0002BC24       aCanNotUpdateNe
 0001:0002BC3C       aInvalidDirNo_
 0001:0002BC4C       aInvalidFileNo_
 0001:0002BC60       aSDirnoUFilenoU
 0001:0002BC78       aSInfo
 0001:0002BC9C       a05u05u0x02x0x0
 0001:0002BCF8       aS_8
 0001:0002BD00       a05u05u
 0001:0002BD10       a0x02x
 0001:0002BD18       aSDirUInfo
 0001:0002BD44       aJpegbittable
 0001:0002BD54       aMovbittable
 0001:0002BD60       aAudiobittable
 0001:0002BD70       aValidfiletable
 0001:0002BD80       aDirUTotalAmoun
 0001:0002BDC0       aEndOfUDirInfo
 0001:0002BDF0       aDumpTheRootSta
 0001:0002BE44       aDirectoryInfo
 0001:0002BE74       aTotalDirMountU
 0001:0002BE8C       aDirbittable
 0001:0002BE98       aValiddirtable
 0001:0002BEA8       aDirImageMountU
 0001:0002BEC0       aDirVideoMountU
 0001:0002BED8       aDirAudioMountU
 0001:0002BEF0       aDirAllMountU
 0001:0002BF04       aDirPostfixS
 0001:0002BF18       aFilesInfo
 0001:0002BF44       aTotalAmountJpe
 0001:0002BF7C       aCurjpegfileid
 0001:0002BF8C       aCurmovfileid
 0001:0002BF9C       aCuraudiofileid
 0001:0002BFAC       aCurfileid
 0001:0002BFB8       aMaxfileid
 0001:0002BFC4       aEndOfTheRootSt
 0001:0002C01C       aCurdir
 0001:0002C024       aDjidcf_firstfi
 0001:0002C03C       aDji_dcfSLUInpu
 0001:0002C068       aDji_dcfSLUCanN
 0001:0002C098       aDji_dcfSLUScan
 0001:0002C0C4       aDjidcf_lastfil
 0001:0002C0DC       aDji_dcfSLUCa_0
 0001:0002C10C       aDjidcf_curfile
 0001:0002C124       aDji_dcfSLUIn_0
 0001:0002C14C       aDji_dcfSLUInva
 0001:0002C18C       aDji_dcfSLUIn_1
 0001:0002C1CC       aDji_dcfSLUDirU
 0001:0002C1F0       aDji_dcfSLUDi_0
 0001:0002C218       aDji_dcfSLUCa_1
 0001:0002C258       aDjidcf_prefile
 0001:0002C270       aDji_dcfSLUCanT
 0001:0002C2AC       aDji_dcfSLUCa_2
 0001:0002C2E0       aDji_dcfSLUIn_2
 0001:0002C310       aDjidcf_nextfil
 0001:0002C328       aDji_dcfSLUCa_3
 0001:0002C358       aDjidcf_fnamege
 0001:0002C370       aDji_dcfSLUIn_3
 0001:0002C398       aDji_dcfSLUIn_4
 0001:0002C3C0       aDji_dcfSLUGetF
 0001:0002C410       aDjidcf_fileidx
 0001:0002C42C       aDji_dcfSLUGe_0
 0001:0002C45C       aDji_dcfSLUIlle
 0001:0002C484       aDji_dcfSLUIl_0
 0001:0002C4AC       aDji_dcfSLUThis
 0001:0002C4E4       aDji_dcfSLUIl_1
 0001:0002C510       aDjidcf_getfull
 0001:0002C528       aDjidcf_fsinfog
 0001:0002C53C       aDji_dcfSLUTheI
 0001:0002C56C       aDjidcf_filei_0
 0001:0002C588       aDji_dcfSLUIn_5
 0001:0002C5B8       aDji_dcfSLUIn_6
 0001:0002C5E8       aDji_dcfSLUFirs
 0001:0002C628       aDji_dcfSLUCann
 0001:0002C674       aDjidcf_rootpat
 0001:0002C688       aDji_dcfSLUTh_0
 0001:0002C6C0       a_4d_2d_2d_2d_2
 0001:0002C6E0       aAmbaexifformat
 0001:0002C6F4       aSDAllocateifdF
 0001:0002C710       aSDPutexifheade
 0001:0002C72C       aSDWritestreamE
 0001:0002C748       aSDPutmpfheader
 0001:0002C764       aSDWritestreamF
 0001:0002C780       aExifmuxDetectT
 0001:0002C7E8       aPutexifheader
 0001:0002C7F8       aSDPutexifhea_0
 0001:0002C83C       aSDPutexifhea_1
 0001:0002C87C       aPutmpfheader
 0001:0002C88C       aSDPutmpfhead_0
 0001:0002C8CC       aSDPutmpfhead_1
 0001:0002C90C       aWritestream
 0001:0002C918       aWritestreamIma
 0001:0002C948       aSDWritestreamW
 0001:0002C980       aSDWritestrea_0
 0001:0002C9B8       aSDWritestrea_1
 0001:0002C9F0       aSDWritestrea_2
 0001:0002CA1C       aSDWritestrea_3
 0001:0002CA50       aSDWritestrea_4
 0001:0002CA80       aSDWritestrea_5
 0001:0002CAB0       aSDWritestrea_6
 0001:0002CAE0       aSDWritestrea_7
 0001:0002CB10       aSDWritestrea_8
 0001:0002CB40       aAmbafileop_get
 0001:0002CB54       aSFioReadDataEr
 0001:0002CB74       aAmbafileop_g_0
 0001:0002CB88       aAmbafileop_g_1
 0001:0002CB9C       aAmbafileop_g_2
 0001:0002CBB0       aAmbafileop_g_3
 0001:0002CBC4       aSFioReadData_0
 0001:0002CBF4       aSFioReadData_1
 0001:0002CC1C       aAmbafs_geterro
 0001:0002CC3C       aAmbafs_feofRet
 0001:0002CC58       aSPcurbufXIsOut
 0001:0002CC90       aAmbafileop_fil
 0001:0002CCAC       aSFioWriteDataE
 0001:0002CCCC       aAmbafileop_cir
 0001:0002CCE8       aFilewritetask
 0001:0002CCF8       aAmbafilewrite_
 0001:0002CD0C       aSStreamidD
 0001:0002CD24       aThereIsNoSup_0
 0001:0002CD54       aErrorCannotLoa
 0001:0002CD7C       aAmbaguitask
 0001:0002CDA0       aSlowCard
 0001:0002CDAC       aLinuxIsWarmBoo
 0001:0002CDC4       aLinuxIsHiberna
 0001:0002CDE0       aLinuxIsColdBoo
 0001:0002CDF8       aUsageTSCommand
 0001:0002CEF0       aSuspend_0
 0001:0002CEF8       aAmbaipc_linkct
 0001:0002CF18       aStandby
 0001:0002CF20       aReturn
 0001:0002CF28       aResume_0
 0001:0002CF30       aWipeout
 0001:0002CF38       aBoottype
 0001:0002CF44       aStress
 0001:0002CF4C       aHiber
 0001:0002CF54       aSensorAgcDelay
 0001:0002CF6C       aAmba_dgc_both
 0001:0002CF7C       aSensorDgcDelay
 0001:0002CF94       aDspDgcDelay1
 0001:0002CFA8       aSensorAdvEofD
 0001:0002CFBC       aSensorSsTypeD
 0001:0002CFD0       aSensorPixelSiz
 0001:0002CFF0       aSensorModeD
 0001:0002D004       aSensorPixelBit
 0001:0002D01C       aSensorFirstPix
 0001:0002D03C       aSensorWidthD
 0001:0002D050       aSensorHeightD
 0001:0002D064       aSensorMaxBinni
 0001:0002D07C       aSensorMaxSlowS
 0001:0002D09C       aSensorShutterM
 0001:0002D0B8       aSensorFrameTvD
 0001:0002D0D0       aSensorFrameTot
 0001:0002D0F0       aSensorFrameT_0
 0001:0002D118       aSensorFrameT_1
 0001:0002D13C       aSensorFrameT_2
 0001:0002D168       aSensorFrameRat
 0001:0002D180       aSensorFrameTim
 0001:0002D198       aSensorFrameBin
 0001:0002D1B4       aOpModeD
 0001:0002D1C4       aVideoDelayMode
 0001:0002D1DC       aCaptureLineD
 0001:0002D1F0       aStitchD
 0001:0002D1FC       aLowDelayD
 0001:0002D20C       aStatisticsDela
 0001:0002D224       aLedStartShiftT
 0001:0002D244       aXenonCentralTr
 0001:0002D270       aXenonTriggerSw
 0001:0002D298       aXenonRearTrigg
 0001:0002D2C4       aXenonFrontTrig
 0001:0002D2F0       aMechShutterDel
 0001:0002D314       aSensorwinwidth
 0001:0002D328       aSensorwinheigh
 0001:0002D340       aVincapturewidt
 0001:0002D358       aVincaptureheig
 0001:0002D370       aMainoutputwidt
 0001:0002D388       aMainoutputheig
 0001:0002D3A0       aFramerateD_0
 0001:0002D3B0       aOversamplingD
 0001:0002D3C4       aHorizontalbinn
 0001:0002D3E0       aHorizontalbi_0
 0001:0002D3FC       aVerticalbinnin
 0001:0002D414       aVerticalbinn_0
 0001:0002D42C       aAeControlInfoD
 0001:0002D448       aCaptureState0x
 0001:0002D46C       aIsSnapAebD
 0001:0002D480       aVinCapWinDD
 0001:0002D498       aPipeOutWinDD
 0001:0002D4B0       aMsgIrisUser0x0
 0001:0002D4CC       aMsgIrisMsgDDD
 0001:0002D4EC       aMsgLedUser0x08
 0001:0002D508       aMsgLedMsgDDD
 0001:0002D524       aMsgXenonUser0x
 0001:0002D544       aMsgXenonMsgDDD
 0001:0002D564       aAmbaimagema_18
 0001:0002D57C       aAmbaimagemaina
 0001:0002D590       aAmbaimagema_12
 0001:0002D5A8       aSMw_ip_get_mul
 0001:0002D5D8       aTtAeinfo_agcga
 0001:0002D5F8       aTtAeinfo_shutt
 0001:0002D61C       aTtStstillaeinf
 0001:0002D644       aTtStstillaei_0
 0001:0002D670       aTtAeinfo_dgain
 0001:0002D68C       aTtStstillaei_1
 0001:0002D6B4       aAmbaimagema_14
 0001:0002D6CC       aStillaeinfo0_a
 0001:0002D708       aStillAeInfo_Ag
 0001:0002D758       aAeNoEffectInAe
 0001:0002D78C       aMIdxDAgcgainFS
 0001:0002D7D8       aSIdxDAgcgainFS
 0001:0002D824       aPAScnIdxDAgcga
 0001:0002D878       aMAebExifinfoEx
 0001:0002D8A4       aMAebExifinfo_0
 0001:0002D8D0       aMAebExifinfoSh
 0001:0002D8FC       aMAebExifinfo_1
 0001:0002D928       aMAebExifinfoIs
 0001:0002D950       aMAebExifinfo_2
 0001:0002D980       aMAebExifinfo_3
 0001:0002D9B0       aAmbaimagema_13
 0001:0002D9E4       aPAebExifinfoEx
 0001:0002DA10       aPAebExifinfo_0
 0001:0002DA3C       aPAebExifinfoSh
 0001:0002DA68       aPAebExifinfo_1
 0001:0002DA94       aPAebExifinfoIs
 0001:0002DABC       aPAebExifinfo_2
 0001:0002DAEC       aPAebExifinfo_3
 0001:0002DB24       aSIsomodeD
 0001:0002DB38       aAmbaimagema_15
 0001:0002DB54       aIdxDDgain5d
 0001:0002DB70       a4d02d02d02d0_0
 0001:0002DCC8       aAmbaimagema_17
 0001:0002DCDC       aAmbaimagema_16
 0001:0002DD0C       aAmbaeis_taskcr
 0001:0002DD20       aSFailToCreateE
 0001:0002DD40       aAmbaeistask
 0001:0002DD4C       aAmbaeis_active
 0001:0002DD64       aItunerrawenc_r
 0001:0002DD88       aAmbakal_msgq_6
 0001:0002DDA8       aItunerrawenc_y
 0001:0002DDCC       aItunerrawenc_j
 0001:0002DDF0       aStillRawEncode
 0001:0002DE18       aStillRawEnco_0
 0001:0002DE40       aItunerS
 0001:0002DE4C       aItunerrawenc_i
 0001:0002DE64       aInitializeImag
 0001:0002DE84       aInitializeIm_0
 0001:0002DEA8       aSDDDDDDD
 0001:0002DEC8       aExecuteItunerF
 0001:0002DEE0       aGetAeInformati
 0001:0002DEFC       aSDSetAeInfoFai
 0001:0002DF18       aGetWbSimInform
 0001:0002DF38       aSDSetWbSimInfo
 0001:0002DF5C       aGetWarpCompe_1
 0001:0002DF7C       aSetSizeInforma
 0001:0002DFA8       aLoadRawDataFro
 0001:0002DFC4       aExecuteIsoConf
 0001:0002DFE4       aSetupQuickView
 0001:0002DFFC       aRaw2yuvRawPitc
 0001:0002E028       aRaw2yuvRawWidt
 0001:0002E054       aRaw2yuvRawHeig
 0001:0002E080       aRaw2yuvRawPbas
 0001:0002E0AC       aRaw2yuvYuvData
 0001:0002E0D8       aRaw2yuvYuvWidt
 0001:0002E104       aRaw2yuvYuvHeig
 0001:0002E130       aRaw2yuvYuvPbas
 0001:0002E15C       aRaw2yuvYuvPb_0
 0001:0002E188       aRaw2yuvQuickVi
 0001:0002E1B4       aRaw2yuvQuick_0
 0001:0002E1E0       aRaw2yuvQuick_1
 0001:0002E20C       aRaw2yuvQuick_2
 0001:0002E238       aRaw2yuvQuick_3
 0001:0002E264       aRaw2yuvQuick_4
 0001:0002E290       aSetupTvDefault
 0001:0002E2B0       aSwitchTvVoutSo
 0001:0002E2D0       aTheDefaultImag
 0001:0002E30C       aJpegEncodeSetu
 0001:0002E328       aSetupJpegEncod
 0001:0002E34C       aYuv2jpgYuv_dat
 0001:0002E36C       aYuv2jpgYuvPitc
 0001:0002E38C       aYuv2jpgYuvWidt
 0001:0002E3AC       aYuv2jpgYuvHeig
 0001:0002E3CC       aYuv2jpgYuvPbas
 0001:0002E3F0       aYuv2jpgYuvPb_0
 0001:0002E414       aYuv2jpgJpegWid
 0001:0002E434       aYuv2jpgJpegHei
 0001:0002E454       aYuv2jpgJpegQta
 0001:0002E474       aYuv2jpgJpegQua
 0001:0002E494       aSS_6
 0001:0002E49C       a_jpg_3
 0001:0002E4A4       aSaveJpegS
 0001:0002E4B4       aCreateJpegFa_3
 0001:0002E4C8       aFrametypeSPics
 0001:0002E508       aFullview
 0001:0002E514       aTheRawDataIsOu
 0001:0002E538       aShutterTimeD_0
 0001:0002E550       aRawDataReady
 0001:0002E564       aRawdatareadyRa
 0001:0002E588       aRawdataready_0
 0001:0002E5AC       aRawdataready_1
 0001:0002E5D0       aRawdataready_2
 0001:0002E5F4       aRawdataready_3
 0001:0002E61C       aRawToYuvFail
 0001:0002E630       aLcdYuvDataRead
 0001:0002E648       aSetQuickviewLc
 0001:0002E664       aTvYuvDataReady
 0001:0002E678       aSetQuickviewTv
 0001:0002E690       aEnableDebugMod
 0001:0002E6A4       aMainYuvDataRea
 0001:0002E6BC       aYuvdatareadyYu
 0001:0002E6E0       aYuvdataready_0
 0001:0002E704       aYuvdataready_1
 0001:0002E728       aYuvdataready_2
 0001:0002E74C       aYuvdataready_3
 0001:0002E774       aYuvdataready_4
 0001:0002E79C       aSaveMainYuvFai
 0001:0002E7B4       aCompressJpegFa
 0001:0002E7CC       aJpegDataReady
 0001:0002E7E0       aJpgdatareadyJp
 0001:0002E808       aJpgdataready_0
 0001:0002E830       aJpgdataready_1
 0001:0002E858       aJpgdataready_2
 0001:0002E880       aJpgdataready_3
 0001:0002E8A8       aJpgdataready_4
 0001:0002E8D0       aJpgdataready_5
 0001:0002E8F8       aJpgdataready_6
 0001:0002E920       aSaveJpegFail_1
 0001:0002E934       aItunerrawenc_t
 0001:0002E94C       aSFailToCreat_9
 0001:0002E970       aSFailToCrea_10
 0001:0002E994       aSFailToCreateJ
 0001:0002E9B8       aSinglecapturet
 0001:0002E9CC       aInitializeItun
 0001:0002E9FC       aInitializeAlgo
 0001:0002EA2C       aInitializeIdsp
 0001:0002EA5C       aInitializeId_0
 0001:0002EA8C       aInitializeId_1
 0001:0002EABC       aInitializeId_2
 0001:0002EAEC       aInitializeVin_
 0001:0002EB1C       aInitializeVi_0
 0001:0002EB4C       aInitializeVi_1
 0001:0002EB7C       aInitializeVi_2
 0001:0002EBAC       aInitializeQuic
 0001:0002EBDC       aInitializeQu_0
 0001:0002EC0C       aInitializeQu_1
 0001:0002EC3C       aInitializeQu_2
 0001:0002EC6C       aInitializeQu_3
 0001:0002EC9C       aInitializeQu_4
 0001:0002ECCC       aInitializeEncw
 0001:0002ECFC       aInitializeEn_0
 0001:0002ED2C       aInitializeEn_1
 0001:0002ED5C       aInitializeEn_2
 0001:0002ED8C       aInitializeEn_3
 0001:0002EDBC       aInitializeFile
 0001:0002EDEC       aDisableSingleC
 0001:0002EE14       aDisableStillSt
 0001:0002EE38       aEnableItunerRa
 0001:0002EE60       aStopLiveview_0
 0001:0002EE78       aSwitchSensorMo
 0001:0002EE94       aRawCaptureFa_0
 0001:0002EEA8       aWaitCaptureDon
 0001:0002EEC8       aBackToLivevi_4
 0001:0002EEE0       aDisableItunerR
 0001:0002EF0C       aEnableSingleCa
 0001:0002EF30       aEnableStillSto
 0001:0002EF54       aAmbaimgproc_te
 0001:0002EF70       aChno
 0001:0002EF78       aVer
 0001:0002EF80       aAmbaImgprocLib
 0001:0002EFAC       aSetmode
 0001:0002EFB8       aGetmode
 0001:0002EFC4       aCurrmodeDNextm
 0001:0002EFEC       aGet3astatus
 0001:0002EFFC       aVideostatusDDD
 0001:0002F020       aStillstatusDDD
 0001:0002F044       aSet3astatus
 0001:0002F054       aVideo_6
 0001:0002F05C       aAmbaAeLib_Veri
 0001:0002F084       aAmbaAwbLib_Ver
 0001:0002F0AC       aAmbaAdjLib_Ver
 0001:0002F0D4       aAeopDAwbopDAdj
 0001:0002F10C       aAwb_0
 0001:0002F114       aAdj
 0001:0002F11C       aExif_0
 0001:0002F124       aWb_sim
 0001:0002F12C       aLumaidxD
 0001:0002F13C       aOutdooridxD
 0001:0002F14C       aHighlightidxD
 0001:0002F160       aLowlightidxD
 0001:0002F174       aAwbratio0D
 0001:0002F188       aAwbratio1D
 0001:0002F19C       aExif_dbg
 0001:0002F1A8       aCurrentExifDeb
 0001:0002F1C4       aModeDShttimeFA
 0001:0002F20C       aMwb
 0001:0002F214       aModeDGainr5dGa
 0001:0002F248       aEvbias
 0001:0002F250       aSharp
 0001:0002F258       aContrast
 0001:0002F264       aSlowshutter
 0001:0002F274       aEnableaeb
 0001:0002F280       aAdjapptest
 0001:0002F28C       aLiveviewinfo
 0001:0002F29C       aLiveviewinfoMa
 0001:0002F2BC       aLiveviewinfo_0
 0001:0002F2DC       aLiveviewinfoFr
 0001:0002F304       aLiveviewinfoOv
 0001:0002F330       aLiveviewinfoBi
 0001:0002F358       aLiveviewinfo_1
 0001:0002F380       aLiveviewinfo_2
 0001:0002F3A8       aLiveviewinfo_3
 0001:0002F3D0       aAebinfo
 0001:0002F3DC       aEvlut
 0001:0002F3E4       aVideoshutterma
 0001:0002F408       aFlkmode
 0001:0002F414       aFliker
 0001:0002F41C       aTestidx
 0001:0002F428       a1NfindexDEvind
 0001:0002F460       a2ShutterindexD
 0001:0002F4B8       aUsageTImgproc
 0001:0002F4CC       aVer_0
 0001:0002F4DC       a3aOnOff
 0001:0002F4FC       a3aVer
 0001:0002F510       aAeOnOff
 0001:0002F530       aAeInfoChno
 0001:0002F54C       aAwbOnOff
 0001:0002F56C       aAwbInfoChno
 0001:0002F588       aAdjOnOff
 0001:0002F5A8       aExif_dbg01
 0001:0002F5C4       aMeVideoStill01
 0001:0002F62C       aMwbVideoStill0
 0001:0002F678       aSlowshutterVid
 0001:0002F6C8       aSharpLevel06
 0001:0002F6EC       aAdjapptestSave
 0001:0002F730       aAdjapptestLoad
 0001:0002F77C       aErrorGyroOpenF
 0001:0002F798       aInvensenseGyro
 0001:0002F7C8       aErrorInvensens
 0001:0002F800       aErrorCannotOpe
 0001:0002F824       aSlock
 0001:0002F82C       aMutex
 0001:0002F834       aRpmsg
 0001:0002F83C       aRpc
 0001:0002F840       aRfs
 0001:0002F844       aTrans_0
 0001:0002F84C       aUsb_owner
 0001:0002F858       aTest_4
 0001:0002F860       aSupportedTestC
 0001:0002F87C       aSlockNLockN
 0001:0002F894       aSlockNUnlockN
 0001:0002F8B0       aSlockNLockAndT
 0001:0002F8E0       aTrySpinlockD
 0001:0002F8F4       aDone_1
 0001:0002F8FC       aSpinlockDIsLocked
 0001:0002F914       aSpinlockDIsUnlocked
 0001:0002F930       aMutexNTimeoutL
 0001:0002F954       aMutexNUnlockN
 0001:0002F970       aMutexNLockAndT
 0001:0002F9B0       aMutexDIsLocked
 0001:0002F9C4       aTimedOut
 0001:0002F9D0       aMutexDIsUnlock
 0001:0002F9E8       aSvcEchoS
 0001:0002F9F8       aRpcListListReg
 0001:0002FA24       aRpcSvcProg_nam
 0001:0002FA54       aRpcSvcProg_n_0
 0001:0002FA84       aSupportedProgr
 0001:0002FAC0       aExecExecuteCom
 0001:0002FB04       aRpcClntTest1St
 0001:0002FB2C       aRpcClntTest2AC
 0001:0002FB54       aRpcClntExec1Co
 0001:0002FBA4       aRpcClntExec2Co
 0001:0002FBE0       aRpcProfileStar
 0001:0002FBF8       aRpcProfileStop
 0001:0002FC10       aList
 0001:0002FC18       aInvalidInputFo
 0001:0002FC30       aTest_rpc_svc
 0001:0002FC40       aClnt
 0001:0002FC48       aExec1
 0001:0002FC50       aExec2
 0001:0002FC58       aClientCreation
 0001:0002FC70       aReturnValueIsD
 0001:0002FC88       aExecuteExec1Fa
 0001:0002FCAC       aProfile_0
 0001:0002FCB4       aStart_2
 0001:0002FCBC       aStop_3
 0001:0002FCC4       aUnknownCommand
 0001:0002FCDC       aRecvMessageS
 0001:0002FCF0       aSupportedRpmsg
 0001:0002FD0C       aRpmsgTestSend8
 0001:0002FD40       aRpmsgTestStrCo
 0001:0002FD94       aRpmsgProfileSt
 0001:0002FDB0       aRpmsgProfile_0
 0001:0002FDC8       aHelloLinux
 0001:0002FDD8       aCountIsD
 0001:0002FDE8       aSD_1
 0001:0002FDF0       aSendMessageS
 0001:0002FE04       aSThroughput_U_
 0001:0002FE1C       aLargeFileWri_0
 0001:0002FE44       aLargeFileWrite
 0001:0002FE6C       aBsDD
 0001:0002FE80       aFopenFailedD
 0001:0002FE94       aFwriteFailedD
 0001:0002FEA8       aFseekFailedD
 0001:0002FEBC       aFcloseFailedD
 0001:0002FED0       aBsDWroteDBytes
 0001:0002FEE8       aBsDWriteTimeEl
 0001:0002FF10       aBsDWriteThroug
 0001:0002FF38       aLargeFileReadW
 0001:0002FF5C       aLargeFileRea_0
 0001:0002FF84       aFreadFailedD
 0001:0002FF98       aBsDReadDBytes
 0001:0002FFB0       aBsDReadTimeEla
 0001:0002FFD4       aBsDReadThrough
 0001:0002FFFC       aSThruput_txt
 0001:0003000C       aLargeFileWri_1
 0001:00030034       aLargeFileRea_1
 0001:0003005C       aLen0xXErr_cnt0
 0001:0003007C       aSTest
 0001:00030084       aGetdevErrorD
 0001:00030098       aDFilesWithRand
 0001:000300C4       aSTestD
 0001:000300D0       aSTestDTestD_pa
 0001:000300EC       aWriteDBytesRan
 0001:0003011C       aFopenSFailedD
 0001:00030134       aFailedWroteDBy
 0001:00030154       aFailedReadDByt
 0001:00030174       aWriteRandomP_0
 0001:000301AC       aWriteRandomPat
 0001:000301D0       aDFilesWithRa_0
 0001:00030200       aTest_fioprf_ra
 0001:00030224       aS_11
 0001:0003022C       aReadTimeElapse
 0001:0003024C       aRfsThruputPath
 0001:00030264       aRfsRandvrfyPat
 0001:00030280       aRfsListDir
 0001:00030294       aThruput
 0001:0003029C       aInvalidInput_0
 0001:000302B8       aTest_fioprf_th
 0001:000302D8       aRandvrfy
 0001:000302E4       aInvalidInput_1
 0001:00030300       aTest_fioprf__0
 0001:00030324       aInvalidInput_2
 0001:0003033C       aCommandFormatE
 0001:00030354       aUsb_owner01
 0001:0003036C       a0OwnerIsRtos
 0001:00030388       a1OwnerIsLinux
 0001:000303A4       aIpc_rpmsg_test
 0001:000303B4       aS_12
 0001:000303BC       aNeedPara
 0001:000303C8       aAlloc
 0001:000303D0       aFree_0
 0001:000303D8       aSend
 0001:000303E0       aSTotalLenU
 0001:000303F4       aSendsyn
 0001:000303FC       aSSendUByteToCh
 0001:0003042C       aSynReturnDResu
 0001:00030444       aShow_1
 0001:0003044C       aHostState0xX
 0001:00030460       a68013State0xX
 0001:00030474       aWifiState0xX
 0001:00030488       aTestCommand
 0001:00030498       aUnknowCommand
 0001:000304A8       aSupportedRpm_0
 0001:000304C4       aRpmsgAllocChnn
 0001:000304E0       aRpmsgFreeChnid
 0001:000304F8       aRpmsgSendChnid
 0001:00030518       aRpmsgSendsynCh
 0001:00030544       aRpmsgShow
 0001:00030554       aIpc_rpc_test
 0001:00030564       aTotalLenU
 0001:00030574       aSupportedRpcCo
 0001:0003058C       aRpcAllocChnnam
 0001:000305BC       aRpcFreeChnid
 0001:000305D4       aRpcSendChnidLe
 0001:000305F8       aRpcSendsynChni
 0001:00030620       aRpcShow
 0001:00030630       aTest_12
 0001:00030638       aSupportedTransCommands
 0001:00030654       aTransRpc
 0001:00030664       aTransRpmsg
 0001:00030678       aReadUByteLog
 0001:0003068C       aSetDebugFlag0x
 0001:000306A4       aProduceAListTr
 0001:000306D8       aProduceAFileTr
 0001:0003070C       aProduceAThumbn
 0001:00030744       aProduceAScreen
 0001:0003077C       aProduceAStream
 0001:000307B0       aSetBandwidthTo
 0001:000307DC       a68013Version0x
 0001:00030800       a68013FwPathS
 0001:00030814       a68013UpdateRet
 0001:0003082C       aSetPbDownloadB
 0001:00030854       aUnknowTestComm
 0001:0003086C       aTIpcTestCmdCmd
 0001:0003089C       aSupportedTes_0
 0001:000308B8       aS_13
 0001:000308C0       aAmbaipc_testin
 0001:000308D4       aDji_app
 0001:000308DC       aDji_sock
 0001:000308E8       aDji_usbdrv
 0001:000308F4       aDji_test
 0001:00030900       aEcho_cortex
 0001:0003090C       aSAmbaipc_all_4
 0001:00030928       aA9_cc_reg_bin
 0001:00030938       aImg_default_0
 0001:00030944       aAaa_default_0
 0001:00030950       aAdj_still_default_00
 0001:00030968       aAdj_still_de_0
 0001:00030980       aAdj_hiso_sti_0
 0001:0003099C       aAdj_video_de_0
 0001:000309B4       aAdj_video_de_1
 0001:000309CC       aAdj_photo_de_0
 0001:000309E4       aAdj_photo_de_1
 0001:000309FC       aAdj_still_id_0
 0001:00030A0C       aScene_data_s_0
 0001:00030A1C       aScene_data_s_1
 0001:00030A2C       aScene_data_s_2
 0001:00030A3C       aScene_data_s_3
 0001:00030A4C       aScene_data_s_4
 0001:00030A5C       aDe_default_v_0
 0001:00030A70       aDe_default_s_0
 0001:00030A84       aAdj_table_pa_0
 0001:00030A9C       aAdj_calib_pa_0
 0001:00030AAC       aDigital_effe_1
 0001:00030ADC       aDigitalEffectC
 0001:00030AFC       aAmbaiqparam_ge
 0001:00030B24       aImx117_cc_vide
 0001:00030B3C       aImx117_cc_vi_0
 0001:00030B54       aImx117_cc_vi_1
 0001:00030B6C       aImx117_cc_vi_2
 0001:00030B84       aImx117_cc_vi_3
 0001:00030B9C       aImx117_cc_stil
 0001:00030BB4       aImx117_cc_st_0
 0001:00030BCC       aImx117_cc_st_1
 0001:00030BE4       aImx117_cc_st_2
 0001:00030BFC       aImx117_cc_st_3
 0001:00030C14       aCc3d_cc_bw_gam
 0001:00030C34       aCc3d_cc_bw_g_0
 0001:00030C54       aImx117_cc_vi_4
 0001:00030C74       aImx117_cc_vi_5
 0001:00030C94       aImx117_cc_vi_6
 0001:00030CB4       aImx117_cc_vi_7
 0001:00030CD4       aImx117_cc_vi_8
 0001:00030CF4       aImx117_cc_st_4
 0001:00030D14       aImx117_cc_st_5
 0001:00030D34       aImx117_cc_st_6
 0001:00030D54       aImx117_cc_st_7
 0001:00030D74       aImx117_cc_st_8
 0001:00030D94       aImx117_cc_vi_9
 0001:00030DB4       aImx117_cc_v_10
 0001:00030DD4       aImx117_cc_v_11
 0001:00030DF4       aImx117_cc_v_12
 0001:00030E14       aImx117_cc_v_13
 0001:00030E34       aImx117_cc_st_9
 0001:00030E54       aImx117_cc_s_10
 0001:00030E74       aImx117_cc_s_11
 0001:00030E94       aImx117_cc_s_12
 0001:00030EB4       aImx117_cc_s_13
 0001:00030ED4       aImx117_cc_v_14
 0001:00030EF4       aImx117_cc_v_15
 0001:00030F14       aImx117_cc_v_16
 0001:00030F34       aImx117_cc_v_17
 0001:00030F54       aImx117_cc_v_18
 0001:00030F74       aImx117_cc_s_14
 0001:00030F94       aImx117_cc_s_15
 0001:00030FB4       aImx117_cc_s_16
 0001:00030FD4       aImx117_cc_s_17
 0001:00030FF4       aImx117_cc_s_18
 0001:00031014       aAmbaiqparamimx
 0001:00031040       aSTableAddrIsNu
 0001:0003105C       aAmbaiqparami_0
 0001:00031088       aAmbaiqparami_1
 0001:000310BC       aAmbaiqparami_2
 0001:000310F0       aAmbaiqparami_3
 0001:00031114       aImx117_a9
 0001:00031120       a0_9_138
 0001:000311AC       aBt1120
 0001:000311B4       aSend_0
 0001:000311BC       aParamsizeD
 0001:000311CC       aParam_0
 0001:000311D8       a02x_2
 0001:000311E0       aMsg_blkInfo
 0001:000311F0       aPriorityX
 0001:00031200       aSrcmqidX
 0001:00031210       aRpc_msg_receiv
 0001:0003122C       aRpc_msg_rece_0
 0001:00031258       aParam1XParam2X
 0001:00031270       aUnknownMessage
 0001:00031284       aSupportedTes_1
 0001:000312A0       aSendStringSend
 0001:000312D0       aRpc_lu_msgfw_s
 0001:000312E8       aSupportedTes_2
 0001:00031304       aS_14
 0001:0003130C       aAmbalink_rpcin
 0001:00031338       aAmba_rpc
 0001:00031344       aReserved
 0001:00031350       aDmt065943640x4
 0001:00031380       a480p43720x480p
 0001:000313B0       a480p_wide16972
 0001:000313E0       a720p601691280x
 0001:00031410       a1080i601691920
 0001:00031440       a480i6043720144
 0001:00031470       a480i_wide16972
 0001:000314A0       a240p437201440X
 0001:000314D0       a240p_wide16972
 0001:00031500       a480i4x432880X4
 0001:00031530       a480i4x_wide169
 0001:00031560       a240p4x432880X2
 0001:00031590       a240p4x_wide169
 0001:000315C0       a480p2x431440x4
 0001:000315F0       a480p2x_wide169
 0001:00031620       a1080p601691920
 0001:00031650       a576p43720x576p
 0001:0003167C       a576p_wide16972
 0001:000316A8       a720p501691280x
 0001:000316D4       a1080i251691920
 0001:00031700       a576i437201440X
 0001:0003172C       a576i_wide16972
 0001:00031758       a288p437201440X
 0001:00031784       a288p_wide16972
 0001:000317B0       a576i4x432880X5
 0001:000317D8       a576i4x_wide169
 0001:00031800       a288p4x432880X2
 0001:00031828       a288p4x_wide169
 0001:00031850       a576p2x431440x5
 0001:00031878       a576p2x_wide169
 0001:000318A0       a1080p501691920
 0001:000318C8       a1080p241691920
 0001:000318F8       a1080p251691920
 0001:00031920       a1080p301691920
 0001:00031950       a480p4x432880X4
 0001:00031984       a480p4x_wide169
 0001:000319B8       a576p4x432880X5
 0001:000319E4       a576p4x_wide169
 0001:00031A10       a1080i25_as1691
 0001:00031A3C       a1080i501691920
 0001:00031A68       a720p1001691280
 0001:00031A94       a576p10043720x5
 0001:00031AC0       a576p100_wide16
 0001:00031AEC       a576i5043720144
 0001:00031B18       a576i50_wide169
 0001:00031B44       a1080i6016919_0
 0001:00031B78       a720p1201691280
 0001:00031BAC       a480p11943720x4
 0001:00031BE0       a480p119_wide16
 0001:00031C14       a480i5943720144
 0001:00031C48       a480i59_wide169
 0001:00031C7C       a576p20043720x5
 0001:00031CA8       a576p200_wide16
 0001:00031CD4       a576i1004372014
 0001:00031D00       a576i100_wide16
 0001:00031D2C       a480p23943720x4
 0001:00031D60       a480p239_wide16
 0001:00031D94       a480i1194372014
 0001:00031DC8       a480i119_wide16
 0001:00031DFC       a720p241691280x
 0001:00031E30       a720p251691280x
 0001:00031E5C       a720p301691280x
 0001:00031E90       a1080p120169192
 0001:00031EC4       a1080p100169192
 0001:00031EF4       aHdmi_ext
 0001:00031F00       a2160p301693840
 0001:00031F34       a2160p251693840
 0001:00031F64       a2160p241693840
 0001:00031F98       a2160p24_smpte1
 0001:00031FD0       aUnrecognizedFo
 0001:00032000       aPrevcfaXNowX
 0001:00032018       aPrevrgbXNowX
 0001:00032030       aErrLoadMultiCh
 0001:00032098       aNoLcdLiveview
 0001:000320A8       aLiveview_super
 0001:000320C8       aSDGetNonCatchM
 0001:00032100       aCreateNonCatch
 0001:00032140       aSDGetMemoryToV
 0001:0003216C       aCreateNonCat_0
 0001:000321AC       aSDLoadSuperVie
 0001:000321DC       aLoadSuperViewH
 0001:00032204       aSDLoadSuperV_0
 0001:00032230       aLoadSuperViewV
 0001:00032254       aLiveview_sup_0
 0001:00032278       aSetupWarpBypas
 0001:0003228C       aSDSetupWarpByp
 0001:000322B0       aErrorAllocateD
 0001:000322DC       aUniforminputfo
 0001:000322FC       aErrorLoadImage
 0001:0003233C       aMctftable_bin
 0001:0003234C       aErrorLoadIma_0
 0001:0003237C       aMctfcmpr_bin
 0001:0003238C       aErrorLoadIma_1
 0001:000323BC       aMctfseccc_bin
 0001:000323CC       aErrorLoadIma_2
 0001:000323FC       aHisol4cedgemct
 0001:00032418       aErrorLoadIma_3
 0001:00032454       aHisomix124xmct
 0001:00032470       aErrorLoadIma_4
 0001:000324AC       aB
 0001:000324CC       aDjiustuserse_5
 0001:00032510       aNtsc
 0001:00032518       aVideomodetable
 0001:00032540       aDji_printOriginalHdmivide
 0001:00032578       aDji_printAdjus
 0001:00032618       aAmbaliveview_s
 0001:00032658       aStartSensorCon
 0001:0003267C       aEndSensorConfi
 0001:0003269C       aInputWindowWid
 0001:000326BC       aInputWindowHei
 0001:000326DC       aMainWindowHeig
 0001:000326FC       aCfaOutputWindo
 0001:0003271C       aCfaOutputWin_0
 0001:0003273C       aAmbaliveview_l
 0001:00032758       aSAmba_tv_outpu
 0001:00032774       aSFramerate_tim
 0001:00032790       aAmbaliveview_0
 0001:000327B0       aMcD
 0001:000327B8       aInAmbapll_seto
 0001:000327D4       aOutAmbapll_set
 0001:000327F4       aAllocateFovRaw
 0001:00032814       aOutAmbapll_s_0
 0001:00032830       aStartxDStartyD
 0001:00032860       aH_factornumDH_
 0001:000328A8       aTimescaleDNumu
 0001:000328CC       aFramelengthlin
 0001:000328E4       aSCurrentOpMode
 0001:00032920       aAllocateFovR_0
 0001:0003294C       aFreeFovRawData
 0001:00032968       aFreeFovRawDeco
 0001:00032990       aFreeFovRawDe_0
 0001:000329B8       aSUCurrentRotat
 0001:000329EC       aEnableeis
 0001:00032A00       aDspLiveviewSta
 0001:00032A14       aDspLiveviewDon
 0001:00032A30       aZoomRatioGX
 0001:00032A44       aPixelshxFPixel
 0001:00032A74       a222aS
 0001:00032AA8       aSrcctx_pipeD
 0001:00032ABC       aLiveviewtask
 0001:00032ACC       aLiveviewsyncta
 0001:00032AE0       aAmbafovrawdeco
 0001:00032AFC       aDjiustvideosta
 0001:00032B44       aDjiustvideos_5
 0001:00032B90       aAmbamonitor_ad
 0001:00032BA0       aAmbamonitor_hd
 0001:00032BB4       aDjiisejectset
 0001:00032BC4       aSUTakeMutexFai
 0001:00032BE0       aDjiisejectget
 0001:00032BF0       aDjisd1insertha
 0001:00032C04       aK_assertAtS_16
 0001:00032C18       aSUTheSd0IsnTIn
 0001:00032C38       aSUAfterRetryTh
 0001:00032C68       aScm_slot_sd0In
 0001:00032C80       aTryToReinitThe
 0001:00032C9C       aAmbasd_initc_0
 0001:00032CC4       aAmbasd_initc_1
 0001:00032CE0       aAmbadcf_initSd
 0001:00032CFC       aSUnsupportedSd
 0001:00032D20       aAmbasd_initc_2
 0001:00032D40       aSBeginToDelete
 0001:00032D68       aSEndToDeleteTh
 0001:00032D90       aSBeginToRepair
 0001:00032DC8       aSRepairTheVide
 0001:00032DEC       aSRepairTheVi_0
 0001:00032E24       aSCurrentSdClus
 0001:00032E54       aDjisd1ejecthan
 0001:00032E68       aSUTheSd0IsInSl
 0001:00032E9C       aScm_slot_sd0Ej
 0001:00032EB4       aCardMonitorMou
 0001:00032ED0       aCardMonitorM_0
 0001:00032EF4       aCardMonitorUnm
 0001:00032F14       aCardMonitorU_0
 0001:00032F38       aCurrentRetrycn
 0001:00032F50       aAmbamonitor_sd
 0001:00032F64       aSCreateMutexFa
 0001:00032F7C       aAmbamonitor__0
 0001:00032F94       aAmbamonitor__1
 0001:00032FA8       aAmbamovdemuxer
 0001:00032FB8       aSAmbafs_readFa
 0001:00032FD0       aSAmbafs_fseekF
 0001:00032FE8       aAmbamovparseke
 0001:00033000       aSTrakOffset0xX
 0001:00033018       aSStcoOffset0xX
 0001:00033030       aSKeyOffset0xX
 0001:00033048       aSStszOffset0xX
 0001:00033060       aSFrameSize0xX
 0001:00033078       aSStsdOffset0xX
 0001:00033090       aSWidthHeight_0
 0001:000330A8       aSNalulensizeD
 0001:000330BC       aSSpssizeD
 0001:000330CC       aSSpsoffset0xX
 0001:000330E0       aSPpssizeD
 0001:000330F0       aSPpsoffset0xX
 0001:00033104       aAmbamovloadkey
 0001:00033118       aSBufferSizeIsT
 0001:00033140       aSExceedTheBuff
 0001:00033178       aSExceedTheFile
 0001:000331B8       aSPbuf0xXBuffer
 0001:000331E8       aMoov_0
 0001:000331F4       aTkhd_0
 0001:00033200       aWidthHeightDD
 0001:00033218       aMdhdTimescaleD
 0001:00033230       aHdlrVideArxAry
 0001:00033250       aHdlrSoun
 0001:00033260       aFrametype
 0001:00033270       aMNIdrcountIpbb
 0001:00033294       aFrametype00xX
 0001:000332AC       aFrametypeU0xX
 0001:000332C4       aMovieplaybackt
 0001:000332DC       aMovie_playback
 0001:000332FC       aMovie_playba_0
 0001:0003331C       aMovie_playba_1
 0001:0003333C       aSFailedToOpenD
 0001:00033368       aSFailedToStart
 0001:0003338C       a1Errorstatus0x
 0001:000333A4       aVideoErrorstat
 0001:000333C8       aForceToStop
 0001:000333D8       aReachEofPtsLlu
 0001:000333F0       aMovie_playba_3
 0001:00033424       aRateFFps
 0001:00033434       aMovie_playba_2
 0001:00033454       aAmbamovieplayb
 0001:00033474       aSUNormalPlayba
 0001:00033494       aSFailToGetAu_1
 0001:000334BC       aSFailToCreat_5
 0001:000334DC       aAmbaaudio_de_6
 0001:000334FC       aSFailToCreateM
 0001:00033520       aMovieplaybac_0
 0001:00033534       aSFailToCreat_6
 0001:0003354C       aSSuccess_1
 0001:00033558       aAmbamoviepla_0
 0001:00033578       aSFailedToTer_1
 0001:00033598       aSFailedToDel_2
 0001:000335B4       aSFailedToDel_3
 0001:000335D8       aSFailedToDel_4
 0001:00033600       aSFailToDeleteT
 0001:00033620       aAmbamoviepla_1
 0001:00033638       aSFailedToOpenS
 0001:00033650       aSFailedToParse
 0001:00033668       aSWidthHeightDD
 0001:00033680       aXcodeSrcWidthH
 0001:000336B4       aXcodeDstWidthH
 0001:000336E8       aAmbamoviepla_2
 0001:00033700       aAmbamoviepla_3
 0001:00033718       aSMovieplayback
 0001:00033740       aSFailedToSetup
 0001:00033764       aSUMovieplaybac
 0001:00033790       aSAudioDecoderR
 0001:000337A8       aAmbaaudio_de_8
 0001:000337CC       aAmbaaudiooutpu
 0001:000337E8       aAmbamoviepla_4
 0001:00033800       aSFailedToStopA
 0001:00033828       aSAudioOutputGe
 0001:00033844       aSFailedToCallA
 0001:0003386C       aSBeginToStopAu
 0001:00033890       aAmbamoviepla_5
 0001:000338A8       aSBeginToPauseA
 0001:000338CC       aAmbamoviepla_6
 0001:000338E8       aSBeginToResume
 0001:0003390C       aAmbamoviepla_7
 0001:00033928       aSFeedcaseFeedi
 0001:00033954       aAmbamoviepla_8
 0001:00033970       aSPstartptsLlu
 0001:00033988       aSVbwdfeedsidxU
 0001:000339B4       aAmbamoviepla_9
 0001:000339D4       aPstartpts0x08x
 0001:00033A34       aSVfeedidxUPsta
 0001:00033A5C       aReceiveAudioRe
 0001:00033A78       aMovieplayback_
 0001:00033A9C       aSReceiveAudioG
 0001:00033AC4       aMovieplaybac_1
 0001:00033AE0       aAmbafs_fseek_0
 0001:00033B0C       aSEof
 0001:00033B20       aMovieplaybac_2
 0001:00033B38       aSEndOfFile
 0001:00033B48       aSAudioEnd
 0001:00033B58       aDjimovietransf
 0001:00033B70       aSUDjiaudiodemu
 0001:00033B9C       aDjimoviereco_2
 0001:00033BB8       aA1TotalEncoded
 0001:00033BF4       aSUAmbaaudio_de
 0001:00033C24       aMovieplaybac_3
 0001:00033C3C       aSAfeedidxU
 0001:00033C50       aUnsupportSpeed
 0001:00033C64       aMovieplaybac_4
 0001:00033C80       aSLatestdtsLlu
 0001:00033C98       aMovieplaybac_5
 0001:00033CB4       aSLastPtsLlu
 0001:00033CC8       aMovieplaybac_6
 0001:00033CE0       aSLineD
 0001:00033CEC       aMovieplaybac_7
 0001:00033D08       aSLatestptsAfee
 0001:00033D28       aDjimovieplayba
 0001:00033D48       aTmpLluPmplyVfe
 0001:00033D80       aPstartptsLluPm
 0001:00033E10       aAmbamovierec_3
 0001:00033E28       aSFailToCreat_0
 0001:00033E48       aSFailToCreateK
 0001:00033E68       aMovierecordkey
 0001:00033E7C       aSFailToCreat_1
 0001:00033E94       aSFailToGetAudi
 0001:00033EBC       aSFailToGetAu_0
 0001:00033EE4       aSFailToCombine
 0001:00033F08       aAmbamovierec_4
 0001:00033F20       aSFailedToOpenE
 0001:00033F4C       aFailToStartAud
 0001:00033F6C       aWaitAvSync
 0001:00033F7C       aWaitAvsyncRead
 0001:00033F90       aSSuccess_0
 0001:00033F9C       aAmbamovierec_5
 0001:00033FB4       aFailToStopAudi
 0001:00033FD4       aSTimeoutSometh
 0001:00034010       aSForceStopping
 0001:00034030       aFailToStopAu_0
 0001:00034050       aAmbamovierec_8
 0001:00034068       aAmbamovierec_6
 0001:00034080       aAmbamovierec_7
 0001:000340A4       aMessageCode0xX
 0001:000340B8       aH264BitstreamB
 0001:00034110       aJpegBitstreamB
 0001:0003413C       aMovierecordk_0
 0001:00034154       aSActualFlags0x
 0001:0003416C       aSCardNotReady
 0001:00034180       aEmergentStop__
 0001:00034198       aStopRec______
 0001:000341A8       aStartRec______
 0001:000341BC       aToggleRec_____
 0001:000341D0       aSSkipFlags_
 0001:000341E0       aFreeSpaceLluBy
 0001:000341FC       aFreeSpaceMustB
 0001:00034224       aSFailToCreateA
 0001:0003424C       aSAmbadcf_creat
 0001:00034270       aSFailedToDel_0
 0001:00034298       aSAmbamoviereco
 0001:000342BC       aStartMovieReco
 0001:000342D0       aStopMovieRecor
 0001:000342E4       aFailToOpenInpu
 0001:00034300       aFailToStartA_0
 0001:00034328       aMovierecordv_0
 0001:00034340       aSTranscodeFail
 0001:00034360       aMovierecordv_1
 0001:00034378       aSThumbnailFlag
 0001:00034390       a2VideoBufferFu
 0001:000343A8       aV2_eos
 0001:000343B4       a2VideoQueueFul
 0001:000343C8       aA2_eos
 0001:000343D4       a2AudioQueueFul
 0001:000343E8       a2ForceOut
 0001:000343F8       a2BufferOrQueue
 0001:00034414       a2OverThreshold
 0001:00034428       aM2TotalEncoded
 0001:00034464       a2FreeSpaceIsnT
 0001:00034480       aA2TotalEncoded
 0001:000344BC       a2Emergent_stop
 0001:000344D0       aAmbamovierec_9
 0001:000344F0       aSFailToCreat_7
 0001:00034510       aMovierecord2nd
 0001:00034524       aSFailToCreat_8
 0001:0003453C       aSSuccess_2
 0001:00034548       aAmbamoviere_10
 0001:00034568       aSFailedToTer_2
 0001:00034588       aSFailedToDel_5
 0001:000345A4       aAmbamoviere_11
 0001:000345C0       a_thm_0
 0001:000345C8       aMuxDOpenS_0
 0001:000345D8       aSTimescaleNu_0
 0001:00034608       aAmbamoviere_12
 0001:00034628       aMuxDFileIsCl_0
 0001:00034640       aMovierecordvid
 0001:00034660       a1VideoBufferFu
 0001:00034678       aV1_eos
 0001:00034684       a1VideoQueueFul
 0001:00034698       aSUFlag0x08xDat
 0001:000346BC       aA1_eos
 0001:000346C8       a1AudioQueueFul
 0001:000346DC       a1FreeSpaceIsnT
 0001:000346F8       aMovierecordt_0
 0001:00034710       a1ForceOut
 0001:00034720       a1BufferOrQueue
 0001:0003473C       aStopRecord
 0001:0003474C       aDjiPrintRecSto
 0001:00034780       aM1TotalEncoded
 0001:000347BC       a1OverThreshold
 0001:000347D0       aSSetTheAmba_mo
 0001:00034800       aA1TotalEncod_0
 0001:0003483C       a1FreeSpaceIs_0
 0001:00034888       a1Emergent_stop
 0001:0003489C       aAmbamovierecor
 0001:000348B8       aSFailToCreateV
 0001:000348D8       aMovierecordtas
 0001:000348E8       aSFailToCreateT
 0001:00034900       aSSuccess
 0001:0003490C       aAmbamovierec_0
 0001:00034928       aSFailedToTermi
 0001:00034948       aSFailedToDelet
 0001:00034964       aAmbamovierec_1
 0001:00034980       aSUCreateMovieM
 0001:000349A8       aMuxDOpenS
 0001:000349B8       aSTimescaleNumu
 0001:000349E8       aAmbamovierec_2
 0001:00034A04       aMuxDFileIsClos
 0001:00034A1C       aDjixcodeexee_1
 0001:00034A34       aDji_xcodeSLUTa
 0001:00034A5C       aDji_xcodeSL_33
 0001:00034A88       aDjixcodeexeent
 0001:00034AA0       aDji_xcodeSLUTh
 0001:00034ACC       aDjixcodeexee_2
 0001:00034AE8       aDjixcodeftreei
 0001:00034AFC       aDjixcodeftreeu
 0001:00034B10       aDji_xcodeSL_34
 0001:00034B50       aDjixcodeftreee
 0001:00034B68       aDjixcodeftre_0
 0001:00034B84       aDjixcodeftrees
 0001:00034BA4       aDji_xcodeSLUIn
 0001:00034BD0       aDjixcodeexee_0
 0001:00034BE8       aDji_xcodeSLU_0
 0001:00034C24       aDjictrlentryge
 0001:00034C34       aDji_xcodeSLUST
 0001:00034C74       aDjiPrintDjictr
 0001:00034CC0       aDjictrlentrycl
 0001:00034CD0       aDji_xcodeSLU_1
 0001:00034D04       aDjictrlentryfu
 0001:00034D18       aAmbamovietrans
 0001:00034D34       aSUTimevalDMs
 0001:00034D70       aDjimovietransc
 0001:00034D88       aDji_xcodeSLU_2
 0001:00034DB8       aDji_xcodeSLUDj
 0001:00034DF4       aDji_xcodeSLU_3
 0001:00034E2C       aDji_xcodeSLU_4
 0001:00034E60       aDji_xcodeSLU_5
 0001:00034E9C       aDji_xcodeSLU_6
 0001:00034ED4       aC1_mov
 0001:00034EE0       aDjimovietran_0
 0001:00034EFC       aDji_xcodeSLUPa
 0001:00034F34       aDjimovietran_1
 0001:00034F50       aDji_xcodeSLURe
 0001:00034F88       aDjitranscodest
 0001:00034FA0       aDji_xcodeSLU_7
 0001:00034FDC       aDjixcodefile
 0001:00034FEC       aSStart_2
 0001:00034FF8       aSEnd_3
 0001:00035000       aDjitranscodere
 0001:00035018       aDji_xcodeSLU_8
 0001:00035054       aDjitranscode_0
 0001:00035068       aDji_xcodeSLU_9
 0001:00035098       aDji_xcodeSLUUn
 0001:000350C8       aDji_xcodeSL_10
 0001:00035108       aDjitranscode_1
 0001:0003511C       aDjitranscodesr
 0001:00035138       aDjitranscodede
 0001:00035150       aDji_xcodeSL_11
 0001:0003518C       aDjitranscodecl
 0001:000351A4       aDji_xcodeSLUSD
 0001:000351E0       aDjitranscode_2
 0001:000351F8       aDji_xcodeSLUFp
 0001:00035248       aDjitranscodefp
 0001:0003525C       aDjixcodefnumse
 0001:0003526C       aDji_xcodeSL_12
 0001:000352B4       aDjixcodedfnumi
 0001:000352CC       aReceiveStopCur
 0001:00035310       aReceiveStopAll
 0001:00035350       aDjixcodetasken
 0001:00035364       aDji_xcodeSLUDe
 0001:00035394       aDji_xcodeSL_13
 0001:000353C8       aDji_xcodeSLUGe
 0001:00035414       aDji_xcodeSL_14
 0001:00035450       aDji_xcodeSL_15
 0001:00035490       aDji_xcodeSL_16
 0001:000354C4       aDji_xcodeSLUUu
 0001:00035504       aDji_xcodeSL_17
 0001:00035548       aDji_xcodeSL_18
 0001:00035588       aDji_xcodeSL_19
 0001:000355C4       aStopTheCurrent
 0001:000355E8       aDjixcodectrlta
 0001:00035600       aDji_xcodeSLUMs
 0001:00035654       aDji_xcodeSL_35
 0001:00035690       aDjiPrintSRecei
 0001:000356C0       aDji_xcodeSLUCl
 0001:000356FC       aDji_xcodeSL_36
 0001:00035738       aDji_xcodeSL_37
 0001:00035770       aDji_xcodeSL_22
 0001:000357B0       aDji_xcodeSL_38
 0001:000357F8       aDji_xcodeSLUEn
 0001:00035844       aDji_xcodeSLUGi
 0001:00035888       aDji_xcodeSL_20
 0001:000358B4       aDjixcodecomman
 0001:000358CC       aDji_xcodeSL_21
 0001:00035904       aDji_xcodeSLUSe
 0001:00035940       aDji_xcodeSL_23
 0001:000359A4       aDjientriesctrl
 0001:000359B8       aDji_xcodeSLUAl
 0001:000359F0       aDji_xcodeSLUCr
 0001:00035A18       aDjiqueuectrlhe
 0001:00035A30       aDji_xcodeSL_24
 0001:00035A64       aDji_xcodeSL_25
 0001:00035AA4       aDjixcodeinit
 0001:00035AB4       aDji_xcodeSLUMu
 0001:00035AF0       aDji_xcodeSLU2M
 0001:00035B2C       aDji_xcodeSLU3M
 0001:00035B70       aDji_xcodeSL_26
 0001:00035BB4       aDji_xcodeSL_27
 0001:00035BE8       aDji_xcodeSL_28
 0001:00035C2C       aDji_xcodeSL_29
 0001:00035C64       aDjixcodetask
 0001:00035C74       aDji_xcodeSLUFa
 0001:00035CA8       aDji_xcodeSL_30
 0001:00035CEC       aDji_xcodeSL_31
 0001:00035D38       aDjixcodectrl_0
 0001:00035D4C       aDji_xcodeSL_32
 0001:00035D88       aDjiTranscodeIn
 0001:00035DA0       aDjiPrintState_
 0001:00035DD0       aAmbamovmuxer_c
 0001:00035DE4       aSMuxidDFileNam
 0001:00035E00       aSUOpenFileSFai
 0001:00035E34       aMdat
 0001:00035E3C       aAmbamovmuxer_d
 0001:00035E54       aSBeginToCloseT
 0001:00035E78       aTotalmdatsize0
 0001:00035EA0       aSLDThisIsAnErr
 0001:00035EC0       aAmbamovmuxer_w
 0001:00035ED4       aSBufferFull
 0001:00035F20       aCAutoexec_ash
 0001:00035F30       aDAutoexec_ash
 0001:00035F40       aCUcodeOrccode_bin
 0001:00035F58       aCUcodeOrcme_bi
 0001:00035F6C       aCUcodeOrcmdxf_
 0001:00035F84       aCUcodeDefault_
 0001:00035FA0       aLoadSTo0x08xSi
 0001:00035FC0       aLoadDspUcodeTi
 0001:00035FDC       a___pleaseLoadU
 0001:00036004       a___andHitAnyKe
 0001:00036030       aDjiopmodeinit
 0001:00036040       aSOpmodeValueDU
 0001:00036078       aSChangeOperati
 0001:000360A4       aAmbaprefLoadDo
 0001:000360B8       a1111S
 0001:000360EC       aAmbadsp_imgarc
 0001:0003610C       aAmbadsp_imga_0
 0001:0003612C       aAmbadsp_imga_1
 0001:00036150       aAmbadsp_imga_2
 0001:00036174       aAmbadsp_imga_3
 0001:00036198       aAmbadsp_imga_4
 0001:000361C0       aAmbadsp_imga_5
 0001:000361E8       a1111E
 0001:0003621C       aJapanesefont_t
 0001:00036230       aKeyEvent0xX
 0001:00036244       aBeforeAmbalive
 0001:0003626C       aSameMode___
 0001:00036280       aAmbaopmodectrl
 0001:00036294       aVerifyingImage
 0001:000362C4       aVerifyingIma_0
 0001:000362E4       aCheckingBst
 0001:000362F4       aCheckingPba
 0001:00036304       aCannotReadFwIm
 0001:00036324       aInvalidCrc32Co
 0001:00036338       aLengthD_0
 0001:00036348       aCrc320x08x
 0001:00036358       aVer_numD_D
 0001:00036368       aVer_dateDDD
 0001:0003637C       aImg_lenD
 0001:0003638C       aMem_addr0x08x
 0001:000363A0       aFirmwareFileSD
 0001:000363C0       aCanTGetPtbEr_0
 0001:000363D8       aFopenSFail
 0001:000363E8       aCannotSeekFirm
 0001:00036404       aCanTReadFirmwa
 0001:00036420       aCheckFirmwareI
 0001:0003643C       aCannotFwImageS
 0001:00036470       aFirmwareImageR
 0001:0003648C       aProgramBstToNa
 0001:000364AC       aProgramPbaToNa
 0001:000364CC       aFailed
 0001:000364D4       aUnableToUpda_0
 0001:000364F0       aDone
 0001:000364F8       aFirmwareModelN
 0001:0003651C       aFc300x_4
 0001:00036524       aImageSIsFound
 0001:0003653C       aImageSIsIncorr
 0001:00036558       aCanTSeekFirmwa
 0001:00036570       aNoPartitionInf
 0001:00036590       aFirmwareHeader
 0001:000365AC       aStartFirmwareC
 0001:000365CC       aCheckingS
 0001:000365DC       aPicdisptaskX_0
 0001:000365F4       aNotInPlaybac_0
 0001:00036618       aThumbnialViewS
 0001:00036630       aVideoPlayState
 0001:00036644       aXcodeDisplaySt
 0001:00036658       aSingleViewStat
 0001:0003666C       aPicdisptaskXSt
 0001:00036688       aPicdisptaskXEn
 0001:0003669C       aAmbapicturedis
 0001:000366BC       aPictureDisplay
 0001:000366D4       aInAmbapll_se_0
 0001:000366EC       aOutAmbapll_s_1
 0001:0003670C       aAmbadcf_getf_3
 0001:00036760       aFileamountD
 0001:00036798       aAmbapictured_0
 0001:000367BC       aReturnNgAtSSD
 0001:000367D8       aDSvn_viewA9s_c
 0001:00036834       aFileinfoDD
 0001:00036844       aPicdisp_decode
 0001:00036860       aDjidcf_getfi_1
 0001:000368B4       aDecodeSreenn_0
 0001:000368D0       aDjidng_locinfo
 0001:000368F8       aDecodeSreennai
 0001:00036914       aPicdisp_parsef
 0001:00036928       aSFileIsDngType
 0001:00036948       aAmbapictured_1
 0001:00036968       aSSOptionD
 0001:0003697C       aAmbagdma_waitc
 0001:0003699C       aES
 0001:000369A4       aXcodedisplay_h
 0001:000369BC       aSStart_0
 0001:000369C8       aSEnd_1
 0001:000369D0       aImx117_enable
 0001:00037268       aCalib_mgr1Rval
 0001:00037280       aOutputStringS
 0001:00037294       aPath
 0001:0003729C       aTCalMgrCmdCali
 0001:0003730C       aCalib_mgr2Rval
 0001:00037324       aCalibTestComma
 0001:0003733C       aSite_initCalib
 0001:00037360       aMgrForDoingCal
 0001:00037380       aBpcAmbaBadPixe
 0001:000373A4       aVncAmbaVignett
 0001:000373C8       aBlcAmbaBlackLe
 0001:000373EC       aWbAmbaBlackLev
 0001:00037410       aWarpWarpCalibr
 0001:0003742C       aAmbacalib_test
 0001:00037440       aSCmdS
 0001:0003744C       aSite_init
 0001:00037458       aWarp_1
 0001:00037460       aDji_cal_mgrRet
 0001:00037478       aInit_8
 0001:00037480       aInitImageKernel
 0001:00037494       aSinfo
 0001:0003749C       aVinSensorInfo
 0001:000374AC       aBlc
 0001:000374B4       aBlackLevelCorr
 0001:000374D4       aWb
 0001:000374D8       aWbGainSetup
 0001:000374E8       aR2y
 0001:000374F0       aRgbToYuvSetup
 0001:00037504       aCc
 0001:00037508       aColorCorrectionSetup
 0001:00037520       aTone
 0001:00037528       aToneCurveSetup
 0001:0003753C       aDpc
 0001:00037544       aDynamicBadPixe
 0001:00037568       aFpn
 0001:00037570       aFpnCorrectionS
 0001:00037588       aAa
 0001:0003758C       aAntialisingSetup
 0001:000375A0       aLk
 0001:000375A4       aLeakageFilterSetup
 0001:000375BC       aCnf
 0001:000375C4       aCfaNoiseFilter
 0001:000375E4       aVignetteCompen
 0001:00037600       aLe
 0001:00037604       aLocalExposureS
 0001:0003761C       aCs
 0001:00037620       aChromaScaleSetup
 0001:00037634       aCmf
 0001:0003763C       aChromaMedianFi
 0001:00037658       aCc_reg
 0001:00037660       aColorCorrectionRegisterSetup
 0001:00037680       aShp
 0001:00037688       aHarpeningFilte
 0001:000376A0       aDms
 0001:000376A8       aDemosaicSetup
 0001:000376B8       aMctf_1
 0001:000376C0       aMctfConfigurationSetupVideo
 0001:000376E4       aCdnr_0
 0001:000376EC       aColorDependentNoiseReductionSet
 0001:00037714       aAsf
 0001:0003771C       aAdvanceSpatial
 0001:0003773C       aDefblc
 0001:00037744       aDzoom
 0001:0003774C       aDzoomSetup
 0001:00037758       aWarp_2
 0001:00037760       aWarpSetup
 0001:0003776C       aCa
 0001:00037770       aCawarpSetup
 0001:00037780       aStat
 0001:00037788       aAaaStatisticsSetup
 0001:000377A0       aFloat
 0001:000377A8       aFloatingAaaStatisticsSetup
 0001:000377C8       aIdsp
 0001:000377D0       aIdspDebugUtilities
 0001:000377E8       aRawenc
 0001:000377F0       aRawEncode
 0001:000377FC       aRaw
 0001:00037804       aRawCapture_0
 0001:00037810       aLowiso
 0001:00037818       aLowIsoVerificationFunction
 0001:00037838       aItuner
 0001:00037840       aItunerVerificationFunction
 0001:00037860       aMsc_0
 0001:00037868       aConfigMsc
 0001:00037874       aClean_0
 0001:0003787C       aCf
 0001:00037880       aChromaFilterSetup
 0001:00037894       aMode_3
 0001:0003789C       aTestModeSetup
 0001:000378AC       aHighiso
 0001:000378B8       aHighIsoVerific
 0001:000378D8       aIdspcfg
 0001:000378E4       aIdspConfigurat
 0001:000378FC       aRash
 0001:00037904       aRecursiveAmbaS
 0001:0003791C       aFlow
 0001:00037924       aChangeModeAndChangeOption
 0001:00037944       aVrawenc
 0001:00037950       aVideoRawEncode
 0001:00037964       aShow_cmd
 0001:00037970       aShowImageParametersOfInputComma
 0001:00037998       aStat_ex
 0001:000379A4       aAaaStatisticsE
 0001:000379C4       aGmv
 0001:000379CC       aGmvSetup
 0001:000379D8       aTest_is2_initT
 0001:00037A04       aTest_is2_initA
 0001:00037A38       aTest_is2_ini_0
 0001:00037A88       aCurrentVinSens
 0001:00037ADC       aUsageTSSinfoGe
 0001:00037B14       aCurrentModePip
 0001:00037B70       aUsageTSModeGet
 0001:00037C04       aCurrentBlackLe
 0001:00037C28       aUsageTSBlcGetT
 0001:00037CA8       aCurrentWbGainR
 0001:00037CCC       aUsageTSWbGetTh
 0001:00037D40       aCurrentR2yMatr
 0001:00037D60       a4d4d4d
 0001:00037D78       aCurrentYuvOffs
 0001:00037DA0       aUsageTSR2yGetT
 0001:00037E34       aSDCallAmbashel
 0001:00037E5C       aTest_is2_rash
 0001:00037E6C       aSDStack_depthI
 0001:00037E90       aSDCallAmbash_0
 0001:00037ECC       aStackOverflow
 0001:00037EDC       aStackUnderflow
 0001:00037EEC       aTImgRash
 0001:00037EF8       aAmbshSComman_0
 0001:00037F1C       aUsageTSRashAsh
 0001:00038028       a_video_raw_enc
 0001:0003804C       aSDErrorShouldN
 0001:0003809C       a_yuv_data_post
 0001:000380B4       aSDFrameidxDDD
 0001:000380D4       aSSDxD_S_frame_
 0001:000380F0       aSDPathS
 0001:00038104       aSDCallAmbafs_f
 0001:00038128       aSSDxD_S_fram_0
 0001:00038144       aSDDumpYuvFinis
 0001:00038160       a_feed_data_pre
 0001:00038178       aSD_raw
 0001:00038184       aSDFrameidxDDXD
 0001:000381B4       aSDReplaceRawFi
 0001:000381D0       aTest_is2_video
 0001:000381E8       aInit_3
 0001:000381F0       aUninit
 0001:000381F8       aWait_yuv
 0001:00038204       aSDWithoutEnabl
 0001:0003822C       aSDWaitYuvSemTi
 0001:0003824C       aHYuvDataReady
 0001:00038260       aWait_video
 0001:0003826C       aSDWaitVideoEnc
 0001:0003828C       aFeed_raw
 0001:00038298       aSet_raw_src
 0001:000382A4       aSDSetRawpathS
 0001:000382C0       aProg_raw
 0001:000382CC       aSDProgramFull
 0001:000382E4       aSDErrorDS
 0001:000382FC       aSDVtuner_hdlr_
 0001:00038334       aFlow_ctrl
 0001:00038340       aDump_yuv
 0001:0003834C       aUsageTSSInitIn
 0001:000383A0       aUsageTSSUninit
 0001:000383F8       aUsageTSSFlow_c
 0001:00038454       aEnable01
 0001:0003846C       aUsageTSSDump_y
 0001:000384FC       aDest_folder_pa
 0001:0003853C       aFilename_prefi
 0001:000385B8       aUsageTSSWait_y
 0001:000385FC       aUsageTSSWait_v
 0001:00038648       aUsageTSSFeed_r
 0001:00038694       aUsageTSSSet_ra
 0001:000386D0       aUsageTSSProg_r
 0001:00038720       aRawfilepathpre
 0001:000387A0       aProgramAllowUs
 0001:000387FC       aSw_mode
 0001:00038804       aStill_cap
 0001:00038810       aVtune
 0001:00038828       aSw_opt
 0001:00038830       a4k2k_lv
 0001:00038838       aVid_raw_cap
 0001:00038844       aVid_tune
 0001:00038868       aUsageTSFlowSw_
 0001:00038890       aApp_modeStill_
 0001:000388B4       aUsageTSFlowS_0
 0001:000388D8       aApp_opt4k2k_lv
 0001:0003890C       aCurrentCc3dTab
 0001:00038930       aLoad_0
 0001:00038938       aUsageTSCcGetTh
 0001:000389BC       aRed
 0001:000389C2       aGreen_0
 0001:000389C8       aBlue
 0001:000389D0       aCurrentToneCur
 0001:000389E8       a4d_0
 0001:000389F0       aSet_linear
 0001:000389FC       aUsageTSToneGet
 0001:00038A9C       aCurrentDynamic
 0001:00038AFC       aUsageTSDpcGetT
 0001:00038BA4       aWarnTypeDoesnT
 0001:00038BC0       aHighlight
 0001:00038BCC       aFpnHighlightMo
 0001:00038BE0       aDebug_5
 0001:00038BE8       aFpnSizeInfoFpn
 0001:00038C18       aFpnBypassMode
 0001:00038C28       aUsageTSFpnGetT
 0001:00038D80       aCurrentAntiali
 0001:00038DA4       aUsageTSAaGetTh
 0001:00038E20       aCurrentLeakage
 0001:00038E8C       aUsageTSLkGetTh
 0001:00038F2C       aUsageTSMscGetT
 0001:00038FB0       aCurrentCfaNois
 0001:00038FE0       aNoise_levelRDG
 0001:00038FFC       aOriginal_blend
 0001:00039020       aExtent_regular
 0001:00039040       aExtent_fineRDG
 0001:0003905C       aStrength_fineR
 0001:0003907C       aSelectivity_re
 0001:000390A8       aDefault_0
 0001:000390B0       aUsageTSCnfGetT
 0001:00039158       aTest_5
 0001:00039160       aBypasstest
 0001:0003916C       aColumnDGainD
 0001:00039180       aRowDGainD
 0001:00039194       aPgainDD
 0001:000391A4       aUsageTSVncGetT
 0001:0003957C       aCurrentLocalEx
 0001:00039608       aCurrentGain_cu
 0001:00039624       aUsingDefaultLe
 0001:0003963C       aUsageTSLeGetTh
 0001:00039710       aCurrentChromaS
 0001:0003973C       aUsingDefaultCh
 0001:00039760       aUsageTSCsGetTh
 0001:000397F4       aCurrentChromaM
 0001:000398EC       aUsageTSCmfGetT
 0001:000399C8       aCurrentCcRegTa
 0001:000399EC       aUsageTSCc_regG
 0001:00039A74       aCurrentMctfSet
 0001:00039A8C       aEnableDYcombin
 0001:00039AB0       aChan_infoD
 0001:00039AC0       aTemporalalph_0
 0001:00039AD8       aTemporalalpha1
 0001:00039AF0       aTemporalalpha2
 0001:00039B08       aTemporalalpha3
 0001:00039B20       aTemporalt0D
 0001:00039B34       aTemporalt1D
 0001:00039B48       aTemporalt2D
 0001:00039B5C       aTemporalt3D
 0001:00039B70       aTemporalmaxc_0
 0001:00039B8C       aRadiusD_0
 0001:00039B9C       aStrengththre_0
 0001:00039BB4       aStrengthspat_0
 0001:00039BCC       aLeveladjustD_0
 0001:00039BE0       aFileOpenedErro
 0001:00039C10       aSave_0
 0001:00039C18       aCurrentmctfcfg
 0001:00039C34       aFileOpenedEr_0
 0001:00039C64       aEnable_4
 0001:00039C6C       aEnableD_7
 0001:00039C78       aCmpr_en
 0001:00039C80       aZmv_en
 0001:00039C88       aZmvEnableD
 0001:00039C98       aGhost
 0001:00039CA0       aUsageTSMctfGet
 0001:00039CD8       aTSMctfEnableEn
 0001:00039D1C       aTSMctfSaveMctf
 0001:00039D64       aTSMctfZmv_enEn
 0001:00039DA8       aTSMctfLoadMctf
 0001:00039E00       aCurrentColorDe
 0001:00039E50       aUsageTSCdnrGet
 0001:00039EFC       aUsageTSAsfGetT
 0001:0003A010       aCurrentDefBlcS
 0001:0003A048       aUsageTSDefblcG
 0001:0003A0BC       aDmy_range
 0001:0003A0C8       aExt_ver_range
 0001:0003A0D8       aUsageTIs2Dzoom
 0001:0003A524       aWarpSizeInfoVc
 0001:0003A56C       aCurrentWarpInf
 0001:0003A584       aVert
 0001:0003A58C       aWindowinfo
 0001:0003A598       aWarpwininfo_dz
 0001:0003A5C0       aWarpwininfo__0
 0001:0003A5E8       aWarpwininfo__1
 0001:0003A610       aWarpwininfo__2
 0001:0003A638       aWarpwininfo_ac
 0001:0003A660       aWarpwininfo__3
 0001:0003A688       aWarpwininfo__4
 0001:0003A6B0       aWarpwininfo__5
 0001:0003A6D8       aWarpwininfo_dm
 0001:0003A700       aWarpwininfo__6
 0001:0003A728       aWarpwininfo__7
 0001:0003A750       aWarpwininfo__8
 0001:0003A778       aWarpwininfo_cf
 0001:0003A7A0       aWarpwininfo__9
 0001:0003A7C8       aWarpwininfo_ma
 0001:0003A7F0       aWarpwininfo_10
 0001:0003A818       aWarpcoretrasnf
 0001:0003A82C       aVinsensorgeo_s
 0001:0003A84C       aVinsensorgeo_5
 0001:0003A86C       aVinsensorgeo_w
 0001:0003A88C       aVinsensorgeo_h
 0001:0003A8AC       aVinsensorgeo_6
 0001:0003A8CC       aVinsensorgeo_v
 0001:0003A8EC       aDzoominfo_zoom
 0001:0003A904       aDzoominfo_zo_0
 0001:0003A91C       aDzoominfo_shif
 0001:0003A934       aDzoominfo_sh_0
 0001:0003A94C       aDmyrange_botto
 0001:0003A964       aDmyrange_topD
 0001:0003A97C       aDmyrange_leftD
 0001:0003A994       aDmyrange_right
 0001:0003A9AC       aMainwindim_w_0
 0001:0003A9C4       aMainwindim_h_0
 0001:0003A9E4       aEis_horskewpha
 0001:0003AA00       aEis_verskewpha
 0001:0003AA1C       aOutput_1
 0001:0003AA40       aWindowinfo_a_3
 0001:0003AA68       aWindowinfo_a_4
 0001:0003AA90       aWindowinfo_a_5
 0001:0003AAB8       aWindowinfo_a_6
 0001:0003AAE0       aWindowinfo_d_3
 0001:0003AB04       aWindowinfo_d_4
 0001:0003AB28       aWindowinfo_d_5
 0001:0003AB4C       aWindowinfo_d_6
 0001:0003AB70       aWindowinfo_cfa
 0001:0003AB94       aWindowinfo_c_0
 0001:0003ABB8       aForceToNonstit
 0001:0003ABD4       aErrorCalcGri_0
 0001:0003AC10       aTestHorVerWarp
 0001:0003AC2C       aDD
 0001:0003AC38       aTest2xDzoom
 0001:0003AC48       aTest2xDzoomWit
 0001:0003AC70       aTest1xDzoom
 0001:0003AC80       aTestOnly2xDzoomWithWarpEffect
 0001:0003ACA4       aExtraEffectRotate
 0001:0003ACC0       aCalcGridNumb_0
 0001:0003ACF8       aPDD
 0001:0003AD04       aExtraEffect
 0001:0003AD34       aTmpchannelinde
 0001:0003AD4C       aImgmode_batchi
 0001:0003AD64       aNoThisPattern
 0001:0003AD78       aUsageTSWarpGet
 0001:0003AEE4       aCawarpSizeInfo
 0001:0003AF2C       aCurrentCawarpI
 0001:0003AF48       aTestHorVerCawa
 0001:0003AF7C       aCalcGridNumber
 0001:0003AF98       aUsageTSCaGetCa
 0001:0003B0C8       aTest_is2_stat
 0001:0003B0D8       aTestCommandGet
 0001:0003B110       aCurrentAwbStat
 0001:0003B138       aAwb_tile_num_0
 0001:0003B14C       aAwb_tile_num_1
 0001:0003B160       aAwb_tile_col_0
 0001:0003B178       aAwb_tile_row_0
 0001:0003B190       aAwb_tile_wid_0
 0001:0003B1A4       aAwb_tile_hei_0
 0001:0003B1B8       aAwb_tile_act_1
 0001:0003B1D4       aAwb_tile_act_2
 0001:0003B1F0       aAwb_pix_min__0
 0001:0003B208       aAwb_pix_max__0
 0001:0003B220       aCurrentAeStati
 0001:0003B248       aAe_tile_num__0
 0001:0003B25C       aAe_tile_num__1
 0001:0003B270       aAe_tile_col__0
 0001:0003B288       aAe_tile_row__0
 0001:0003B2A0       aAe_tile_widthD
 0001:0003B2B4       aAe_tile_heig_0
 0001:0003B2C8       aAe_pix_min_v_0
 0001:0003B2DC       aAe_pix_max_v_0
 0001:0003B2F0       aCurrentAfStati
 0001:0003B318       aAf_tile_num__0
 0001:0003B32C       aAf_tile_num__1
 0001:0003B340       aAf_tile_col__0
 0001:0003B358       aAf_tile_row__0
 0001:0003B370       aAf_tile_widthD
 0001:0003B384       aAf_tile_heig_0
 0001:0003B398       aAf_tile_acti_1
 0001:0003B3B0       aAf_tile_acti_2
 0001:0003B3CC       aCurrentAfSta_0
 0001:0003B3F8       aAfhorizontalfi
 0001:0003B414       aAfhorizontal_0
 0001:0003B434       aAfhorizontal_1
 0001:0003B454       aAfhorizontal_2
 0001:0003B474       aAfhorizontal_3
 0001:0003B494       aAfhorizontal_4
 0001:0003B4B4       aAfhorizontal_5
 0001:0003B4D4       aAfhorizontal_6
 0001:0003B4F4       aAfverticalfilt
 0001:0003B510       aAfhorizontal_7
 0001:0003B52C       aAfhorizontal_8
 0001:0003B54C       aAfhorizontal_9
 0001:0003B56C       aAfhorizonta_10
 0001:0003B58C       aAfhorizonta_11
 0001:0003B5AC       aAfhorizonta_12
 0001:0003B5CC       aAfhorizonta_13
 0001:0003B5EC       aAfhorizonta_14
 0001:0003B60C       aAfverticalfi_0
 0001:0003B628       aAftilefv1horiz
 0001:0003B644       aAftilefv1verti
 0001:0003B660       aAftilefv1hor_0
 0001:0003B680       aAftilefv1ver_0
 0001:0003B69C       aAftilefv2horiz
 0001:0003B6B8       aAftilefv2verti
 0001:0003B6D4       aAftilefv2hor_0
 0001:0003B6F4       aAftilefv2ver_0
 0001:0003B710       aConfig
 0001:0003B718       aFlag_3a_test1
 0001:0003B72C       aCurrentCfaAeSt
 0001:0003B770       a6d_1
 0001:0003B778       aCurrentCfaAeCo
 0001:0003B794       aCurrentCfaAe_0
 0001:0003B7B0       aCurrentCfaAeTi
 0001:0003B7D8       aCurrentCfaAe_1
 0001:0003B7FC       aCurrentCfaAe_2
 0001:0003B81C       aCurrentCfaAe_3
 0001:0003B840       aCurrentCfaAeLi
 0001:0003B864       aCurrentRgbAeSt
 0001:0003B8A8       aCurrentRgbAeTi
 0001:0003B8D0       aCurrentRgbAe_0
 0001:0003B8F4       aCurrentRgbAe_1
 0001:0003B914       aCurrentRgbAe_2
 0001:0003B938       aCurrentRgbAeYS
 0001:0003B958       aCurrentCfaAwbS
 0001:0003B99C       aRedStatistics
 0001:0003B9B8       aGreenStatistic
 0001:0003B9D8       aBlueStatistics
 0001:0003B9F8       aCount_min
 0001:0003BA10       aCount_max
 0001:0003BA28       aCurrentCfaAwbT
 0001:0003BA50       aCurrentCfaAw_0
 0001:0003BA78       aCurrentCfaAw_1
 0001:0003BAA0       aCurrentCfaAw_2
 0001:0003BAC8       aCurrentCfaAwbR
 0001:0003BAEC       aCurrentCfaAfSt
 0001:0003BB30       aYStatistics
 0001:0003BB4C       aFv1Statistics
 0001:0003BB6C       aFv2Statistics
 0001:0003BB8C       aCurrentCfaAfTi
 0001:0003BBB0       aCurrentCfaAf_0
 0001:0003BBD4       aCurrentCfaAf_1
 0001:0003BBF8       aCurrentCfaAf_2
 0001:0003BC20       aCurrentCfaAfYS
 0001:0003BC40       aCurrentRgbAfSt
 0001:0003BC84       aCurrentRgbAfTi
 0001:0003BCAC       aCurrentRgbAf_0
 0001:0003BCD0       aCurrentRgbAf_1
 0001:0003BCF4       aCurrentRgbAf_2
 0001:0003BD1C       aCurrentRgbAfYS
 0001:0003BD3C       aSDSaveStatFile
 0001:0003BD64       aShow_2
 0001:0003BD6C       aHeader
 0001:0003BD74       aRgbHeader
 0001:0003BD80       aCfaHeader
 0001:0003BD8C       aAwbtilecolst_1
 0001:0003BDA0       aAwbtilerowst_1
 0001:0003BDB4       aAwbtilewidth_1
 0001:0003BDC4       aAwbtileheigh_1
 0001:0003BDD8       aAwbtileactiv_2
 0001:0003BDF0       aAwbtileactiv_3
 0001:0003BE08       aAwbrgbshiftD_1
 0001:0003BE18       aAwbyshiftD_1
 0001:0003BE28       aAwbminmaxshi_1
 0001:0003BE3C       aAetilecolsta_1
 0001:0003BE50       aAetilerowsta_1
 0001:0003BE64       aAetilewidthD_1
 0001:0003BE74       aAetileheight_1
 0001:0003BE84       aAeyshiftD_1
 0001:0003BE90       aAelinearyshi_1
 0001:0003BEA4       aAftilecolsta_1
 0001:0003BEB8       aAftilerowsta_1
 0001:0003BECC       aAftilewidthD_1
 0001:0003BEDC       aAftileheight_1
 0001:0003BEEC       aAftileactive_2
 0001:0003BF04       aAftileactive_3
 0001:0003BF1C       aAfyshiftD_1
 0001:0003BF28       aAfcfayshiftD_1
 0001:0003BF38       aAwbtilenumco_2
 0001:0003BF4C       aAwbtilenumro_1
 0001:0003BF60       aAetilenumcol_1
 0001:0003BF70       aAetilenumrow_1
 0001:0003BF80       aAftilenumcol_1
 0001:0003BF90       aAftilenumrow_1
 0001:0003BFA0       aTotalslicesx_1
 0001:0003BFB0       aTotalslicesy_1
 0001:0003BFC0       aSliceindexxD_1
 0001:0003BFD0       aSliceindexyD_1
 0001:0003BFE0       aSlicewidthD_1
 0001:0003BFF0       aSliceheightD_1
 0001:0003C000       aSlicestartxD_1
 0001:0003C010       aSlicestartyD_1
 0001:0003C024       aCurrentCfaAe_4
 0001:0003C040       aCurrentCfaAe_5
 0001:0003C05C       aCurrentCfaAe_6
 0001:0003C080       aCurrentRgbAe_3
 0001:0003C0A4       aGreenStatist_0
 0001:0003C0C4       aBlueStatisti_0
 0001:0003C0E4       aCount_min_0
 0001:0003C0FC       aFv1Statistic_0
 0001:0003C118       aFv2Statistic_0
 0001:0003C134       aCurrentRgbAf_3
 0001:0003C158       aHist
 0001:0003C160       aCurrentCfaHist
 0001:0003C184       aRHistogram
 0001:0003C1A0       a12d
 0001:0003C1A8       aGHistogram
 0001:0003C1C4       aBHistogram
 0001:0003C1E0       aYHistogram
 0001:0003C1FC       aCurrentRgbHist
 0001:0003C220       aDump_1
 0001:0003C228       aWriteRgbStatis
 0001:0003C244       aWriteCfaStatis
 0001:0003C260       aUsageTSStatGet
 0001:0003C2A0       aTSStatConfigAe
 0001:0003C328       aTSStatConfigAw
 0001:0003C3C0       aTSStatConfigAf
 0001:0003C444       aTSStatShowAeAw
 0001:0003C494       aTSStatDumpRgb_
 0001:0003C4E8       aTSStatSaveTxtP
 0001:0003C528       aFloat_aaa_info
 0001:0003C548       aFloat_aaa_in_0
 0001:0003C56C       aD_float_tile_c
 0001:0003C58C       aD_float_tile_r
 0001:0003C5AC       aD_float_tile_w
 0001:0003C5C8       aD_float_tile_h
 0001:0003C5E4       aD_float_tile_s
 0001:0003C600       aFloatTileDCol_
 0001:0003C648       aCfaAeStatistic
 0001:0003C684       aRgbAeStatistic
 0001:0003C6A4       aCfaAwbStatisti
 0001:0003C6F8       aCfaAfStatistic
 0001:0003C728       aRgbAfStatistic
 0001:0003C778       aUsageTSFloatGe
 0001:0003C8B4       aPseudo_y
 0001:0003C8C0       aCurrentPseudoY
 0001:0003C8DC       aModeDSumshiftD
 0001:0003C8F4       aPixelweightDDD
 0001:0003C914       aTonecurveDD
 0001:0003C928       aTImgStat_exPse
 0001:0003C998       aEarly_wb
 0001:0003C9A4       aCurrentEarlyWb
 0001:0003C9C4       aRedmultiplierD
 0001:0003C9D8       aGreenmultiplie
 0001:0003C9F4       aGreenmultipl_0
 0001:0003CA0C       aBluemultiplier
 0001:0003CA20       aEnableaewbgain
 0001:0003CA34       aEnableafwbgain
 0001:0003CA48       aEnablehistogra
 0001:0003CA64       aRedwbmultiplie
 0001:0003CA7C       aGreenwbmultipl
 0001:0003CA98       aGreenwbmulti_0
 0001:0003CAB4       aBluewbmultipli
 0001:0003CACC       aTImgStat_exEar
 0001:0003CBC0       aUsageTSStat_ex
 0001:0003CD14       aIdspDumpAddres
 0001:0003CD3C       aDspIsHaltedDum
 0001:0003CD74       aIdsp_0_bin
 0001:0003CD80       aSec2idsp_l_bin
 0001:0003CD90       aSec2idsp_r_bin
 0001:0003CDA0       aSec3idsp_l_bin
 0001:0003CDB0       aSec3idsp_r_bin
 0001:0003CDC0       aWarnNotSupport
 0001:0003CDE4       aCS_S
 0001:0003CDF0       aFileOpenFail_S
 0001:0003CE1C       aIdspSec2DumpSu
 0001:0003CE64       aIdspSec2DumpIn
 0001:0003CEB0       aIdspSec2Dump_0
 0001:0003CEF8       aIdspSec2Dump_1
 0001:0003CF48       aIdspSec3DumpSu
 0001:0003CF90       aIdspSec3DumpIn
 0001:0003CFDC       aIdspSec3Dump_0
 0001:0003D024       aIdspSec3Dump_1
 0001:0003D074       aIdsp_dumpAddr0
 0001:0003D08C       aCS_5
 0001:0003D094       aMulti
 0001:0003D09C       aDbgthd_0
 0001:0003D0A4       aFlush_0
 0001:0003D0AC       aIdspMemoryFlus
 0001:0003D0CC       aClean
 0001:0003D0D4       aIdspMemoryClea
 0001:0003D0F4       aUsageTImgIdspD
 0001:0003D140       aTImgIdspDump10
 0001:0003D1A4       aTImgIdspDumpFi
 0001:0003D1F0       aTImgIdspDebugM
 0001:0003D250       aTImgIdspDbgthd
 0001:0003D2A4       aTest_is2_raw
 0001:0003D2B4       aImg_mode_vid_1
 0001:0003D2C4       aSingle_shot_2
 0001:0003D2D0       aImg_mode_low_1
 0001:0003D2E8       aImg_mode_hig_3
 0001:0003D300       aImg_mode_mid_i
 0001:0003D340       aSDCallAmbatune
 0001:0003D364       aTCalRawModeCou
 0001:0003D460       aTest_is2_rawen
 0001:0003D470       aSDCallAmbatu_0
 0001:0003D4A4       aTCalRawencFile
 0001:0003D500       aCurrentLowisoD
 0001:0003D530       aUsageTSLowisoD
 0001:0003D5FC       aTest_is2_itune
 0001:0003D60C       aSDCallAmbatu_1
 0001:0003D640       aSDCallAmbatu_2
 0001:0003D670       aSDCallAmbatu_3
 0001:0003D69C       aSDCallAmbatu_4
 0001:0003D6D0       aTCalItunerLoad
 0001:0003D72C       aNoSdCardPresen
 0001:0003D75C       aCanTCleanAllFi
 0001:0003D778       aCleanAllFilesI
 0001:0003D790       aUsageTSCleanDi
 0001:0003D7B4       aCurrentChromaF
 0001:0003D7D4       aEnableD_8
 0001:0003D7E0       aNoiselevel_cbD
 0001:0003D810       aOriginalblen_1
 0001:0003D84C       aRadiusD_1
 0001:0003D858       aUsageTSCfGetTh
 0001:0003D90C       aStill_3
 0001:0003D914       aVideo_7
 0001:0003D91C       aPleaseSetPipeV
 0001:0003D93C       aWarningTileidx
 0001:0003D96C       aCurrentHighiso
 0001:0003D9A4       aCurrentHighi_0
 0001:0003D9DC       aDebug_binary
 0001:0003D9EC       aUsageTSHighiso
 0001:0003DADC       aTotalvideoslic
 0001:0003DAF8       aTotalvideosl_0
 0001:0003DB14       aSliceinfoD
 0001:0003DB24       aSlicenumberxD
 0001:0003DB40       aSlicenumberyD
 0001:0003DB5C       aRawfrndmainfo_
 0001:0003DB7C       aRawfrndmainf_0
 0001:0003DB9C       aRawfrndmainf_1
 0001:0003DBBC       aRawfrndmainf_2
 0001:0003DBDC       aCfascaleroutin
 0001:0003DC00       aCfascalerout_0
 0001:0003DC24       aCfascalerout_1
 0001:0003DC48       aCfascalerout_2
 0001:0003DC6C       aMctfoutwin_off
 0001:0003DC88       aMctfoutwin_o_0
 0001:0003DCA4       aMctfoutwin_wid
 0001:0003DCC0       aMctfoutwin_hei
 0001:0003DCDC       aMctfoutcfgaddr
 0001:0003DCF8       aSec2cfgwin_off
 0001:0003DD14       aSec2cfgwin_o_0
 0001:0003DD30       aSec2cfgwin_wid
 0001:0003DD4C       aSec2cfgwin_hei
 0001:0003DD68       aSec2cfgaddr0xX
 0001:0003DD88       aSec3cfgwin_off
 0001:0003DDA4       aSec3cfgwin_o_0
 0001:0003DDC0       aSec3cfgwin_wid
 0001:0003DDDC       aSec3cfgwin_hei
 0001:0003DDF8       aSec3cfgaddr0xX
 0001:0003DE18       aCV_sec2idsp_ch
 0001:0003DE38       aCV_sec3idsp_ch
 0001:0003DE58       aVcapwin_widthD
 0001:0003DE6C       aVcapwin_height
 0001:0003DE80       aEncwin_widthD
 0001:0003DE94       aEncwin_heightD
 0001:0003DEA8       aTotalstillslic
 0001:0003DEC4       aTotalstillsl_0
 0001:0003DEE0       aCS_sec2idsp_ti
 0001:0003DEFC       aCS_sec3idsp_ti
 0001:0003DF18       aUsageTSIdspcfg
 0001:0003DF58       aWarp_0
 0001:0003DF60       aCcreg
 0001:0003DF68       aGbgr
 0001:0003DF70       aFirstmode
 0001:0003DF7C       aCdnr
 0001:0003DF84       aMctf_0
 0001:0003DF8C       aFirstshp
 0001:0003DF98       aFinalshp
 0001:0003DFA4       aHi_aa
 0001:0003DFAC       aHi_lk
 0001:0003DFB4       aHi_dbc
 0001:0003DFBC       aHi_cfa
 0001:0003DFC4       aHi_gbgr
 0001:0003DFCC       aHi_dms
 0001:0003DFD4       aHi_cmf
 0001:0003DFDC       aHi_cdnr
 0001:0003DFE4       aHi_dcc
 0001:0003DFEC       aHi_asf
 0001:0003DFF4       aHi_highasf
 0001:0003E000       aHi_lowasf
 0001:0003E00C       aHi_m1asf
 0001:0003E018       aHi_m2asf
 0001:0003E024       aHi_li2asf
 0001:0003E030       aHi_casf
 0001:0003E038       aHi_cfhigh
 0001:0003E044       aHi_cflvlow
 0001:0003E050       aHi_cfpre
 0001:0003E05C       aHi_cfmed
 0001:0003E068       aHi_cflow
 0001:0003E074       aHi_cfvlow
 0001:0003E080       aHi_cfmcb
 0001:0003E08C       aHi_cflcb
 0001:0003E098       aHi_cfvlcb
 0001:0003E0A4       aHi_lncb
 0001:0003E0AC       aHi_lasfcb
 0001:0003E0B8       aHi_cb
 0001:0003E0C0       aHi_fr
 0001:0003E0C8       aHi_lb
 0001:0003E0D0       aHi_bll
 0001:0003E0D8       aHi_highshp
 0001:0003E0E4       aHi_medshp
 0001:0003E0F0       aHi_li1shp
 0001:0003E0FC       aHi_li2shp
 0001:0003E108       aUsageTImgShow_
 0001:0003E148       aUsageTImgSho_0
 0001:0003E188       aUsageTImgSho_1
 0001:0003E1C8       aUsageTImgSho_2
 0001:0003E20C       aFilter
 0001:0003E218       aStaticbadpixel
 0001:0003E238       aVignettecompen
 0001:0003E258       aWarpcompensati
 0001:0003E278       aCawarpcompensa
 0001:0003E298       aColorcorrect_1
 0001:0003E2B8       aColorcorrect_2
 0001:0003E2DC       aStaticblacklev
 0001:0003E2FC       aDeferredblackl
 0001:0003E31C       aDynamicbadpixe
 0001:0003E33C       aCfaleakagefilt
 0001:0003E35C       aCfanoisefilter
 0001:0003E37C       aAntialiasingAa
 0001:0003E39C       aWbgainWb
 0001:0003E3BC       aDgainsaturatio
 0001:0003E3DC       aLocalexposureL
 0001:0003E3FC       aTonecurveTc
 0001:0003E41C       aRgbtoyuvmatrix
 0001:0003E43C       aChromascaleCs
 0001:0003E45C       aChromamedianfi
 0001:0003E47C       aDemosaicDms
 0001:0003E49C       aGbgrmismatchGb
 0001:0003E4BC       aFirstlumaproce
 0001:0003E4E4       aColordependent
 0001:0003E508       aChromafilterCf
 0001:0003E528       aAdvancespatial
 0001:0003E548       aVideomctfMctf
 0001:0003E568       aVideomctfmbtem
 0001:0003E588       aFirstsharpenno
 0001:0003E5AC       aFinalsharpenno
 0001:0003E5D0       aHisoantialiasi
 0001:0003E5F4       aHisocfaleakage
 0001:0003E618       aHisodynamicbad
 0001:0003E640       aHisocfanoisefi
 0001:0003E664       aHisogbgrmismat
 0001:0003E688       aHisodemosaicHi
 0001:0003E6AC       aHisochromamedi
 0001:0003E6D0       aHisocolordepen
 0001:0003E700       aHisodefercol_0
 0001:0003E724       aHisoadvancespa
 0001:0003E748       aHisohighadvanc
 0001:0003E774       aHisolowadvance
 0001:0003E7A0       aHisomed1advanc
 0001:0003E7C8       aHisomed2advanc
 0001:0003E7F0       aHisoli2ndadvan
 0001:0003E81C       aHisochromaadva
 0001:0003E844       aHisochromafi_8
 0001:0003E870       aHisochromafi_9
 0001:0003E89C       aHisochromaf_10
 0001:0003E8C4       aHisochromaf_11
 0001:0003E8EC       aHisochromaf_12
 0001:0003E914       aHisochromaf_13
 0001:0003E940       aHisochromaf_14
 0001:0003E968       aHisochromaf_15
 0001:0003E990       aHisochromaf_16
 0001:0003E9BC       aHisolumanoisec
 0001:0003E9E4       aHisolowasfco_0
 0001:0003EA10       aHisocombineHi_
 0001:0003EA38       aHisofreqrecove
 0001:0003EA60       aHisolumablendH
 0001:0003EA88       aHisoblendlumal
 0001:0003EAB0       aHisohighsharpe
 0001:0003EADC       aHisomedsharpen
 0001:0003EB08       aHisoliso1sharp
 0001:0003EB34       aHisoliso2sharp
 0001:0003EB60       aCurrentGmvSett
 0001:0003EB94       aUsageTSGmvTSGm
 0001:0003EBE8       aAsciicodeD
 0001:0003EBF8       aHelp
 0001:0003EC00       aHelp_0
 0001:0003EC08       aUsageTSOptionV
 0001:0003EC3C       aSS_7
 0001:0003EC48       aTryTSOptionHel
 0001:0003EC7C       aAmbaimg_testcm
 0001:0003EC94       aMyTestAmbaimg_
 0001:0003ECB0       aS1
 0001:0003ECB4       aS2
 0001:0003ECB8       aRec
 0001:0003ECBC       aDel
 0001:0003ECC0       aMode_4
 0001:0003ECC8       aUp
 0001:0003ECCC       aDown_0
 0001:0003ECD4       aLeft
 0001:0003ECDC       aRight
 0001:0003ECE4       aOk_1
 0001:0003ECE8       aNotInRecordMod
 0001:0003ED00       aMaximumCardFul
 0001:0003ED24       aDonTHaveEnough
 0001:0003ED58       aLongTermTaskEn
 0001:0003ED70       aDeleteS
 0001:0003ED7C       a_thm
 0001:0003ED84       aDonTHaveEnou_0
 0001:0003EDA0       aTimeUStart
 0001:0003EDB4       aTimeUStop
 0001:0003EDC8       aLongTermTaskEx
 0001:0003EE14       aLivLiveviewRel
 0001:0003EE3C       aCapStillCaptur
 0001:0003EE68       aEncEncodeRelat
 0001:0003EE8C       aDecDecodeRelat
 0001:0003EEB0       aKeyKeyEventRel
 0001:0003EED8       aMemShowMemoryU
 0001:0003EEF0       aVoutVoutRelate
 0001:0003EF14       aSdscanReScanSd
 0001:0003EF40       aPrefUserPrefer
 0001:0003EF70       aAudioAudioRela
 0001:0003EF94       aAucodecAudioCo
 0001:0003EFC0       aSensorSensorIn
 0001:0003EFEC       aWdtForWdtTest
 0001:0003F000       aOffDisableLive
 0001:0003F018       aOnEnableLivevi
 0001:0003F030       aZoomInOutDzoom
 0001:0003F060       a3aOnOff3aContr
 0001:0003F07C       aMctfModeOnOffT
 0001:0003F0A4       aMctfcmprOnOffM
 0001:0003F0D4       aLcdOnOffTurnOn
 0001:0003F0FC       aClkShowAllClco
 0001:0003F114       aSensor_vflipOn
 0001:0003F150       aVin_flipVerHor
 0001:0003F198       aSetclkMoviefor
 0001:0003F1F8       aSuspendResumeS
 0001:0003F220       aBngcrctHorizon
 0001:0003F278       aLow_delayOff0V
 0001:0003F2EC       aNum_sliceSlice
 0001:0003F334       aIr_cycleRefres
 0001:0003F37C       aBurstOnOffEnab
 0001:0003F3A4       aPesOption0Stop
 0001:0003F3C8       aPivtestInterva
 0001:0003F41C       aBgOnOffEnableS
 0001:0003F45C       aQvOnOffEnableQ
 0001:0003F47C       aStatusShowSing
 0001:0003F4AC       aRawcapOnOffEna
 0001:0003F4F8       aCleanrawOnOffE
 0001:0003F530       aR2rOnOffEnable
 0001:0003F560       aIsoMode0SetToL
 0001:0003F598       aProfileShowTim
 0001:0003F5C8       aLock_aeShutter
 0001:0003F618       aUnlock_aeUnLoc
 0001:0003F638       aNull_write10En
 0001:0003F670       aGopStreamMNIdr
 0001:0003F6A0       aBlendOnOffEnab
 0001:0003F6D0       aFrate_chgStrea
 0001:0003F700       aFrateResetShow
 0001:0003F728       aBrate_chgStrea
 0001:0003F758       aBrateResetShow
 0001:0003F77C       aVbrOnOffEnable
 0001:0003F7A0       aInt_capOnOffRe
 0001:0003F7D0       aSsh_ctrlUpsamp
 0001:0003F810       aPausePauseEnco
 0001:0003F828       aResumeResumeEn
 0001:0003F840       aRotate0None
 0001:0003F854       a1HFlip
 0001:0003F868       a2Rotate_90
 0001:0003F880       a3Rotate_90VFli
 0001:0003F8A0       a4HFlipVFlip
 0001:0003F8BC       a5VFlip
 0001:0003F8D0       a6Rotate_90VFli
 0001:0003F8F8       a7Rotate_90HFli
 0001:0003F918       aVideo_typeStre
 0001:0003F954       aAudio_typeStre
 0001:0003F988       aQue_statShowQu
 0001:0003F9A8       aLong_testStart
 0001:0003F9E8       aSyncpivOnOffSy
 0001:0003FA1C       aVidthmOnOffGet
 0001:0003FA58       aEmerg_stopSimu
 0001:0003FA90       aDemand_idr0Mai
 0001:0003FAD4       aMjpeg_qualityS
 0001:0003FB04       aBlk_decOnOffEn
 0001:0003FB3C       aBlendBlendingT
 0001:0003FB68       aTkplyPauseResu
 0001:0003FB98       aFwdSpeedForwar
 0001:0003FBB8       aBwdSpeedBackwa
 0001:0003FBD8       aTm_searchSecTi
 0001:0003FC00       aFadeOnOffEnabl
 0001:0003FC40       aSwitchInOutSwi
 0001:0003FC7C       aCvbsOnOffEnabl
 0001:0003FCA0       aSaveSavePrefer
 0001:0003FCCC       aLoadLoadPrefer
 0001:0003FD04       aEraseErasePref
 0001:0003FD30       aDumpDumpPrefer
 0001:0003FD68       aMscSwitchUsbCl
 0001:0003FD88       aMtpSwitchUsbCl
 0001:0003FDA8       aDetailSensorMo
 0001:0003FDF0       aGainFactorSetG
 0001:0003FE10       aShrExposureTim
 0001:0003FE40       aStartModeTimeo
 0001:0003FE90       aRestart
 0001:0003FE9C       aStop_0
 0001:0003FEA4       aGet_mode
 0001:0003FEB0       aGet_timeout
 0001:0003FEC0       aClear_timeout
 0001:0003FED0       aZoom
 0001:0003FED8       aReset
 0001:0003FEE0       aFactor
 0001:0003FEE8       aBngcrct
 0001:0003FEF4       aTestBinningCor
 0001:0003FF30       aMctf
 0001:0003FF38       aMctfcmpr
 0001:0003FF48       aMultichan
 0001:0003FF54       aMultichan_0
 0001:0003FF60       aMultiChanTestE
 0001:0003FF78       aMultifovenc
 0001:0003FF84       aMultifovenc_0
 0001:0003FF90       aMultiFovEncTes
 0001:0003FFAC       aTest
 0001:0003FFE4       aCortexFreqD
 0001:0003FFF8       aArmFreqD
 0001:00040008       aDdrFreqD
 0001:00040018       aCoreFreqD
 0001:00040028       aIdspFreqD
 0001:00040038       aAxiFreqD
 0001:00040048       aAhbFreqD
 0001:00040058       aApbFreqD
 0001:00040068       aSensor_vflip
 0001:00040078       aVin_flip
 0001:00040084       aCurrentVinVerf
 0001:000400AC       aUsageVin_flipV
 0001:000400FC       aSetclk
 0001:00040104       aMovieformatD
 0001:00040114       aSetphotoclk
 0001:00040120       aSetPhotoClk
 0001:00040130       aSuspend
 0001:00040138       aResume
 0001:00040140       aOff_lcd
 0001:00040148       aRotate_1
 0001:00040150       aSWarpRotation
 0001:00040164       aEnable_1
 0001:0004016C       aDisable_1
 0001:00040174       aLow_delay
 0001:00040180       aLowdelaymodeDS
 0001:000401A0       aNum_slice
 0001:000401AC       aNumsliceShould
 0001:000401D0       aNumsliceD
 0001:000401E0       aIr_cycle
 0001:000401EC       aIrcycleShouldB
 0001:00040210       aSetcsc
 0001:00040218       aSetHdmiCscIdDS
 0001:0004023C       aPesCapture
 0001:00040248       aPivCapture
 0001:00040254       aBurst
 0001:0004025C       aBurstCaptureOn
 0001:00040270       aBurstCaptureOf
 0001:00040284       aAebCaptureOn
 0001:00040294       aAebIndexD
 0001:000402A4       aAebDefaultInde
 0001:000402BC       aAebCaptureOff
 0001:000402CC       aBackgroundProc
 0001:000402F8       aBackgroundPr_0
 0001:00040324       aBackgroundPr_1
 0001:00040350       aBackgroundPr_2
 0001:00040380       aQuickviewIsOnF
 0001:000403A4       aQuickviewIsO_0
 0001:000403C8       aQuickviewIsOff
 0001:000403EC       aQuickviewIsO_1
 0001:00040410       aStatus
 0001:00040428       aSingleCapture
 0001:00040438       aEnablequickvie
 0001:00040480       aBurstcapCaptur
 0001:00040494       aRawcap
 0001:0004049C       aUncompressedRa
 0001:000404B8       aEnableDumpStil
 0001:000404F0       aDumpMainYuvJus
 0001:0004051C       aDumpMainYuvIsO
 0001:00040544       aUncompressed_0
 0001:00040564       aDisableDumpSti
 0001:00040588       aDumpMainYuvI_0
 0001:000405A0       aCleanraw
 0001:000405AC       aPleaseEnableRa
 0001:000405CC       aCleanRawJustSu
 0001:000405F4       aCleanRawIsOnFo
 0001:00040618       aCleanRawIsOff
 0001:0004062C       aExif
 0001:00040634       aExifFormatterO
 0001:00040648       aExifFormatte_0
 0001:0004065C       aNull_write
 0001:00040668       aG_capture_null
 0001:00040684       aRotfip
 0001:0004068C       aG_capture_rota
 0001:000406A8       aRatectrl
 0001:000406B4       aJpegRateContro
 0001:000406CC       aJpegRateCont_0
 0001:000406E4       aQlevel
 0001:000406EC       aG_capture_qtab
 0001:00040708       aPivtiletest
 0001:00040714       aSetToHighIsoMo
 0001:0004072C       aSetToLowIsoMod
 0001:00040740       aR2rIsOnForBurs
 0001:0004075C       aR2rIsOnForSing
 0001:0004077C       aR2rIsOffForBur
 0001:0004079C       aR2rIsOffForSin
 0001:000407BC       aPivtest
 0001:000407C4       aErrPivIsNotSup
 0001:000407F8       aErrPivTestInte
 0001:0004081C       aErrPivTestAlre
 0001:0004083C       aErrMovieRecord
 0001:00040864       aPivTestStart
 0001:00040874       aWaitCaptureSta
 0001:0004088C       aCaptureStarted
 0001:000408A0       aErrPivTestNotS
 0001:000408BC       aWaitingCapture
 0001:000408D8       aCaptureDone
 0001:000408E8       aPivTestStop
 0001:000408F8       aWarningRecordi
 0001:00040930       aErrPesCaptureA
 0001:00040954       aErrPesCaptureI
 0001:0004097C       aPesCaptureStar
 0001:00040990       aErrPesCaptureN
 0001:000409B0       aPesCaptureStop
 0001:000409C8       aProfile
 0001:000409D0       aLock_ae
 0001:000409E0       aSetupManualAeF
 0001:00040A0C       aSetupManualAeS
 0001:00040A38       aLockStillAe
 0001:00040A48       aUnlock_ae
 0001:00040A5C       aPiv_iso_mode
 0001:00040A6C       aCurrentPivDoes
 0001:00040AAC       aHiso_win
 0001:00040AB8       aUpateMaxHisoWi
 0001:00040AD8       aSvc_encodetest
 0001:00040AEC       aStreamD
 0001:00040AF8       aMD_0
 0001:00040B00       aND_0
 0001:00040B08       aIdrintervalD
 0001:00040B1C       aBlend
 0001:00040B24       aSyncpiv
 0001:00040B2C       aSyncPivOn
 0001:00040B38       aSyncPivOff
 0001:00040B48       aVidthm
 0001:00040B50       aVideoThumbnail
 0001:00040B64       aVideoThumbna_0
 0001:00040B78       aFrate_chg
 0001:00040B84       aFrate
 0001:00040B8C       aShow
 0001:00040B94       aFramerateLluSe
 0001:00040BAC       a1stStream
 0001:00040BBC       aVideoFFpsLluFr
 0001:00040BE0       aAudioFFpsLluFr
 0001:00040C04       a2ndStream
 0001:00040C14       aBrate_chg
 0001:00040C20       aBrate
 0001:00040C28       aBitrate
 0001:00040C34       aVideoUKbps
 0001:00040C48       aAudioUKbps
 0001:00040C5C       aInt_cap
 0001:00040C64       aSsh_ctrl
 0001:00040C70       aPause
 0001:00040C78       aVideo_type
 0001:00040C84       aAudio_type
 0001:00040C90       aQue_stat
 0001:00040C9C       a1stStream_0
 0001:00040CA8       aQueueUsedTotal
 0001:00040CC4       aVideoCountMuxU
 0001:00040CE0       aAudioCountMuxU
 0001:00040CFC       a2ndStream_0
 0001:00040D10       aH264BufferTota
 0001:00040D30       aHandledLlu
 0001:00040D50       aJpegBufferTota
 0001:00040D70       aCreate
 0001:00040D78       aStart_0
 0001:00040D80       aStop_1
 0001:00040D88       aDestroy
 0001:00040D90       aLong_test
 0001:00040D9C       aLongtesttask
 0001:00040DAC       aSFailToCreat_2
 0001:00040DC4       aLongTermTestin
 0001:00040DE8       aSFailedToTer_0
 0001:00040E08       aSFailedToDel_1
 0001:00040E24       aLongTermTest_0
 0001:00040E48       aEmerg_stop
 0001:00040E58       aDisableSensor_
 0001:00040E6C       aEmergentStopEn
 0001:00040E88       aDemand_idr
 0001:00040E94       aMjpeg_quality
 0001:00040EA4       aBlk_dec
 0001:00040EAC       aTkply
 0001:00040EB4       aStep
 0001:00040EBC       aTm_search
 0001:00040EC8       aFade
 0001:00040ED0       aDataQueueUsedT
 0001:00040EF0       aBufferBaseLimi
 0001:00040F10       aFeedDecoded0xX
 0001:00040F30       aSwitch
 0001:00040F38       aNoFile
 0001:00040F40       aHide
 0001:00040F48       aCachememtotals
 0001:00040F7C       aUcodeblocksize
 0001:00040FB0       aNoncachedmemto
 0001:00040FE4       aNoncachedmemus
 0001:00041004       aNoncachedmemfr
 0001:00041024       aKalCachedmemfr
 0001:00041064       aCvbs
 0001:0004106C       aPleaseUnplugHd
 0001:000410B0       aEnableCvbsOutp
 0001:000410C4       aDisableCvbsOut
 0001:000410D8       aHdmi_0
 0001:000410E0       a480p
 0001:000410E8       a720p30
 0001:000410F0       a720p
 0001:000410F8       a1080p30
 0001:00041100       aSave
 0001:00041108       aLoad
 0001:00041110       aErase
 0001:00041118       aDump
 0001:00041124       aDetail
 0001:0004112C       aSensorDeviceIn
 0001:00041158       aFull_view_widt
 0001:00041170       aFull_view_heig
 0001:00041188       aSensor_cell_wi
 0001:000411A4       aSensor_cell_he
 0001:000411C4       aGeneralInfo
 0001:000411F0       aSensorModeD_0
 0001:00041204       aMainFrameRateF
 0001:00041220       aSamplingFactor
 0001:00041240       aSamplingFact_0
 0001:00041260       aSensorOutputSt
 0001:0004128C       aLine_length_pc
 0001:000412AC       aFrame_length_l
 0001:000412CC       aDataBitsDBits
 0001:000412E4       aDspPhaseShiftD
 0001:000412FC       aSourceStart_xD
 0001:00041310       aSourceStart_yD
 0001:00041324       aSourceEnd_xD
 0001:00041338       aSourceEnd_yD
 0001:0004134C       aSourceWidthD
 0001:00041360       aSourceHeightD
 0001:00041374       aVinWindowInPix
 0001:000413A0       aStartPointDD
 0001:000413B8       aEndPointDD
 0001:000413D0       aCenterPointDD
 0001:000413E8       aActualFrameTim
 0001:00041414       aPixelBitClock9
 0001:00041430       aPixelRateIO9fP
 0001:00041454       aFrameRate_6fFr
 0001:00041474       aRowTime_6fUs
 0001:00041488       aVinHbTimeFUs
 0001:000414A0       aVinVbTimeFUs
 0001:000414B8       aGainInfo
 0001:000414E4       aGainFactor_6f
 0001:000414FC       aShutterInfo
 0001:00041528       aShutterExposur
 0001:00041548       aGain
 0001:00041568       aRestart_0
 0001:00041570       aGet_mode_0
 0001:0004157C       aModeD_3
 0001:00041588       aGet_timeout_0
 0001:00041594       aTimeoutStausD
 0001:000415A8       aClear_timeou_0
 0001:000415B8       aVout
 0001:000415C0       aSdscan
 0001:000415C8       aPref
 0001:000415D0       aAudio
 0001:000415D8       aAucodec
 0001:000415E0       aSensor
 0001:000415E8       aImgproc
 0001:000415F0       aVtuner
 0001:000415F8       aDbgcap
 0001:00041600       aMsgut
 0001:00041608       aStilldecTaskX
 0001:00041628       aStilldecevtErr
 0001:0004163C       aAmbastilldec_t
 0001:00041654       aSFailedToConfi
 0001:00041678       aSFailedToRegEv
 0001:0004169C       aSFailedToMsg_0
 0001:000416BC       aSFailToMsgqueu
 0001:000416E0       aSFailedToEve_1
 0001:00041700       aImageDecoderTa
 0001:00041714       aAmbastilldec_0
 0001:0004172C       aSTaskIsNotId_0
 0001:00041744       aSFailedToTas_0
 0001:00041764       aSFailedToTas_1
 0001:00041780       aSFailedToMsg_1
 0001:000417A0       aSFailedToEve_2
 0001:000417C0       aDecodeAbortD
 0001:000417D4       aMainBufNotEnou
 0001:000417EC       aStartdecodeDDe
 0001:00041808       aStartdecodeDLo
 0001:00041830       aStartblockdeco
 0001:00041858       aStartblockde_0
 0001:00041884       aDecodeAbort
 0001:00041894       aSetbitsdatablk
 0001:000418B8       aStilldec_loadj
 0001:000418D4       aStartS
 0001:000418E0       aDjidcf_getfi_2
 0001:0004192C       aDjidng_locin_0
 0001:00041954       aAmbafs_fseekRe
 0001:00041978       aAmbafs_freadRe
 0001:000419A8       aSFileIsDngTy_0
 0001:000419C8       aEndS
 0001:000419D0       aStilldispTaskX
 0001:000419E4       aSdispDispVoutD
 0001:000419F8       aImageDisplayTa
 0001:00041A0C       aAmbastilldisp_
 0001:00041A28       aSTaskIsNotIdle
 0001:00041A40       aSFailedToTaskt
 0001:00041A60       aSFailedToTaskd
 0001:00041A7C       aSFailedToMsgqu
 0001:00041A9C       aSFailedToEvent
 0001:00041ABC       aSFailedToSemde
 0001:00041AD8       aAmbastilldis_0
 0001:00041AEC       aK_assertAtS_22
 0001:00041B00       aAmbastilldis_1
 0001:00041B20       aAmbathumbnaild
 0001:00041B3C       aSFailedToEve_0
 0001:00041B5C       aThmdisp_enable
 0001:00041B80       aStartThmdisp_1
 0001:00041BA8       aThmdispGetfile
 0001:00041BC4       aFileNotExist_0
 0001:00041BD8       aParseMovErro_0
 0001:00041BEC       aParseExifErr_0
 0001:00041C04       aUnsupportedY_0
 0001:00041C1C       aEndThmdispDi_0
 0001:00041C38       aStartThmdispEn
 0001:00041C68       aEndThmdispEnla
 0001:00041C94       a_ambatune_chec
 0001:00041CB4       aTuneMngDebugSD
 0001:00041CDC       aAmbatuneGetMem
 0001:00041CFC       aAmbatune_chang
 0001:00041D18       aTuneMngDebug_0
 0001:00041D68       aAmbatune_save_
 0001:00041D7C       aTuneMngWarning
 0001:00041DB0       aAmbatune_load_
 0001:00041DC4       aAmbatune_sav_0
 0001:00041DD8       aAmbatune_loa_0
 0001:00041DEC       aAmbatune_execu
 0001:00041E04       aAmbatune_get_s
 0001:00041E1C       aAmbatune_set_s
 0001:00041E34       aAmbatune_get_a
 0001:00041E48       aAmbatune_set_a
 0001:00041E5C       aAmbatune_get_w
 0001:00041E74       aAmbatune_set_w
 0001:00041E8C       aAmbatune_get_i
 0001:00041F24       aTune_parser_cr
 0001:00041F38       aPaserErrorSDOb
 0001:00041F60       aTune_parser_ad
 0001:00041F74       aPaserWarningSD
 0001:00041FA8       aTune_parser_se
 0001:00041FC8       aPaserErrorSDIn
 0001:00041FF0       aTuner_parser_s
 0001:0004200C       aPaserWarning_0
 0001:00042034       aTune_parser_ge
 0001:00042048       aPaserWarning_1
 0001:0004207C       aTune_parser__0
 0001:00042094       aPaserErrorSDRe
 0001:000420B8       aTune_parser_lo
 0001:000420D0       aPaserWarning_2
 0001:000420FC       aTune_parser__1
 0001:00042118       aPaserWarning_3
 0001:0004213C       aPaserWarning_4
 0001:00042178       aTune_parser__2
 0001:00042194       aPaserWarning_5
 0001:000421C8       aPaserWarning_6
 0001:00042200       aStatic_bad_pix
 0001:00042224       aTune_parser__3
 0001:0004223C       aPaserErrorSDLi
 0001:0004226C       aTune_parser_pa
 0001:00042284       aPaserErrorSDNo
 0001:000422EC       a_texthdlr_get_
 0001:00042308       aTextHdlrWarnin
 0001:0004233C       a_texthdlr_chan
 0001:0004235C       aTextHdlrWarn_0
 0001:00042390       aCS_3
 0001:00042398       aCS_4
 0001:000423A0       a_texthdlr_look
 0001:000423C0       aTextHdlrWarn_1
 0001:000423F8       a_texthdlr_lo_0
 0001:0004241C       aTextHdlrWarn_2
 0001:00042458       a_read_line_0
 0001:00042464       aTextHdlrWarn_3
 0001:000424A0       a_texthdlr_load
 0001:000424B4       aTextHdlrDebug
 0001:000424DC       aTextHdlrDebugI
 0001:00042500       aTextHdlrDebugF
 0001:00042524       aTextHdlrWarn_4
 0001:0004256C       aTextHdlrWarn_5
 0001:000425B8       aTextHdlrWarn_6
 0001:000425FC       aTextHdlrWarn_7
 0001:00042634       aTextHdlrErrorS
 0001:0004266C       aTexthdlr_loa_0
 0001:00042680       aTextHdlrWar_86
 0001:000426C0       aTextHdlrWar_87
 0001:0004270C       a_texthdlr_chec
 0001:00042730       aTextHdlrWarn_9
 0001:0004276C       aTextHdlrWarn_8
 0001:000427A4       a_texthdlr_ge_0
 0001:000427C0       aTextHdlrErro_0
 0001:0004280C       aTextHdlrWar_10
 0001:00042858       a_fpn_map_bin
 0001:00042868       a_fpn_map_bypas
 0001:0004287C       a_vignette_gain
 0001:00042890       a_warp_table_bi
 0001:000428A0       a_ca_table_bin
 0001:000428B0       a_cc_reg_bin
 0001:000428BC       a_cc_3d_bin
 0001:000428C8       a_first_sharpen_table_bin
 0001:000428E4       a_final_sharpen
 0001:00042900       a_asf_table_bin
 0001:00042910       a_hiso_asf_table_bin
 0001:00042924       a_hiso_high_asf_table_bin
 0001:00042940       a_hiso_low_asf_
 0001:00042958       a_hiso_med1_asf
 0001:00042974       a_hiso_med2_asf
 0001:00042990       a_hiso_li2nd_as
 0001:000429AC       a_hiso_chroma_a
 0001:000429C8       a_hiso_high_sha
 0001:000429E8       a_hiso_med_shar
 0001:00042A04       a_hiso_liso1_sh
 0001:00042A24       a_hiso_liso2_sh
 0001:00042A44       a_hiso_chroma_m
 0001:00042A68       a_hiso_chroma_l
 0001:00042A8C       a_hiso_chroma_v
 0001:00042AB4       a_hiso_luma_noi
 0001:00042AD8       a_hiso_low_as_0
 0001:00042AF8       a_hiso_combine_
 0001:00042B10       aTextHdlrErro_1
 0001:00042B48       a_texthdlr_save
 0001:00042B5C       aTextHdlrWar_11
 0001:00042B9C       a_texthdlr_lo_1
 0001:00042BB0       aTextHdlrWar_12
 0001:00042BF4       aTextHdlrWar_13
 0001:00042C50       a_texthldr_load
 0001:00042C68       aTextHdlrDebugS
 0001:00042C98       aTextHdlrErro_2
 0001:00042CCC       aTextHdlrDebu_0
 0001:00042D18       aTextHdlrWar_14
 0001:00042D68       aTextHdlrDebu_1
 0001:00042DA8       a_texthldr_lo_0
 0001:00042DC8       aTextHdlrDebu_2
 0001:00042E00       aTextHdlrErro_3
 0001:00042E54       aTextHdlrDebu_3
 0001:00042E9C       a_texthdlr_lo_2
 0001:00042EB8       aTextHdlrDebu_4
 0001:00042EE4       aTextHdlrErro_4
 0001:00042F30       aTextHdlrDebu_5
 0001:00042F6C       a_texthdlr_lo_3
 0001:00042F94       aTextHdlrDebu_6
 0001:00042FCC       aTextHdlrErro_5
 0001:00043020       aTextHdlrWar_15
 0001:00043058       aTextHdlrWar_16
 0001:0004308C       aTextHdlrDebu_7
 0001:000430DC       a_texthdlr_lo_4
 0001:00043104       aTextHdlrDebu_8
 0001:00043138       aTextHdlrErro_6
 0001:0004318C       aTextHdlrDebu_9
 0001:000431D8       a_texthdlr_lo_5
 0001:000431F0       aTextHdlrDeb_10
 0001:0004321C       aTextHdlrErro_7
 0001:00043264       aTextHdlrDeb_11
 0001:000432A0       a_texthldr_lo_1
 0001:000432CC       aTextHdlrDeb_12
 0001:00043308       aTextHdlrErro_8
 0001:00043368       aTextHdlrDeb_13
 0001:000433B4       a_texthdlr_lo_6
 0001:000433DC       aTextHdlrDeb_14
 0001:00043418       aTextHdlrErro_9
 0001:00043474       aTextHdlrDeb_15
 0001:000434C0       a_texthdlr_lo_7
 0001:000434D8       aTextHdlrDeb_16
 0001:00043500       aTextHdlrErr_10
 0001:00043548       aTextHdlrDeb_17
 0001:00043584       a_texthdlr_lo_8
 0001:000435A4       aTextHdlrDeb_18
 0001:000435D4       aTextHdlrDeb_19
 0001:00043618       a_texthdlr_lo_9
 0001:00043630       aTextHdlrErr_11
 0001:00043678       a_texthdlr_l_10
 0001:00043694       aTextHdlrErr_12
 0001:000436D8       a_texthdlr_l_11
 0001:00043704       aTextHdlrErr_13
 0001:00043764       a_texthdlr_l_12
 0001:00043790       aTextHdlrErr_14
 0001:000437F0       a_texthdlr_l_13
 0001:00043810       aTextHdlrErr_15
 0001:00043864       a_texthdlr_l_14
 0001:0004388C       aTextHdlrErr_16
 0001:000438E4       a_texthdlr_l_15
 0001:00043910       aTextHdlrErr_17
 0001:0004396C       a_texthdlr_l_16
 0001:00043998       aTextHdlrErr_18
 0001:000439F4       a_texthdlr_l_17
 0001:00043A20       aTextHdlrErr_19
 0001:00043A7C       a_texthdlr_l_18
 0001:00043AA8       a_texthdlr_l_19
 0001:00043AD4       aTextHdlrErr_20
 0001:00043B30       a_texthdlr_l_20
 0001:00043B5C       aTextHdlrErr_21
 0001:00043BB8       a_texthdlr_l_21
 0001:00043BE8       aTextHdlrErr_22
 0001:00043C4C       a_texthdlr_l_22
 0001:00043C7C       aTextHdlrErr_23
 0001:00043CE0       a_texthdlr_l_23
 0001:00043D10       aTextHdlrErr_24
 0001:00043D74       a_texthdlr_l_24
 0001:00043DA4       aTextHdlrErr_25
 0001:00043E08       a_texthdlr_l_25
 0001:00043E3C       aTextHdlrErr_26
 0001:00043EA8       a_texthdlr_l_26
 0001:00043EDC       aTextHdlrErr_27
 0001:00043F48       a_texthdlr_l_27
 0001:00043F80       aTextHdlrErr_28
 0001:00043FF0       a_texthdlr_l_28
 0001:00044024       aTextHdlrErr_29
 0001:00044088       a_texthdlr_l_29
 0001:000440B4       aTextHdlrErr_30
 0001:00044114       a_texthdlr_l_30
 0001:00044140       aTextHdlrErr_31
 0001:000441A0       a_texthdlr_sa_0
 0001:000441B8       aTextHdlrDeb_20
 0001:000441E0       aTextHdlrDeb_21
 0001:00044224       aTextHdlrWar_17
 0001:00044274       aTextHdlrWar_18
 0001:000442B8       aTextHdlrDeb_22
 0001:000442F4       a_texthdlr_sa_1
 0001:00044314       aTextHdlrDeb_23
 0001:00044344       aTextHdlrDeb_24
 0001:00044390       aTextHdlrWar_19
 0001:000443DC       aTextHdlrDeb_25
 0001:00044420       a_texthdlr_sa_2
 0001:00044438       aTextHdlrDeb_26
 0001:00044488       aErrorExtFileOp
 0001:000444A8       aTextHdlrWar_20
 0001:00044500       aTextHdlrDeb_27
 0001:00044540       a_texthdlr_sa_3
 0001:0004455C       aTextHdlrDeb_28
 0001:000445A4       aTextHdlrWar_21
 0001:000445F0       aTextHdlrDeb_29
 0001:0004462C       a_texthdlr_sa_4
 0001:00044644       aTextHdlrDeb_30
 0001:00044688       aTextHdlrWar_22
 0001:000446D0       aTextHdlrDeb_31
 0001:0004470C       a_texthdlr_sa_5
 0001:00044724       aTextHdlrDeb_32
 0001:0004474C       aTextHdlrDeb_33
 0001:00044784       aTextHdlrWar_23
 0001:000447C8       a_texthdlr_sa_6
 0001:000447E4       aTextHdlrDeb_34
 0001:00044820       aTextHdlrWar_24
 0001:00044868       a_texthdlr_sa_7
 0001:00044894       aTextHdlrDeb_35
 0001:000448E4       aTextHdlrWar_25
 0001:00044930       aTextHdlrDeb_36
 0001:0004497C       a_texthdlr_sa_8
 0001:000449A8       aTextHdlrDeb_37
 0001:000449F8       aTextHdlrWar_26
 0001:00044A44       a_texthdlr_sa_9
 0001:00044A64       aTextHdlrDeb_38
 0001:00044AA8       aTextHdlrWar_27
 0001:00044AEC       a_texthdlr_s_10
 0001:00044B14       aTextHdlrDeb_39
 0001:00044B5C       aTextHdlrWar_28
 0001:00044BA4       a_texthdlr_s_11
 0001:00044BD0       aTextHdlrDeb_40
 0001:00044C1C       aTextHdlrWar_29
 0001:00044C68       a_texthdlr_s_12
 0001:00044C94       aTextHdlrDeb_41
 0001:00044CE0       aTextHdlrWar_30
 0001:00044D2C       a_texthdlr_s_13
 0001:00044D58       aTextHdlrDeb_42
 0001:00044DA4       aTextHdlrWar_31
 0001:00044DF0       a_texthdlr_s_14
 0001:00044E1C       aTextHdlrDeb_43
 0001:00044E68       aTextHdlrWar_32
 0001:00044EB4       a_texthdlr_s_15
 0001:00044EE0       aTextHdlrDeb_44
 0001:00044F2C       aTextHdlrWar_33
 0001:00044F78       a_texthdlr_s_16
 0001:00044FA4       aTextHdlrDeb_45
 0001:00044FF0       aTextHdlrWar_34
 0001:00045040       a_texthdlr_s_17
 0001:00045070       aTextHdlrDeb_46
 0001:000450C4       aTextHdlrWar_35
 0001:00045114       a_texthdlr_s_18
 0001:00045144       aTextHdlrDeb_47
 0001:00045198       aTextHdlrWar_36
 0001:000451E8       a_texthdlr_s_19
 0001:00045218       aTextHdlrDeb_48
 0001:0004526C       aTextHdlrWar_37
 0001:000452BC       a_texthdlr_s_20
 0001:000452EC       aTextHdlrDeb_49
 0001:00045340       aTextHdlrWar_38
 0001:00045390       a_texthdlr_s_21
 0001:000453C4       aTextHdlrDeb_50
 0001:00045420       aTextHdlrWar_39
 0001:00045478       a_texthdlr_s_22
 0001:000454AC       aTextHdlrDeb_51
 0001:00045508       aTextHdlrWar_40
 0001:00045560       a_texthdlr_s_23
 0001:00045598       aTextHdlrDeb_52
 0001:000455F8       aTextHdlrWar_41
 0001:00045654       a_texthdlr_s_24
 0001:00045688       aTextHdlrDeb_53
 0001:000456DC       aTextHdlrWar_42
 0001:00045734       a_texthdlr_s_25
 0001:00045760       aTextHdlrDeb_54
 0001:000457B0       aTextHdlrWar_43
 0001:00045804       a_texthdlr_s_26
 0001:00045830       aTextHdlrDeb_55
 0001:00045880       aTextHdlrWar_44
 0001:000458CC       a_texthdlr_s_27
 0001:000458E0       aTextHdlrDeb_56
 0001:0004590C       aTextHdlrWar_45
 0001:00045940       aTextHdlrWar_46
 0001:00045984       aTextHdlrWar_47
 0001:000459B8       a_jpg_4
 0001:000459C0       a_texthdlr_s_28
 0001:000459D4       a_texthdlr_s_29
 0001:000459E8       aTextHdlrWar_48
 0001:00045A20       aTextHdlrWar_49
 0001:00045A64       aTextHdlrWar_50
 0001:00045A9C       a_texthdlr_s_30
 0001:00045AB0       aTextHdlrWar_51
 0001:00045AF8       a_texthdlr_s_32
 0001:00045B18       aTextHdlrWar_88
 0001:00045B48       aTexthdlr_load_
 0001:00045BE8       aTextHdlrErr_32
 0001:00045C1C       aTexthdlr_save_
 0001:00045CBC       a_texthdlr_l_31
 0001:00045CD4       aTextHdlrWar_52
 0001:00045D1C       a_texthdlr_s_31
 0001:00045D34       aTextHdlrWar_53
 0001:00045D80       a_texthdlr_fill
 0001:00045DA0       aTextHdlrWar_54
 0001:00045DEC       aTextHdlrWar_55
 0001:00045E3C       aTextHdlrWar_56
 0001:00045E88       aTextHdlrWar_57
 0001:00045EDC       aTextHdlrWar_58
 0001:00045F2C       aTextHdlrWar_59
 0001:00045F7C       aTextHdlrWar_60
 0001:00045FD0       aTextHdlrWar_61
 0001:00046024       aTextHdlrWar_62
 0001:0004606C       aTextHdlrWar_63
 0001:000460BC       aTextHdlrWar_64
 0001:00046110       aTextHdlrWar_65
 0001:00046164       aTextHdlrWar_66
 0001:000461B8       aTextHdlrWar_67
 0001:0004620C       aTextHdlrWar_68
 0001:00046260       aTextHdlrWar_69
 0001:000462B4       aTextHdlrWar_70
 0001:0004630C       aTextHdlrWar_71
 0001:00046364       aTextHdlrWar_72
 0001:000463BC       aTextHdlrWar_73
 0001:00046414       aTextHdlrWar_74
 0001:00046470       aTextHdlrWar_75
 0001:000464CC       aTextHdlrWar_76
 0001:0004652C       aTextHdlrWar_77
 0001:00046588       aTextHdlrWar_78
 0001:000465E4       aTextHdlrWar_79
 0001:00046638       aTextHdlrWar_80
 0001:0004668C       aTexthdlr_sav_0
 0001:000466A0       aTextHdlrWar_81
 0001:000466E8       aTextHdlrWar_82
 0001:00046724       aTextHdlrWar_83
 0001:0004676C       aInternal
 0001:00046778       aTextHdlrWar_84
 0001:000467A8       aTextHdlrWar_85
 0001:000467D4       aImg_mode_vid_0
 0001:000467F4       aImg_mode_still
 0001:00046814       aImg_mode_low_0
 0001:00046834       aImg_mode_mid_0
 0001:00046854       aImg_mode_hig_2
 0001:00046874       aImg_mode_night
 0001:00046894       aImg_mode_pre_1
 0001:000468B4       aImg_mode_hig_1
 0001:000468D4       _str_tuning_mode_ext
 0001:000468F4       aMulti_shot_hdr
 0001:00046914       aMulti_shot_mf_
 0001:00046934       aMulti_shot_ma_
 0001:00046954       a_usbhdlr_looku
 0001:00046970       aUsbHdlrWarning
 0001:000469A4       a_usbhdlr_loo_0
 0001:000469C4       aUsbHdlrWarni_0
 0001:00046A08       a_read_line
 0001:00046A14       aUsbHdlrWarni_1
 0001:00046A50       a_usbhdlr_load_
 0001:00046A64       aUsbHdlrWarni_2
 0001:00046AAC       aUsbHdlrWarni_3
 0001:00046AEC       aUsbHdlrErrorSD
 0001:00046B18       aUsbhdlr_save_i
 0001:00046B2C       aUsbHdlrWarni_7
 0001:00046B74       a_usbhdlr_loa_0
 0001:00046B88       aUsbHdlrWarni_4
 0001:00046BC8       a_usbhldr_load_
 0001:00046BE0       aUsbHdlrDebugSD
 0001:00046C10       aUsbHdlrError_0
 0001:00046C40       aUsbHdlrDebug_0
 0001:00046C8C       aUsbHdlrError_1
 0001:00046CC4       aUsbHdlrDebug_1
 0001:00046D04       a_usbhdlr_loa_1
 0001:00046D20       aUsbHdlrDebug_2
 0001:00046D4C       aUsbHdlrError_2
 0001:00046D94       aUsbHdlrError_3
 0001:00046DC8       aUsbHdlrDebug_3
 0001:00046E04       a_usbhdlr_loa_2
 0001:00046E1C       aUsbHdlrDebug_4
 0001:00046E44       aUsbHdlrError_4
 0001:00046E8C       aUsbHdlrError_5
 0001:00046EC0       aUsbHdlrDebug_5
 0001:00046EF8       a_usbhdlr_loa_3
 0001:00046F10       aUsbHdlrDebug_6
 0001:00046F38       aUsbHdlrError_6
 0001:00046F80       aUsbHdlrError_7
 0001:00046FB4       aUsbHdlrDebug_7
 0001:00046FF0       a_usbhdlr_loa_4
 0001:00047008       aUsbHdlrError_8
 0001:0004704C       aUsbHdlrError_9
 0001:00047080       a_usbhdlr_loa_5
 0001:00047098       aUsbHdlrErro_10
 0001:000470DC       a_usbhdlr_loa_6
 0001:00047108       aUsbHdlrErro_11
 0001:00047168       a_usbhdlr_loa_7
 0001:00047194       aUsbHdlrErro_12
 0001:000471F4       a_usbhdlr_loa_8
 0001:00047214       aUsbHdlrErro_13
 0001:00047268       a_usbhdlr_loa_9
 0001:0004728C       aUsbHdlrErro_14
 0001:000472E4       a_usbhdlr_lo_10
 0001:00047310       aUsbHdlrErro_15
 0001:0004736C       a_usbhdlr_lo_11
 0001:00047394       aUsbHdlrErro_16
 0001:000473EC       a_usbhdlr_lo_12
 0001:00047418       aUsbHdlrErro_17
 0001:00047474       a_usbhdlr_lo_13
 0001:000474A0       a_usbhdlr_lo_14
 0001:000474CC       aUsbHdlrErro_18
 0001:00047528       a_usbhdlr_lo_15
 0001:00047554       aUsbHdlrErro_19
 0001:000475B0       a_usbhdlr_lo_16
 0001:000475E0       aUsbHdlrErro_20
 0001:00047644       a_usbhdlr_lo_17
 0001:00047670       aUsbHdlrErro_21
 0001:000476D0       a_usbhdlr_lo_18
 0001:00047700       aUsbHdlrErro_22
 0001:00047764       a_usbhdlr_lo_19
 0001:00047794       aUsbHdlrErro_23
 0001:000477F8       a_usbhdlr_lo_20
 0001:0004782C       aUsbHdlrErro_24
 0001:00047894       a_usbhdlr_lo_21
 0001:000478C8       aUsbHdlrErro_25
 0001:00047930       a_usbhdlr_lo_22
 0001:00047968       aUsbHdlrErro_26
 0001:000479D4       a_usbhdlr_lo_23
 0001:00047A08       aUsbHdlrErro_27
 0001:00047A6C       a_usbhdlr_lo_24
 0001:00047A98       aUsbHdlrErro_28
 0001:00047AF8       a_usbhdlr_lo_25
 0001:00047B20       aUsbHdlrErro_29
 0001:00047B7C       a_usbhdlr_save_
 0001:00047B90       aUsbHdlrWarni_8
 0001:00047BC8       a_usbhdlr_sav_0
 0001:00047BE8       aUsbHdlrWarni_9
 0001:00047C18       aUsbhdlr_load_d
 0001:00047CB8       aUsbHdlrErro_30
 0001:00047CEC       aUsbhdlr_save_d
 0001:00047D8C       aColorcorrectio
 0001:00047DA0       a_usbhdlr_get_s
 0001:00047DB8       aSharpeninga_as
 0001:00047DCC       aUsbHdlrWarni_5
 0001:00047E0C       aUsbHdlrWarni_6
 0001:00047E50       a_usbhdlr_get_0
 0001:00047E64       aSharpeningbGet
 0001:00047E74       aExposurecontro
 0001:00047E88       aBlacklevelcorr
 0001:00047EA4       aTonecurveGet
 0001:00047EB4       aRgbtoyuvmatrixGet
 0001:00047EC8       aWhitebalancegainsGet
 0001:00047EE0       aDgainsaturaionlevelGet
 0001:00047EF8       aLocalexposureGet
 0001:00047F0C       aChromascaleGet
 0001:00047F1C       aFpncorrectionGet
 0001:00047F30       aBadpixelcorrectionGet
 0001:00047F48       aCfaleakagefilterGet
 0001:00047F60       aAntialiasingfi
 0001:00047F78       aCfanoisefilt_0
 0001:00047F8C       aChromamedian_0
 0001:00047FA4       aMctfcontrol
 0001:00047FB0       aColordepende_0
 0001:00047FD0       aChromanoisefil
 0001:00047FE8       aConfigaaacontr
 0001:00048000       aDemosaicGet
 0001:00048010       aMismatchgr_gbG
 0001:00048024       aJpgGet
 0001:0004802C       aDefault
 0001:00048034       a_usbhdlr_set_b
 0001:0004804C       aBin_pkgSend
 0001:0004805C       aColorcorrect_0
 0001:00048074       aFromUsb
 0001:00048080       a_usbhdlr_set_w
 0001:0004809C       aWhitebalancega
 0001:000480B4       aSMw_ip_get_m_0
 0001:000480E4       a_usbhdlr_set_s
 0001:000480FC       aSharpeninga__0
 0001:00048114       a_usbhdlr_set_0
 0001:00048128       aSharpeningbSen
 0001:0004813C       aExposurecont_0
 0001:00048154       aTuning_modeSen
 0001:00048168       aVideoMode
 0001:00048174       aStillMode
 0001:00048180       aFpnTableMemory
 0001:000481A4       aImg_mode_previ
 0001:000481B8       aItuner_fileSen
 0001:000481CC       aBlacklevelco_0
 0001:000481E8       aTonecurveSend
 0001:000481F8       aRgbtoyuvmatrixSend
 0001:0004820C       aDgainsaturaionlevelSend
 0001:00048228       aLocalexposureS
 0001:0004823C       aBadpixelcorrec
 0001:00048254       aCfaleakagefi_0
 0001:0004826C       aAntialiasing_2
 0001:00048284       aCfanoisefilt_1
 0001:00048298       aChromamedian_1
 0001:000482B0       aMctfcontrolSen
 0001:000482C4       aColordepende_1
 0001:000482E8       aChromanoisef_0
 0001:00048300       aConfigaaacon_0
 0001:00048318       aDemosaicSend
 0001:00048328       aMismatchgr_gbSend
 0001:0004833C       aFpnSend
 0001:00048348       aFpnMapAddr0x_8
 0001:00048360       aVignetteSend
 0001:00048370       aWarpSend
 0001:0004837C       aChromaAberrati
 0001:00048394       aRawDataSend
 0001:000483A4       aReceiveAmageco
 0001:000483C0       aP10xXP20xXP30x
 0001:00048414       aLengthD_1
 0001:00048420       aImg_mode_video
 0001:00048440       aImg_mode_sti_0
 0001:00048460       aImg_mode_low_i
 0001:00048480       aImg_mode_mid_1
 0001:000484A0       aImg_mode_hig_0
 0001:000484C0       aImg_mode_nig_0
 0001:000484E0       aImg_mode_pre_2
 0001:00048500       aImg_mode_high_
 0001:00048520       aSingle_shot
 0001:00048540       aMulti_shot_h_0
 0001:00048560       aMulti_shot_m_0
 0001:00048580       aMulti_shot_m_1
 0001:000485A0       aVbusPostConnec
 0001:000485B4       aVbusPreDisConn
 0001:000485CC       aDevicesystemst
 0001:000485E0       aDevicesystemre
 0001:000485F4       aDeviceSystemCo
 0001:0004861C       aUsbDeviceSuspe
 0001:00048634       aUsbDeviceResum
 0001:00048648       aUsbDeviceReset
 0001:0004865C       aNone
 0001:00048664       aPict
 0001:0004866C       aRs232SingleIns
 0001:00048684       aRs232MultipleI
 0001:000486A0       aCustom
 0001:000486A8       aStream
 0001:000486B0       aSimple
 0001:000486B8       aMixStorage
 0001:000486C4       aUnknown
 0001:000486CC       aUsb_deviceclas
 0001:000486E4       aUsbClassDS_
 0001:000486FC       aSUWaitTheSdUnm
 0001:00048724       aSVbusConnect_
 0001:00048738       aSSleepDMiliSec
 0001:00048758       aSSetDeviceData
 0001:0004877C       aSVbusDisconnec
 0001:00048794       aSDriverContext
 0001:000487C4       aAmbausb_devi_0
 0001:000487E8       aSFreeMemoryFor
 0001:00048804       aErrorSCanTFr_0
 0001:00048834       aErrorSCanTAl_0
 0001:00048874       aAmbausb_devi_1
 0001:00048890       aErrorSCanTFr_1
 0001:000488BC       aAmbausb_classi
 0001:000488D0       aSCreatDjiusbde
 0001:00048900       aAmbausb_device
 0001:00048918       aCreatClassStar
 0001:0004893C       aErrorHeadDShou
 0001:00048974       aAppcdcacmd_cre
 0001:0004898C       aErrorSCanNotCr
 0001:000489BC       aAppcdcacmd_tas
 0001:000489CC       aSStart_3
 0001:000489D8       aSBulkSendTimeo
 0001:000489F4       aSEnd_6
 0001:00048A00       aAppcdcacmd_rcvtask
 0001:00048A14       aSBulkRecvTimeout_0xX
 0001:00048A34       aAppcdcacmd_start
 0001:00048A48       aErrorSCanNot_0
 0001:00048A78       aErrorSCanNot_1
 0001:00048AAC       aCreatUsbcdcacm
 0001:00048AD4       aCreatUsbcdca_0
 0001:00048AF8       aCdc_acm_task
 0001:00048B08       aCreatUsbcdca_1
 0001:00048B28       aCdc_acm_rcv_ta
 0001:00048B3C       aCreatUsbcdca_2
 0001:00048B90       aSSwitchToCdc_a
 0001:00048BB0       aSNoUartInputNo
 0001:00048BCC       aAppcdcacmd_sto
 0001:00048BDC       aSSwitchBackToU
 0001:00048BFC       aAppcdcacmmul_1
 0001:00048C14       aSDReachMaxInst
 0001:00048C3C       aMsgDBytesTooLa
 0001:00048C58       aAppcdcacmmulti
 0001:00048C80       aAppcdcacmmul_0
 0001:00048C98       aErrorHeadDSh_0
 0001:00048CD0       aAppcdcacmmul_2
 0001:00048CF0       aAppcdcacmmul_3
 0001:00048D10       aErrorSCanNot_2
 0001:00048D40       aAppcdcacmmul_4
 0001:00048D5C       aAppcdcacmmul_5
 0001:00048D78       aAppcdcacmmul_6
 0001:00048D90       aErrorSCanNot_3
 0001:00048DD0       aErrorSCanNot_4
 0001:00048E10       aErrorSCanNot_5
 0001:00048E50       aErrorSCanNot_6
 0001:00048E8C       aErrorSCanNot_7
 0001:00048EC8       aErrorSCreatTra
 0001:00048F00       aErrorSCreatMut
 0001:00048F30       aCdc_acm_send_t
 0001:00048F48       aErrorSCreatSen
 0001:00048F7C       aCdc_acm_recv_t
 0001:00048F94       aErrorSCreatRec
 0001:00048FF8       aSSwitchToCdc_0
 0001:00049018       aSNoUartInput_0
 0001:00049034       aAppcdcacmmul_7
 0001:0004904C       aSSwitchBackT_0
 0001:0004906C       aAppusbd_custom
 0001:00049090       aSIndexD
 0001:000490A4       aGetReportFromH
 0001:000490BC       aReportidD_0
 0001:000490D0       aLengthD_2
 0001:000490E4       a03d0xX_0
 0001:000490F4       aAmbahidreports
 0001:0004910C       aMixstorage_all
 0001:00049128       aErrorSCanNot_8
 0001:0004915C       aCWiniso_iso
 0001:0004916C       aCanNotOpenS
 0001:0004917C       aFileCopyErrorE
 0001:000491B0       aReadLba0xXWith
 0001:000491D8       aReadMediaError
 0001:000491F8       aWriteLba0xXWit
 0001:00049224       aWriteMediaErro
 0001:00049244       aAmbausb_msc_do
 0001:00049258       aSCanTWaitSdCar
 0001:0004927C       aAppmtpd_parsee
 0001:00049294       aSFileSNotExist
 0001:000492B0       aParseExifErr_1
 0001:000492C4       aPicdispUnsuppo
 0001:000492E4       aParseMovError
 0001:000492F4       aFailedToFormat
 0001:00049308       aAppmtpd_cbob_6
 0001:00049324       aSFormatCode0xX
 0001:00049350       aAppmtpd_cbobje
 0001:00049368       aSObjectSendSta
 0001:0004939C       aSObjectLengthD
 0001:000493B8       aTransferCancel
 0001:000493CC       aAppmtpd_cbob_0
 0001:000493E8       aSOpenS
 0001:000493F8       aSFailedToOpe_0
 0001:00049410       aSFailedToPar_0
 0001:00049430       aSCanTReadOffse
 0001:00049468       aAppmtpd_cbob_1
 0001:00049480       aSHandleDOffset
 0001:000494BC       aSOffsetMismatc
 0001:000494EC       aSCanTSeekToD
 0001:00049504       aSCloseFile
 0001:00049518       aAppmtpd_cbob_2
 0001:00049534       aSObjectInfo
 0001:00049548       aParentobjectha
 0001:00049568       aNameS
 0001:00049578       aFormatcode0xX
 0001:00049590       aLength0xX
 0001:000495A4       aSNotSupported
 0001:000495B8       aParentNameS
 0001:000495CC       aFullNameS
 0001:000495E0       aSCanNotCreateS
 0001:000495F8       aSCanTAddHandle
 0001:00049618       aSAddHandleDFor
 0001:00049634       aAppmtpd_cbob_3
 0001:00049650       aSFileIsNullBut
 0001:00049698       aSCanTAllocat_3
 0001:000496B8       aSCanTOpenS_
 0001:000496D0       aSFileIsNullSom
 0001:000496F8       aSOffsetIsWrong
 0001:00049728       aSCanTWriteFile
 0001:00049750       aMtp_amagedatag
 0001:00049764       aSDCallAmbatu_5
 0001:00049788       aMtp_amagedatas
 0001:0004979C       aAppmtpd_vendor
 0001:000497C0       aSActualLenD
 0001:000497D8       aSIncompleteTra
 0001:00049804       aAppmtpd_vend_0
 0001:00049828       aAppmtpd_cbvend
 0001:00049840       aSOpcode0xXPara
 0001:00049868       aP10xXP20xXP3_0
 0001:00049894       aSTransferResul
 0001:000498B4       aAppmtpd_reallo
 0001:000498D0       aSCanTAllocateB
 0001:00049900       aSBufferIsNullS
 0001:00049928       aAppmtpd_allocd
 0001:00049940       aSAlreadyHaving
 0001:00049978       aAppmtpd_initsy
 0001:0004998C       aSCanTCreateBuf
 0001:000499C0       aMtpObjectScanT
 0001:000499DC       aTotalObjectsD
 0001:000499F0       aAmbausb_mtp_in
 0001:00049A04       aSCanTWaitSdC_0
 0001:00049A28       aAmbarella
 0001:00049A3C       a20140603t15010
 0001:00049A5C       aA9MtpDevice
 0001:00049A78       aUnknown_6
 0001:00049A88       aDatetimeDefaul
 0001:00049A9C       aDatetimeCurren
 0001:00049AB0       aAppmtpd_cbdevi
 0001:00049AD0       aSValueLengthD2
 0001:00049AFC       aSValueLength_0
 0001:00049B2C       aSValueLength_1
 0001:00049B60       aSValueLengthDD
 0001:00049BA0       aSValueLengthD4
 0001:00049BD8       aFillpropdesc_s
 0001:00049BF4       aSCanTAlloca_12
 0001:00049C14       aFillpropdesc_l
 0001:00049C2C       aFillpropdesc_p
 0001:00049C4C       aSPosDLengthD_
 0001:00049C6C       aFillpropdesc_o
 0001:00049C84       aFillpropdesc_0
 0001:00049CA0       aFillpropdesc_1
 0001:00049CD0       aFillpropdesc_n
 0001:00049CEC       aFillpropdesc_u
 0001:00049D04       aFillpropdesc_2
 0001:00049D1C       aFillpropdesc_3
 0001:00049D3C       aFillpropdesc_a
 0001:00049D58       aFillpropdesc_4
 0001:00049D74       aFillpropdesc_5
 0001:00049D90       aFillpropdesc_w
 0001:00049DA4       aFillpropdesc_h
 0001:00049DB8       aFillpropdesc_6
 0001:00049DD0       aFillpropdesc_f
 0001:00049DEC       aFillpropdesc_v
 0001:00049E08       aFillpropdesc_7
 0001:00049E30       aFillpropdesc_k
 0001:00049E50       aFillpropdesc_8
 0001:00049E64       aSPosDLengthDFo
 0001:00049E94       aAppmtpd_cbob_4
 0001:00049EB0       aSObjectFormat0
 0001:00049EDC       aSProperty0xXWi
 0001:00049F14       aAppmtpd_cbob_5
 0001:00049F34       aSCanTGetDataBu
 0001:00049F54       aAppmtpd_checkg
 0001:00049F6C       aSDonTKnowHowTo
 0001:00049F9C       aAppmtpd_fillpr
 0001:00049FC0       aSCanTGetMemory
 0001:00049FD8       aAppmtpd_fill_0
 0001:00049FF0       aSPropertyListI
 0001:0004A024       aSCanTGetFilena
 0001:0004A050       a20140813t10143
 0001:0004A060       aSUnsupportedOb
 0001:0004A090       aAppmtpd_fill_1
 0001:0004A0B8       aSCanTFillPropl
 0001:0004A0E0       aSLengthDD_
 0001:0004A0F8       aAppmtpd_cbob_7
 0001:0004A114       aSInvalidHandle
 0001:0004A130       aSCanTAlloca_13
 0001:0004A154       aSNotSupportedD
 0001:0004A174       aMtppreparsethr
 0001:0004A18C       aSCanTAllocat_4
 0001:0004A1A8       aPreParseIndexD
 0001:0004A1C0       aPreParseFinish
 0001:0004A1D4       aItTakesDMs
 0001:0004A1E4       aAppmtpd_prepar
 0001:0004A204       aSFailToDelet_0
 0001:0004A230       aSFailToDeleteE
 0001:0004A260       aAppmtpd_prep_0
 0001:0004A280       aSFailToCreateP
 0001:0004A2AC       aSFailToClearPr
 0001:0004A2D8       aMtppreparset_0
 0001:0004A2EC       aSFailToCrea_11
 0001:0004A31C       aAppmtpd_prep_1
 0001:0004A348       aPreparseBuffer
 0001:0004A378       aSCanTAllocat_5
 0001:0004A3BC       aAppmtpd_dbgeta
 0001:0004A3E0       aSHandleDD_
 0001:0004A3F8       aAppmtpd_dbdoub
 0001:0004A434       aSCanTAllocat_6
 0001:0004A474       aSCanTAllocat_7
 0001:0004A4B4       aSDoubleDbCapac
 0001:0004A4DC       aAppmtpd_dbaddh
 0001:0004A4F0       aDDSSS
 0001:0004A500       aSCanTCacheInde
 0001:0004A53C       aAppmtpd_dbinse
 0001:0004A574       aSCanTFindAnEmp
 0001:0004A598       aSCanTSeekToLlu
 0001:0004A5C8       aSCanTAllocat_8
 0001:0004A5E8       aDDSS
 0001:0004A5F8       aSCanTOpenDbFil
 0001:0004A628       aSCanTCacheIn_0
 0001:0004A658       aMtpimplAddSFor
 0001:0004A678       aAppmtpd_dbisob
 0001:0004A698       aSHandleDMaxD
 0001:0004A6B4       aSHandleDIsNotU
 0001:0004A6D0       aAppmtpd_dbgetf
 0001:0004A6F0       aSCanTAllocat_9
 0001:0004A710       aAppmtpd_dbge_0
 0001:0004A730       aSCanTReadFileP
 0001:0004A764       aAppmtpd_dbgetp
 0001:0004A780       aSHandleD_
 0001:0004A794       aAppmtpd_dbgetn
 0001:0004A7B4       aSNotImpl_
 0001:0004A7C4       aAppmtpd_dbfill
 0001:0004A7E0       aSDbDoesnTMatch
 0001:0004A804       aAppmtpd_dbscan
 0001:0004A81C       aSCanTAlloca_10
 0001:0004A84C       aS_15
 0001:0004A854       aSReachMaxFiles
 0001:0004A870       aSS_8
 0001:0004A878       aSScanDepthReac
 0001:0004A898       aAppmtpd_dbsc_0
 0001:0004A8AC       aSCanTCreateS_
 0001:0004A8C4       aSCanTAlloca_11
 0001:0004A8F4       aIdParentNamePa
 0001:0004A908       aAppmtpd_dbdele
 0001:0004A920       aSCanTRemoveFol
 0001:0004A954       aSCanTRemoveFil
 0001:0004A988       aSPathSHandle0x
 0001:0004A9B0       aOpenS
 0001:0004A9B8       aFailedToOpenS
 0001:0004A9CC       aCloseFile
 0001:0004A9D8       aCloseFileFail
 0001:0004A9E8       aAmbausb_clas_0
 0001:0004AA20       aSimple_vendorr
 0001:0004AA38       aSRequest_in0xX
 0001:0004AAA0       aSRequest_out0x
 0001:0004AB08       aData0xX0xX
 0001:0004AB1C       aSDonTSupport_0
 0001:0004AB4C       aCreatTx_flagFa
 0001:0004AB68       aCreatRx_flagFa
 0001:0004AB84       aCreatUsbstream
 0001:0004ABA8       aDjiusbclassini
 0001:0004ABB8       aSSettingValueD
 0001:0004ABF0       aVersionD_D_DS
 0001:0004AC0C       aAmbadsp_totalu
 0001:0004AC44       aAmbdsp_usercam
 0001:0004AC78       aDjiFirmwareVer
 0001:0004AC94       aV01_30_5036
 0001:0004ACA0       aBeforeHardware
 0001:0004ACC4       aAfterHardwareS
 0001:0004ACE4       aAmbaNftlInitLo
 0001:0004AD0C       aInitStorageADr
 0001:0004AD28       aADriveIsNotFor
 0001:0004AD4C       aDjiWaitForMode
 0001:0004AD7C       aDjiWaitForMo_0
 0001:0004ADA4       aUnknownAdjPara
 0001:0004ADBC       aScene_data_s01
 0001:0004ADCC       aScene_data_s02
 0001:0004ADDC       aScene_data_s03
 0001:0004ADEC       aScene_data_s04
 0001:0004ADFC       aScene_data_s05
 0001:0004AE0C       aDe_default_sti
 0001:0004AE20       aApp_image_init
 0001:0004AE38       aImg_default
 0001:0004AE44       aAaa_default
 0001:0004AE50       aAdj_table_para
 0001:0004AE68       aAdj_video_defa
 0001:0004AE80       aAdj_photo_defa
 0001:0004AE98       aAdj_still_defa
 0001:0004AEB0       aAdj_hiso_still
 0001:0004AECC       aAdj_still_idx
 0001:0004AEDC       aDe_default_vid
 0001:0004AEF0       aCheckS
 0001:0004AF54       aBlcCalibration
 0001:0004AF80       aBlcShuttertime
 0001:0004AFAC       aStartToDoRaw_1
 0001:0004AFC4       aEndOfRawCapt_1
 0001:0004AFDC       aCBlccal_still_
 0001:0004AFF4       aAmputcalibblc_
 0001:0004B010       aAmpvig_utDum_1
 0001:0004B040       aCBlccal_video_
 0001:0004B058       aOkBlcTestDDDD
 0001:0004B078       aOkBlc
 0001:0004B080       aNgBlcOverThres
 0001:0004B0D4       aNgBlcOverflowO
 0001:0004B100       aCalSiteSVersio
 0001:0004B138       aTest_7
 0001:0004B140       aInit_4
 0001:0004B148       aTCalWbInitRe_0
 0001:0004B164       aBpcIaBpcbuffer
 0001:0004B198       aAmputcalibbpc_
 0001:0004B1B4       aK_assertAtS_21
 0001:0004B1CC       aReadErrorInput
 0001:0004B1F8       aReadErrorBitsP
 0001:0004B220       aReadErrorDataS
 0001:0004B254       aReadErrorDataW
 0001:0004B278       aReadErrorDataH
 0001:0004B29C       aReadBmpFileDon
 0001:0004B2B0       .LANCHOR4
 0001:0004B2B4       aBmpFileSaved
 0001:0004B2C4       aBufindexDXDYDV
 0001:0004B2EC       aPbpcbufBuffera
 0001:0004B308       aNotAllocated
 0001:0004B318       aBadpixel_1
 0001:0004B324       aReserved_0
 0001:0004B33C       aBpcPageInforma
 0001:0004B368       aPageD
 0001:0004B374       aPage_sizeDPage
 0001:0004B39C       aBadpixelRecord
 0001:0004B3BC       aRecord_validDM
 0001:0004B418       aNumberOfBadPix
 0001:0004B434       aBpcBufferInfor
 0001:0004B464       aBufDChannelDBp
 0001:0004B498       aBpcConfigInfor
 0001:0004B4C8       aBufDChannelD_0
 0001:0004B504       aBpcActiveBuffe
 0001:0004B538       aSDChannelDBpcA
 0001:0004B564       aBpcGeometryInf
 0001:0004B594       aSDChannelDBpcB
 0001:0004B65C       aAmputcalibbp_0
 0001:0004B67C       aBpcmodeDChanne
 0001:0004B6A4       aSDBpcpageDFlip
 0001:0004B6CC       aBpcAppBpcChann
 0001:0004B710       aBpcBufferDIsLo
 0001:0004B748       aChannelDBpcmod
 0001:0004B790       aBpcAppBpcHwCon
 0001:0004B7D4       aAmputcalibbp_1
 0001:0004B7EC       aBpcmodeDModeLd
 0001:0004B808       aNoBadPixelData
 0001:0004B83C       aBadPixelDataIs
 0001:0004B858       aGetWarpCompens
 0001:0004B878       aEnableD_6
 0001:0004B884       aVersionX
 0001:0004B894       aBufferAddressX
 0001:0004B8A8       aStartxD_3
 0001:0004B8B4       aStartyD_3
 0001:0004B8C0       aWidthD_6
 0001:0004B8CC       aHeightD_6
 0001:0004B8D8       aHsubsample_fac
 0001:0004B8F4       aHsubsample_f_0
 0001:0004B910       aVsubsample_fac
 0001:0004B92C       aVsubsample_f_0
 0001:0004B948       aBpcModeD
 0001:0004B958       aSensorModeD_1
 0001:0004B974       aBadpixel
 0001:0004B980       aUnsupportPageT
 0001:0004B998       aErrorPageOverl
 0001:0004B9C4       aErrorPageOverf
 0001:0004BA10       aPage_createBpc
 0001:0004BA50       aErrorBadPixelP
 0001:0004BA90       aErrorBadPixelB
 0001:0004BAD4       aErrorBadPixelN
 0001:0004BB0C       aErrorBadPixelT
 0001:0004BB48       aErrorBadPixelA
 0001:0004BB84       aErrorBadPixelS
 0001:0004BBC0       aErrorBadPixe_0
 0001:0004BBE4       aErrorBadPixe_1
 0001:0004BC0C       aBpcAppLoadOldB
 0001:0004BC30       aBpcAppDecompre
 0001:0004BC74       aBpcAppUnpacked
 0001:0004BCD8       aCMode
 0001:0004BCEC       aSensorDidnTRep
 0001:0004BD1C       aWidthDHeightD
 0001:0004BD34       aD_D_raw
 0001:0004BD40       aBadPixelCalibr
 0001:0004BD70       aT_appGetSizeDA
 0001:0004BD94       aRawDataAddr0x8
 0001:0004BDBC       aBpcAppSensorDi
 0001:0004BDFC       aBuf_indexDBufh
 0001:0004BE28       aBpcAppPredictP
 0001:0004BE7C       aAmputcalibbp_3
 0001:0004BEA0       aAmputcalibbp_2
 0001:0004BEC8       aBpcPageIsnTVal
 0001:0004BEE0       aAmputcalibbp_4
 0001:0004BF24       aBpcAppBadpixel
 0001:0004BF50       aBpcAppPackedSD
 0001:0004BFA8       aBpcAppBpcBpcma
 0001:0004BFDC       aItunerrawcapct
 0001:0004C00C       aSensorDidnTR_0
 0001:0004C044       aRawAddressXDet
 0001:0004C070       aStartToDoRawCa
 0001:0004C088       aEndOfRawCaptur
 0001:0004C0A4       aBpcAutoAeDelay
 0001:0004C0C8       aCalaeinfo_Shut
 0001:0004C148       aDisable3a
 0001:0004C154       aBpcCalibration
 0001:0004C1A0       aGetSensorModeI
 0001:0004C1BC       aRawwidthDRawhe
 0001:0004C1E8       aShutterF
 0001:0004C1F8       aAgcGainF
 0001:0004C208       aDgainD
 0001:0004C214       aAmputcalibbp_5
 0001:0004C230       aCMode_D_raw
 0001:0004C240       aAmpvig_utDumpR
 0001:0004C27C       aAmputcalibbp_6
 0001:0004C294       aBpcAppBpcBuffe
 0001:0004C2B4       aBpcAppClearBpc
 0001:0004C2D0       aAddressOfRawBu
 0001:0004C2EC       aBufferSizeD
 0001:0004C300       aAmputcalibbpcA
 0001:0004C328       aAmputcalibbpcR
 0001:0004C354       aPictureD
 0001:0004C360       aNumbadpixelsD
 0001:0004C374       aCS_D_D_raw
 0001:0004C384       aErrorFpnBadPix
 0001:0004C40C       aAmputcalibbp_7
 0001:0004C428       aBpc_calParamCh
 0001:0004C444       aBpc_calParamFl
 0001:0004C460       aBpc_calParamBa
 0001:0004C484       aBpc_calParamBu
 0001:0004C4A4       aBpc_calParamBp
 0001:0004C4C0       aBpc_calParamTy
 0001:0004C4DC       aBpc_calParamNu
 0001:0004C4F4       aBpc_calParamTh
 0001:0004C514       aBpc_calParamAg
 0001:0004C530       aBpc_calParamIn
 0001:0004C558       aBpc_calParamAe
 0001:0004C578       aBpc_calParam_0
 0001:0004C598       aBpc_calParamMa
 0001:0004C5BC       aBpc_calParamBl
 0001:0004C5D8       aBpc_calParam_1
 0001:0004C5F4       aBpc_calParamCl
 0001:0004C614       aBpc_calParamDe
 0001:0004C634       aBpc_calParam_2
 0001:0004C654       aBpc_calParam_3
 0001:0004C678       aErrorDarkBadpi
 0001:0004C6B4       aAmputcalibbp_8
 0001:0004C754       aFpnAppClearFpn
 0001:0004C770       aFpnAppLoadOldB
 0001:0004C794       aFpnAppDecompre
 0001:0004C7D8       aFpnAppUnpacked
 0001:0004C838       aDDScoreD
 0001:0004C84C       aPage_create
 0001:0004C858       aPage_reset
 0001:0004C864       aPage_resetPage
 0001:0004C878       aStatus_reset
 0001:0004C888       aResetBpcCalibr
 0001:0004C8AC       aBadpixel_0
 0001:0004C8B8       aBadpixel_flip
 0001:0004C8C8       aBadpixel_from_
 0001:0004C8DC       aBadPixelCali_0
 0001:0004C8F4       aErrorArgumentN
 0001:0004C914       aErrorNumbadpix
 0001:0004C944       aSDBadpixelNumb
 0001:0004C964       aBadpixel_clust
 0001:0004C97C       aUnCorrectableD
 0001:0004C9AC       aNoUnCorrectabl
 0001:0004C9D8       aStatus_0
 0001:0004C9E0       aBpcCorrectionR
 0001:0004C9F8       aSDD_0
 0001:0004CA04       aReload
 0001:0004CA0C       aReloadBpcBpcma
 0001:0004CA30       aAmputcalibb_11
 0001:0004CA48       aTest_8
 0001:0004CA50       aInit_5
 0001:0004CA58       aMap_update
 0001:0004CA64       aInfo_5
 0001:0004CA74       aShutterFsAgcFd
 0001:0004CAA0       aEnable3a
 0001:0004CAAC       aAe_info
 0001:0004CAB4       aSDIndexD
 0001:0004CAC4       aSet_pixel
 0001:0004CAD0       aSet_region
 0001:0004CADC       aSave_1
 0001:0004CAE4       aCanTCreateTheF
 0001:0004CB00       aWriteDByteDone
 0001:0004CB14       aSavebmp
 0001:0004CB1C       aSizeOfBpcbufD
 0001:0004CB34       aChannelDBpcm_0
 0001:0004CB5C       aRdbmp
 0001:0004CB64       aCanTReadTheFil
 0001:0004CB7C       aSensor_cal
 0001:0004CB88       aCaptureFpnMode
 0001:0004CBA8       aTCalSensor_cal
 0001:0004CBF4       aSensormodeSens
 0001:0004CC1C       aDebug_6
 0001:0004CC24       aSensor_status
 0001:0004CC38       aOutputInfoStartxD
 0001:0004CC50       aOutputInfoStartyD
 0001:0004CC68       aOutputInfoWidthD
 0001:0004CC80       aOutputInfoHeightD
 0001:0004CC98       aInputInfoStartxD
 0001:0004CCB0       aInputInfoStartyD
 0001:0004CCC8       aInputInfoWidthD
 0001:0004CCE0       aInputInfoHeightD
 0001:0004CCF8       aModeD_4
 0001:0004CD04       aFlipD_4
 0001:0004CD10       aHFactornumD
 0001:0004CD24       aHFactordenD
 0001:0004CD38       aVFactornumD
 0001:0004CD4C       aVFactordenD
 0001:0004CD60       aNand_status
 0001:0004CD6C       aTestFunctionFo
 0001:0004CDAC       aOffsetDSectorn
 0001:0004CDC8       aSensor_flip
 0001:0004CDD8       aChannelDModeDFlipD
 0001:0004CDFC       aTCalBpcSensor_
 0001:0004CE38       aAe_target
 0001:0004CE44       aEnable_5
 0001:0004CE4C       aTCalBpcInitReI
 0001:0004CE80       aTCalBpcReloadT
 0001:0004CEB0       aTCalBpcInfoPri
 0001:0004CED8       aTCalBpcDebug01
 0001:0004CF18       aTCalBpcSetChan
 0001:0004CF68       aTCalBpcSet_pix
 0001:0004CFD4       aTCalBpcSet_reg
 0001:0004D034       aTCalBpcRdChann
 0001:0004D080       aTCalBpcRdbmpCh
 0001:0004D0D4       aTCalBpcSaveCha
 0001:0004D120       aTCalBpcMeShutt
 0001:0004D160       aTCalBpcSavebmp
 0001:0004D1B4       aTCalBpcPredict
 0001:0004D1FC       aTCalBpcSenso_0
 0001:0004D250       aTCalBpcDumpBuf
 0001:0004D2C8       aTCalBpcSenso_1
 0001:0004D2FC       aTCalBpcEnable0
 0001:0004D314       aBpcmodeDReadou
 0001:0004D380       aDjibpcbmpdatag
 0001:0004D394       aSUInputParamet
 0001:0004D3B8       aSUInvalidStart
 0001:0004D3D4       aSUBpcmodeUChan
 0001:0004D3F4       aSUInvalidBadPi
 0001:0004D43C       aSUBpcinfoUUUAn
 0001:0004D4AC       aSUTotalBaxPixe
 0001:0004D4D0       aDjibpcmodeinfo
 0001:0004D4E4       aSUInputParam_0
 0001:0004D508       aSUUUUU
 0001:0004D524       aSensormodeDPho
 0001:0004D548       aBpcmodeD
 0001:0004D554       aXDYDCountDOffs
 0001:0004D590       aCurbpcbmpdump
 0001:0004D5A0       aSDjibpcmodeinf
 0001:0004D5C0       aSUUUUUBmppadde
 0001:0004D5FC       aAmputcalibbp_9
 0001:0004D630       aSUBase0x08x
 0001:0004D644       aSDjibpcbmpdata
 0001:0004D664       aBpcnumU
 0001:0004D670       aSAmbafs_fopenF
 0001:0004D68C       aTestbpcdata
 0001:0004D6A8       aGetBpcNumberFa
 0001:0004D6C0       aSTmpbpcnumU
 0001:0004D6D4       aSAllocateBadPi
 0001:0004D700       aTestbpcdataBmp
 0001:0004D74C       aBpcCountDData0
 0001:0004D78C       aAmputcalibca_s
 0001:0004D7EC       aHorizonalGri_0
 0001:0004D80C       aVerticalGrid_1
 0001:0004D82C       aBlendratioSh_0
 0001:0004D864       aStrengthShou_0
 0001:0004D898       aVersion0xX_2
 0001:0004D8A8       aHorizontalGr_0
 0001:0004D8C4       aVerticalGrid_2
 0001:0004D8E0       aTileWidthD_0
 0001:0004D8F0       aTileHeightD_0
 0001:0004D900       aImageWidthD_0
 0001:0004D910       aImageHeightD_0
 0001:0004D924       aStartxD_10
 0001:0004D930       aStartyD_11
 0001:0004D93C       aHsubsampleFa_1
 0001:0004D958       aHsubsampleFa_2
 0001:0004D974       aVsubsampleFa_1
 0001:0004D990       aVsubsampleFa_2
 0001:0004D9AC       aRedscalefact_0
 0001:0004D9C0       aBluescalefac_0
 0001:0004D9D4       aCaTableAddress
 0001:0004D9EC       aAmputcalibca_g
 0001:0004DA08       aCCalib13_bin_0
 0001:0004DA28       aCCa_table_h
 0001:0004DA48       aCCa_rawencode_
 0001:0004DA70       aStart_xDStar_0
 0001:0004DA8C       aAllocateFail_0
 0001:0004DAA4       aAmputcalibcaEx
 0001:0004DAD0       aAmputcalibcaRe
 0001:0004DAFC       aAmputcalibcaBl
 0001:0004DB2C       aTCalGen_caGene
 0001:0004DBBC       aIncorrectArgum
 0001:0004DBD8       aRawEncodeTex_0
 0001:0004DC5C       aIncorrectParam
 0001:0004DC70       aIncorrectPar_0
 0001:0004DC88       aAmbafs_fopen_3
 0001:0004DCA0       aMethod
 0001:0004DCA8       aCompensate_r_7
 0001:0004DCBC       aCompensate_r_8
 0001:0004DCE4       aR_ratio_0
 0001:0004DCEC       aR_ratioMustBeB
 0001:0004DD0C       aRedline
 0001:0004DD14       aBlueline
 0001:0004DD20       aOff_sensor_c_0
 0001:0004DD38       aErrorCenter_xO
 0001:0004DD84       aErrorCenter_yO
 0001:0004DDD0       aOff_sensor_r_0
 0001:0004DDE8       aSensor_1
 0001:0004DDF0       aErrorCenterx_0
 0001:0004DE40       aErrorCentery_0
 0001:0004DE90       aExpect_0
 0001:0004DE98       aZoom_step_0
 0001:0004DEA4       aDistance
 0001:0004DEB0       aAperture
 0001:0004DEBC       aAmbafs_fclos_0
 0001:0004DED4       aSensorParamete
 0001:0004DF00       aMethodParamete
 0001:0004DF2C       aCompensatera_0
 0001:0004DF60       aR_ratioParam_0
 0001:0004DF8C       aExpectParamete
 0001:0004DFB8       aRedline_flagPa
 0001:0004DFE8       aBluelineParame
 0001:0004E014       aAmputcalibcaCa
 0001:0004E04C       aAmputcalibcaWp
 0001:0004E074       aAmputcalibca_0
 0001:0004E0A0       aRedLineIndexNu
 0001:0004E0DC       aRedLineIndex_0
 0001:0004E11C       aIllegalParamsO
 0001:0004E144       aSelectMethodDF
 0001:0004E18C       aNotFoundInterv
 0001:0004E1C0       aAutoSelectMeth
 0001:0004E1D8       aWrongValueForM
 0001:0004E1F8       a1Redscalefacto
 0001:0004E220       aAmbafs_fopenST
 0001:0004E240       aAmbafs_fwrit_0
 0001:0004E254       aAmbafs_fclos_1
 0001:0004E26C       aAmbafs_fopenSC
 0001:0004E28C       aDefineGrid_w
 0001:0004E2A0       a5d_3
 0001:0004E2A8       aDefineGrid_h
 0001:0004E2BC       aInt32Calibcaheaderspec64
 0001:0004E2DC       a0xX_1
 0001:0004E2E4       a5d_4
 0001:0004E2EC       aInt16Calib_ca_table_specHorizon
 0001:0004E330       aInt16Calib_ca_table_specVertica
 0001:0004E374       aAmbafs_fcloseFail_3
 0001:0004E38C       aAmbafs_fclos_2
 0001:0004E3A0       aGenCaSucceed_
 0001:0004E3B0       aTest_3
 0001:0004E3B8       aReset_1
 0001:0004E3C0       aInit_2
 0001:0004E3C8       aCa_spec
 0001:0004E3D0       aSelect_1
 0001:0004E3D8       aDebug_4
 0001:0004E3E0       aTCalCaInitReIn
 0001:0004E3FC       aTCalCaCa_spec0
 0001:0004E420       aTCalCaSelectEn
 0001:0004E46C       aTCalCaDebugEna
 0001:0004E4A8       aCalmgrCliSS
 0001:0004E4BC       aOk
 0001:0004E4C4       aNg
 0001:0004E4CC       a_calib_reset
 0001:0004E4DC       aPartial
 0001:0004E4E4       aResetCalibDNan
 0001:0004E508       aResetCalibDN_0
 0001:0004E528       aResetCalibDN_1
 0001:0004E544       a_calib_init
 0001:0004E550       aReInitCalibD
 0001:0004E564       a_ae_target
 0001:0004E570       aDelayTimeDSeco
 0001:0004E5B0       aSetAeTargetToD
 0001:0004E5C4       a_calib_save
 0001:0004E5D0       aSaveCalibDToNa
 0001:0004E5E8       a_nand_init
 0001:0004E5F4       a_nand_save
 0001:0004E600       a_nand_to_sd
 0001:0004E60C       aLoadCalibDFrom
 0001:0004E624       a_sd_to_nand
 0001:0004E630       a_calib_load
 0001:0004E63C       a_project_name
 0001:0004E64C       aCalib_project_
 0001:0004E67C       aA9_ssp
 0001:0004E684       aProject_nameS
 0001:0004E694       aErrorTheProjec
 0001:0004E6BC       a_rom_load
 0001:0004E6C8       a_rom_load_head
 0001:0004E6D8       a_switch_to_pho
 0001:0004E6EC       a_nand_load
 0001:0004E6F8       a_nand_load_hea
 0001:0004E708       a_sd_save
 0001:0004E714       a_simple_init
 0001:0004E724       a_simple_load
 0001:0004E734       aNand
 0001:0004E73C       a_check_size
 0001:0004E748       aCheckStructSiz
 0001:0004E760       a_print_status
 0001:0004E770       aCalidD
 0001:0004E77C       aStatus0x04xVer
 0001:0004E7A0       aSubSiteStatus
 0001:0004E7B4       aOperationD0x04
 0001:0004E7D0       aReservedS
 0001:0004E7E0       aSiteDSStatusSV
 0001:0004E824       a_ErrD
 0001:0004E830       aReturn1RvalDRv
 0001:0004E860       aReturn2RvalDRv
 0001:0004E890       aAmput_calibpat
 0001:0004E8A4       aFileOpenErrorS
 0001:0004E8B8       a_log
 0001:0004E8C0       aAmput_calibp_0
 0001:0004E8DC       aAmput_calibget
 0001:0004E8F8       aK_assertAtS_19
 0001:0004E90C       aAmput_calibmem
 0001:0004E920       aD_bin
 0001:0004E928       aAmput_calibres
 0001:0004E940       aAmput_calibnan
 0001:0004E960       aOnlyBpcAndVncL
 0001:0004E988       aAmput_calibn_0
 0001:0004E9A4       aOnlyBpcAndVn_0
 0001:0004E9CC       aChecksumFailX_
 0001:0004E9E0       aAmput_calibn_1
 0001:0004E9F4       aVigPageDChecks
 0001:0004EA14       aBpcPageDChecks
 0001:0004EA34       aCalidDChecksum
 0001:0004EA60       aRepeatToReadCa
 0001:0004EA88       aResetCal_statu
 0001:0004EA9C       aAmput_calibsdc
 0001:0004EAB4       aCCalib
 0001:0004EAC4       aCalibD_bin
 0001:0004EAD0       aAmput_calibn_2
 0001:0004EAE4       aAmput_calibs_0
 0001:0004EAFC       aCCalib_0
 0001:0004EB0C       aAmput_calibini
 0001:0004EB28       aAmput_calibi_0
 0001:0004EB40       aAmput_calibi_1
 0001:0004EB64       aInLiveview_cmd
 0001:0004EB7C       aOutLiveview_cm
 0001:0004EB94       aRawCaptureTime
 0001:0004EBAC       aBpcStructureCh
 0001:0004EBC4       aVncStructureCh
 0001:0004EBDC       aWarningCalibra
 0001:0004EC10       aWarningCalib_0
 0001:0004EC44       aNotValidRotati
 0001:0004EC60       aVigaddrD
 0001:0004EC70       aViginfoIDVigne
 0001:0004EC98       aTheVignetteGai
 0001:0004ECE0       aErrorVignetteS
 0001:0004ED00       aErrorVignett_0
 0001:0004ED30       aErrorVignettes
 0001:0004ED5C       aErrorVignetteC
 0001:0004EDA4       aErrorVignette_
 0001:0004EDE8       aActivevigstora
 0001:0004EE10       aVignetteMwErro
 0001:0004EE50       aVncVignetteBuf
 0001:0004EE94       aGetWarpCompe_0
 0001:0004EEB4       aEnableDChannel
 0001:0004EF18       aVignetteinfoCh
 0001:0004EF38       aVignetteinfo_0
 0001:0004EF60       aVignetteinfo_1
 0001:0004EF88       aTablewidthD
 0001:0004EF98       aTableheightD
 0001:0004EFAC       aCalibrationWid
 0001:0004EFC4       aCalibrationHei
 0001:0004EFDC       aCalibrationSta
 0001:0004EFF4       aCalibrationS_0
 0001:0004F00C       aCurrentWidthD
 0001:0004F020       aCurrentHeightD
 0001:0004F034       aCurrentStartxD
 0001:0004F048       aCurrentStartyD
 0001:0004F05C       aHsubsample_f_1
 0001:0004F078       aHsubsample_f_2
 0001:0004F094       aVsubsample_f_1
 0001:0004F0B0       aVsubsample_f_2
 0001:0004F0CC       a_txt_0
 0001:0004F0D4       aCVigcal_gain_r
 0001:0004F0E8       aCVigcal_gain_g
 0001:0004F0FC       aCVigcal_gain_0
 0001:0004F110       aCVigcal_gain_b
 0001:0004F124       aCVigcal_info
 0001:0004F138       aVignetteGeomet
 0001:0004F158       aVignetteGeom_0
 0001:0004F178       aVignetteGeom_1
 0001:0004F198       aVignetteGeom_2
 0001:0004F1B8       aVignetteGainSh
 0001:0004F1D4       aVignetteIkRetu
 0001:0004F1F4       aAmputcalibvig_
 0001:0004F234       aLoad_raw
 0001:0004F240       aVignetteCalibr
 0001:0004F2B8       aVignetteCali_0
 0001:0004F2F8       aVignetteCali_1
 0001:0004F348       aVignetteCali_2
 0001:0004F38C       aVignetteCali_3
 0001:0004F3E0       aVignetteCali_4
 0001:0004F42C       aVignetteCali_5
 0001:0004F484       aVignetteCali_6
 0001:0004F4D8       aVig_calParamCa
 0001:0004F4FC       aVig_calParamCh
 0001:0004F518       aVig_calParamDa
 0001:0004F53C       aVig_calParam_0
 0001:0004F560       aVig_calParamSa
 0001:0004F584       aVig_calParam_1
 0001:0004F5A8       aVig_calParamLo
 0001:0004F5C8       aVig_calParamTh
 0001:0004F5E8       aVig_calParamCo
 0001:0004F60C       aVig_calParamAe
 0001:0004F62C       aVig_calParamFl
 0001:0004F64C       aVig_calParamMa
 0001:0004F66C       aVig_calParamIn
 0001:0004F694       aVig_calParam_2
 0001:0004F6B8       aVig_calParam_3
 0001:0004F6E0       aVig_calParam_4
 0001:0004F708       aVig_calParamNu
 0001:0004F728       aVig_calParamOz
 0001:0004F754       aVignetteAutoAe
 0001:0004F77C       a1calaeinfo_Shu
 0001:0004F800       a2calaeinfo_Shu
 0001:0004F880       a3calaeinfo_Shu
 0001:0004F900       a4calaeinfo_Shu
 0001:0004F980       aBlackLevelDDDD
 0001:0004F99C       aDisable3a_0
 0001:0004F9A8       aVignetteCali_7
 0001:0004F9F0       aCVigcal_raw
 0001:0004FA00       aWb_0
 0001:0004FA04       aAmputcalibvi_0
 0001:0004FA20       aAmpvig_utDum_0
 0001:0004FA54       aStartToDoRaw_0
 0001:0004FA6C       aRawCaptureFail
 0001:0004FA80       aEndOfRawCapt_0
 0001:0004FA94       aDarkCornerSize
 0001:0004FAB4       aCVig00_bin
 0001:0004FAC8       aAmbafs_fopenSV
 0001:0004FAF0       aCVig_raw
 0001:0004FB0C       aAmputcalibvigA
 0001:0004FB3C       aAmputcalibvigR
 0001:0004FB68       aDoingVignetteC
 0001:0004FB94       aVignetteCali_8
 0001:0004FBC0       aRawDataAddr0_0
 0001:0004FBE8       aAmputcalibvi_1
 0001:0004FC64       aAmputcalibvi_2
 0001:0004FC94       aAmputcalibvigV
 0001:0004FCC4       aVignetteCali_9
 0001:0004FCF4       aVersionX_0
 0001:0004FD04       aAddressOfRaw_0
 0001:0004FD20       aBeforeAmpcalib
 0001:0004FD40       aAmputcalibvi_3
 0001:0004FD68       aAfterAmpcalib_
 0001:0004FD88       aVignetteCal_10
 0001:0004FDC0       aTest_0
 0001:0004FDC8       aInit
 0001:0004FDD0       aSelect
 0001:0004FDD8       aDebug_1
 0001:0004FDE0       aTCalVncInitReI
 0001:0004FE04       aTCalVncSelectE
 0001:0004FE6C       aTCalVncDebugEn
 0001:0004FEA8       aGetWarpCompe_2
 0001:0004FEC8       aAmputcalibwarp
 0001:0004FF2C       aHorizonalGridN
 0001:0004FF4C       aVerticalGridNu
 0001:0004FF6C       aBlendratioShou
 0001:0004FFA4       aStrengthShould
 0001:0004FFD8       aToDisableWarpC
 0001:00050000       aVersion0xX_1
 0001:00050010       aHorizontalGrid
 0001:0005002C       aVerticalGrid_0
 0001:00050048       aTileWidthD
 0001:00050058       aTileHeightD
 0001:00050068       aImageWidthD
 0001:00050078       aImageHeightD
 0001:0005008C       aStartxD_9
 0001:00050098       aStartyD_10
 0001:000500A4       aHsubsampleFact
 0001:000500C0       aHsubsampleFa_0
 0001:000500DC       aVsubsampleFact
 0001:000500F8       aVsubsampleFa_0
 0001:00050114       aWarpTableAddre
 0001:00050130       aAmputcalibwa_0
 0001:00050154       aAppwarpcontrol
 0001:00050170       aAmputcalibwa_1
 0001:00050194       aAmputcalibwa_2
 0001:000501B4       aCWarp_by_spec_
 0001:000501C8       aCCalib6_bin
 0001:000501E8       aCWarprawencode
 0001:00050210       aStart_xDStart_
 0001:0005022C       aBufAllocateFai
 0001:00050248       aAmputcalibwa_3
 0001:00050274       aToolinfo_realA
 0001:0005029C       aToolinfo_expec
 0001:000502C4       aArgcD
 0001:000502D0       aTCalWarpWarp_s
 0001:00050370       aRawEncodeTextF
 0001:000504B0       aAmbafs_fopenSF
 0001:000504C8       aAmbafs_fopen_0
 0001:000504E0       aAmbafs_fcloseS
 0001:000504F8       aFpscriptAmbafs
 0001:00050518       aTilewidth
 0001:00050524       aTileheight
 0001:00050530       aOff_sensor_cal
 0001:00050548       aErrorCenterxOu
 0001:00050598       aErrorCenteryOu
 0001:000505E8       aOff_sensor_raw
 0001:00050600       aSensor_0
 0001:00050608       aCellSizeFHorgr
 0001:00050638       aReal
 0001:00050640       aExpect
 0001:00050648       aCompensate_rat
 0001:0005065C       aCompensate_r_0
 0001:00050684       aCompensate_r_1
 0001:0005069C       aCompensate_r_2
 0001:000506B8       aCompensate_r_3
 0001:000506E4       aCompensate_r_4
 0001:000506FC       aCompensate_r_5
 0001:00050718       aCompensate_r_6
 0001:00050744       aR_ratio
 0001:0005074C       aR_ratioMustHav
 0001:00050768       aZoom_step
 0001:00050774       aFpscriptAmba_0
 0001:00050794       aOffSensorParam
 0001:000507C4       aRealWarpSpecPa
 0001:000507F8       aExpectWarpSpec
 0001:0005082C       aCompensaterati
 0001:00050860       aR_ratioParamet
 0001:0005088C       aRealSpecIndexN
 0001:000508C4       aTheInputRealEx
 0001:00050900       aToolinfo_exp_0
 0001:00050920       aToolinfo_mwwpA
 0001:00050948       aApplibcalibwar
 0001:00050968       aAddtablegridnu
 0001:00050994       aHorgridnumDVer
 0001:000509B4       aToolinfo_wpAll
 0001:000509D8       aToolinfo_oldwp
 0001:00050A00       aApplibcalibw_0
 0001:00050A2C       aApplibcalibw_1
 0001:00050A50       aAmbafs_fopen_1
 0001:00050A64       aDefineHorgridn
 0001:00050A78       a5d_0
 0001:00050A80       aDefineVergridn
 0001:00050A94       aInt32Calib_war
 0001:00050AB8       a0xX
 0001:00050AC0       a5d_1
 0001:00050AC8       aInt16Calib_war
 0001:00050B10       aInt16Calib_w_0
 0001:00050B54       aAmbafs_fcloseF
 0001:00050B68       aAmbafs_fwriteF
 0001:00050B7C       aHsubsamplefact
 0001:00050B94       aHsubsamplefa_0
 0001:00050BAC       aVsubsamplefact
 0001:00050BC4       aWarp_by_specSu
 0001:00050BDC       aAmputcalibwa_4
 0001:00050C04       aC_0
 0001:00050C18       aC_1
 0001:00050C38       aC_2
 0001:00050C58       aC_3
 0001:00050C6C       aC_4
 0001:00050C8C       aC_5
 0001:00050CAC       a_rawencode
 0001:00050CCC       a_bin
 0001:00050CE0       aAllocateFailIn
 0001:00050CF8       aTCalWarpTop_vi
 0001:00050E7C       aTarget_point0
 0001:00050E8C       aTarget_point1
 0001:00050E9C       aTarget_point2
 0001:00050EAC       aTarget_point3
 0001:00050EBC       aRaw_point0
 0001:00050EC8       aRaw_point1
 0001:00050ED4       aRaw_point2
 0001:00050EE0       aRaw_point3
 0001:00050EEC       aDebug_3
 0001:00050EF4       aCenterXDCenter
 0001:00050F10       aErrorWrongRawT
 0001:00050F30       aAddtablegrid_0
 0001:00050F5C       aHorgridnumDV_0
 0001:00050F7C       aSizeofToolinfo
 0001:00050FD4       aAmputcalibwa_5
 0001:00050FF4       aCCalib6_bin_0
 0001:00051014       aCCalib13_bin
 0001:00051034       aAmputcalibwa_6
 0001:00051058       aWarp
 0001:00051060       aUnknowFormat
 0001:00051070       aCanTOpenTheFil
 0001:00051088       aRepeat
 0001:00051090       aOffsetDNvdsize
 0001:000510AC       aMerge
 0001:000510B4       aSD_bin
 0001:000510C0       aElse
 0001:000510C8       aTCalWarpMerge_
 0001:000511CC       aTest_2
 0001:000511D4       aReset_0
 0001:000511DC       aInit_1
 0001:000511E4       aWarp_spec
 0001:000511F0       aTop_view
 0001:000511FC       aSelect_0
 0001:00051204       aMerge_bin
 0001:00051210       aTCalWarpInitRe
 0001:00051230       aTCalWarpWarp_0
 0001:0005126C       aTCalWarpSelect
 0001:000512BC       aTCalWarpDebugE
 0001:00051338       aChDWbCalResetL
 0001:00051350       aChDWbCalResetH
 0001:00051368       aWb_calParamTyp
 0001:00051380       aWb_calParamCha
 0001:000513A0       aWb_calParamFli
 0001:000513C0       aWb_calParamRef
 0001:000513DC       aWb_calParamR_0
 0001:000513F8       aWb_calParamThr
 0001:00051418       aWb_calParamT_0
 0001:00051438       aWb_calParamVig
 0001:00051460       aWbCalParameter
 0001:00051478       aWbTypeChidFlic
 0001:000514C4       aPleaseDoVignet
 0001:000514FC       aWbCalibrationN
 0001:00051540       aWrongWb_calMod
 0001:00051554       aOkWbCalibratio
 0001:00051580       aRDBD
 0001:00051590       aCalNoWbHctCali
 0001:000515BC       aOkWbCalibrat_0
 0001:000515D4       aCalNoWbLctCali
 0001:00051600       aOkWbCalibrat_1
 0001:00051618       aNgWbCalibratio
 0001:00051634       aNgWbCalibrat_0
 0001:00051660       aNgWbCalibrat_1
 0001:0005168C       aCalSiteSVers_0
 0001:000516C4       aTest_1
 0001:000516CC       aInit_0
 0001:000516D4       aInfo_nand
 0001:000516E0       aChDWbcompinfo_
 0001:000516FC       aChDWb_calLctDo
 0001:00051714       aChDWb_calLctNo
 0001:0005172C       aChDWb_calHctDo
 0001:00051744       aChDWb_calHctNo
 0001:0005175C       aChDWb_calLctSr
 0001:0005177C       aChDWb_calLct_0
 0001:0005179C       aChDWb_calLct_1
 0001:000517BC       aChDWb_calHctSr
 0001:000517DC       aChDWb_calHct_0
 0001:000517FC       aChDWb_calHct_1
 0001:0005181C       aChDWb_calLctTg
 0001:0005183C       aChDWb_calLct_2
 0001:0005185C       aChDWb_calLct_3
 0001:0005187C       aChDWb_calHctTg
 0001:0005189C       aChDWb_calHct_2
 0001:000518BC       aChDWb_calHct_3
 0001:000518DC       aTCalWbInitReIn
 0001:0005194C       aVigCtlStartAmb
 0001:0005199C       aVigCtlCurrluma
 0001:000519E0       aVigCtlLumatabD
 0001:00051A3C       aVigCtlEndAmbau
 0001:00051A8C       aVigCtlStartA_0
 0001:00051ACC       aVigCtlPrelumaD
 0001:00051AF0       aVigCtlTheStren
 0001:00051B2C       aVigCtlTheNewCu
 0001:00051B4C       aVigCtlSetTheSt
 0001:00051B84       aVigCtlEndAmb_0
 0001:00051BB4       aVigCtlStartA_1
 0001:00051BF8       aVigCtlCurrlu_0
 0001:00051C14       aVigCtlTheStr_0
 0001:00051C54       aVigCtlEndAmb_1
 0001:00051C88       aVigCtlStartA_2
 0001:00051CC4       aVigCtlVignette
 0001:00051CE8       aVigCtlEndAmb_2
 0001:00051D14       aAdj_calib_para
 0001:00051D24       aVigCtlStartA_3
 0001:00051D50       aVigCtlNoVignet
 0001:00051D6C       aVigCtlGetvigca
 0001:00051D90       aVigCtlVersionn
 0001:00051DD0       aVigCtlErrorCan
 0001:00051E38       aVigCtlSetTheBl
 0001:00051E60       aVigCtlSetThe_0
 0001:00051E88       aVigCtlBlendCon
 0001:00051EC8       aVigCtlBlendC_0
 0001:00051EF4       aVigCtlStrength
 0001:00051F3C       aVigCtlStreng_0
 0001:00051F68       aVigCtlEndAmb_3
 0001:00051F90       aAmbavfs_open
 0001:00051FA0       aAmbafs_fopenEr
 0001:00051FC4       aSCardNotInited
 0001:00051FD8       aAmbavfs_close
 0001:00051FE8       aAmbavfs_write
 0001:00051FF8       aAmbavfs_seek
 0001:00052008       aAmbavfs_stat
 0001:00052018       aAmbavfs_read
 0001:00052028       aAmbavfs_rename
 0001:00052038       aAmbavfs_remove
 0001:00052048       aAmbavfs_tell
 0001:00052058       aAmbavfs_chmod
 0001:00052068       aAmbavfs_chdmod
 0001:00052078       aAmbavfs_firstd
 0001:0005208C       aAmbavfs_mkdir
 0001:0005209C       aAmbavfs_rmdir
 0001:000520AC       aAmbavfs_fsync
 0001:000520BC       aAmbavfs_fappen
 0001:000520CC       aAmbavfs_feof
 0001:000520DC       aVideoTunerErro
 0001:000520FC       aVideoTunerS
 0001:00052110       aVideoTunerWarn
 0001:00052134       aVideoTunerRaws
 0001:00052150       aVideotuner_raw
 0001:00052168       aRawSequanceFil
 0001:00052194       aInsertNullRawC
 0001:000521B0       aCreateRawSeque
 0001:000521D8       aAllocateRawInf
 0001:000521F8       aCreateRawSeqQu
 0001:00052214       aCreateMutexFai
 0001:00052228       aCreateEventFla
 0001:00052240       aVideoTunerRawS
 0001:0005225C       aCreateTaskFail
 0001:00052270       aCreateRawSeq_0
 0001:00052294       aRawSequenceMod
 0001:000522BC       aInitailizedD
 0001:000522E4       aTaskstack0x08x
 0001:00052310       aTaskpriorityD
 0001:00052338       aTask0x08x
 0001:00052364       aTaskentry0x08x
 0001:00052390       aEventflg0x08x
 0001:000523BC       aMutex0x08x
 0001:000523E8       aRawinfoqueid0x
 0001:00052414       aRawinfoquememc
 0001:00052440       aNumofrawinfoqu
 0001:00052468       aPrawinfoque0x0
 0001:00052494       aWriteidxD
 0001:000524BC       aRawinfomemctrl
 0001:000524E8       aNumofrawbufsD
 0001:00052510       aPrawinfo0x08x
 0001:0005253C       aNo_02dRawinfo0
 0001:0005255C       aCompressedD
 0001:00052574       aPitchD
 0001:0005258C       aWindow_widthD
 0001:000525A4       aWindow_heightD
 0001:000525BC       aPbaseaddr0x08x
 0001:000525D8       aVideotuner_r_0
 0001:000525F0       aPleaseCreateRa
 0001:00052618       aTerminateTaskF
 0001:0005262C       aDeleteTaskFail
 0001:00052640       aVideotuner_r_1
 0001:00052658       aVideotuner_r_2
 0001:00052670       aVideotuner_r_3
 0001:00052688       aVideotuner_r_4
 0001:000526A4       aReadRawDataSiz
 0001:000526D8       aWriteRawDataTo
 0001:000526F4       aAmbakal_msgq_3
 0001:00052718       aPushIndex_02dR
 0001:00052744       aUpdateRawIndex
 0001:00052764       aVideotuner_r_5
 0001:00052780       aInsertNullRawI
 0001:00052798       aReceiveRawData
 0001:000527BC       aAmbakal_msgq_4
 0001:000527E4       aPullIndex_02dR
 0001:00052810       aVideotuner__23
 0001:00052830       aAmbakal_msgq_7
 0001:00052858       aVideotuner__24
 0001:0005286C       aOnlySupportV_0
 0001:000528A0       aCurrentState_1
 0001:000528CC       aCreateRawCaptu
 0001:000528EC       aVideotuner_r_6
 0001:00052904       aVideoTunerIsSt
 0001:00052928       aVideoTunerRawC
 0001:00052948       aVideoTunerSetD
 0001:00052980       aUpdateTheRawCa
 0001:000529A4       aCalculateSenso
 0001:000529C8       aCalculateDspMe
 0001:000529E4       aPrintTheInfora
 0001:00052A10       aSwitchDspMemor
 0001:00052A28       aStartRawCaptur
 0001:00052A48       aVideotuner_r_7
 0001:00052A68       aConfigureRawCa
 0001:00052A94       aConfigureRaw_0
 0001:00052AB4       aCVideotunerVid
 0001:00052AD0       aCVideotuner
 0001:00052AE0       aConfigureRaw_1
 0001:00052AFC       aVideotuner_r_8
 0001:00052B1C       aVideotuner_r_9
 0001:00052B38       aConfigureRaw_2
 0001:00052B58       aRawcapinfo_com
 0001:00052B78       aRawcapinfo_pit
 0001:00052B98       aRawcapinfo_win
 0001:00052BB8       aRawcapinfo_w_0
 0001:00052BD8       aRawseqfilepath
 0001:00052BF8       aConfigureSenso
 0001:00052C1C       aSensormodeD
 0001:00052C34       aCalculateRawBu
 0001:00052C58       aNumberOfRawFra
 0001:00052C74       aRawBufferAddr0
 0001:00052C94       aDspWorkMemoryA
 0001:00052CB4       aDspWorkMemoryS
 0001:00052CD0       aVideotuner__10
 0001:00052CF0       aSelectSensorMo
 0001:00052D18       aConfigureSen_0
 0001:00052D38       aNotSupportTheR
 0001:00052D60       aConfigureSen_1
 0001:00052D7C       aVideotuner__11
 0001:00052DA0       aCalculateDsp_0
 0001:00052DC8       aCalculateMinDs
 0001:00052DF4       aDspWorkingMemo
 0001:00052E18       aNotEnoughMemor
 0001:00052E3C       aCalculateMin_0
 0001:00052E64       aVideotuner__12
 0001:00052E88       aSwitchDspMem_0
 0001:00052EB0       aSwitchDspWorki
 0001:00052ED4       aStopLiveviewFa
 0001:00052EE8       aSetupDspWorkAr
 0001:00052F04       aBackToLivevi_3
 0001:00052F1C       aSwitchDspWor_0
 0001:00052F3C       aVideotuner__13
 0001:00052F58       aStartRawCapt_0
 0001:00052F70       aProcessRawCapt
 0001:00052F90       aSaveRawDataFai
 0001:00052FA4       aVideotuner__25
 0001:00052FC0       aCreateVideoT_2
 0001:00052FF8       aCreateVideoT_3
 0001:00053028       aCreateRawInfoQ
 0001:00053044       aVideoTunerRa_2
 0001:00053060       aCreateVideoT_4
 0001:0005308C       aCreateVideoT_5
 0001:000530B4       aVideotuner__14
 0001:000530D0       aCurrentStateDD
 0001:00053108       aTerminateVideo
 0001:00053134       aDeleteVideoTun
 0001:00053160       aDeleteVideoT_0
 0001:00053188       aVideotuner__15
 0001:000531A8       aPrepareRawCapt
 0001:000531D8       aStopCaptureMod
 0001:000531F4       aConfigureRawDa
 0001:00053228       aRegisterRawDat
 0001:0005325C       aPrepareStillCa
 0001:00053280       aVideoTunerRa_0
 0001:000532A4       aVideotuner__16
 0001:000532C0       aSaveRawFileInW
 0001:000532E4       aInsertNullRawB
 0001:00053308       aCreateRawSequa
 0001:00053328       aWriteDBytesIsN
 0001:0005335C       aSaveRawHeader
 0001:0005336C       aRawSequanceHea
 0001:00053390       aNumofrawframeD
 0001:000533AC       aContents_compr
 0001:000533C8       aFramepitchD
 0001:000533E4       aFramewidthD
 0001:00053400       aFrameheightD
 0001:0005341C       aFramesizeD
 0001:00053438       aTheSystemShoul
 0001:0005347C       aSaveNo_02dRawF
 0001:00053494       aNo_02dRawInfo
 0001:000534B8       aCompressrawD
 0001:000534CC       aPitchD_0
 0001:000534E0       aWidthD_3
 0001:000534F4       aHeightD_3
 0001:00053508       aPbaseaddr0x0_0
 0001:00053520       aSaveRawSequenc
 0001:00053544       aVideotuner__17
 0001:0005355C       aUnRegisterRawD
 0001:0005358C       aSetupOriginalD
 0001:000535AC       aVideoTunerRa_1
 0001:000535CC       aReStartCapture
 0001:000535EC       aVideotuner_vid
 0001:00053600       aOnlySupportVid
 0001:00053634       aCurrentStateSC
 0001:00053664       aCreateVideoEnc
 0001:00053684       aVideotuner_v_0
 0001:0005369C       aVideoTunerIs_0
 0001:000536BC       aVideoTunerSetV
 0001:000536F0       aUpdateVideoEnc
 0001:00053714       aPrintVideoEnco
 0001:00053738       aSwitchModeFail
 0001:0005374C       aCreateRawSeq_1
 0001:0005376C       aVideotuner_v_1
 0001:0005378C       aConfigureVideo
 0001:000537C4       aConfigureVid_0
 0001:000537E8       aCVideotunerV_0
 0001:00053804       aCVideotunerV_1
 0001:00053824       aConfigureVid_1
 0001:00053844       aVideotuner_v_2
 0001:00053864       aGetRawSequence
 0001:0005388C       aRawSequenceFil
 0001:000538B0       aOpenRawSequenc
 0001:000538D0       aReadRawHeaderS
 0001:000538FC       aGetRawSequen_0
 0001:00053924       aVideotuner_v_3
 0001:00053940       aRawSequenceF_0
 0001:00053968       aNumberoffraemD
 0001:0005397C       aCompressrawD_0
 0001:00053990       aPitchD_1
 0001:000539A4       aWidthD_4
 0001:000539B8       aHeightD_4
 0001:000539CC       aFramesizeD_0
 0001:000539E0       aVideoEncodeCon
 0001:00053A08       aFrameratedivis
 0001:00053A28       aDatafmtD
 0001:00053A48       aStreamid_viewz
 0001:00053A68       aStreamid_strea
 0001:00053A88       aWindow_width_0
 0001:00053AA8       aWindow_heigh_0
 0001:00053AC8       aIsintervalcapD
 0001:00053AE8       aRotateconfigD
 0001:00053B08       aFramerate_inte
 0001:00053B28       aFramerate_numu
 0001:00053B48       aFramerate_time
 0001:00053B68       aH264Setting
 0001:00053B84       aPbitsbufaddr0x
 0001:00053BA8       aBitsbufsizeD
 0001:00053BC8       aMD_1
 0001:00053BE8       aND_1
 0001:00053C08       aIscabacD
 0001:00053C28       aQualitylevelD
 0001:00053C48       aBitrateD_0
 0001:00053C68       aBitratesetting
 0001:00053C88       aVbrpercentD
 0001:00053CA8       aVbrminratioD
 0001:00053CC8       aVbrmaxratioD
 0001:00053CE8       aIdrintervalD_0
 0001:00053D08       aVideoTunerEnco
 0001:00053D30       aEnablereadrawd
 0001:00053D50       aEnablesaveyuvd
 0001:00053D70       aEnablesavevidd
 0001:00053D90       aRawseqfilepa_0
 0001:00053DB0       aYuvseqfilepath
 0001:00053DD0       aVidbitstreamfi
 0001:00053DF0       aFeedRawPreProc
 0001:00053E14       aYuvDataHdlr0x0
 0001:00053E38       aVideoDataHdlr0
 0001:00053E5C       aVideotuner_v_4
 0001:00053E78       aVideoEncodeC_0
 0001:00053EA8       aSwitchModeDone
 0001:00053EBC       aVideotuner_v_5
 0001:00053ED4       aPrepareVideoEn
 0001:00053F04       aConfigureYuvDa
 0001:00053F38       aRegisterYuvDat
 0001:00053F64       aConfigureVid_2
 0001:00053F9C       aRegisterVideoD
 0001:00053FCC       aSetupVideoEnco
 0001:00053FF4       aSetupVideoStre
 0001:0005401C       aStartVideoEnco
 0001:00054038       aStartVideoTune
 0001:00054058       aStartRawSequen
 0001:00054078       aStartRawSequ_0
 0001:00054098       aVideotuner_v_6
 0001:000540B4       aInsertNullRawD
 0001:000540CC       aProcessFeed_ra
 0001:000540F4       aProcessFeed__0
 0001:00054118       aFeedRawDataFai
 0001:0005412C       aFeedNo_DRawDat
 0001:00054144       aCompressedD_0
 0001:00054158       aPitchD_2
 0001:0005416C       aWidthD_5
 0001:00054180       aHeightD_5
 0001:00054194       aPbaseaddr0x0_1
 0001:000541AC       aVideotuner_v_7
 0001:000541C4       aVideoEncodeDon
 0001:000541EC       aUnRegisterYuvD
 0001:0005421C       aUnRegisterVide
 0001:0005424C       aDeleteRawSeque
 0001:00054270       aVideoTunerVide
 0001:00054290       aVideotuner_v_8
 0001:000542B4       aWriteRawData_0
 0001:000542D4       aWriteRawDataFa
 0001:000542E8       aGetRawDataFail
 0001:000542FC       aFeedRawDataF_0
 0001:00054310       aVideotuner_yuv
 0001:00054330       aAmbakal_msgq_5
 0001:00054358       aVideotuner_v_9
 0001:00054378       aVideotuner__18
 0001:00054394       aConfigureVid_3
 0001:000543B0       aStartVideoEn_0
 0001:000543C8       aProcessVideoEn
 0001:000543E8       aNo_DYuvDataRea
 0001:00054400       aYuvFormatD
 0001:00054418       aYuvPitchD
 0001:00054430       aYuvWidthD
 0001:00054448       aYuvHeightD
 0001:00054460       aYuvPbaseaddry0
 0001:00054478       aYuvPbaseaddruv
 0001:00054490       aProcessYuvData
 0001:000544BC       aProcessYuvDa_0
 0001:000544E4       aNo_DVideoDataR
 0001:00054500       aChannelidD_1
 0001:00054510       aStreamidD
 0001:00054520       aFrametypeD
 0001:00054530       aFrmnoD
 0001:00054540       aPicsize0xX
 0001:00054554       aStartaddr0xX
 0001:00054568       aProcessVideoDa
 0001:00054598       aProcessVideo_0
 0001:000545C4       aVideotuner__19
 0001:000545E0       aCreateVideoTun
 0001:00054614       aCreateEventF_0
 0001:0005462C       aCreateVideoMes
 0001:0005464C       aVideoTunerEn_0
 0001:00054668       aCreateVideoT_0
 0001:0005468C       aCreateVideoT_1
 0001:000546AC       aVideotuner__20
 0001:000546C8       aCurrentState_0
 0001:00054700       aTerminateVid_0
 0001:00054728       aDeleteVideoT_1
 0001:0005474C       aDeleteVideoT_2
 0001:0005476C       aVideotuner__21
 0001:0005478C       aVideoTunerEn_1
 0001:000547C4       aInsertNullYuvD
 0001:000547E8       a_yuv
 0001:000547F0       a_D_DxD_y
 0001:000547FC       aOpenYFileFailS
 0001:00054810       aWriteSizeDIsNo
 0001:0005483C       aSaveYDataSucce
 0001:00054854       aOpenUvFileFail
 0001:0005486C       aSaveUvDataSucc
 0001:00054884       aVideotuner__22
 0001:000548A8       aInsertNullVide
 0001:000548CC       aOpenVideoBitSt
 0001:000548F0       aSaveNo_02dVide
 0001:00054910       aSaveVideoBitSt
 0001:00054934       aAmbavideotuner
 0001:0005494C       aVideoTunerTask
 0001:00054970       aAmbavideotun_0
 0001:00054994       aNeedToCreateVi
 0001:000549B8       aTheVideoTunerS
 0001:000549F0       aNotSupportTheE
 0001:00054A10       aInsertNullEven
 0001:00054A2C       aAmbavideotun_1
 0001:00054A54       aInsertEventHan
 0001:00054AC4       aRawOperationSe
 0001:00054AFC       aCompress100Unc
 0001:00054B3C       aWinWidthHeight
 0001:00054B78       aEncOperationSe
 0001:00054BB0       aWinWidthHeig_0
 0001:00054BF0       aBitrateValueSe
 0001:00054C20       aBitrate_settin
 0001:00054C60       aFrateTime_scal
 0001:00054CB0       aFrate_divisorV
 0001:00054CEC       aIdr_intervalVa
 0001:00054D28       aMValueSetTheEn
 0001:00054D54       aNValueSetTheEn
 0001:00054D80       aRead_rawOnOffE
 0001:00054DBC       aSave_yuvOnOffE
 0001:00054DF8       aSave_vidOnOffE
 0001:00054E34       aRaw_pathPathSe
 0001:00054E68       aYuv_pathPathSe
 0001:00054E90       aVid_pathPathSe
 0001:00054EBC       aAmbavideotun_2
 0001:00054ED4       aCompress
 0001:00054EE0       aSetInputRawDat
 0001:00054EFC       aUncompress
 0001:00054F08       aCompress_0
 0001:00054F14       aSetInputRawWin
 0001:00054F34       aStart_1
 0001:00054F3C       aStartVideoEn_1
 0001:00054F58       aSetEncodeWindo
 0001:00054F74       aBitrate_0
 0001:00054F7C       aSetEncodeBitRa
 0001:00054F98       aBitrate_sett_0
 0001:00054FA8       aFrate_0
 0001:00054FB0       aSetFrameRateAs
 0001:00054FF8       aFrate_divisor
 0001:00055008       aSetEncodeFrame
 0001:0005502C       aIdr_interval
 0001:0005503C       aSetEncodeIdrIn
 0001:0005505C       aSetEncodeMAsD
 0001:00055070       aSetEncodeNAsD
 0001:00055084       aRead_raw
 0001:00055090       aSReadRawDataPr
 0001:000550AC       aEnable_2
 0001:000550B4       aDisable_2
 0001:000550BC       aSave_yuv
 0001:000550C8       aSSaveYuvDataPr
 0001:000550E4       aSave_vid
 0001:000550F0       aSSaveVideoData
 0001:0005510C       aRaw_path
 0001:00055118       aSetRawSequence
 0001:00055138       aYuv_path
 0001:00055144       aSetYuvFilePath
 0001:0005515C       aVid_path
 0001:00055168       aSetVideoFilePa
 0001:00055180       aAmbavideotun_3
 0001:000551A4       aSetupVideoEn_0
 0001:000551CC       aSetupVideoSt_0
 0001:000551F0       aStartVideoEn_2
 0001:0005520C       aAmbavideotun_4
 0001:0005522C       aStopVideoEncod
 0001:00055248       aRecord_time
 0001:00055254       aRecord_delay
 0001:00055264       aSave_log
 0001:00055270       aFormat_sd
 0001:0005527C       aFormat_rm
 0001:00055288       aAg_video_size
 0001:00055298       aCk_sd_clk
 0001:000552A4       aCk_ddr
 0001:000552AC       aCk_temperature
 0001:000552BC       aCk_a9_reset
 0001:000552C8       aCk_a9_die
 0001:000552D4       aCk_368
 0001:000552DC       aCk_m4
 0001:000552E4       aCk_video
 0001:000552F0       aCk_pb
 0001:000552F8       aCk_wifi_lane
 0001:00055308       aSave_ddr
 0001:00055314       aRun_gimbal
 0001:00055320       aResult_sound
 0001:00055330       aResult_run
 0001:0005533C       aResult_led
 0001:00055348       aCChecksd
 0001:00055354       aSigmaOfSampleF
 0001:0005537C       aDm368Error1_
 0001:000553A0       aHdmiD1765D_Ret
 0001:000553D4       aDjicheckrtctes
 0001:000553E4       aSSetRtcTimeFai
 0001:000553FC       aWrite04d_02d_0
 0001:00055424       aSReadBackRtcTi
 0001:00055444       aSReadBackCheck
 0001:00055460       aRead04d_02d_02
 0001:00055488       aError
 0001:00055490       aVideo_5
 0001:00055498       aLvds
 0001:000554A0       aUartDm365
 0001:000554AC       aUartM4
 0001:000554B4       aLcdVout
 0001:000554F0       aCheckResult
 0001:00055500       aCheckEnd
 0001:0005550C       aCreateDjicheck
 0001:0005552C       aDjicheckingtas
 0001:0005553C       aCreateChecking
 0001:00055560       aCreateDjiche_0
 0001:0005557C       aDjiagingsetfun
 0001:00055598       aDjiagingsetf_0
 0001:000555B4       aDjiaginggetfun
 0001:000555C8       aCDjiagingfun_3
 0001:000555DC       aSScriptError_L
 0001:000555F8       aCurread_DS
 0001:00055608       aSScriptLineErr
 0001:0005562C       aDjiagingrecove
 0001:00055658       aDjiagingvideog
 0001:00055670       aSReadFromRomFa
 0001:00055690       aCDjiboard
 0001:0005569C       aDjiagingcheckb
 0001:000556C8       aDjiagingcreate
 0001:000556F4       aFw
 0001:000556FC       aBoardNumIsDD
 0001:0005571C       aSendGimbalParR
 0001:0005573C       aSendRunGimbalR
 0001:00055774       aSendRunGimba_0
 0001:000557A8       aSendRunGimba_1
 0001:000557E4       aSSendDji_irqst
 0001:00055818       aDjiagingwriter
 0001:00055840       aDjiagingwrit_0
 0001:00055874       aDjiagingwrit_1
 0001:000558A8       aNowTemperature
 0001:000558E0       aDjiagingwrit_2
 0001:00055914       aDjiagingwrit_3
 0001:00055948       aTimeDDDDDDTemp
 0001:0005597C       aDjiagingwrit_4
 0001:000559B0       aDjiagingwrit_5
 0001:000559D8       aA9VideoError
 0001:000559EC       aA9VideoBufFull
 0001:00055A00       aA9VideoBufOrQu
 0001:00055A1C       aA9VideoQueFull
 0001:00055A30       aA9VideoAutoSto
 0001:00055A50       aA9Die
 0001:00055A5C       aA9ResetS
 0001:00055A6C       aA9Reset
 0001:00055A78       aDm368Die
 0001:00055A84       aDm36868013Unlink
 0001:00055A9C       aDm368Reset
 0001:00055AAC       aM4Die
 0001:00055AB8       aTemperatureToo
 0001:00055AD0       aPbErr
 0001:00055ADC       aWifiLaneErr
 0001:00055AEC       aUnknowReason
 0001:00055AFC       aDjiagingwrit_6
 0001:00055B30       aCDjicheckvideo
 0001:00055B50       aDjiagingDjiagi
 0001:00055B8C       aSDS
 0001:00055B94       aCDjiagingresul
 0001:00055BA8       a_txt
 0001:00055BB0       aAmbafs_fopenFa
 0001:00055BC4       aDjiagingloadre
 0001:00055BF4       aDjiagingDjia_0
 0001:00055C88       aDjiagingDjia_1
 0001:00055CD0       aDjiagingreco_0
 0001:00055D00       aDjiagingDjia_2
 0001:00055D58       aCDji97986986_3
 0001:00055D6C       aCDji97986986r_
 0001:00055D84       aDjiagingcrea_0
 0001:00055DC0       a0xX0xX
 0001:00055DD0       aCanNotGetTheAg
 0001:00055DEC       aDjiagingtimeIs
 0001:00055E14       aDjimsgstdm368r
 0001:00055E38       aDjiagingifdm36
 0001:00055E58       aDjiagingifdm_0
 0001:00055E7C       aDjiagingifdm_1
 0001:00055EA0       aDjiagingifdm_2
 0001:00055EE4       aDjiagingifdm_3
 0001:00055F1C       aDjiagingifdm_4
 0001:00055F58       aDjiagingifdm_5
 0001:00055F78       aDjiagingifdm_6
 0001:00055FA4       aDjiagingifm4ok
 0001:00055FBC       aCVideo_auto_st
 0001:00055FDC       aDjiagingrecord
 0001:00056008       aDjiagingreco_1
 0001:00056034       aBufFullAtDDDDD
 0001:0005605C       aQueFullAtDDDDD
 0001:00056084       aBufOrQueFullAt
 0001:000560B4       aVideoErrorAtDD
 0001:000560E0       aDjiagingreco_2
 0001:00056114       aDjiagingbakvid
 0001:00056140       aDjiagingreco_3
 0001:00056170       aDjiagingvideoo
 0001:00056180       aDjiAgingSdCard
 0001:0005619C       aDjiagingGetTem
 0001:000561D8       aPlaybackCurfil
 0001:000561F4       aGetVideoDurati
 0001:00056214       aDjiagingBeginT
 0001:00056248       aDjiagingPlayba
 0001:00056278       aTestEndRetD
 0001:00056290       aDjiagingAgingR
 0001:000562C0       aDjiagingAgin_0
 0001:000562F8       aErrorDjiagingT
 0001:0005632C       aErrorDjiagingD
 0001:00056370       aDjiagingAmbafs
 0001:000563AC       aA9ResetReason0
 0001:000563D0       aReason_unknown
 0001:000563E0       aReason_soft_re
 0001:000563F4       aReason_reason_
 0001:00056408       aReason_wdt_act
 0001:0005641C       aReason_cpu_exc
 0001:00056434       aReason_dsp_ass
 0001:0005644C       aDjiagingAmba_0
 0001:0005649C       aDjiagingTimeIs
 0001:000564C0       aDjiagingAgingC
 0001:000564EC       aFc300xVer_a
 0001:000564FC       aFc300xVer_b
 0001:0005650C       aDjiagingSetDdr
 0001:0005653C       aAfterFormatSdS
 0001:00056578       aBeforeRecordSd
 0001:000565B0       aRecordDsSdActu
 0001:000565E8       aAgingEnd
 0001:00056628       aTestOkDdrParIs
 0001:0005664C       aTestOkDdrPar_0
 0001:00056664       aDjiagingtestre
 0001:00056688       aDjiagingtest_0
 0001:000566A8       aDjivideochecki
 0001:000566C0       aDjiagingtaskde
 0001:000566D4       aSTerminateTask
 0001:000566F0       aSDeleteTaskFai
 0001:00056708       aSAgingTaskDele
 0001:00056750       aAuto_0
 0001:00056758       a1_7
 0001:0005675C       a1_8
 0001:00056760       a2_2_0
 0001:00056764       a2_5_0
 0001:00056768       a2_8
 0001:0005676C       a3_2
 0001:00056770       a3_5
 0001:00056774       a4_5
 0001:00056778       a5_6
 0001:0005677C       a6_3
 0001:00056780       a7_1
 0001:00056784       a10
 0001:00056788       a11
 0001:0005678C       a13
 0001:00056790       a14
 0001:00056794       a16
 0001:00056798       a18
 0001:0005679C       a20
 0001:000567A0       a22
 0001:000567A4       aHisoAuto
 0001:000567B0       a100_0
 0001:000567B4       a200
 0001:000567B8       a400
 0001:000567BC       a800
 0001:000567C0       a1600
 0001:000567C8       a3200
 0001:000567D0       a6400
 0001:000567D8       a12800
 0001:000567E0       aAnti_flicker_a
 0001:000567F4       aAnti_flicker_6
 0001:00056808       aAnti_flicker_5
 0001:0005681C       aAuto
 0001:00056824       a8
 0001:00056828       a7
 0001:0005682C       a6
 0001:00056830       a5
 0001:00056834       a4
 0001:00056838       a3_2_0
 0001:00056840       a3
 0001:00056844       a2_5_1
 0001:0005684C       a2_6
 0001:00056850       a1_6
 0001:00056858       a1_3
 0001:00056860       a1_0
 0001:00056864       a1_25
 0001:0005686C       a1_67
 0001:00056874       a6_25
 0001:0005687C       a12_5
 0001:00056884       a15
 0001:00056888       a25
 0001:0005688C       a30
 0001:00056890       a40
 0001:00056894       a50
 0001:00056898       a60
 0001:0005689C       a80
 0001:000568A0       a120
 0001:000568A4       a160
 0001:000568A8       a240
 0001:000568AC       a320
 0001:000568B0       a500
 0001:000568B4       a640
 0001:000568B8       a1000_1
 0001:000568C0       a1250
 0001:000568C8       a2000
 0001:000568D0       a2500
 0001:000568D8       a4000
 0001:000568E0       a5000
 0001:000568E8       a8000
 0001:000568F0       a3_0
 0001:000568F4       a223
 0001:000568FC       a213
 0001:00056904       a2_7
 0001:00056908       a123
 0001:00056910       a113
 0001:00056918       a1_1
 0001:0005691C       a23
 0001:00056924       a13_0
 0001:0005692C       a0_0
 0001:00056930       a13_1
 0001:00056938       a23_0
 0001:00056940       a1_2
 0001:00056944       a113_0
 0001:0005694C       a123_0
 0001:00056954       a2_9
 0001:00056958       a213_0
 0001:00056960       a223_0
 0001:00056968       a3_1
 0001:0005696C       aAe_meter_center
 0001:0005697C       aAe_meter_average
 0001:00056990       aAe_meter_spot
 0001:000569A0       aAe_meter_manua
 0001:000569B0       aWb_automatic
 0001:000569C0       aWb_sunny
 0001:000569CC       aWb_cloudy
 0001:000569D8       aWb_incandescen
 0001:000569E8       aWb_fluorescent
 0001:000569F8       aWb_d4000
 0001:00056A04       aWb_d5000
 0001:00056A10       aWb_d9000
 0001:00056A1C       aWb_d10000
 0001:00056A28       aWb_flash
 0001:00056A34       aWb_water
 0001:00056A40       aWb_outdoor
 0001:00056A4C       a2100
 0001:00056A54       a2200
 0001:00056A5C       a2300
 0001:00056A64       a2400
 0001:00056A6C       a2600
 0001:00056A74       a2700
 0001:00056A7C       a2800
 0001:00056A84       a2900
 0001:00056A8C       a3000
 0001:00056A94       a3100
 0001:00056A9C       a3300
 0001:00056AA4       a3400
 0001:00056AAC       a3500
 0001:00056AB4       a3600
 0001:00056ABC       a3700
 0001:00056AC4       a3800
 0001:00056ACC       a3900
 0001:00056AD4       a4100
 0001:00056ADC       a4200
 0001:00056AE4       a4300
 0001:00056AEC       a4400
 0001:00056AF4       a4500
 0001:00056AFC       a4600
 0001:00056B04       a4700
 0001:00056B0C       a4800
 0001:00056B14       a4900
 0001:00056B1C       a5100
 0001:00056B24       a5200
 0001:00056B2C       a5300
 0001:00056B34       a5400
 0001:00056B3C       a5500
 0001:00056B44       a5600
 0001:00056B4C       a5700
 0001:00056B54       a5800
 0001:00056B5C       a5900
 0001:00056B64       a6000
 0001:00056B6C       a6100
 0001:00056B74       a6200
 0001:00056B7C       a6300
 0001:00056B84       a6500
 0001:00056B8C       a6600
 0001:00056B94       a6700
 0001:00056B9C       a6800
 0001:00056BA4       a6900
 0001:00056BAC       a7000
 0001:00056BB4       a7100
 0001:00056BBC       a7200
 0001:00056BC4       a7300
 0001:00056BCC       a7400
 0001:00056BD4       a7500
 0001:00056BDC       a7600
 0001:00056BE4       a7700
 0001:00056BEC       a7800
 0001:00056BF4       a7900
 0001:00056BFC       a8100
 0001:00056C04       a8200
 0001:00056C0C       a8300
 0001:00056C14       a8400
 0001:00056C1C       a8500
 0001:00056C24       a8600
 0001:00056C2C       a8700
 0001:00056C34       a8800
 0001:00056C3C       a8900
 0001:00056C44       a9000
 0001:00056C4C       a9100
 0001:00056C54       a9200
 0001:00056C5C       a9300
 0001:00056C64       a9400
 0001:00056C6C       a9500
 0001:00056C74       a9600
 0001:00056C7C       a9700
 0001:00056C84       a9800
 0001:00056C8C       a9900
 0001:00056C94       a10000
 0001:00056C9C       aDji_mode_ai
 0001:00056CA8       aDji_mode_p
 0001:00056CB4       aDji_mode_m
 0001:00056CC0       aDji_mode_a
 0001:00056CCC       aDji_mode_s
 0001:00056CD8       aDji_mode_scene
 0001:00056CF0       aDji_mode_sce_0
 0001:00056D10       aDji_mode_sce_1
 0001:00056D28       aDji_mode_sce_2
 0001:00056D44       aDji_mode_sce_3
 0001:00056D5C       aDji_mode_sce_4
 0001:00056D74       aDji_mode_sce_5
 0001:00056D90       aDji_mode_sce_6
 0001:00056DA8       aDji_mode_sce_7
 0001:00056DC4       aDji_mode_sce_8
 0001:00056DDC       aDji_mode_sce_9
 0001:00056DF8       aDji_mode_sc_10
 0001:00056E1C       aDji_mode_sc_11
 0001:00056E34       aDji_mode_sc_12
 0001:00056E4C       aDji_mode_sc_13
 0001:00056E64       aDji_mode_sc_14
 0001:00056E80       aDji_mode_sc_15
 0001:00056E98       aDji_mode_sc_16
 0001:00056EB4       aDji_mode_sc_17
 0001:00056ECC       aDji_mode_sc_18
 0001:00056EE4       aDji_mode_sc_19
 0001:00056EFC       aDji_mode_sc_20
 0001:00056F14       aDji_mode_sc_21
 0001:00056F2C       aDji_mode_sc_22
 0001:00056F44       aDji_mode_sc_23
 0001:00056F64       aDji_mode_sc_24
 0001:00056F7C       aDji_mode_sc_25
 0001:00056F98       aDji_mode_sc_26
 0001:00056FAC       aDji_mode_sc_27
 0001:00056FCC       aDji_mode_sc_28
 0001:00056FE4       aDji_mode_sc_29
 0001:00056FFC       aDigital_no_e_0
 0001:00057010       aDigital_art
 0001:0005701C       aDigital_sepia
 0001:0005702C       aDigital_negati
 0001:00057040       aDigital_bw
 0001:0005704C       aDigital_vivid
 0001:0005705C       aDigital_70fi_0
 0001:0005706C       aDigital_punk
 0001:0005707C       aDigital_popa_0
 0001:0005708C       aDigital_weddin
 0001:0005709C       aDigital_pinh_0
 0001:000570AC       aDigital_miniat
 0001:000570C0       aDigital_drawin
 0001:000570D0       aDigital_waterc
 0001:000570E4       aDigital_m31
 0001:000570F0       aDigital_delta
 0001:00057100       aDigital_kdx
 0001:0005710C       aDigital_dk79
 0001:0005711C       aDigital_prismo
 0001:0005712C       aDigital_jugo
 0001:0005713C       aDigital_vision
 0001:00057150       aDigital_visi_0
 0001:00057164       aDigital_visi_1
 0001:00057178       aDigital_neutra
 0001:00057188       aN3
 0001:0005718C       aN2
 0001:00057190       aN1
 0001:00057194       a00
 0001:00057198       aP1
 0001:0005719C       aP2
 0001:000571A0       aP3
 0001:000571A4       aDjiaaascenemod
 0001:000571C0       aReturnNgAtSS_0
 0001:000571DC       aDSvn_viewA9s_1
 0001:00057228       aModeP
 0001:00057234       aModeM
 0001:00057240       aModeA
 0001:0005724C       aModeS
 0001:00057258       aModeScn
 0001:00057264       aModeErr
 0001:00057270       aDjiaaastillaea
 0001:00057288       aDjiaaasetaeon
 0001:000572A0       aDjiaaaaestatus
 0001:000572B8       aDjiaaasetawbon
 0001:000572D0       aDjiaaagetmaxsh
 0001:000572FC       aDjiaaabrightne
 0001:00057320       aDoReallyBright
 0001:00057344       aComputeEqualBr
 0001:0005736C       aShutter1FShutt
 0001:000573A0       aDjiaaabright_0
 0001:000573C4       aMshtFOffsetDSh
 0001:000573F0       aDoReallyBrig_0
 0001:0005741C       aDoEqualBrightn
 0001:00057444       aDjiaaaexposure
 0001:00057470       aDjiaaaaperture
 0001:00057488       aDji_aaa_testSD
 0001:000574AC       aDjiaaaapertu_0
 0001:000574C0       aDji_aaa_testSF
 0001:000574E8       aDjiaaaapertu_1
 0001:00057504       aDjiaaafocusval
 0001:00057518       aDji_aaa_testSS
 0001:00057538       aDjiaaaevindexs
 0001:00057550       aEi5dWbDMD
 0001:00057564       aDjiaaaadjstrge
 0001:00057574       aLv2dTar3dL3d
 0001:0005758C       aDjiaaaaestilli
 0001:000575A4       aDjiaaaisoget
 0001:000575B8       aDjiaaaisoset
 0001:000575C8       aSStart_1
 0001:000575E0       aSetIso_offsetD
 0001:000575FC       aDjiaaaisosetDa
 0001:00057618       aSEnd_2
 0001:0005762C       aDjiaaaiso_test
 0001:0005763C       aIsoTestStart
 0001:00057668       aGetParamS
 0001:00057678       aGetParamFailed
 0001:0005768C       aSetParamS
 0001:0005769C       aSetParamFailed
 0001:000576B0       aGetParamFail_0
 0001:000576C4       aRestoreParamS
 0001:000576D8       aRestoreParamFa
 0001:000576F0       aIsoTestEnd
 0001:00057718       aDjiaaaisosetca
 0001:00057730       aDjiaaashutters
 0001:0005774C       aDjiaaashutte_0
 0001:00057764       aSetShutter_off
 0001:00057788       aDataDMaxshuidx
 0001:000577A0       aDjiaaashutte_1
 0001:000577B8       aShutterspeedTe
 0001:000577EC       aStoreParamS
 0001:00057800       aStoreParamFail
 0001:00057814       aShutterspeed_0
 0001:00057844       aDjiaaashutte_3
 0001:00057864       aDjiaaaaeevbias
 0001:00057878       aDjiaaaaeevbi_0
 0001:0005788C       aEvbiasDataD
 0001:000578A4       aDjiaaaaeevbi_1
 0001:000578B8       aAeevbiasTestSt
 0001:000578E8       aAeevbiasTestEn
 0001:00057918       aDjiaaaaeevbi_2
 0001:00057934       aDjiaaaantiflic
 0001:00057950       aDjiaaaantifl_0
 0001:00057970       aDjiaaaantifl_1
 0001:0005798C       aAntiflickerTes
 0001:000579C0       aAntiflickerT_0
 0001:000579F0       aDjiaaaantifl_2
 0001:00057A14       aDjiaaaaemeteri
 0001:00057A2C       aDjiaaaaemete_0
 0001:00057A48       aDjiaaaaemete_1
 0001:00057A64       aAemeteringmode
 0001:00057A98       aAemeteringmo_0
 0001:00057ACC       aDjiaaaaemete_5
 0001:00057AEC       aDjiaaaaemete_2
 0001:00057B04       aDjiaaaaemete_3
 0001:00057B1C       aDataD
 0001:00057B2C       aDjiaaaaemete_4
 0001:00057B48       aSetParamAe_met
 0001:00057B64       aAemeteringspot
 0001:00057B98       aSetParamD
 0001:00057BA8       aGetParamD
 0001:00057BB8       aAemeteringsp_0
 0001:00057BEC       aDjiaaawbtemper
 0001:00057C34       aDjiaaawbtemp_0
 0001:00057CC8       aDjiaaawbscenem
 0001:00057CF8       aDjiaaawbscen_0
 0001:00057D28       aDjiaaaawbscene
 0001:00057D58       aDjiaaawbnoget
 0001:00057D68       aDjiaaawbscen_1
 0001:00057D80       aWbscenemodeTes
 0001:00057DB4       aWbscenemodeT_0
 0001:00057DE4       aDjiaaawbscen_2
 0001:00057E04       aS_18
 0001:00057E38       aSEnd_4
 0001:00057E6C       aDjiaaascenem_0
 0001:00057E80       aSetSceneModeD1
 0001:00057EB4       aDjiaaascenem_1
 0001:00057ECC       aScenemodeTestS
 0001:00057EFC       aScenemodeTestE
 0001:00057F2C       aDjiaaashutte_2
 0001:00057F4C       aSetShutter_o_0
 0001:00057F70       aMaxshutD
 0001:00057F7C       aDjiaaascenem_2
 0001:000580D4       aSRecShuttSetFi
 0001:00058110       aSRecShuttSet_0
 0001:00058134       aDjiaaadigitale
 0001:0005814C       aDjiaaadigita_0
 0001:00058164       aDjiaaadigita_1
 0001:00058180       aDigitaleffectT
 0001:000581B4       aDigitaleffec_0
 0001:000581E8       aDjiaaadigita_2
 0001:00058208       aDjiaaasharpnes
 0001:0005821C       aDjiaaasharpn_0
 0001:00058230       aDjiaaasharpn_1
 0001:00058248       aSharpnessTestS
 0001:00058278       aSetParamS_0
 0001:00058288       aSharpnessTestE
 0001:000582B8       aDjiaaasharpn_2
 0001:000582D4       aDjiaaacontrast
 0001:000582E8       aDjiaaacontra_0
 0001:000582FC       aDjiaaacontra_1
 0001:00058310       aContrastTestSt
 0001:00058340       aContrastTestEn
 0001:00058370       aDjiaaacontra_2
 0001:0005838C       aDjiaaahueget
 0001:0005839C       aDjiaaahueset
 0001:000583AC       aDjiaaahue_test
 0001:000583BC       aHueTestStart
 0001:000583E8       aHueTestEnd
 0001:00058410       aDjiaaahuesetca
 0001:00058428       aDjiaaasaturati
 0001:0005843C       aDjiaaasatura_0
 0001:00058450       aDjiaaasatura_1
 0001:00058468       aSaturationTest
 0001:00058498       aSaturationTe_0
 0001:000584C8       aDjiaaasatura_2
 0001:000584E4       aDjiaebsetcallb
 0001:000584F8       aDjiphotoaebset
 0001:00058508       aDjiaaaRegressi
 0001:0005853C       aDjiaaaregressi
 0001:00058554       aUsage_0
 0001:0005855C       a0Eantiflicker
 0001:0005856C       a1Eaeevbias
 0001:0005857C       a2Eaemeteringmo
 0001:00058590       a3Eaemeteringsp
 0001:000585A4       a4Eiso
 0001:000585AC       a5Ewbscenemode
 0001:000585BC       a6Eawbscenemode
 0001:000585D0       a7Escenemode
 0001:000585E0       a8Eshutter
 0001:000585EC       a9Esharpness
 0001:000585FC       a10Esaturation
 0001:0005860C       a11Econtrast
 0001:0005861C       a12Ehue
 0001:00058624       a13Edigitaleffe
 0001:00058638       a14Emode
 0001:00058644       a15Eprint
 0001:00058650       a16EhistoGammaD
 0001:00058678       a17ExposureInfo
 0001:00058690       a18EbrightInfoG
 0001:000586A4       a19EbrightInfoS
 0001:000586B8       a20AetargetSet
 0001:000586C8       a21Aelock
 0001:000586D4       a22Aperture
 0001:000586E0       a23Focus
 0001:000586EC       a24Calibchange
 0001:000586FC       a25DynamicToneC
 0001:00058714       a100Etestall
 0001:00058724       aMoreThanTheTes
 0001:00058740       aDjiaaaantifl_3
 0001:00058768       aDjiaaaantifl_4
 0001:00058794       aDjiaaaantifl_5
 0001:000587BC       aDjiaaaantifl_6
 0001:000587E8       aDjiaaaaeevbi_3
 0001:0005880C       aDjiaaaaeevbi_4
 0001:00058830       aDjiaaaaeevbi_5
 0001:00058850       aDjiaaaaeevbi_6
 0001:00058874       aDjiaaaaemete_6
 0001:0005889C       aDjiaaaaemete_7
 0001:000588C8       aDjiaaaaemete_8
 0001:000588F0       aDjiaaaaemete_9
 0001:0005891C       aDjiaaaaemet_10
 0001:00058944       aDjiaaaaemet_11
 0001:00058970       aDjiaaaaemet_12
 0001:00058998       aDjiaaaaemet_13
 0001:000589C4       aDjiaaaisogetGe
 0001:000589E0       aDjiaaaisoget_0
 0001:00058A00       aDjiaaaisosetSe
 0001:00058A1C       aDjiaaaisoset_0
 0001:00058A3C       aDjiaaawbtemp_1
 0001:00058A64       aDjiaaawbtemp_2
 0001:00058A90       aDjiaaawbtemp_3
 0001:00058AB8       aDjiaaawbtemp_4
 0001:00058AE4       aDjiaaawbscen_3
 0001:00058B08       aDjiaaawbscen_4
 0001:00058B30       aDjiaaawbscen_5
 0001:00058B54       aDjiaaawbscen_6
 0001:00058B7C       aDjiaaascenem_3
 0001:00058BA0       aDjiaaascenem_4
 0001:00058BC8       aDjiaaascenem_5
 0001:00058BEC       aDjiaaascenem_6
 0001:00058C14       aDjiaaashutte_4
 0001:00058C3C       aDjiaaashutte_5
 0001:00058C64       aDjiaaashutte_6
 0001:00058C8C       aDjiaaashutte_7
 0001:00058CB4       aDjiaaasharpn_3
 0001:00058CD8       aDjiaaasharpn_4
 0001:00058D00       aDjiaaasharpn_5
 0001:00058D24       aDjiaaasharpn_6
 0001:00058D4C       aDjiaaasatura_3
 0001:00058D70       aDjiaaasatura_4
 0001:00058D98       aDjiaaasatura_5
 0001:00058DBC       aDjiaaasatura_6
 0001:00058DE4       aDjiaaacontra_3
 0001:00058E08       aDjiaaacontra_4
 0001:00058E2C       aDjiaaacontra_5
 0001:00058E50       aDjiaaacontra_6
 0001:00058E74       aDjiaaahuegetGe
 0001:00058E90       aDjiaaahueget_0
 0001:00058EB0       aDjiaaahuesetSe
 0001:00058ECC       aDjiaaahueset_0
 0001:00058EEC       aDjiaaadigita_3
 0001:00058F14       aDjiaaadigita_4
 0001:00058F40       aDjiaaadigita_5
 0001:00058F68       aDjiaaadigita_6
 0001:00058F98       aDjiaaastillmod
 0001:00058FBC       aDjiaaastillm_0
 0001:00058FE8       aDjiaaastillm_1
 0001:00059010       aDjiaaastillm_2
 0001:00059038       aDjiaaastillm_3
 0001:00059060       aDjiaaastillm_4
 0001:00059088       aDjiaaascenem_7
 0001:000590B0       aDjiaaascenem_8
 0001:000590D8       aStillpmodeStil
 0001:00059124       aDjiaaaEhistoga
 0001:00059148       aDjiaaaEhisto_0
 0001:00059168       aDjiaaaEhisto_1
 0001:00059188       aDjiaaaEhisto_2
 0001:000591B0       aDjiaaaExposure
 0001:000591D8       aBrightnessD
 0001:000591E8       aEbrightgetPara
 0001:00059204       aEbrightsetPara
 0001:00059220       aAetargetsetPar
 0001:0005923C       aDjiaaaaelgetD0
 0001:00059260       aDjiaaaaelsetSe
 0001:00059290       aDjiaaaaelset_0
 0001:000592B0       aDjiaaaapertu_2
 0001:000592D0       aDjiaaaapertu_3
 0001:000592F0       aDjiaaaapertu_4
 0001:00059314       aDjiaaaapertu_5
 0001:00059338       aDjiaaafocusv_0
 0001:00059358       aDjiaaafocusv_1
 0001:00059374       aDjiaaafocusv_2
 0001:00059398       aDjiaaafocusv_3
 0001:000593C0       aDynaTcParamFai
 0001:000593D8       aDjiaaainit
 0001:000593E4       aDji_3a3aCallba
 0001:00059414       aDjiaaamaxminsh
 0001:00059438       aDjiaaaaebisosh
 0001:00059468       aSizeofDji_aeb_
 0001:00059484       aMGearShutterof
 0001:000594B4       aMGearIsooffset
 0001:000594DC       aShut15sModifyS
 0001:0005951C       aShut15sModifyI
 0001:00059558       aMGearShutterae
 0001:0005959C       aMGearIsoaebD_v
 0001:000595D8       aSGearIsotrueva
 0001:000595FC       aSGearEvbiasoff
 0001:00059618       aSGearIsoaebD_v
 0001:00059654       aIsoTrueValueD
 0001:00059668       aPGearShutterof
 0001:00059698       aPGearTrueisova
 0001:000596B4       aShut15sModif_0
 0001:000596F4       aShut15sModif_1
 0001:00059730       aPGearShutterae
 0001:00059774       aPGearIsoaebD_v
 0001:0005A288       aDjiafgetbuffer
 0001:0005A29C       aDji_afSTakeCur
 0001:0005A2F8       aCurRgbYD
 0001:0005A308       aCurRgbFv1D
 0001:0005A318       aCurRgbFv2D
 0001:0005A328       aCurCfaYD
 0001:0005A338       aCurCfaFv1D
 0001:0005A348       aCurCfaFv2D
 0001:0005A358       aCurtotalDD
 0001:0005A36C       aThereIsNoDataI
 0001:0005A388       aThereIsDDataIn
 0001:0005A3A8       aDDDDD
 0001:0005A3C0       aCycleTimeD
 0001:0005A3D0       aScanInfoStartD
 0001:0005A3F8       aCoarsepeakInfo
 0001:0005A434       aFinepeakInfoPo
 0001:0005A46C       aCurrentAppertu
 0001:0005A49C       aVer_2
 0001:0005A4A0       aCommandUnitTestTDjiAfifVer
 0001:0005A4C4       aTest_11
 0001:0005A4CC       aCommandUnitTes
 0001:0005A4F0       aWrite_1
 0001:0005A4F8       aCommandUnitT_0
 0001:0005A528       aRead_0
 0001:0005A530       aCommandUnitT_1
 0001:0005A558       aFstop
 0001:0005A560       aCommandUnitT_2
 0001:0005A59C       aShading
 0001:0005A5A4       aCommandUnitT_3
 0001:0005A5E4       aIris
 0001:0005A5EC       aNothing
 0001:0005A5F4       aDjiafifgetrout
 0001:0005A604       aDji_afifSHowCa
 0001:0005A624       aDjiafifrcvres
 0001:0005A634       aDji_afifSRecvE
 0001:0005A664       aDji_afifVerD
 0001:0005A680       aDji_afifRetD
 0001:0005A69C       aDji_afifWriteD
 0001:0005A6C0       aDjiafifread
 0001:0005A6CC       aDji_afifDataDD
 0001:0005A6EC       aDji_afifSDSucc
 0001:0005A714       aDji_afifSFaied
 0001:0005A734       aDjiafifshading
 0001:0005A744       aDji_afifSInput
 0001:0005A768       aDji_afifSSetVa
 0001:0005A794       aDji_afifDDD
 0001:0005A7AC       aDjiafifreadfro
 0001:0005A7C0       aDji_afifSTakeM
 0001:0005A7F4       aDji_afifSCmdDF
 0001:0005A820       aDjiafifwriteto
 0001:0005A834       aDji_afifWrit_0
 0001:0005A85C       aDjiafifwrite_0
 0001:0005A878       aDji_afifSGoToD
 0001:0005A894       aDjiafifsetfsto
 0001:0005A8A4       aDjiafifsetfocu
 0001:0005A8BC       aDji_afifSInp_0
 0001:0005A8E0       aDji_afifSInp_1
 0001:0005A90C       aDjigetaperture
 0001:0005A920       aDji_apertureSD
 0001:0005A958       aDji_apertureSM
 0001:0005A980       aDji_apertureSP
 0001:0005A9A8       aDjicmmfirmware
 0001:0005A9C4       aDji_cmmSLenErr
 0001:0005AA00       aDji_cmmSVerify
 0001:0005AA3C       aDji_cmmVerifyi
 0001:0005AA64       aDjicmmfirmwa_0
 0001:0005AA80       aFc300x
 0001:0005AA88       aDji_cmmModelNa
 0001:0005AAA8       aDji_cmmSFoundI
 0001:0005AAC8       aDji_cmmSSCodeI
 0001:0005AAF0       aDjicmmfirmwa_1
 0001:0005AB04       aDji_cmmSNullPo
 0001:0005AB2C       aDji_cmmSCanTOp
 0001:0005AB58       aDji_cmmSSeekIm
 0001:0005AB80       aDji_cmmSReadFi
 0001:0005ABAC       aDji_cmmSFirmwa
 0001:0005ABE0       aDji_cmmStartFi
 0001:0005AC08       aDji_cmmCheckS
 0001:0005AC1C       aDji_cmmSReadIm
 0001:0005AC44       aDji_cmmSInvali
 0001:0005AC68       aDjicamerafirmw
 0001:0005AC80       aCFc350fw_bin
 0001:0005AC90       aDji_cmmFirmwar
 0001:0005ACB8       aCFc350fw_damag
 0001:0005ACD0       aDji_cmmSTryToR
 0001:0005AD04       aDji_cmmSRename
 0001:0005AD38       aDji_cmmSFirm_0
 0001:0005AD68       aDji_cmmSetMagi
 0001:0005AD84       aDji_cmmSStartU
 0001:0005ADC0       aDji_cmmFirmw_0
 0001:0005ADE8       aDjicmmcaptypes
 0001:0005ADFC       aDji_cmmSCaptur
 0001:0005AE2C       aDjinotice1765s
 0001:0005AE4C       aDji_cmmSSendPa
 0001:0005AE90       aDjicmmdownload
 0001:0005AEA8       aDji_cmmSSetUsb
 0001:0005AED4       aDji_cmmSStopSt
 0001:0005AEF8       aPbworkmodeindo
 0001:0005AF14       aPbworkmodein_0
 0001:0005AF30       aDji_cmmSStartS
 0001:0005AF54       aDji_cmmSSwitch
 0001:0005AF88       aDjicmmusbswitc
 0001:0005AF98       aDjicmmopmodect
 0001:0005AFAC       aDji_cmmSDisabl
 0001:0005AFD8       aDji_cmmSSwit_0
 0001:0005B000       aDjicmmclkchang
 0001:0005B01C       aDji_cmmSStopMo
 0001:0005B050       aDji_cmmSStartM
 0001:0005B084       aDjicmmsetopmod
 0001:0005B094       aDji_cmmSInputC
 0001:0005B0C8       aDji_cmmSSetClo
 0001:0005B0F0       aDji_cmmSReconf
 0001:0005B124       aDjicmmopmodesw
 0001:0005B13C       aDji_cmmSOpmode
 0001:0005B15C       aSUEnterXcodeDo
 0001:0005B184       aSUEnterXcode_0
 0001:0005B1B0       aDji_cmmSDisa_0
 0001:0005B1E8       aSUEnterXcodePb
 0001:0005B20C       aSUEnterXcode_1
 0001:0005B230       aDji_cmmSSwit_1
 0001:0005B254       aDji_cmmSOperat
 0001:0005B290       aDjicmmopmode_0
 0001:0005B2A4       aDji_cmmSOper_0
 0001:0005B2D4       aDji_cmmSCanNot
 0001:0005B324       aDji_cmmSSwit_2
 0001:0005B354       aDjicmmrawbufal
 0001:0005B370       aDji_cmmSCanN_0
 0001:0005B3B4       aDjicmmrawbufre
 0001:0005B3C8       aDji_cmmSInputE
 0001:0005B408       aDjicmmrawbuf_0
 0001:0005B41C       aDji_cmmSInpu_0
 0001:0005B468       aDji_cmmSInpu_1
 0001:0005B4A4       aDji_cmmSTakeMu
 0001:0005B4C4       aDji_cmmSBefore
 0001:0005B4F0       aDji_cmmSRawBuf
 0001:0005B548       aDji_cmmSRawB_0
 0001:0005B594       aDji_cmmSRawB_1
 0001:0005B5B8       aDji_cmmSSaveAl
 0001:0005B5E4       aDji_cmmSRawB_2
 0001:0005B630       aDji_cmmSAfterA
 0001:0005B658       aDjicmmrawbuffr
 0001:0005B66C       aDji_cmmSAddr0x
 0001:0005B6A0       aDji_cmmSAddr_0
 0001:0005B6E4       aDji_cmmSFreeOk
 0001:0005B738       aDji_cmmSCanN_1
 0001:0005B780       aCapdoneSetAeUn
 0001:0005B7A0       aDjicmmcapnumin
 0001:0005B7B8       aDji_cmmSCapnum
 0001:0005B7D4       aDjicmmstoraget
 0001:0005B7F0       aDji_cmmSStorag
 0001:0005B810       aDjicmmdocaptur
 0001:0005B820       aDji_cmmSGetOpe
 0001:0005B848       aDji_cmmSOper_1
 0001:0005B878       aDji_cmmSStartC
 0001:0005B89C       aDjicmmrecordct
 0001:0005B8B0       aDji_cmmSCurren
 0001:0005B8F4       aDji_cmmSAlread
 0001:0005B91C       aDji_cmmSStartR
 0001:0005B938       aDji_cmmSAlre_0
 0001:0005B960       aDji_cmmSStopRe
 0001:0005B97C       aDjicmmdorecord
 0001:0005B98C       aDji_cmmSTake_0
 0001:0005B9B4       aDji_cmmSVideoR
 0001:0005B9EC       aDjicmmrecordre
 0001:0005BA00       aDji_cmmSAlre_1
 0001:0005BA1C       aDji_cmmSStopVi
 0001:0005BA4C       aDji_cmmSStartV
 0001:0005BA7C       aDjicmmdodzoom
 0001:0005BA8C       aDji_cmmSStartD
 0001:0005BAC4       aDjicmmdzoomgui
 0001:0005BADC       aDji_cmmSInva_0
 0001:0005BB2C       aDjicmmdzoomfac
 0001:0005BB44       aDji_cmmSTake_1
 0001:0005BB64       aDji_cmmSGiveMu
 0001:0005BB84       aDjipushupdate
 0001:0005BB94       aDji_cmmSPushPa
 0001:0005BBB8       aDjipushstart
 0001:0005BBC8       aDji_cmmSPushAl
 0001:0005BBEC       aDji_cmmSUpdate
 0001:0005BC14       aDjipushstop
 0001:0005BC20       aDji_cmmSPush_0
 0001:0005BC44       aDjicmmpushtask
 0001:0005BC58       aDji_cmmSPushFa
 0001:0005BC7C       aDjicmmpushctrl
 0001:0005BC8C       aDji_cmmSSPushF
 0001:0005BCA8       aStart
 0001:0005BCB0       aStop
 0001:0005BCB8       aDjicmmpushinit
 0001:0005BCC8       aDji_cmmSCreate
 0001:0005BCE8       aDji_cmmSCrea_0
 0001:0005BD10       aDjipushtask
 0001:0005BD1C       aDji_cmmSTaskCr
 0001:0005BD3C       aDji_cmmPushSta
 0001:0005BD60       aDji_cmm
 0001:0005BD94       aDji_cmmTimerEx
 0001:0005BDC0       aDji_cmmBlockEx
 0001:0005BDEC       aDji_cmmLossRat
 0001:0005BE18       aDjicontinparau
 0001:0005BE2C       aDji_cmmSMultiC
 0001:0005BE74       aDjicmmstartcca
 0001:0005BE84       aDji_cmmSUpda_0
 0001:0005BEBC       aDjicmmccapinit
 0001:0005BECC       aDji_cmmSCrea_1
 0001:0005BEF8       aDjiccaptask
 0001:0005BF04       aDji_cmmSContin
 0001:0005BF34       aDjicmmosdmutex
 0001:0005BF48       aDji_cmmSTakeOs
 0001:0005BF7C       aDjicmmsrtstart
 0001:0005BF94       aDji_cmmSGetDji
 0001:0005BFC0       a_srt
 0001:0005BFC8       aDjicmmsrtrecor
 0001:0005BFD8       aD_0
 0001:0005BFE0       a02d02d02d00002
 0001:0005C00C       aDji_cmmSGetHom
 0001:0005C030       aDji_cmmSGetTim
 0001:0005C050       aHome_4f_4f04d_
 0001:0005C080       aHomeNANA04d_02
 0001:0005C0B0       aDji_cmmSGetHdi
 0001:0005C0D4       aGps_4f_4fUBaro
 0001:0005C0F8       aGpsNANAUBarome
 0001:0005C11C       aDji_cmmSGetIso
 0001:0005C138       aDji_cmmSGetShu
 0001:0005C160       aDji_cmmSGetEvB
 0001:0005C180       aDji_cmmSGetApe
 0001:0005C1A4       aIsoSShutterSEv
 0001:0005C1D0       aDjicmmsrtinit
 0001:0005C1E0       aDjisrttask
 0001:0005C1EC       aDji_cmmSCrea_2
 0001:0005C22C       aDjicmmkscninit
 0001:0005C23C       aDji_cmmSMessag
 0001:0005C268       aDjicmmrecosddr
 0001:0005C27C       aDji_cmmSQueryQ
 0001:0005C2A4       aDji_cmmSReceiv
 0001:0005C2D0       a02u02u02u
 0001:0005C2E0       aDji_cmmTimecnt
 0001:0005C300       aSS_12
 0001:0005C308       aMar242016_1
 0001:0005C314       a171721
 0001:0005C320       aDjicmmcaposdit
 0001:0005C338       aIso
 0001:0005C340       aTv
 0001:0005C348       aEv
 0001:0005C350       aDji_cmmSIndexD
 0001:0005C370       aSS_11
 0001:0005C378       aGethistoGetNoD
 0001:0005C3A0       aDji_adjGetNo_0
 0001:0005C3C4       aDjicmmpushstat
 0001:0005C3D8       aDji_cmmSTake_2
 0001:0005C3F8       aDjicmmpushmode
 0001:0005C40C       aDji_cmmSSpecia
 0001:0005C444       aDji_cmmRecS
 0001:0005C478       aDjicmmcreateos
 0001:0005C48C       aDjiosdtask
 0001:0005C498       aDji_cmmSCrea_3
 0001:0005C4C8       aDjicmmosdinit
 0001:0005C4D8       aDji_cmmSCrea_4
 0001:0005C500       aDji_cmmSOsdMut
 0001:0005C530       aDjicmmmonsenso
 0001:0005C548       aDji_cmmSInitMo
 0001:0005C57C       aDjicmmmonthres
 0001:0005C594       aDji_cmmSSensor
 0001:0005C5D0       aDjicmmmonrepor
 0001:0005C5E0       aDji_cmmSSens_0
 0001:0005C61C       aDjicmmmoncurst
 0001:0005C634       aDjicmmmonassis
 0001:0005C650       aDji_cmmSVide_0
 0001:0005C674       aDji_cmmSVide_1
 0001:0005C698       aDji_cmmSVide_2
 0001:0005C6C0       aDji_cmmSVide_3
 0001:0005C6E8       aSUCurrentCamer
 0001:0005C724       aDji_cmmSystemR
 0001:0005C740       aDjicmmmonsen_0
 0001:0005C754       aDji_cmmSAddAll
 0001:0005C788       aDjimontask
 0001:0005C794       aDji_cmmSCrea_5
 0001:0005C7C8       aDjimonassistta
 0001:0005C7DC       aDji_cmmSCrea_6
 0001:0005C814       aDjicmmheartbea
 0001:0005C834       aDji_cmmSInva_1
 0001:0005C85C       aDjicmmheartb_0
 0001:0005C870       aDji_cmmSNewSen
 0001:0005C8A4       aDjicmmledinit
 0001:0005C8B4       aDjicmmrecovery
 0001:0005C8D0       aDji_cmmSDji_ms
 0001:0005C910       aDji_cmmSDji__0
 0001:0005C950       aDjicmmrecove_0
 0001:0005C964       aDjicmmcamerast
 0001:0005C984       aDji_cmmSClearS
 0001:0005C9B4       aDji_cmmSClea_0
 0001:0005C9FC       aDjicmmcamera_0
 0001:0005CA1C       aDjicmmtemperat
 0001:0005CA34       aDji_cmmSInputP
 0001:0005CA70       aDjicmmagingtry
 0001:0005CA88       aDji_cmmSNull_0
 0001:0005CAB0       aDji_cmmSGetMna
 0001:0005CACC       aDjicmmagingt_0
 0001:0005CAE4       aDjicmmagingddr
 0001:0005CAFC       aDji_cmmSNull_1
 0001:0005CB24       aDjicmmagingd_0
 0001:0005CB40       aDjicmmddrparam
 0001:0005CB6C       aFc300xVer_b_0
 0001:0005CB7C       aDji_cmmSDdrPar
 0001:0005CBB4       aDji_cmmSTemper
 0001:0005CBF0       aDji_cmmSTemp_0
 0001:0005CC2C       aDji_cmmSTemp_1
 0001:0005CC68       aDjicmmtemper_0
 0001:0005CC88       aDji_cmmSGetNod
 0001:0005CCB4       aDjicmmtemper_1
 0001:0005CCCC       aDji_cmmSNodeUT
 0001:0005CCF8       aDjicmmtemper_2
 0001:0005CD10       aDji_cmmSNode_0
 0001:0005CD40       aDjicmmtemper_3
 0001:0005CD58       aDji_cmmSNode_1
 0001:0005CDA4       aDjicmmtemper_4
 0001:0005CDC4       aDji_cmmSRegist
 0001:0005CDF4       aDjicmmupdateen
 0001:0005CE0C       aDjicmmwdgstart
 0001:0005CE1C       aDji_cmmSWatchD
 0001:0005CE74       aDjicmmwatchdog
 0001:0005CE88       aDji_cmmSStopWa
 0001:0005CED0       aDji_cmmSEnable
 0001:0005CF10       aDji_cmmSWatc_0
 0001:0005CF58       aDjiwdgtask
 0001:0005CF64       aDji_cmmSWatc_1
 0001:0005CF90       aDjicmmtimersta
 0001:0005CFA4       aDji_cmmSSetTim
 0001:0005CFCC       aDji_cmmSTimerI
 0001:0005CFE8       aDjicmmtimersto
 0001:0005CFF8       aDji_cmmSSetT_0
 0001:0005D024       aDjicmminit
 0001:0005D030       aDji_cmmSCamera
 0001:0005D05C       aDji_cmmSCame_0
 0001:0005D094       aDji_cmmSVide_4
 0001:0005D0CC       aDji_cmmSCapt_0
 0001:0005D10C       aDji_cmmSCame_1
 0001:0005D14C       aDji_cmmSStartT
 0001:0005D178       aDji_cmmSDigita
 0001:0005D1A8       aDji_cmmSCont_0
 0001:0005D1E0       aDji_cmmSPushSe
 0001:0005D210       aDji_cmmSSrtIni
 0001:0005D238       aDji_cmmSKscnIn
 0001:0005D260       aDji_cmmSOsdIni
 0001:0005D288       aDji_cmmSMonito
 0001:0005D2BC       aDji_cmmSCame_2
 0001:0005D2E4       aDjicmmsdmonito
 0001:0005D2F8       aDjimovierecord
 0001:0005D314       aSUsedBufferPro
 0001:0005D348       aDjimoviereco_0
 0001:0005D374       aDji_cmmSGetVid
 0001:0005D398       aDji_cmmSGetBit
 0001:0005D3BC       aSUsedBufferP_0
 0001:0005D404       aDjimoviereco_1
 0001:0005D430       aSUsedBufferP_1
 0001:0005D474       aDjicmmbufferin
 0001:0005D488       aDji_cmmLinuxBo
 0001:0005D4B4       aDji_cmmFirmw_1
 0001:0005D800       aDjifilecopy
 0001:0005D80C       aSNullPointerPs
 0001:0005D828       aSNullPointerPd
 0001:0005D844       aSStatPathFailP
 0001:0005D868       aSInvalidParamO
 0001:0005D8AC       aSOpenPathFailP
 0001:0005D8D0       aSSeekPathFailP
 0001:0005D900       aSOpenPathFai_0
 0001:0005D924       aSReadFileFail
 0001:0005D938       aSWriteFileFail
 0001:0005D950       aDjicirbufinit
 0001:0005D960       aSCreateMutex_1
 0001:0005D978       aDjiserialnumge
 0001:0005D990       aSCreateMutex_0
 0001:0005D9A8       aSTakeMutexFail
 0001:0005E100       aDjidng_entryid
 0001:0005E114       aDji_dngSLUTheI
 0001:0005E144       aDjidng_exififd
 0001:0005E158       aDji_dngSLUUnkn
 0001:0005E184       aDjidng_gpsifdp
 0001:0005E198       aDjidng_ifd0put
 0001:0005E1A8       aDji_dngSLUUn_0
 0001:0005E1D0       aDjidng_subifd1
 0001:0005E1E4       aDjidng_subifd2
 0001:0005E1F8       aDjidng_scanabl
 0001:0005E20C       aDji_dngSLUDete
 0001:0005E238       aDjidng_ifddesc
 0001:0005E24C       aDji_dngSLUTh_0
 0001:0005E27C       aDjidng_fileini
 0001:0005E28C       aDji_dngSLUInit
 0001:0005E2C8       aDjidng_xmpinfo
 0001:0005E2DC       aDjidng_ifd0ima
 0001:0005E2F4       aDji_dngSLUDjid
 0001:0005E324       a2014031100
 0001:0005E330       aEmbedded
 0001:0005E33C       aDjidng_exifima
 0001:0005E354       aDjidng_gpsimag
 0001:0005E36C       aDjidng_subif_0
 0001:0005E388       aSUBeginToSetTh
 0001:0005E3C4       aSUBeginToSet_0
 0001:0005E404       aDjidng_subif_1
 0001:0005E420       aDjidng_imagein
 0001:0005E434       aDjidng_fileinf
 0001:0005E448       aDji_dngSLUTher
 0001:0005E490       aDji_dngSLUAllo
 0001:0005E4C4       aDji_dngSLUDj_0
 0001:0005E4F4       aDji_dngSLUSetT
 0001:0005E540       aDji_dngSLUDj_1
 0001:0005E570       aDji_dngSLUDj_2
 0001:0005E5A4       aDjidng_filewri
 0001:0005E5B8       aDji_dngSLUSGet
 0001:0005E5E8       a_dng_4
 0001:0005E5F0       aDji_dngSLUOpen
 0001:0005E618       aDji_dngSLUSave
 0001:0005E644       aDji_dngSLUSavi
 0001:0005E66C       aDjidng_makerif
 0001:0005E680       aDji_dngSLUTheB
 0001:0005E6CC       aDjidng_fileval
 0001:0005E6E0       aDji_dngSLUGetT
 0001:0005E710       aDjidng_ifdspar
 0001:0005E724       aDji_dngSLUMemo
 0001:0005E750       aDji_dngSLURead
 0001:0005E778       aDji_dngSLUTooM
 0001:0005E7C0       aDji_dngSLUAmba
 0001:0005E7E8       aDji_dngSLUDj_3
 0001:0005E818       aDjidng_locin_1
 0001:0005E82C       aDji_dngSLUTh_1
 0001:0005E85C       aDji_dngSLUFail
 0001:0005E884       aDji_dngSLUDj_4
 0001:0005E8B8       aSAmbavfs_seekF
 0001:0005E8D0       aDjidng_fileisv
 0001:0005E8E4       aDji_dngSLUFile
 0001:0005E910       aDjidng_opcodee
 0001:0005E92C       aDji_dngSLUOpco
 0001:0005E958       aDjidng_bpcinfo
 0001:0005E97C       aDji_dngSLUGetB
 0001:0005E9A4       aDji_dngSLUChan
 0001:0005E9FC       aDji_dngSLUBadP
 0001:0005EA38       aDji_dngSLUTh_2
 0001:0005EA78       aDji_dngSLUGe_0
 0001:0005EAA4       aDji_dngSLUTh_3
 0001:0005EAD8       aDji_dngSLUAl_0
 0001:0005EB10       aDji_dngSLUSe_0
 0001:0005EB64       aDji_dngSLUSe_1
 0001:0005EBBC       aDji_dngSLUTh_4
 0001:0005EBFC       aDji_dngSLUAl_1
 0001:0005EC3C       aDji_dngSLUGetO
 0001:0005EC70       aDji_dngSLUGe_1
 0001:0005ECA8       aDjidng_bpccorr
 0001:0005ECCC       aDji_dngSLUInva
 0001:0005ECF8       aDji_dngSLURota
 0001:0005ED24       aDjidng_bufwrit
 0001:0005ED3C       aDji_dngSLUFa_0
 0001:0005ED68       aDjidnginit
 0001:0005ED74       aDji_dngSLUDngF
 0001:0005EDAC       aRead_1
 0001:0005EDB4       aCommandUnitT_4
 0001:0005EDDC       aNonce
 0001:0005EDE4       aCommandUnitT_5
 0001:0005EE0C       aMac_0
 0001:0005EE10       aCommandUnitTestTDjiEncryptMac
 0001:0005EE38       aCheck
 0001:0005EE40       aCommandUnitT_6
 0001:0005EE68       aSn
 0001:0005EE6C       aCommandUnitTestTDjiEncryptSn
 0001:0005EE90       aSave_key
 0001:0005EE9C       aCommandUnitT_7
 0001:0005EEC8       aLock_config
 0001:0005EED4       aCommandUnitT_8
 0001:0005EF04       aW_data_zone
 0001:0005EF10       aCommandUnitT_9
 0001:0005EF40       aW_data_zone_in
 0001:0005EF54       aCommandUnit_10
 0001:0005EF88       aRew_data_zone
 0001:0005EF98       aCommandUnit_11
 0001:0005EFC8       aLock_data
 0001:0005EFD4       aCommandUnit_12
 0001:0005F000       aR_data_zone
 0001:0005F00C       aCommandUnit_13
 0001:0005F03C       aR_data_zone_in
 0001:0005F050       aCommandUnit_14
 0001:0005F084       aW_otp_zone
 0001:0005F090       aCommandUnit_15
 0001:0005F0BC       aLock_otp
 0001:0005F0C8       aCommandUnit_16
 0001:0005F0F4       aR_otp_zone
 0001:0005F100       aCommandUnit_17
 0001:0005F12C       aSave_rom
 0001:0005F138       aCommandUnit_18
 0001:0005F164       aRead_rom
 0001:0005F170       aCommandUnit_19
 0001:0005F19C       aInit_6
 0001:0005F1A4       aCommandUnit_20
 0001:0005F1CC       aSha204m_read
 0001:0005F1DC       aDji_encryptSXX
 0001:0005F208       aSha204m_write
 0001:0005F338       aSha204p_wakeup
 0001:0005F348       aDji_encryptSWa
 0001:0005F370       aSha204p_i2c_se
 0001:0005F384       aDji_encryptSI2
 0001:0005F3B4       aSha204p_receiv
 0001:0005F3D0       aDji_encryptS_0
 0001:0005F404       aDji_encryptS_1
 0001:0005F43C       aDji_encryptLoc
 0001:0005F464       aDji_encryptL_0
 0001:0005F488       aSha204d_test_r
 0001:0005F4A8       aDji_encryptSAf
 0001:0005F4D0       aDji_encryptDX
 0001:0005F4E8       aSha204d_test_n
 0001:0005F4FC       aDji_encryptS_2
 0001:0005F524       aDji_encryptSRa
 0001:0005F54C       aDji_encryptSNo
 0001:0005F570       aDji_encryptS_3
 0001:0005F5A0       aSha204d_test_m
 0001:0005F5B4       aDji_encryptSMa
 0001:0005F5D8       aDji_encryptRes
 0001:0005F5FC       aDji_encryptSnX
 0001:0005F634       aDji_encryptSav
 0001:0005F850       aDji_encryptWri
 0001:0005F878       aDji_encryptW_0
 0001:0005FA9C       aDji_encryptInp
 0001:0005FAC4       aDji_encryptW_1
 0001:0005FAF0       aDji_encryptW_2
 0001:0005FCB8       aDji_encryptRew
 0001:0005FCE8       aDji_encryptR_0
 0001:0005FD0C       aDji_encryptDat
 0001:0005FD34       aDji_encryptL_1
 0001:0005FD58       aDji_encryptSlo
 0001:0005FD90       aDji_encryptXXX
 0001:0005FDC0       aDji_encryptRea
 0001:0005FDFC       aDji_encryptW_3
 0001:0005FE24       aDji_encryptW_4
 0001:0005FE48       aDji_encryptOtp
 0001:0005FF1C       aDDDDDDDDDDDDDD
 0001:0005FF60       aDjiencryptsave
 0001:0005FF74       aDji_encryptSWr
 0001:0005FF9C       aDji_encryptS_4
 0001:0005FFF0       aDji_encryptSRe
 0001:00060044       aDjiencryptread
 0001:0006005C       aDjiencryptget2
 0001:00060078       aDji_encryptSLo
 0001:000600AC       aDjiencryptwrit
 0001:000600CC       aDji_encryptSSa
 0001:000600F8       aDji_encryptS_5
 0001:00060174       aDjiencryptwr_0
 0001:00060194       aDji_encryptW_5
 0001:000601B4       aDji_encryptS_6
 0001:00060234       aDjiencryptwr_1
 0001:00060250       aDji_encryptW_6
 0001:0006027C       aDji_encryptS_7
 0001:000602F8       aDji_encryptR_1
 0001:0006031C       aDji_encryptWak
 0001:00060340       aDji_encryptGet
 0001:00060364       aDjiencryptgetk
 0001:00060378       aDji_encryptS_8
 0001:000603A4       aDjiencryptchec
 0001:000603BC       aDji_encryptDRa
 0001:000603DC       aDji_encryptSGe
 0001:00060404       aDji_encryptS_9
 0001:00060430       aDji_encrypt_10
 0001:00060458       aDji_encryptDRx
 0001:00060484       aDji_encryptPas
 0001:000604A0       aDjiencryptinit
 0001:000604B0       aDji_encryptSCo
 0001:000604E0       aDji_encrypt_11
 0001:00060514       aDji_encrypt_12
 0001:00060548       aDji_encrypt_13
 0001:00060574       aDji_encryptSIn
 0001:0006059C       aDjiencryptsa_0
 0001:000605B8       aDji_encrypt_14
 0001:000605E4       aDji_encrypt_15
 0001:00060614       aDji_encrypt_16
 0001:00060644       aDji_encrypt_17
 0001:00060670       aDjiencryptsa_1
 0001:00060684       aDji_encrypt_18
 0001:000606B0       aDjiencryptresa
 0001:000606C4       aDji_encrypt_19
 0001:000606EC       aDjiencryptsa_2
 0001:0006070C       aDji_encrypt_20
 0001:00060738       aDji_encrypt_21
 0001:00060760       aDji_encryptG_1
 0001:00060790       aDji_encryptD_0
 0001:000607C4       aDji_encryptG_2
 0001:000607F4       aDji_encryptG_0
 0001:0006081C       aDji_encryptSta
 0001:00060844       aDjiencryptrege
 0001:0006085C       aDji_encrypt_22
 0001:00060890       aDji_encrypt_23
 0001:000608C0       aDji_encryptSA9
 0001:000608FC       aDjiencryptgeta
 0001:00060914       aDji_encrypt_24
 0001:00060944       aDjiencrypttran
 0001:00060954       aDji_encrypt_25
 0001:00060984       aDji_encrypt_26
 0001:000609B8       aDji_encrypt_27
 0001:000609E8       aDjiencryptch_0
 0001:00060A0C       aDji_encryptSNu
 0001:00060A34       aDji_encrypt_28
 0001:00060A5C       aDji_encrypt_29
 0001:00060A84       aDji_encryptSEx
 0001:00060AA4       aDji_encryptSAc
 0001:00060AC4       aDji_encryptSBo
 0001:00060AE0       aDjiencryptch_1
 0001:00060AF4       aDji_encryptSCh
 0001:00060B1C       aDji_encryptSSh
 0001:00060B44       aDji_encrypt_30
 0001:00060B70       aDji_encrypt_31
 0001:00060B9C       aDji_encrypt_32
 0001:00060BC4       aDji_encryptSSu
 0001:00060BE0       aDji_encryptI_0
 0001:00060C18       aDjiexifgpsenst
 0001:00060C2C       aDji_exifSDjius
 0001:00060C70       aDjiexifop_info
 0001:00060C84       aDji_exifSTheIn
 0001:00060CB4       aDji_exifSTakeE
 0001:00060CE8       aDjiexifop_in_0
 0001:00060CFC       aSNoFlightExifD
 0001:00060D18       aDjiexifop_gpsi
 0001:00060D2C       aDji_exifSTak_0
 0001:00060D60       aDjiexifop_make
 0001:00060D78       aDji_exifSTheBu
 0001:00060DC0       aDjiexifinit
 0001:00060DCC       aDji_exifSExifI
 0001:00060DEC       aDji_exifSDjiex
 0001:00060E1C       aDji_exifSDjixm
 0001:00060E48       aDji_exifSExi_0
 0001:00060E68       aDjiexifexposur
 0001:00060E80       aSDjiustusers_0
 0001:00060EB8       aDjiexiflightsr
 0001:00060ECC       aDjiexifmetermo
 0001:00060EE0       aDjiexifexpos_0
 0001:00060EF8       aDjiexifwbget
 0001:00060F08       aDjiexifsceneca
 0001:00060F20       aSDjiustusers_1
 0001:00060F54       aDjiexifcontras
 0001:00060F68       aSDjiustusers_2
 0001:00060F9C       aDjiexifsaturat
 0001:00060FB4       aSDjiustusers_3
 0001:00060FEC       aDjiexifsharpne
 0001:00061000       aSDjiustusers_4
 0001:00061038       aDjijpgvalidchk
 0001:00061048       aDji_exifSThe_0
 0001:00061074       aDji_exifSFaile
 0001:00061098       aSDTheSoi0x04xO
 0001:000610C4       aDji_exifSDAmba
 0001:000610EC       aSUCode0x04xSiz
 0001:00061110       aFc350_0
 0001:00061118       aFc300x_3
 0001:00061120       aFc300s
 0001:00061128       aFc300c_0
 0001:00061130       aDjiexifxmpinfo
 0001:00061144       aDji_exifSUTheI
 0001:00061178       aDji_exifSTakeX
 0001:000611AC       a4d02d02d
 0001:000611BC       aDjiexifdngxmpg
 0001:000611D0       aDji_exifSThe_1
 0001:00061200       aXpacketBegin
 0001:00061214       aIdW5m0mpcehihz
 0001:00061238       aXXmpmetaXmlnsX
 0001:000612D0       aXmlnsTiffHttpN
 0001:00061434       aSSS
 0001:0006143C       aXmpModifydate
 0001:00061450       aXmpCreatedate
 0001:00061464       aTiffMake
 0001:00061474       aTiffModel
 0001:00061484       aStiffS
 0001:00061490       aDcFormatImage
 0001:000614A8       aS_2fS
 0001:000614B4       aDroneDjiAbsolu
 0001:000614D4       aDroneDjiRelati
 0001:000614F4       aDroneDjiGimbal
 0001:00061514       aDroneDjiGimb_0
 0001:00061534       aDroneDjiGimb_1
 0001:00061558       aDroneDjiFlight
 0001:00061578       aDroneDjiFlig_0
 0001:00061598       aDroneDjiFlig_1
 0001:000615BC       aCrsVersion7_0C
 0001:00061624       aRdfDescription
 0001:00061654       aXpacketEndW
 0001:0006166C       aDji_exifGenera
 0001:000616AC       aDjiexifjpgxmpg
 0001:000616C0       aHttpNs_adobe_c
 0001:000616E0       aSjpegS
 0001:000616EC       aDjiexifxmpin_0
 0001:00061700       aDji_exifSThe_2
 0001:0006172C       aDji_exifSInval
 0001:00061750       aDjipanotakepho
 0001:00061764       aDji_gimbalrota
 0001:00061788       aGimbaltestfun
 0001:00061798       aManualtakephot
 0001:000617A8       aDjigimbalrotat
 0001:000617C0       aDji_gimbalro_0
 0001:00061800       aDjigimbalrot_0
 0001:00061818       aDji_gimbalro_1
 0001:0006184C       aDjigimbalrot_1
 0001:00061868       aDji_gimbalro_2
 0001:00061898       aDjigimbalrot_2
 0001:000618B0       aDji_gimbalro_3
 0001:000618D0       aDjirotategimba
 0001:000618E4       aDji_gimbalro_4
 0001:00061944       aDji_gimbalro_5
 0001:00061988       aDjigimbalrot_3
 0001:000619A8       aDji_gimbalro_6
 0001:000619D8       aDji_gimbalro_7
 0001:00061A00       aDjigetgimbalst
 0001:00061A18       aDjigimbalro_11
 0001:00061A30       aDji_gimbalr_89
 0001:00061A5C       aDjigetgimbal_0
 0001:00061A74       aDji_gimbalro_8
 0001:00061AB4       aDji_gimbalro_9
 0001:00061AF0       aDji_gimbalr_10
 0001:00061B20       aDji_gimbalr_11
 0001:00061B40       aDji_gimbalr_12
 0001:00061B70       aDji_gimbalr_13
 0001:00061C14       aDji_gimbalr_14
 0001:00061C68       aDji_gimbalr_15
 0001:00061CB8       aDjigimbalrot_4
 0001:00061CD0       aDji_gimbalr_16
 0001:00061CF4       aDjigimbalrot_5
 0001:00061D18       aDjigimbalrot_6
 0001:00061D3C       aDji_gimbalr_17
 0001:00061D88       aDji_gimbalr_18
 0001:00061DD4       aDjigimbalrot_7
 0001:00061DEC       aDji_gimbalr_19
 0001:00061E28       aDji_gimbalr_20
 0001:00061E58       aDji_gimbalr_21
 0001:00061E94       aDji_gimbalr_22
 0001:00061EB4       aDji_gimbalr_23
 0001:00061EE0       aDji_gimbalr_24
 0001:00061F28       aDji_gimbalr_25
 0001:00061F64       aDji_gimbalr_26
 0001:00061FA0       aDji_gimbalr_27
 0001:00061FDC       aDji_gimbalr_28
 0001:00062008       aDji_gimbalr_29
 0001:00062030       aDji_gimbalr_30
 0001:00062088       aDji_gimbalr_31
 0001:000620B0       aDji_gimbalr_32
 0001:000620DC       aDji_gimbalr_33
 0001:0006210C       aDji_gimbalr_34
 0001:00062154       aDji_gimbalr_35
 0001:00062188       aDji_gimbalr_36
 0001:000621C0       aDji_gimbalr_37
 0001:00062210       aDji_gimbalr_38
 0001:00062270       aDji_gimbalr_39
 0001:0006229C       aDji_gimbalr_40
 0001:000622D4       aDjigimbalrot_8
 0001:000622E8       aDji_gimbalr_41
 0001:0006231C       aDji_gimbalr_42
 0001:00062354       aDjigimbalrot_9
 0001:00062368       aDji_gimbalr_43
 0001:0006239C       aDjigimbalro_10
 0001:000623B4       aDji_gimbalr_44
 0001:000623D8       aDji_gimbalr_45
 0001:00062400       aDji_gimbalr_46
 0001:00062428       aDjipanoentrycs
 0001:00062438       aDji_gimbalr_47
 0001:00062470       aDjipanoleavecs
 0001:00062480       aDji_gimbalr_48
 0001:000624AC       aDjipanopushent
 0001:000624C0       aDji_gimbalr_49
 0001:000624FC       aDjipanopushlea
 0001:00062510       aDji_gimbalr_50
 0001:00062540       aDjipanosetstat
 0001:00062550       aDjipanoaelock
 0001:00062560       aDji_gimbalr_51
 0001:0006258C       aDjipanogettota
 0001:000625A0       aDjipanoinit
 0001:000625AC       aDji_gimbalr_90
 0001:000625D8       aDji_gimbalr_91
 0001:00062608       aDjistartpanora
 0001:0006261C       aDji_gimbalr_52
 0001:00062644       aDji_gimbalr_53
 0001:000626BC       aDji_gimbalr_54
 0001:00062710       aDji_gimbalr_56
 0001:0006273C       aDji_gimbalr_55
 0001:00062764       aDji_gimbalr_57
 0001:00062788       aDji_gimbalr_58
 0001:000627BC       aDji_gimbalr_59
 0001:000627E8       aDji_gimbalr_60
 0001:00062818       aDjistopgimbalr
 0001:0006282C       aDji_gimbalr_61
 0001:00062848       aDjistoppanoram
 0001:00062858       aDji_gimbalr_62
 0001:00062888       aDjipanofinisht
 0001:000628A0       aDji_gimbalr_63
 0001:000628C0       aDjipanofinishs
 0001:000628D8       aDjipanomodeset
 0001:000628F0       aDji_gimbalr_64
 0001:0006291C       aDjipanostatemo
 0001:00062930       aDji_gimbalr_65
 0001:0006295C       aDjipanoinfopus
 0001:00062990       aDji_gimbalr_66
 0001:000629BC       aDji_gimbalr_67
 0001:000629F0       a_html_1
 0001:000629F8       aDji_gimbalr_68
 0001:00062A28       aDji_gimbalr_69
 0001:00062A54       aDji_gimbalr_70
 0001:00062A80       aDji_gimbalr_71
 0001:00062AA4       aDjipano_fnameg
 0001:00062ABC       aDji_gimbalr_72
 0001:00062AE0       aDji_gimbalr_73
 0001:00062B20       aDji_gimbalr_74
 0001:00062B4C       aDji_gimbalr_75
 0001:00062B78       aDji_gimbalr_76
 0001:00062BA8       aDji_gimbalr_77
 0001:00062BD4       aDji_gimbalr_78
 0001:00062C00       aSS03d_04dS04dS
 0001:00062C1C       aPanorama_0
 0001:00062C28       aPano_0
 0001:00062C30       a_jpg_2
 0001:00062C38       aDji_gimbalr_79
 0001:00062C68       a_dng_3
 0001:00062C70       aDji_gimbalr_80
 0001:00062C98       aDji_gimbalr_81
 0001:00062CB8       aDji_gimbalr_92
 0001:00062CE0       aDji_gimbalr_93
 0001:00062D00       aDji_gimbalr_94
 0001:00062D1C       aDji_gimbalr_95
 0001:00062D40       aDji_gimbalr_82
 0001:00062D64       aDji_gimbalr_83
 0001:00062D88       aDji_gimbalr_84
 0001:00062DCC       aDji_gimbalr_85
 0001:00062DF4       aDji_gimbalr_86
 0001:00062E1C       aDji_gimbalr_87
 0001:00062EA0       aDji_gimbalr_88
 0001:00066A9C       aDumpbufAddr0x0
 0001:00066AB8       a02x_0
 0001:00066AC0       aUnknowFormatC
 0001:00066AD4       aIpc_bufinit
 0001:00066AF8       aDji_ipcSLUInit
 0001:00066B18       aDji_ipcSLUAllo
 0001:00066B48       aIpc_bufalloc
 0001:00066B58       aDji_ipcSLUAl_0
 0001:00066B84       aIpc_buffree
 0001:00066B90       aDji_ipcSLUNull
 0001:00066BB0       aDji_ipcSLUFree
 0001:00066BD4       aIpc_rpmsg_init
 0001:00066BE4       aDji_ipcSLURpms
 0001:00066C18       aDji_ipcSLUCrea
 0001:00066C50       aDji_ipcSLURp_0
 0001:00066C84       aDji_ipcSLURp_1
 0001:00066CB4       aIpc_rpmsg_atta
 0001:00066CC8       aDji_ipcSLUNoEx
 0001:00066CFC       aDji_ipcSLURp_6
 0001:00066D38       aChangePid0x08x
 0001:00066D60       aIpc_rpmsg_deta
 0001:00066D74       aDji_ipcSLURp_2
 0001:00066DA8       aDji_ipcSLURp_7
 0001:00066DD8       aDji_ipcSLURp_8
 0001:00066E08       aDji_ipcSLURp_9
 0001:00066E40       aDji_ipcSLUChan
 0001:00066E84       aSIpcRpmsgCha_0
 0001:00066EB4       aIpc_rpmsg_allo
 0001:00066EC4       aDji_ipcSLUIpcR
 0001:00066F08       aDji_ipcSLUNoFr
 0001:00066F34       aDji_ipcSLUAmba
 0001:00066F60       aDji_ipcSLUAm_0
 0001:00066F94       aSIpcRpmsgChann
 0001:00066FC4       aIpc_rpmsg_free
 0001:00066FD4       aDji_ipcSLURp_3
 0001:00067000       aDji_ipcSLURp_4
 0001:0006702C       aDji_ipcSLUUnre
 0001:00067064       aSFreeRpmsgChan
 0001:00067088       aIpc_rpmsg_send
 0001:00067098       aDji_ipcSLUMsgE
 0001:000670C4       aDji_ipcSLURp_5
 0001:000670F0       aDji_ipcSLUSend
 0001:00067124       aIpc_rpmsg_stat
 0001:00067134       aRpmsgChnnameCh
 0001:00067174       a16s5u5u8u8u8u8
 0001:00067190       aR_ctrl_svcRecv
 0001:000671AC       aCtrl_rpc_svc
 0001:000671BC       aIpc_rpc_cln_in
 0001:000671D0       aSRpcModuleHasI
 0001:000671F4       aCreateIpcRpmsg
 0001:00067218       aSRpmsgMallocBu
 0001:00067238       aIpc_rpc_alloc
 0001:00067248       aSNoFreeRpcChan
 0001:00067264       aSAmbaipc_clien
 0001:00067294       aSIpcRpcChannel
 0001:000672BC       aIpc_rpc_free
 0001:000672CC       aSRpcChannelIdU
 0001:000672EC       aSRpcChannelReF
 0001:00067308       aSRpcChannelNot
 0001:00067324       aSFreeRpcChanne
 0001:00067348       aIpc_rpc_send
 0001:00067358       aSRpcChannelN_0
 0001:00067374       aSSendMsgFailed
 0001:00067394       aIpc_rpc_sendsy
 0001:000673A4       aSSendSynMsgFai
 0001:000673C8       aIpc_rpc_state
 0001:000673D8       aRpcChnnameChni
 0001:00067410       a16s5u5u0x08x8u
 0001:0006742C       aDjiipcinit
 0001:00067438       aDji_ipcSLUCr_0
 0001:00067470       aDjiipcattach
 0001:00067480       aDji_ipcSLUDjiI
 0001:000674C0       aDjiipcalloc
 0001:000674CC       aDji_ipcSLUNo_0
 0001:000674F4       aDji_ipcSLUUnkn
 0001:0006751C       aDji_ipcSLUAtta
 0001:00067550       aDji_ipcSLUFail
 0001:00067580       aDji_ipcSLUIpcC
 0001:000675B0       aDjiipcrxentry
 0001:000675C0       aDji_ipcSLUIpcM
 0001:000675F4       aDji_ipcSLUIp_0
 0001:00067634       aDji_ipcSLUDorp
 0001:00067674       aDjiipcsendsyn
 0001:00067684       aDji_ipcSLUMsgP
 0001:000676AC       aDji_ipcSLUIp_1
 0001:000676D8       aDji_ipcSLUSe_0
 0001:00067700       aDji_ipcSLUResu
 0001:00067730       aDjiipcsend
 0001:0006773C       aDjiipcstate
 0001:00067748       aIpcPidChnidSta
 0001:0006778C       a0x08x5u5u0x08x
 0001:000677B0       aShow_4
 0001:000677B8       aShowLedInfomat
 0001:000677E0       aColor
 0001:000677E8       aSetLedColorTDj
 0001:00067818       aState_0
 0001:00067820       aSetLedStateTDj
 0001:0006785C       aDji_ledStateEr
 0001:00067898       aDji_ledState1N
 0001:000678D4       aDji_ledState2N
 0001:00067910       aDjiledgpiomult
 0001:00067924       aDji_ledSPhysic
 0001:0006794C       aDji_ledSInvali
 0001:00067988       aDji_ledSGpioPi
 0001:000679B4       aDjileddisphand
 0001:000679C8       aDji_ledSPhys_0
 0001:00067A00       aDji_ledSLedPat
 0001:00067A38       aDjiledhwinit
 0001:00067A48       aDji_ledSLedGpi
 0001:00067A74       aDjiledinit
 0001:00067A80       aDji_ledSLedIni
 0001:00067AA0       aDji_ledSLedSta
 0001:00067AC8       aDji_ledSLedHar
 0001:00067AF0       aDji_ledSLedMut
 0001:00067B18       aDji_ledSLedDis
 0001:00067B48       aDji_ledSLedI_0
 0001:00067B64       aDjiledstateset
 0001:00067B78       aDji_ledSInva_0
 0001:00067BA4       aDji_ledSInva_1
 0001:00067BD4       aDji_ledSTakeMu
 0001:00067BF4       aDji_ledSGiveMu
 0001:00067C14       aDjiledstateget
 0001:00067C28       aDji_ledSNullPo
 0001:00067C4C       aDjihg310ledsta
 0001:00067C68       aDji_ledSUnsupp
 0001:00067C8C       aDji_ledSendHg3
 0001:00067CB0       aDjiledtestcolo
 0001:00067CC4       aDji_ledSArgnum
 0001:00067CE4       aDji_ledSLedG_0
 0001:00067D08       aDjiledteststat
 0001:00067D1C       aDji_ledSLedS_0
 0001:00067D40       aDji_ledUserInf
 0001:00067D70       aDji_ledIndex04
 0001:00067D88       aDji_ledColors0
 0001:00067DA4       aDji_ledGpio_S0
 0001:00067DBC       aGreen
 0001:00067DC4       aDji_ledDebugIn
 0001:00067DF4       aDji_ledIndex_0
 0001:00067E18       aDji_ledFpPatte
 0001:00067E50       aDji_ledSpPatte
 0001:00067E88       aDjiinitstage
 0001:00067E98       aDji_maiSInputS
 0001:00067EC4       aDji_maiSStageD
 0001:00067EFC       aDjisysbootupta
 0001:00067F14       aDji_maiSTermin
 0001:00067F38       aDji_maiSDelete
 0001:00067F58       aDji_maiSBootUp
 0001:00067F7C       aAfterSoftwareS
 0001:00067F9C       aSelfTestFail
 0001:00067FAC       aDji_maiDjiSyst
 0001:00067FD4       aDjimaininit
 0001:00067FE0       aDjibootuptask
 0001:00067FF0       aDji_maiSCreate
 0001:00068024       a68013
 0001:0006802C       aWifi
 0001:00068034       aEhci
 0001:0006803C       aOhci
 0001:00068044       aMcctrl_recv
 0001:00068050       aUsbDevAdd0x04x
 0001:00068074       aUsbDevDel0x04x
 0001:00068088       aDji_mcctrlSLUR
 0001:000680C0       aMcctrl_init
 0001:000680CC       aDji_mcctrlSL_3
 0001:000680F4       aMcctrlInitSucc
 0001:0006810C       aMcctrl_getlinu
 0001:00068120       aDji_mcctrlSLUM
 0001:00068150       aAddr0x08xLenU
 0001:00068168       aResultAddr0x08
 0001:00068188       aMcctrl_68013ge
 0001:000681A0       aDji_mcctrlSLUI
 0001:000681C4       aDji_mcctrlSLU6
 0001:000681F0       aMcctrl_68013up
 0001:00068204       aDji_mcctrlSLUF
 0001:00068238       aDji_mcctrlSLUO
 0001:0006826C       a68013FwPathSLe
 0001:00068288       a68013UpdateRes
 0001:000682A4       aMcctrl_wifiupd
 0001:000682B8       aDji_mcctrlSLUW
 0001:000682E4       aDji_mcctrlSL_0
 0001:00068318       aWifiFwPathSLen
 0001:00068334       aWifiUpdateResu
 0001:00068350       aMcctrl_reglinu
 0001:0006836C       aDji_mcctrlSL_1
 0001:00068398       aDji_mcctrlSL_2
 0001:000683CC       aRegisterALinux
 0001:000683FC       aMcctrl_calllin
 0001:0006841C       aDji_mcctrlSLUC
 0001:0006844C       aMcctrl_usbmode
 0001:00068460       aUsbSwitchToS
 0001:00068474       aHost
 0001:0006847C       aDevice
 0001:00068484       aMcctrl_usbmodl
 0001:00068498       aSUsbHostDriver
 0001:000684AC       aRemove
 0001:000684B4       aInsert
 0001:000684BC       aMcctrl_setusbm
 0001:000684D0       aUsbDevSAdd
 0001:000684E0       aUsbDevSDel
 0001:000684F0       aMcctrl_authori
 0001:0006850C       aUpdateAuthoriz
 0001:00068528       aUpdateAuthor_0
 0001:00068568       aMcctrl_rpcctrl
 0001:0006857C       aReciveLinuxBoo
 0001:00068594       aCallLinuxBootu
 0001:000685B8       aDji_mcctrlSLUU
 0001:000685E4       aErrorFoundTest
 0001:0006863C       aInputErrorMemt
 0001:0006867C       aStartMemoryTes
 0001:000686B8       aU
 0001:000686C0       a100
 0001:000686C8       aFinishedTimeUS
 0001:000686E0       aCap_0
 0001:000686E4       aDoCaptureTDjiMsgCapStopContiSin
 0001:00068744       aRec_0
 0001:00068748       aDoRecordTDjiMsgRecStopStartTDji
 0001:00068784       aOpm
 0001:00068788       aSetWorkModeTDjiMsgOpmCapRecPbTD
 0001:000687CC       aUt
 0001:000687D0       aCommandUnitTestTDjiMsgUtRxTypeR
 0001:0006882C       aSt
 0001:00068830       aCommandSystemTestTDjiMsgStCmdse
 0001:0006887C       aGen
 0001:00068880       aGenerateMessageTDjiMsgGenPtlver
 0001:00068900       aStat_0
 0001:00068908       aSetClearCamera
 0001:00068944       aChk
 0001:00068948       aCheckStructure
 0001:0006896C       aPin
 0001:00068970       aPrintSpecialCo
 0001:000689A8       aStg_1
 0001:000689AC       aPrintSpecialStageTDjiMsgStgOffR
 0001:00068A08       aShow_8
 0001:00068A10       aShowMessageHan
 0001:00068A8C       aClr_1
 0001:00068A90       aClearMessageHandlerStatisticsTD
 0001:00068AF4       aFlag
 0001:00068AFC       aControlTheDebu
 0001:00068B64       aLvl
 0001:00068B68       aSetAthorizationLevelTDjiMsgLvlL
 0001:00068BB8       aRot
 0001:00068BBC       aSetRoutePathTDjiMsgRotWm610Hg31
 0001:00068BFC       aPalNtsc
 0001:00068C08       aSetGetVideoSta
 0001:00068C64       aGotodark
 0001:00068C70       aGetInforWhenLi
 0001:00068CA8       aDjimsgmumapind
 0001:00068CC4       aDji_msgSIndex0
 0001:00068CEC       aDjimsgmumapi_0
 0001:00068D08       aDji_msgSInde_0
 0001:00068D44       aVD_D_D
 0001:00068D64       aDjimsgencchips
 0001:00068D7C       aDji_msgSGetSha
 0001:00068DB4       aDjimsgencmodst
 0001:00068DCC       aDji_msgSGetA9S
 0001:00068E00       aDjimsgatvstatu
 0001:00068E4C       aDji_msgSGetChi
 0001:00068E70       aDji_msgSBoardN
 0001:00068E98       aDji_msgSSaveAc
 0001:00068EC4       aDjimsgatvsta_0
 0001:00068F10       aDji_msgSGetAct
 0001:00068F3C       aDji_msg68013No
 0001:00068F68       aDji_msg68013_0
 0001:00068F94       aDji_msgReset68
 0001:00068FC0       aDjimsgrctimesy
 0001:00068FD8       aDji_msgSGetRcR
 0001:00069008       aDjimsgencconfi
 0001:0006903C       aDji_msgSInvali
 0001:00069064       aDji_msgSCheckC
 0001:0006909C       aDji_msgSExpect
 0001:000690BC       aDji_msgSActual
 0001:000690DC       aDji_msgSCheckS
 0001:00069108       aDji_msgSGetRes
 0001:00069138       aDji_msgSGetR_0
 0001:00069168       aDji_msgSConfig
 0001:00069198       aDji_msgSResave
 0001:000691BC       aDji_msgSInva_0
 0001:000691E8       aDji_msgSConf_0
 0001:00069218       aDjimsgencindir
 0001:00069234       aDji_msgSTransE
 0001:00069268       aDjimsgopmodech
 0001:00069280       aDji_msgSGetDji
 0001:000692A8       aDji_msgSSearch
 0001:000692D8       aDji_msgSInva_1
 0001:00069304       aDji_msgSInv_89
 0001:00069348       aDjimsgcapture
 0001:00069358       aDji_msgSInva_2
 0001:00069384       aDji_msgS08xMes
 0001:000693B8       aDji_msgSTakeOp
 0001:000693E4       aDji_msgSInva_3
 0001:00069430       aDji_msgSDoCapt
 0001:0006945C       aDji_msgS08xM_0
 0001:0006948C       aDjimsgplayback
 0001:000694A8       aDji_msgSInva_4
 0001:000694D4       aDji_msgSGetOpe
 0001:000694FC       aDji_msgSSear_0
 0001:00069530       aDji_msgSCurren
 0001:00069568       aDjimsgheartbea
 0001:00069588       aDji_msgSGetD_0
 0001:000695B8       aDjimsgvirtualk
 0001:000695D0       aDji_msgSInva_5
 0001:000695F4       aDjimsgvirtua_0
 0001:0006960C       aDjimsgvirtua_1
 0001:00069624       aDji_msgSGetD_5
 0001:00069650       aDjimsgrtctimes
 0001:00069664       aDji_msgSInva_6
 0001:00069698       aDji_msgSReadBa
 0001:000696C0       aDji_msgSSetRtc
 0001:000696E4       aDji_msgWrite04
 0001:00069718       aDji_msgSRead_0
 0001:0006973C       aDji_msgRead04d
 0001:0006977C       aDjimsgstpushse
 0001:0006978C       aDji_msgSNullPo
 0001:000697B0       aDji_msgSTakeMu
 0001:000697D0       aDjimsgstpushge
 0001:000697E0       aDji_msgSNoVali
 0001:00069804       aDjimsgstosdape
 0001:0006981C       aDji_msgSGetOsd
 0001:00069844       aDji_msgSSear_1
 0001:00069874       aDjimsgstosdshu
 0001:00069890       aDji_msgSGetO_0
 0001:000698BC       aDjimsgstosdiso
 0001:000698D0       aDji_msgSGetO_1
 0001:000698F0       aDjimsgstosdevb
 0001:00069908       aDji_msgSGetO_2
 0001:0006992C       aDjimsgcamerast
 0001:00069948       aDji_msgSInva_7
 0001:0006996C       aDji_msgSDjimsg
 0001:000699A4       aDji_msgSDjim_0
 0001:000699D4       aDji_msgSDjim_1
 0001:00069A0C       aDji_msgSDjim_2
 0001:00069A44       aDji_msgSDjim_3
 0001:00069A7C       aDji_msgSDjim_4
 0001:00069AB4       aDji_msgSDjim_5
 0001:00069AE8       aDji_msgSDjim_6
 0001:00069B1C       aDjimsggimbalwo
 0001:00069B44       aDji_msgSSendRe
 0001:00069B68       aDjimsgusbswitc
 0001:00069B8C       aDjimsgcapturep
 0001:00069BAC       aDji_msgSDjim_7
 0001:00069BE0       aDji_msgSDjim_8
 0001:00069C14       aDji_msgSDjim_9
 0001:00069C40       aDji_msgSDji_10
 0001:00069C70       aDji_msgSDji_11
 0001:00069CA8       aDji_msgSDji_12
 0001:00069CDC       aDji_msgSDji_13
 0001:00069D10       aDji_msgSDji_14
 0001:00069D48       aDji_msgSDji_15
 0001:00069D7C       aDji_msgSDji_16
 0001:00069DB0       aDji_msgSDji_17
 0001:00069DE8       aDji_msgSDji_18
 0001:00069E18       aDji_msgSDji_19
 0001:00069E48       aDji_msgSDji_20
 0001:00069E78       aDji_msgSDji_21
 0001:00069EA4       aDji_msgSDji_22
 0001:00069ED8       aDji_msgSDji_23
 0001:00069F08       aDji_msgSDji_24
 0001:00069F3C       aDji_msgSDji_25
 0001:00069F68       aDji_msgSDji_26
 0001:00069FA0       aDji_msgSDji_27
 0001:00069FD4       aDji_msgSDji_28
 0001:0006A00C       aDji_msgSDji_29
 0001:0006A044       aDji_msgSDji_30
 0001:0006A07C       aDji_msgSDji_31
 0001:0006A0B8       aDji_msgSDji_32
 0001:0006A0E8       aDji_msgSDji_33
 0001:0006A11C       aDjiustuserse_6
 0001:0006A160       aDji_msgSDji_34
 0001:0006A198       aDji_msgSDji_35
 0001:0006A1CC       aDji_msgSDji_36
 0001:0006A200       aDji_msgSDji_37
 0001:0006A238       aDjimsghistogra
 0001:0006A290       aDji_msgSSendDj
 0001:0006A2CC       aDjifileinfopus
 0001:0006A2E0       aDji_msgSFilePa
 0001:0006A2FC       aDji_msgSGetFil
 0001:0006A320       aDji_msgSGetF_0
 0001:0006A344       aDji_msgSGetF_1
 0001:0006A374       aDjimsgupdatest
 0001:0006A390       aDji_msgSInva_8
 0001:0006A3B4       aDji_msgSGetPac
 0001:0006A3D8       aDji_msgSInva_9
 0001:0006A404       aDji_msgSGetFir
 0001:0006A43C       aDji_msgSInv_90
 0001:0006A46C       aDji_msgSSend_0
 0001:0006A4B0       aDjimsgupdateso
 0001:0006A4D4       aDjimsgpushout
 0001:0006A4E4       aDji_msgAmbadcf
 0001:0006A53C       aDji_msgSInv_10
 0001:0006A568       aDjiuegdm368str
 0001:0006A58C       aDjimsgnavigati
 0001:0006A5B0       aDji_msgSInv_11
 0001:0006A5DC       aDjimsgjoystick
 0001:0006A600       aDji_msgSInv_12
 0001:0006A630       aDjimsgsthditos
 0001:0006A644       aDji_msgSNull_0
 0001:0006A66C       aDji_msgSInv_13
 0001:0006A6A4       aDjimsgsthdit_0
 0001:0006A6B8       aDjimsgstsubtit
 0001:0006A6D0       aDji_msgSNull_1
 0001:0006A6F4       aDji_msgSInv_14
 0001:0006A720       aDjimsgsthomeda
 0001:0006A734       aDji_msgSNull_2
 0001:0006A75C       aDjimsgsthome_0
 0001:0006A770       aDjimsgstgimbal
 0001:0006A788       aDji_msgSNull_3
 0001:0006A7B0       aDjimsgstgimb_0
 0001:0006A7C8       aDji_msgSNull_4
 0001:0006A7F0       aDjimsgstupdate
 0001:0006A808       aDjimsgstupda_0
 0001:0006A820       aDji_msgSNull_5
 0001:0006A844       aDjimsgstcodedi
 0001:0006A860       aDji_msgSGetD_1
 0001:0006A88C       aDji_msgSNotS_0
 0001:0006A8B4       aDji_msgSNotSup
 0001:0006A8E4       aDjimsgstcode_0
 0001:0006A900       aDji_msgSInv_15
 0001:0006A928       aDjimsgstcode_1
 0001:0006A990       aDji_msgSIndexD
 0001:0006A9AC       aDji_msgSSetFai
 0001:0006A9EC       aDji_msgSSetF_0
 0001:0006AA10       aDjimsgstselfte
 0001:0006AA24       aDji_msgSNull_6
 0001:0006AA4C       aDjimsgstself_0
 0001:0006AA60       aDji_msgSNull_7
 0001:0006AA88       aDjimsgstdm36_0
 0001:0006AAA8       aDji_msgSNull_8
 0001:0006AAD0       aDjimsgstdm36_1
 0001:0006AAF0       aDji_msgSNull_9
 0001:0006AB18       aDjimsgstcaptur
 0001:0006AB30       aDji_msgSNul_10
 0001:0006AB5C       aDjimsgstcapt_0
 0001:0006AB74       aDji_msgSNul_11
 0001:0006ABA0       aDjimsgstusbswi
 0001:0006ABBC       aDjimsgstusbs_0
 0001:0006ABD8       aDjimsgstatvsta
 0001:0006ABF0       aDji_msgSNul_12
 0001:0006AC1C       aDjimsgstatvs_0
 0001:0006AC34       aDji_msgSNul_13
 0001:0006AC5C       aDjimsgstbandst
 0001:0006AC74       aDji_msgSNul_14
 0001:0006ACA0       aDjimsgstequipm
 0001:0006ACBC       aDji_msgSInv_16
 0001:0006ACE8       aDjimsgdeviceve
 0001:0006AD10       aDji_msgSEntry
 0001:0006AD28       aDji_msgSInv_17
 0001:0006AD58       aDjimsgdevice_0
 0001:0006AD74       aDjimsgpushpara
 0001:0006AD88       aDji_msgSInv_18
 0001:0006ADB0       aDji_msgSInv_19
 0001:0006ADD8       aDji_msgSInv_20
 0001:0006AE04       aDji_msgSSetPus
 0001:0006AE28       aDji_msgSSetP_0
 0001:0006AE54       aDjimsgpushpa_0
 0001:0006AE68       aDji_msgSGetPus
 0001:0006AE8C       aDjimsgmultipar
 0001:0006AEA4       aDji_msgSGetHan
 0001:0006AED8       aDjimsgmultip_0
 0001:0006AEF0       aDji_msgSRespon
 0001:0006AF20       aDjimsgupdateen
 0001:0006AF38       aDjimsgupdateco
 0001:0006AF54       aDjimsgupdatetr
 0001:0006AF70       aDjimsgupdatefi
 0001:0006AF8C       aDjimsgupdate_0
 0001:0006AFA4       aDjimsgupdate_1
 0001:0006AFC0       aDjimsgupdate_2
 0001:0006AFDC       aDjimsgupdate_3
 0001:0006AFF8       aDjimsgdevicere
 0001:0006B00C       aDji_msgSInv_21
 0001:0006B03C       aDji_msgSNotS_1
 0001:0006B068       aDjimsgdevicest
 0001:0006B088       aDji_msgSGetPro
 0001:0006B0B4       aDji_msgSGetSys
 0001:0006B0E0       aDjimsgfilesend
 0001:0006B0F8       aDji_msgSInv_22
 0001:0006B118       aDjimsgfilesegm
 0001:0006B130       aDji_msgSSetFil
 0001:0006B160       aDjimsgencpyptc
 0001:0006B174       aDji_msgSInv_23
 0001:0006B19C       aDjimsgactivate
 0001:0006B1B4       aDji_msgSInv_24
 0001:0006B1E4       aDjimsgselftest
 0001:0006B208       aDji_msgSSetSel
 0001:0006B234       aDjimsgfwupdate
 0001:0006B24C       aDjispecialmsgp
 0001:0006B268       aXD
 0001:0006B270       aYD
 0001:0006B278       aKeyValueIsErro
 0001:0006B2C4       aDjimsgspecailc
 0001:0006B2E0       aDji_msgSInv_25
 0001:0006B30C       a______________
 0001:0006B34C       aPspecailctrlCa
 0001:0006B37C       aPspecailctrl_0
 0001:0006B3A8       aPspecailctrl_1
 0001:0006B3D8       aPspecailctrl_2
 0001:0006B40C       aPspecailctrl_3
 0001:0006B440       aPspecailctrl_4
 0001:0006B470       aPspecailctrl_5
 0001:0006B4A0       aPspecailctrl_6
 0001:0006B4D0       aPspecailctrl_7
 0001:0006B4FC       aPspecailctrl_8
 0001:0006B530       aPspecailctrl_9
 0001:0006B560       aPspecailctr_10
 0001:0006B598       aPspecailctr_11
 0001:0006B5D4       aPspecailctr_12
 0001:0006B60C       aPspecailctr_13
 0001:0006B648       aPspecailctr_14
 0001:0006B67C       aPspecailctr_15
 0001:0006B6AC       aPspecailctr_16
 0001:0006B6DC       aPspecailctr_17
 0001:0006B70C       aPspecailctr_18
 0001:0006B740       aPspecailctr_19
 0001:0006B774       aPspecailctr_20
 0001:0006B7A4       aPspecailctrlRe
 0001:0006B7C4       aPspecailctr_21
 0001:0006B7E4       aDjimsgdocaptur
 0001:0006B7F4       aDji_msgSSdStat
 0001:0006B828       aDji_msgSStopPa
 0001:0006B84C       aDji_msgSStopCo
 0001:0006B870       aDji_msgSStartC
 0001:0006B894       aDji_msgSHdrIsB
 0001:0006B8C4       aBaoDbgDjiustus
 0001:0006B904       aBaoDbgHdrOutpu
 0001:0006B934       aBaoDbgHdrOut_0
 0001:0006B964       aBaoDbgHdrOut_1
 0001:0006B9A0       aBaoDbgHdrDoesN
 0001:0006B9E8       aDji_msgSInv_26
 0001:0006BA14       aDji_msgSStart3
 0001:0006BA38       aDji_msgSGimbal
 0001:0006BA5C       aDji_msgSPanoMo
 0001:0006BA7C       aDjimsgdorecord
 0001:0006BA90       aDji_msgSInv_27
 0001:0006BABC       aDjimsgdoreco_0
 0001:0006BACC       aDji_msgS08xM_1
 0001:0006BAFC       aDji_msgSStopRe
 0001:0006BB1C       aDji_msgS08xM_2
 0001:0006BB4C       aDji_msgSStartR
 0001:0006BB70       aDjimsgheartb_0
 0001:0006BB80       aDjimsgvirtua_2
 0001:0006BB9C       aDji_msgSInv_28
 0001:0006BBC4       aMsghNotInPlayb
 0001:0006BBF0       aDji_msgSUnsupp
 0001:0006BC20       aDjimsgcamerawo
 0001:0006BC38       aDji_msgSInv_29
 0001:0006BC64       aDji_msgSSear_2
 0001:0006BC94       aDji_msgS08xM_3
 0001:0006BCCC       aDji_msgSSwitch
 0001:0006BCFC       aDji_msgS08xM_4
 0001:0006BD34       aDjimsgsetusbsw
 0001:0006BD48       aDji_msgSInv_30
 0001:0006BD78       aDji_msgSSwit_0
 0001:0006BD9C       aDjimsggetusbsw
 0001:0006BDB0       aDjimsgcamera_0
 0001:0006BDCC       aDjimsgphotosiz
 0001:0006BDE4       aDji_msgSInv_31
 0001:0006BE0C       aDji_msgSInv_32
 0001:0006BE3C       aDji_msgSSear_3
 0001:0006BE78       aDji_msgSSetDji
 0001:0006BEA4       aDjimsgphotos_0
 0001:0006BEBC       aDji_msgSGetD_2
 0001:0006BEE8       aDji_msgSSear_4
 0001:0006BF18       aDjimsgphotoqua
 0001:0006BF34       aDji_msgSInv_33
 0001:0006BF60       aDji_msgSSear_5
 0001:0006BF90       aDji_msgSSetD_0
 0001:0006BFC4       aDjimsgphotoq_0
 0001:0006BFE0       aDji_msgSGetD_3
 0001:0006C014       aDji_msgSSear_6
 0001:0006C048       aDjimsgphotosto
 0001:0006C068       aDji_msgSInv_34
 0001:0006C090       aDji_msgSSear_7
 0001:0006C0BC       aDji_msgSSetD_1
 0001:0006C0E8       aDjimsgphotos_1
 0001:0006C108       aDji_msgSGetD_4
 0001:0006C134       aDji_msgSSear_8
 0001:0006C164       aDjimsgvideofor
 0001:0006C18C       aDji_msgSInv_35
 0001:0006C1BC       aDjiustuserse_7
 0001:0006C204       aDji_msgSInv_36
 0001:0006C238       aDji_msgSInv_37
 0001:0006C26C       aDji_msgSInv_38
 0001:0006C298       aDji_msgSInv_39
 0001:0006C2C0       aDji_msgSInv_40
 0001:0006C2F0       aDji_msgSSear_9
 0001:0006C334       aDji_msgSSea_10
 0001:0006C368       aDji_msgSSea_11
 0001:0006C394       aDji_msgSInv_41
 0001:0006C3C4       aDji_msgSSea_12
 0001:0006C408       aDji_msgSSetD_2
 0001:0006C434       aDji_msgSSetD_3
 0001:0006C468       aDji_msgSSetD_4
 0001:0006C4B0       aDjimsgvideof_0
 0001:0006C4D8       aDji_msgSGetVid
 0001:0006C500       aDji_msgSGetFov
 0001:0006C520       aDji_msgSGetV_0
 0001:0006C54C       aDji_msgSSea_13
 0001:0006C584       aDji_msgSSea_14
 0001:0006C5B0       aDji_msgSSea_15
 0001:0006C5E4       aDji_msgSSea_16
 0001:0006C61C       aDjimsgvideoqua
 0001:0006C638       aDji_msgSSetD_5
 0001:0006C668       aDjimsgvideoq_0
 0001:0006C684       aDji_msgSGetD_6
 0001:0006C6B4       aDji_msgSSea_17
 0001:0006C6E0       aDjimsgvideosto
 0001:0006C700       aDji_msgSSetD_6
 0001:0006C734       aDjimsgvideos_0
 0001:0006C754       aDji_msgSGetD_7
 0001:0006C788       aDji_msgSSea_18
 0001:0006C7B8       aDjimsgexpomode
 0001:0006C7D4       aDji_msgSInv_42
 0001:0006C7FC       aDji_msgSSea_19
 0001:0006C828       aDji_msgSInv_43
 0001:0006C854       aDji_msgSSea_20
 0001:0006C884       aDji_msgSSetD_7
 0001:0006C8B0       aDji_msgSSetD_8
 0001:0006C8D8       aDjimsgexpomo_0
 0001:0006C8F4       aDji_msgSSea_21
 0001:0006C924       aDji_msgSGetD_8
 0001:0006C94C       aDji_msgSSea_22
 0001:0006C97C       aDjimsgaemeters
 0001:0006C9A8       aDji_msgSSetD_9
 0001:0006C9D8       aDjimsgaemeterg
 0001:0006CA04       aDji_msgSGetD_9
 0001:0006CA34       aDji_msgSSea_23
 0001:0006CA64       aDjimsgaperture
 0001:0006CA94       aDji_msgSGet_10
 0001:0006CAC0       aDji_msgSSea_24
 0001:0006CAF4       aDjimsgshutters
 0001:0006CB24       aDji_msgSSea_25
 0001:0006CB54       aDji_msgSSet_10
 0001:0006CB84       aDjimsgshutte_0
 0001:0006CBB4       aDji_msgSGet_11
 0001:0006CBE4       aDji_msgSSea_26
 0001:0006CC18       aDjimsgisoset
 0001:0006CC44       aDji_msgSInv_44
 0001:0006CC6C       aDji_msgSSea_27
 0001:0006CC98       aDji_msgSInv_45
 0001:0006CCD8       aDji_msgSSet_11
 0001:0006CCFC       aDjimsgisoget
 0001:0006CD24       aDji_msgSGet_12
 0001:0006CD48       aDji_msgSSea_28
 0001:0006CD74       aDjimsgwbenvset
 0001:0006CD88       aDji_msgSInv_46
 0001:0006CDB0       aDji_msgSSea_29
 0001:0006CDDC       aDji_msgSSet_12
 0001:0006CE00       aDjimsgwbenvget
 0001:0006CE14       aDji_msgSGet_13
 0001:0006CE38       aDji_msgSSea_30
 0001:0006CE64       aDji_msgSGetAut
 0001:0006CE90       aDjimsgexpobias
 0001:0006CEBC       aDji_msgSInv_47
 0001:0006CEE4       aDji_msgSSea_31
 0001:0006CF10       aDji_msgSSet_13
 0001:0006CF38       aDjimsgexpobi_0
 0001:0006CF64       aDji_msgSGet_14
 0001:0006CF8C       aDji_msgSSea_32
 0001:0006CFB8       aDjimsgaemeterr
 0001:0006CFD0       aDji_msgSSetAeM
 0001:0006CFFC       aDjimsgaemete_0
 0001:0006D014       aDji_msgSGetAeM
 0001:0006D040       aDjimsgzoomset
 0001:0006D050       aDji_msgSNotS_2
 0001:0006D080       aDji_msgSSetDzo
 0001:0006D0A0       aDjimsgzoomget
 0001:0006D0B0       aDjimsgsharpene
 0001:0006D0C8       aDji_msgSSea_33
 0001:0006D0F4       aDji_msgSSet_14
 0001:0006D120       aDjimsgsharpe_0
 0001:0006D138       aDji_msgSGet_15
 0001:0006D164       aDji_msgSSea_34
 0001:0006D190       aDjimsgcontrast
 0001:0006D1A8       aDji_msgSSea_35
 0001:0006D1D8       aDji_msgSSet_15
 0001:0006D204       aDjimsgcontra_0
 0001:0006D21C       aDji_msgSGet_16
 0001:0006D248       aDji_msgSSea_36
 0001:0006D278       aDjimsgsaturati
 0001:0006D290       aDji_msgSSea_37
 0001:0006D2C4       aDji_msgSSet_16
 0001:0006D2F0       aDjimsgsatura_0
 0001:0006D308       aDji_msgSGet_17
 0001:0006D334       aDji_msgSSea_38
 0001:0006D368       aDjimsghueset
 0001:0006D37C       aDji_msgSSea_39
 0001:0006D3A8       aDji_msgSSet_17
 0001:0006D3CC       aDjimsghueget
 0001:0006D3E0       aDji_msgSGet_18
 0001:0006D404       aDji_msgSSea_40
 0001:0006D430       aDjimsgdigitale
 0001:0006D44C       aDji_msgSInv_48
 0001:0006D478       aDji_msgSSea_41
 0001:0006D4A8       aDji_msgSSet_18
 0001:0006D4D8       aDjimsgdigita_0
 0001:0006D4F4       aDji_msgSGet_19
 0001:0006D524       aDji_msgSSea_42
 0001:0006D558       aDjimsgantiflik
 0001:0006D570       aDji_msgSInv_49
 0001:0006D5A0       aDji_msgSSea_43
 0001:0006D5D4       aDji_msgSSet_19
 0001:0006D600       aDjimsgantifl_0
 0001:0006D618       aDji_msgSGet_20
 0001:0006D644       aDji_msgSSea_44
 0001:0006D674       aDjimsgmulticap
 0001:0006D690       aDji_msgSSet_20
 0001:0006D6C0       aDjimsgmultic_0
 0001:0006D6DC       aDji_msgSGet_21
 0001:0006D70C       aDjimsgconticap
 0001:0006D72C       aDji_msgSInv_50
 0001:0006D754       aDji_msgSInv_51
 0001:0006D77C       aDji_msgSBeyond
 0001:0006D7A0       aDji_msgSSet_21
 0001:0006D7CC       aDjimsgcontic_0
 0001:0006D7E8       aDji_msgSGet_22
 0001:0006D814       aDjimsghdmioutp
 0001:0006D834       aDji_msgSInv_52
 0001:0006D860       aDji_msgSSea_45
 0001:0006D890       aDji_msgSSet_22
 0001:0006D8BC       aDji_msgSReconn
 0001:0006D8E0       aDjimsghdmiou_0
 0001:0006D900       aDji_msgSGet_23
 0001:0006D92C       aDji_msgSSea_46
 0001:0006D95C       aDjimsgquickvie
 0001:0006D978       aDji_msgSSet_23
 0001:0006D9A8       aDjimsgquickv_0
 0001:0006D9C4       aDji_msgSGet_24
 0001:0006D9F4       aDjimsgcamerati
 0001:0006DA08       aDjimsgcamera_1
 0001:0006DA1C       aDji_msgSGetRtc
 0001:0006DA40       aDjimsgcameragp
 0001:0006DA54       aDji_msgSSetHdi
 0001:0006DA78       aDjimsgcamera_2
 0001:0006DA8C       aDji_msgSGetHdi
 0001:0006DAB0       aDjimsgdisconst
 0001:0006DACC       aDji_msgSInv_53
 0001:0006DAF8       aDji_msgSInv_54
 0001:0006DB28       aDji_msgSSetHea
 0001:0006DB58       aDji_msgSSet_24
 0001:0006DB88       aDjimsgdiscon_0
 0001:0006DBA4       aDji_msgSSea_47
 0001:0006DBD4       aDjimsgfileinde
 0001:0006DBF0       aDji_msgSSet_25
 0001:0006DC14       aDjimsgfilein_0
 0001:0006DC30       aDji_msgSGet_25
 0001:0006DC54       aDji_msgSSea_48
 0001:0006DC84       aDjimsgaebcappa
 0001:0006DCA0       aDji_msgSInv_55
 0001:0006DCC8       aDji_msgSSea_49
 0001:0006DCF4       aDji_msgSSea_50
 0001:0006DD24       aDji_msgSSet_26
 0001:0006DD50       aDjimsgaebcap_0
 0001:0006DD6C       aDji_msgSGet_26
 0001:0006DD98       aDji_msgSSea_51
 0001:0006DDC4       aDji_msgSSea_52
 0001:0006DDF0       aDjimsghistog_0
 0001:0006DE08       aDji_msgSSet_27
 0001:0006DE34       aDjimsghistog_1
 0001:0006DE4C       aDji_msgSGet_27
 0001:0006DE78       aDjimsgvideosub
 0001:0006DE98       aDji_msgSSet_28
 0001:0006DEC4       aDjimsgvideos_1
 0001:0006DEE4       aDji_msgSGet_28
 0001:0006DF10       aDjimsgvideos_2
 0001:0006DF2C       aDji_msgSInv_56
 0001:0006DF58       aDji_msgSInv_57
 0001:0006DF84       aDji_msgSSetSub
 0001:0006DFAC       aDjimsgvideosta
 0001:0006DFCC       aDji_msgSGetV_1
 0001:0006DFF4       aDji_msgSSetVid
 0001:0006E01C       aDji_msgSParaEr
 0001:0006E03C       aDji_msgSDjiust
 0001:0006E068       aSetPalNtscOk
 0001:0006E078       aDjimsgvideos_3
 0001:0006E090       aDjimsgaelockst
 0001:0006E0A8       aAeLockSetD0Unl
 0001:0006E0CC       aDjimsgaelock_0
 0001:0006E0E4       aAeLockGetD0Unl
 0001:0006E108       aDjimsgcapturet
 0001:0006E120       aDji_msgSInv_58
 0001:0006E154       aDji_msgSSetCap
 0001:0006E18C       aDjimsgcaptur_0
 0001:0006E1A4       aDji_msgSGetCap
 0001:0006E1D0       aDjimsgsystemst
 0001:0006E1E8       aDjimsgpanorama
 0001:0006E204       aDji_msgSInv_59
 0001:0006E234       aDji_msgSSet_29
 0001:0006E260       aDjimsgpanora_0
 0001:0006E27C       aDji_msgSGetPan
 0001:0006E2A4       aDjimsgsdinfoge
 0001:0006E2B4       aDji_msgSGetSdP
 0001:0006E2D8       aDjimsgrecordse
 0001:0006E2F8       aDjimsgvideocli
 0001:0006E310       aDji_msgSGetV_2
 0001:0006E334       aDjimsgfsinfoge
 0001:0006E344       aDjimsgxcodectr
 0001:0006E354       aMsghNotInXcode
 0001:0006E380       aDji_msgSXcodeC
 0001:0006E3A8       aDji_msgSExit
 0001:0006E3BC       aDjimsgsddoform
 0001:0006E3D0       aDji_msgSFormat
 0001:0006E3F0       aDjimsgsettings
 0001:0006E404       aDji_msgSInv_60
 0001:0006E42C       aDji_msgSSea_53
 0001:0006E458       aDji_msgSSaveUs
 0001:0006E488       aDjimsgsettin_0
 0001:0006E49C       aLoadUserDefula
 0001:0006E4BC       aDji_msgSLoadUs
 0001:0006E4EC       aDjimsgfiledele
 0001:0006E504       aDjimsgvideopla
 0001:0006E520       aDji_msgSInv_61
 0001:0006E550       aDjimsgvideoada
 0001:0006E56C       aDji_msgSInv_62
 0001:0006E594       aDji_msgSSetAda
 0001:0006E5BC       aDjimsgvideoa_0
 0001:0006E5D8       aDji_msgSGetAda
 0001:0006E600       aDjimsgawbmeter
 0001:0006E618       aDji_msgSSetAwb
 0001:0006E644       aDjimsgawbmet_0
 0001:0006E65C       aDji_msgSGetAwb
 0001:0006E688       aDjimsgtracking
 0001:0006E6AC       aDji_msgSGetOpM
 0001:0006E6CC       aDji_msgSSetTra
 0001:0006E6F4       aDjimsgtracki_0
 0001:0006E70C       aDjimsgmgearshu
 0001:0006E728       aDjimsgthumbnai
 0001:0006E748       aDji_msgSInv_63
 0001:0006E774       aDjimsgtelectrl
 0001:0006E790       aDji_msgSInv_64
 0001:0006E7BC       aDji_msgSSetCod
 0001:0006E7E4       aDoubleClick
 0001:0006E7F4       aDji_msgSUnsu_1
 0001:0006E824       aDji_msgSSetC_0
 0001:0006E84C       aDji_msgSUnsu_2
 0001:0006E880       aDji_msgSUnsu_0
 0001:0006E8A8       aDjimsgpbzoomct
 0001:0006E8C0       aDjimsgpbpicdra
 0001:0006E8DC       aDjimsghditosds
 0001:0006E8F0       aDjimsghomedata
 0001:0006E904       aDjimsggimbalos
 0001:0006E918       aDji_msgSGetPre
 0001:0006E944       aDji_msgSSetGim
 0001:0006E968       aDji_msgSUPregi
 0001:0006E9B0       aDjimsgrcrtcsyn
 0001:0006E9C8       aDji_msgSRtcTim
 0001:0006E9E8       aDjimsgauthoriz
 0001:0006EA04       aDji_msgSSetAut
 0001:0006EA2C       aDji_msgSUpdate
 0001:0006EA54       aDji_msgSMacIsS
 0001:0006EA78       aDjimsgtransdel
 0001:0006EA88       aCal
 0001:0006EA9C       aMgr
 0001:0006EAB0       aPath_0
 0001:0006EAD8       aScriptIsS
 0001:0006EAE8       aCalErrorRetD
 0001:0006EAFC       aCalOkRetD
 0001:0006EB10       aCDji_b_bpc_txt
 0001:0006EB24       aCDji_d_bpc_txt
 0001:0006EB38       aCDji_vig4000_t
 0001:0006EB4C       aCDji_vig4096_t
 0001:0006EB60       aCDji_wb_h_txt
 0001:0006EB70       aCDji_wb_l_txt
 0001:0006EB80       aRqstdataD
 0001:0006EB90       aDji_msgOperati
 0001:0006EBC8       aDji_msgCanNotG
 0001:0006EC18       aDji_msgDjichec
 0001:0006EC54       aDji_msgDjich_0
 0001:0006EC8C       aDji_msgCleanSi
 0001:0006ECA8       aDji_msgVigmaxr
 0001:0006ECDC       aDji_msgSaveCal
 0001:0006ED04       aDji_msgDjimsgi
 0001:0006ED38       aDji_msgDjims_0
 0001:0006ED6C       aDji_msgProduct
 0001:0006ED90       aDji_msgBpcCalE
 0001:0006EDA8       aDji_msgVigCalE
 0001:0006EDC0       aDji_msgWbCalEr
 0001:0006EDD8       aDji_msgCaliSta
 0001:0006EDF4       aDjimsgauthorle
 0001:0006EE0C       aDji_msgSInv_65
 0001:0006EE34       aDjimsgseqnumcr
 0001:0006EE48       aDjimsgseqnumeq
 0001:0006EE58       aDji_msgSTake_0
 0001:0006EE98       aDji_msgSSea_54
 0001:0006EEE4       aDji_msgSQueryM
 0001:0006EF04       aDji_msgSPreCle
 0001:0006EF2C       aDji_msgSPreC_0
 0001:0006EF54       aDjimsgseqnumdq
 0001:0006EF64       aDji_msgSSea_55
 0001:0006EFB0       aDjimsgseqnumbu
 0001:0006EFC4       aDji_msgSCreate
 0001:0006EFEC       aDjimsgrcntmode
 0001:0006F004       aDji_msgSRecent
 0001:0006F02C       aDji_msgSRece_0
 0001:0006F058       aDji_msgSSequen
 0001:0006F084       aDji_msgRecentM
 0001:0006F0A4       aDji_msg
 0001:0006F0D8       aDji_msgNull
 0001:0006F0E8       aDji_msgCmdset0
 0001:0006F11C       aDjimsgipccmdin
 0001:0006F130       aDji_msgSInitIp
 0001:0006F160       aDji_msgSIpcQue
 0001:0006F184       aDjimsgipccmdre
 0001:0006F198       aDji_msgSInputE
 0001:0006F1B4       aDjimsgchanneli
 0001:0006F1C8       aDji_msgSInit_0
 0001:0006F1F8       aDji_msgSInv_66
 0001:0006F238       aDji_msgSConf_1
 0001:0006F25C       aDjimsgpktlogic
 0001:0006F274       aDji_msgSReceiv
 0001:0006F2B4       aDji_msgSRouteE
 0001:0006F2EC       aDji_msgSProtoc
 0001:0006F344       aDji_msgSEncryp
 0001:0006F398       aDjimsgpktassem
 0001:0006F3AC       aDji_msgSInv_67
 0001:0006F3D4       aDji_msgSInv_68
 0001:0006F40C       aDji_msgSInv_69
 0001:0006F434       aDji_msgSInv_70
 0001:0006F460       aDji_msgSInv_71
 0001:0006F490       aDji_msgSInv_72
 0001:0006F4C4       aDji_msgSInv_73
 0001:0006F4FC       aDji_msgSInv_74
 0001:0006F530       aDji_msgSInv_75
 0001:0006F564       aDji_msgSInv_76
 0001:0006F598       aDji_msgSInv_77
 0001:0006F5BC       aDjimsgpktpiece
 0001:0006F5D0       aDji_msgSInv_78
 0001:0006F5FC       aDji_msgSInv_79
 0001:0006F628       aDji_msgSMutexT
 0001:0006F658       aDji_msgSEnqu_1
 0001:0006F684       aDjimsgpkepiece
 0001:0006F698       aDji_msgSInv_91
 0001:0006F6D0       aDji_msgPacketS
 0001:0006F6F0       aDji_msgReceive
 0001:0006F718       aDji_msgValidPa
 0001:0006F748       aDji_msgValidBy
 0001:0006F778       aDji_msgEnqueue
 0001:0006F7A8       aDji_msgEnque_0
 0001:0006F7D8       aDji_msgEnque_1
 0001:0006F808       aDji_msgEnque_2
 0001:0006F838       aDji_msgResendE
 0001:0006F868       aDji_msgVerifyE
 0001:0006F898       aDji_msgEnque_3
 0001:0006F8C8       aDji_msgEnque_4
 0001:0006F8F8       aDji_msgEnque_5
 0001:0006F928       aDji_msgEnque_6
 0001:0006F958       aDji_msgEnque_7
 0001:0006F988       aDji_msgResen_0
 0001:0006F9B8       aDji_msgHandleT
 0001:0006F9E0       aDji_msgDequeue
 0001:0006FA10       aDji_msgDeque_0
 0001:0006FA40       aDji_msgDeque_1
 0001:0006FA70       aDji_msgEnque_8
 0001:0006FAA0       aDji_msgDetectH
 0001:0006FAD0       aDji_msgDetec_0
 0001:0006FB00       aDji_msgDetec_1
 0001:0006FB30       aDji_msgDetec_2
 0001:0006FB60       aDji_msgDetec_3
 0001:0006FB90       aDji_msgDetec_4
 0001:0006FBC0       aDji_msgExecute
 0001:0006FBF0       aDji_msgExecu_0
 0001:0006FC20       aDji_msgDeque_2
 0001:0006FC50       aDji_msgDeque_3
 0001:0006FC80       aDji_msgDeque_4
 0001:0006FCB0       aDji_msgEnque_9
 0001:0006FCE0       aDji_msgSendTas
 0001:0006FD08       aDji_msgDeque_5
 0001:0006FD38       aDji_msgSendPac
 0001:0006FD68       aDji_msgSendByt
 0001:0006FD98       aDji_msgDetectR
 0001:0006FDC8       aDji_msgDetec_5
 0001:0006FDF8       aDji_msgDetectF
 0001:0006FE28       aDji_msgDetectI
 0001:0006FE58       aDji_msgDeque_6
 0001:0006FE88       aDji_msgSendP_0
 0001:0006FEB8       aDji_msgImportP
 0001:0006FEEC       aDji_msgExportP
 0001:0006FF20       aDji_msgImpor_0
 0001:0006FF54       aDji_msgExpor_0
 0001:0006FF88       aDji_msgCmd0x02
 0001:0006FFB8       aDjimsgpktgener
 0001:0006FFD4       aDji_msgSSendQu
 0001:0006FFFC       aDjimsgpktsendi
 0001:00070010       aDji_msgSNul_15
 0001:00070034       aDji_msgSInv_80
 0001:00070060       aDji_msgSPacket
 0001:00070084       aDji_msgSEnqueu
 0001:000700AC       aDji_msgSEnqu_0
 0001:000700F8       aDji_msgSWaitRe
 0001:00070140       aDjimsgrecvrequ
 0001:00070158       aDji_msgSSend_1
 0001:00070180       aDjimsghandledi
 0001:00070198       aDji_msgSHq1And
 0001:000701BC       aDjimsgflagctrl
 0001:000701CC       aDji_msgSInv_81
 0001:000701FC       aDji_msgSInv_82
 0001:00070228       aDjimsgrecvuser
 0001:0007024C       aDji_msgSSend_2
 0001:00070274       aDji_msgSInv_83
 0001:000702A0       aDji_msgSSetBan
 0001:000702C4       aDjimsgadjustta
 0001:000702D8       aDji_msgSExitDo
 0001:00070300       aDji_msgExitDow
 0001:00070328       aDjimsgrecvtask
 0001:00070338       aDji_msgSWaitPa
 0001:00070368       aDji_msgSAssemb
 0001:00070390       aDji_msgSLogica
 0001:000703C0       aDji_msg_0
 0001:000703F8       aDji_msgSRece_1
 0001:00070424       aDji_msgSHandle
 0001:00070458       aDji_msgSSend_3
 0001:0007048C       aDjimsgsendtask
 0001:0007049C       aDji_msgSGetPie
 0001:000704BC       aDji_msgSSendAP
 0001:000704DC       aDji_msgSPack_0
 0001:00070500       aDji_msgSSendMe
 0001:0007053C       aDjimsghandleta
 0001:00070550       aDji_msgSInv_84
 0001:0007057C       aDji_msgSRece_2
 0001:000705A0       aDji_msgSHand_0
 0001:000705D0       aDji_msgSHand_1
 0001:000705EC       aDji_msgSReques
 0001:00070628       aDji_msgSHand_2
 0001:00070658       aDji_msgSResp_0
 0001:00070694       aDjimsgrecovery
 0001:000706B4       aDji_msgSInv_85
 0001:000706E0       aDjimsgrecove_0
 0001:000706F8       aDjimsghandle1t
 0001:0007070C       aDjimsghandle2t
 0001:00070720       aDji_msgSTermin
 0001:0007075C       aDji_msgSDelete
 0001:00070794       aDji_msgSReInit
 0001:000707CC       aDji_msgSReIn_0
 0001:00070800       aDji_msgHandleQ
 0001:00070820       aDji_msgHq1Stat
 0001:00070850       aDji_msgHq2Stat
 0001:00070880       aDji_msgHq1Reco
 0001:000708B0       aDji_msgHq2Reco
 0001:000708E0       aDji_msgHq1Used
 0001:00070918       aDji_msgHq2Used
 0001:00070950       aDji_msgHq3Used
 0001:00070988       aDji_msgSendQue
 0001:000709C0       aDji_msgHq1Curr
 0001:000709F8       aDji_msgHq2Curr
 0001:00070A30       aDji_msgHq3Curr
 0001:00070A68       aDji_msgHq1Re_0
 0001:00070AA4       aDji_msgHq2Re_0
 0001:00070AE0       aDjimsgsettin_1
 0001:00070AF4       aDji_msgSMutexC
 0001:00070B18       aDjimsgmutexini
 0001:00070B28       aDji_msgSHand_3
 0001:00070B54       aDji_msgSHpHand
 0001:00070B84       aDji_msgSHrHand
 0001:00070BB4       aDji_msgSSend_4
 0001:00070BE0       aDji_msgSSequ_0
 0001:00070C10       aDji_msgSOperat
 0001:00070C3C       aDjimsgqueueini
 0001:00070C4C       aDji_msgSHand_4
 0001:00070C74       aDji_msgSHand_5
 0001:00070C9C       aDji_msgSHand_6
 0001:00070CC4       aDji_msgSSend_5
 0001:00070CE8       aDjimsgrecvta_0
 0001:00070CFC       aDjimsgrecvcom1
 0001:00070D10       aDjimsgrecvcom2
 0001:00070D24       aDjimsgrecvcom3
 0001:00070D38       aDjimsgrecvipc1
 0001:00070D4C       aDji_msgSRece_3
 0001:00070D80       aDjimsgtaskinit
 0001:00070D90       aDjimsgadjust_0
 0001:00070DA4       aDji_msgSAjustT
 0001:00070DC8       aDjimsgsendta_0
 0001:00070DD8       aDji_msgSTransm
 0001:00070E00       aDji_msgSCamman
 0001:00070E30       aDji_msgSCamm_0
 0001:00070E64       aDjimsghandle3t
 0001:00070E78       aDji_msgSCamm_1
 0001:00070EAC       aDjimsginit
 0001:00070EB8       aDji_msgSMassag
 0001:00070EE4       aDji_msgSMessag
 0001:00070F10       aDji_msgSSequ_1
 0001:00070F38       aDji_msgSMass_0
 0001:00070F60       aDjimsgframerat
 0001:00070F7C       aDji_cc_ok
 0001:00070F88       aDji_cc_ack
 0001:00070F94       aDji_cc_invalid
 0001:00070FA8       aDji_cc_timeout
 0001:00070FB8       aDji_cc_out_of_
 0001:00070FD0       aDji_cc_inval_0
 0001:00070FE8       aDji_cc_inval_1
 0001:00071000       aDji_cc_time_no
 0001:00071018       aDji_cc_set_par
 0001:00071030       aDji_cc_get_par
 0001:00071048       aDji_cc_sdcard_
 0001:00071064       aDji_cc_sdcar_0
 0001:00071078       aDji_cc_sdcar_1
 0001:0007108C       aDji_cc_sensor_
 0001:000710A0       aDji_cc_critica
 0001:000710B4       aDji_cc_unspeci
 0001:000710C8       aDji_cc_prarm_l
 0001:000710E4       aDji_cc_fw_seqn
 0001:00071104       aDji_cc_fw_inva
 0001:00071120       aDji_cc_fw_chec
 0001:00071134       aDji_cc_fw_flas
 0001:00071150       aDji_cc_fw_fl_0
 0001:0007116C       aDji_cc_fw_upda
 0001:00071188       aDji_cc_fw_in_0
 0001:000711A0       aDji_cc_fw_fl_1
 0001:000711B8       aInvalidCcode0x
 0001:000711D0       aDji_msgCcodeS
 0001:000711E4       aDjimsgtestprin
 0001:000711FC       aDji_msgSNul_16
 0001:00071224       aCamera
 0001:0007122C       aTerminl
 0001:00071234       aMaincon
 0001:0007123C       aGimbal
 0001:00071244       aCenter
 0001:0007124C       aTelecon
 0001:00071254       aWifi_0
 0001:0007125C       aDm368_a
 0001:00071264       a1765_a
 0001:0007126C       aPc
 0001:00071274       aBattery
 0001:0007127C       aEsc
 0001:00071284       aDm368_g
 0001:0007128C       a1765_g
 0001:00071294       a68013_a
 0001:0007129C       a68013_g
 0001:000712A4       aOneEye
 0001:000712AC       aTwoEye
 0001:000712B4       aFpga_a
 0001:000712BC       aFpga_g
 0001:000712C4       aSim
 0001:000712CC       aBase
 0001:000712D4       aAirborn
 0001:000712DC       aTest_9
 0001:000712E4       aCommon
 0001:000712EC       aSpecial
 0001:000712F4       aRemocon
 0001:000712FC       aDm368
 0001:00071304       aHdit
 0001:0007130C       aEye
 0001:00071314       aDji_msgSSCmdS0
 0001:00071340       aDji_msgSSCmd_0
 0001:0007136C       aDjimsgtestcmdu
 0001:00071380       aDji_msgSArgnum
 0001:000713A0       aDji_msgSRqstdl
 0001:000713C0       aDji_msgReuqest
 0001:000713DC       aDji_msg_1
 0001:00071404       aDji_msgRqstdlD
 0001:0007141C       aDji_msgData02d
 0001:00071440       aDji_msgSComman
 0001:00071484       aDji_msgRespond
 0001:000714A4       aDji_msgRspdlD
 0001:000714BC       aDjimsgtestcmds
 0001:000714CC       aDji_msgSHand_7
 0001:00071500       aDjimsgtestpktg
 0001:00071514       aDji_msgGenerat
 0001:00071544       aDji_msgSendDev
 0001:00071580       aDjimsgtestflag
 0001:00071594       aDji_msgSFlagOk
 0001:000715AC       aEnable
 0001:000715B4       aDisable
 0001:000715BC       aDjimsgtestleve
 0001:000715D0       aDjimsgtestrout
 0001:000715E4       aDjimsgtestvide
 0001:00071600       aDji_msgSSetV_0
 0001:00071630       aCurrentVideoSt
 0001:0007164C       aCurrentVideo_0
 0001:0007166C       aDjimsgtestpinc
 0001:00071680       aDji_msgPinCmds
 0001:000716B4       aDjimsgteststag
 0001:000716C8       aDji_msgSInv_86
 0001:000716F4       aDji_msgSetStag
 0001:00071718       aDji_msgCurrent
 0001:00071740       aDji_msgCurre_0
 0001:00071764       aDji_msgCurre_1
 0001:00071788       aDji_msgCurre_2
 0001:000717B0       aDji_msgCurre_3
 0001:000717D8       aDji_msgCurre_4
 0001:00071800       aDji_msgCurre_5
 0001:00071828       aDji_msgCurre_6
 0001:00071850       aDji_msgCurre_7
 0001:00071878       aDji_msgCurre_8
 0001:000718A0       aDji_msgCameraS
 0001:000718C4       aDji_msg_2
 0001:000718EC       aDji_msgComunic
 0001:00071910       aDji_msgUsbConn
 0001:0007192C       aDji_msgTimeSyn
 0001:0007194C       aDji_msgDoingSi
 0001:0007196C       aDji_msgDoingMu
 0001:0007198C       aDji_msgRecordi
 0001:000719A4       aDji_msgFirmwar
 0001:000719C4       aDji_msgNonCrit
 0001:000719E4       aDji_msgCritica
 0001:00071A00       aDji_msgSdCardE
 0001:00071A1C       aDji_msgFirmw_0
 0001:00071A40       aDji_msgSdCardI
 0001:00071A5C       aDji_msgSensorE
 0001:00071A74       aDji_msgOverhea
 0001:00071A88       aDji_msgDoingCo
 0001:00071AA8       aDji_msgDoingRa
 0001:00071AC8       aDji_msgDoing36
 0001:00071AE8       aDji_msgDoingHd
 0001:00071B08       aDji_msgStartin
 0001:00071B24       aDji_msgStoppin
 0001:00071B40       aDji_msgNotAvai
 0001:00071B68       aDji_msgStorage
 0001:00071B80       aDji_msgSetting
 0001:00071BA4       aDji_msgSetti_0
 0001:00071BC4       aDji_msgSystemB
 0001:00071BE0       aDji_msgDownloa
 0001:00071BFC       aDji_msgTransco
 0001:00071C18       aDjimsgtestinfo
 0001:00071C2C       aDji_msgUnsuppo
 0001:00071C48       aDjimsgtestin_0
 0001:00071C5C       aDji_msgClearIn
 0001:00071C78       aDjimsgtestcams
 0001:00071C90       aDji_msgSInv_87
 0001:00071CC0       aDji_msgSCamera
 0001:00071CE8       aClear
 0001:00071CF0       aDjimsgtestdoca
 0001:00071D04       aDjimsgtestdore
 0001:00071D18       aDjimsgtestwork
 0001:00071D30       aDjimsgteststru
 0001:00071D48       aDji_msgSChec_0
 0001:00071D88       aDji_msgCheckSt
 0001:00071DB0       aDjimsgtestunit
 0001:00071DC8       aDji_msgCmd0x_0
 0001:00071DE0       aDji_msgSInv_88
 0001:00071E0C       aDji_msgDataLen
 0001:00071E24       aDji_msgDataDD
 0001:00071E3C       aDji_msgRespo_0
 0001:00071E58       aDji_msgDatalen
 0001:00071E70       aDjiadcvoltageg
 0001:00071E84       aDji_misSInvali
 0001:00071EB0       aDji_misSCollec
 0001:00071ED8       aDjiadcuserstri
 0001:00071EEC       aDji_misSInva_0
 0001:00071F18       aDjiadcscaninfo
 0001:00071F2C       aDji_misSGetAdc
 0001:00071F60       aDji_misSGetUse
 0001:00071FA0       aDjihardwarever
 0001:00071FC4       aDji_misSGetHar
 0001:00071FEC       aDji_misSGetH_0
 0001:0007201C       aFc350
 0001:00072024       aVer_d
 0001:0007202C       aVer_b
 0001:00072034       aDji_misSInva_1
 0001:00072088       aSS_2
 0001:00072090       aDjihardwarev_0
 0001:000720A8       aDji_misSVersio
 0001:000720D8       aDjifirmwarever
 0001:000720F0       aV01_30_5036_0
 0001:000720FC       aDjimodelnamear
 0001:00072110       aDji_misSNullPo
 0001:00072138       aDji_misSGetMet
 0001:00072164       aDjimodelname_0
 0001:00072178       aDjiloaderversi
 0001:0007218C       aDji_misSGetM_0
 0001:000721AC       aDjiversionget
 0001:000721BC       aDji_misSInputV
 0001:000721F0       aDji_misSGetFir
 0001:00072224       aDji_misSGetH_1
 0001:00072258       aDji_misSUnsupp
 0001:00072288       aDjisystemcalib
 0001:000722A4       aDji_misSGetMna
 0001:000722C0       aDjiselftestres
 0001:000722D8       aDji_misSSelfTe
 0001:00072318       aDjireboot
 0001:00072324       aDji_misSWdtReb
 0001:00072344       aDji_misSWatchD
 0001:0007238C       aDji_misSSoftRe
 0001:000723AC       aDji_misSUnsu_0
 0001:000723DC       aDji_misSWaitFo
 0001:00072400       aDjiromdatamisc
 0001:00072414       aDji_misSInputE
 0001:0007244C       aDji_misSInputD
 0001:00072484       aDji_misSDataIs
 0001:000724AC       aDji_misSTakeMi
 0001:000724E4       aDji_misSWriteN
 0001:00072534       aDjiromdatami_0
 0001:00072548       aDji_misSDataIn
 0001:0007256C       aDji_misReadNan
 0001:000725CC       aDji_misDjiromp
 0001:00072618       aDji_misSaveHar
 0001:00072648       aUUnknownWarmRe
 0001:00072660       aUSoftReset_
 0001:00072670       aUWatchDogReset
 0001:00072690       aUWatchDogRes_0
 0001:000726B4       aUCpuExceptionR
 0001:000726D0       aUDspAssertionR
 0001:000726EC       aUTaskStackErro
 0001:00072708       aUPowerOffReset
 0001:00072720       aWakeUpReason
 0001:00072748       aWakeUpByAlarm_
 0001:0007275C       aWakeUpByPor_lP
 0001:00072774       aWakeUpByPwc_wk
 0001:00072790       aWakeUpByPwc__0
 0001:000727AC       aWakeUpByPwc__1
 0001:000727C8       aWakeUpByPwc__2
 0001:000727E4       aWakeUpByUnknow
 0001:00072828       aResetReason
 0001:00072850       aDjidspassertio
 0001:0007286C       aDji_misSConfig
 0001:000728A8       aDji_misSRegist
 0001:000728E4       aDjiromdatami_1
 0001:000728F8       aDji_misSReadNa
 0001:00072948       aDji_misSMiscRo
 0001:00072988       aDji_misSCreate
 0001:000729C0       aDjimiscinit
 0001:000729CC       aDji_misSMiscIn
 0001:000729EC       aDji_misSMisc_0
 0001:00072A08       aDjirtcinit
 0001:00072A14       aDji_misSRtcIni
 0001:00072A34       aSCurrentTime04
 0001:00072A68       aDji_misSRtcI_0
 0001:00072A84       aDjilinuxrelate
 0001:00072AA0       aDji_misSLinuxR
 0001:00072AD0       aDji_misSLinu_0
 0001:00072AFC       aDjireset68013
 0001:00072B0C       aDji_misSReset6
 0001:00072B28       aDji_misSRese_0
 0001:00072B4C       aDji_misSWait68
 0001:00072B74       aDji_misSRese_1
 0001:00072B94       aDji_misSRese_2
 0001:00072BB4       aDjiprevioussta
 0001:00072BCC       aDji_misSExitDo
 0001:00072BF4       aDji_misSTryToE
 0001:00072C38       aCSSS
 0001:00072C48       aMisc
 0001:00072C50       aCameralogcur_l
 0001:00072C64       aCameralogold_l
 0001:00072C78       aDjilog2sddetec
 0001:00072C8C       aCS
 0001:00072C94       a0x40003000_dji
 0001:00072CA4       aDji_misSDetect
 0001:00072CE8       aDji_misSCamera
 0001:00072D20       aDjilog2sd
 0001:00072D3C       aFc300xVer_c
 0001:00072D4C       aFc300sVer_b
 0001:00072E28       aMicronMt29f2g08abada_256mb_pg2k
 0001:00072E80       aVideo_9
 0001:00072E88       aVideoControlTDjiPbVideoStartPauseS
 0001:00072EE4       aButton
 0001:00072EEC       aVirtualButtonTDjiPbButtonModeUpDow
 0001:00072F9C       aMode_5
 0001:00072FA4       aVitualButtonTD
 0001:00072FC4       aUp_0
 0001:00072FC8       aVitualButtonTDjiPbUp
 0001:00072FE4       aDown_2
 0001:00072FEC       aVitualButton_0
 0001:0007300C       aLeft_0
 0001:00073014       aVitualButton_1
 0001:00073034       aRight_0
 0001:0007303C       aVitualButton_2
 0001:0007305C       aOk_2
 0001:00073060       aVitualButtonTDjiPbOk
 0001:0007307C       aBack
 0001:00073084       aVitualButton_3
 0001:000730A4       aZoomin
 0001:000730AC       aVitualButton_4
 0001:000730CC       aZoomout
 0001:000730D4       aVitualButton_5
 0001:000730F4       aPrevpage
 0001:00073100       aVitualButton_6
 0001:00073124       aNextpage
 0001:00073130       aVitualButton_7
 0001:00073154       aCancel
 0001:0007315C       aVitualButton_8
 0001:0007317C       aEntermultidisp
 0001:0007318C       aVitualButton_9
 0001:000731B4       aTest_10
 0001:000731BC       aSetFiledownloa
 0001:000731D8       aErrnoD
 0001:000731E4       aClearFromIniFi
 0001:000731FC       aG_filedownload
 0001:00073218       aDjifiledownloa
 0001:0007324C       aSaveIntoFileS
 0001:00073260       aFileHasBeenDow
 0001:00073290       aFileIsExsitInF
 0001:000732B4       aNewFileDownloa
 0001:000732C8       aG_filedownlo_0
 0001:00073308       aDjipberrorfile
 0001:00073320       aDji_playbackST
 0001:00073344       aDjipberrorfi_0
 0001:0007335C       aDji_playbackSF
 0001:00073390       aDjipbfilesendi
 0001:000733A8       aDji_playback_0
 0001:000733D8       aDji_playbackSO
 0001:00073404       aDjipbfilesendf
 0001:00073420       aDji_playback_1
 0001:00073440       aDji_playbackSS
 0001:0007348C       aDjipbfilesegme
 0001:000734A4       aDji_playbackSI
 0001:000734C8       aDji_playback_3
 0001:000734F4       aDji_playback_2
 0001:00073540       aDji_playbackSR
 0001:00073568       aDji_playbackSe
 0001:00073590       aDjipbfilesendt
 0001:000735A8       a_jpg
 0001:000735B0       a_jpeg
 0001:000735B8       a_dng
 0001:000735C0       a_mov
 0001:000735C8       a_mp4
 0001:000735D0       aDji_playbackSG
 0001:000735F8       aDjipbfilerecvr
 0001:00073614       aDji_playback_4
 0001:00073638       aDji_playback_6
 0001:00073664       aDji_playback_5
 0001:000736AC       aDji_playback_7
 0001:000736D0       aDjipbfilesendw
 0001:000736E8       aDji_playback_8
 0001:0007371C       aDji_playback_9
 0001:00073750       aDjipbfilereque
 0001:00073764       aDji_playbackSU
 0001:00073798       aDji_playbac_10
 0001:000737C4       aDjipbfilesendc
 0001:000737D8       aDji_playbackSC
 0001:00073804       aDjipbfilesen_0
 0001:00073820       aDji_playbac_11
 0001:0007384C       aDjipbfileseg_0
 0001:00073864       aDji_playbac_12
 0001:000738A0       aDji_playbac_13
 0001:000738D0       aDji_playbac_14
 0001:00073910       aDji_playbac_15
 0001:00073954       aDjipbfiledownl
 0001:00073970       aDji_playbac_16
 0001:000739AC       aDji_playbac_17
 0001:000739F0       aDjipbfilesend
 0001:00073A00       aDji_playbac_18
 0001:00073A2C       aDji_playbac_19
 0001:00073A50       aDji_playbac_20
 0001:00073A9C       aDji_playbac_21
 0001:00073AC8       aDji_playbac_22
 0001:00073B10       aDji_playbac_24
 0001:00073B3C       aDji_playbac_25
 0001:00073B64       aDji_playbac_26
 0001:00073BA0       aDji_playbac_27
 0001:00073BCC       aDji_playbac_23
 0001:00073C08       aDji_playbac_29
 0001:00073C48       aDji_playbackSW
 0001:00073C80       aDji_playbac_28
 0001:00073CA0       aDjidcf_getfile
 0001:00073CB4       aDji_playbackPa
 0001:00073CFC       aDjiplaybacksdi
 0001:00073D1C       aDji_playbac_30
 0001:00073D48       aDjiplaybacksde
 0001:00073D68       aDjipbsdactiont
 0001:00073D80       aDji_playbackAm
 0001:00073DD8       aDji_playbackDr
 0001:00073E38       aDji_playbac_31
 0001:00073E64       aDji_playbackSh
 0001:00073EB0       aDji_playbac_32
 0001:00073EDC       aDji_playbac_33
 0001:00073F08       aDjidcf_getfi_0
 0001:00073F50       aDji_playbackSd
 0001:00073F7C       aScanTaskStart_
 0001:00073F9C       aG_pbquickdisps
 0001:00073FD4       aAmbadcf_getfil
 0001:00074008       aAmbafs_first_0
 0001:00074048       aScanTaskEnd___
 0001:00074064       aDjipbfiletypeg
 0001:00074080       aDji_playbackSP
 0001:000740C8       aDjiplaybackcal
 0001:000740DC       aEnterInS___
 0001:000740F0       aNotInPlaybackM
 0001:00074118       aDji_playbackSA
 0001:00074154       aReceiveDji_pb_
 0001:000741A8       aDji_playbackEn
 0001:000741CC       aDji_playbac_34
 0001:00074200       aDji_playbac_35
 0001:00074240       aReceiveDownloa
 0001:00074270       aDji_playbac_36
 0001:000742AC       aDji_playbac_37
 0001:0007430C       aDji_playbackDj
 0001:00074334       aSendAppMsgToPb
 0001:0007435C       aDjimsgpbmodesw
 0001:00074374       aChangeModeByRc
 0001:00074390       aDjimsgpbmode_0
 0001:000743B4       aDjimsgpbpagesw
 0001:000743CC       aNumD
 0001:000743D8       aDjiplaybackpic
 0001:00074414       aDji_playbac_38
 0001:00074440       aDjidrawvideore
 0001:00074458       aDji_playbac_39
 0001:000744AC       aDji_playbackSD
 0001:00074504       a04d
 0001:0007450C       aDjishowfilet_0
 0001:00074520       aSdcardNotInser
 0001:00074544       aDjishowfiletyp
 0001:00074560       aDji_playbac_41
 0001:000745A0       aFileSIsErrorPl
 0001:000745C8       aDji_playbackFi
 0001:000745E8       aDji_playbac_42
 0001:00074620       aFilenameSFilet
 0001:00074640       aVideoTypeFileB
 0001:00074688       aDji_playbac_43
 0001:000746C0       aDji_playbac_40
 0001:00074704       aDjishowfilet_1
 0001:00074720       aDjishowdeletei
 0001:0007473C       aDji_playbac_58
 0001:00074778       aDjicancleicons
 0001:00074790       aDjithumbnaildi
 0001:000747B4       aDji_playbac_44
 0001:00074808       aThmdisp_displa
 0001:00074828       aStartThmdispDi
 0001:0007486C       aCMiscThm
 0001:0007487C       aThumbfilenameS
 0001:00074890       aDji_playbac_45
 0001:00074900       aAmbafs_fopenSE
 0001:00074930       aAmbafs_freadEr
 0001:00074960       aAmbafs_fseekEr
 0001:00074990       aAmbafs_fcloseE
 0001:000749C0       aFilelistentryD
 0001:000749D4       aYbase0xX
 0001:000749E0       aUvbase0xX
 0001:000749EC       aAmbafs_fsexecE
 0001:00074A2C       aDji_playbac_46
 0001:00074A70       aFileNotExistD
 0001:00074A84       aParseMovErrorD
 0001:00074A98       aParseExifError
 0001:00074AB0       aUnsupportedYuv
 0001:00074AC8       aEndThmdispDisp
 0001:00074AF0       aDjigetpagefirs
 0001:00074B1C       aStartThmdispTh
 0001:00074B5C       aEndThmdispThmd
 0001:00074B98       aStartThmdispDj
 0001:00074BD4       aStartThmdisp_0
 0001:00074C10       aEndThmdispDjid
 0001:00074C48       aEndThmdispDj_0
 0001:00074C80       aDjipicturedisp
 0001:00074C9C       aDji_playbackNo
 0001:00074CE0       aReceiveSingle_
 0001:00074D1C       aDji_playbac_47
 0001:00074D58       aDji_playbac_48
 0001:00074D94       aDji_playbac_49
 0001:00074DD0       aDeleteFileSucc
 0001:00074DF4       aDji_playbac_50
 0001:00074E40       aClearFileDownl
 0001:00074E80       aReceiveVideo_p
 0001:00074EB4       aDji_playbac_51
 0001:00074EE8       aDji_playbac_52
 0001:00074F24       aReceiveApp_zoo
 0001:00074F54       aFileIsDngTypeN
 0001:00074F78       aZoomratioD
 0001:00074F88       aInSInDjiplayba
 0001:00074FE4       aInSAmbadcf_get
 0001:00075028       aAmbadcf_getf_0
 0001:0007505C       aReceiveDji_key
 0001:00075098       aInvalidStateDo
 0001:00075100       aDji_playbackSE
 0001:00075128       aAmbafs_statErr
 0001:00075150       aReceiveAmba_ke
 0001:00075180       aReceiveAmba__0
 0001:000751B0       aReceiveAmba__1
 0001:000751E0       aReceiveAmba__2
 0001:00075210       aReceiveDji_k_0
 0001:00075240       aG_picdispmgr_z
 0001:00075280       aDji_playbackZo
 0001:000752CC       aReceiveDji_k_1
 0001:00075300       aDji_playbac_59
 0001:00075338       aReceiveDji_k_2
 0001:00075368       aReceiveAmba__3
 0001:000753A8       aReceiveAmba__4
 0001:000753E4       aReceiveDji_k_3
 0001:0007541C       aReceiveDji_k_4
 0001:0007544C       aDjithumbnail_0
 0001:00075468       aReceiveSingleD
 0001:000754A0       aReceiveMultiDe
 0001:000754D8       aDji_playbac_60
 0001:000754F8       aDji_playbac_61
 0001:00075518       aSDeleteFileSuc
 0001:00075534       aSDjifiledownlo
 0001:00075564       aReceiveEnterMu
 0001:00075598       aReceiveExitMul
 0001:000755CC       aReceiveThumb_0
 0001:00075614       aDji_playbac_62
 0001:0007567C       aReceiveThumb_1
 0001:000756B8       aReceiveThumb_2
 0001:000756F4       aReceiveThumb_3
 0001:00075730       aReceiveThumb_4
 0001:00075770       aReceiveErrorCo
 0001:000757B0       aReceiveThumbna
 0001:000757F0       aAmbadcf_getf_1
 0001:0007583C       aAmbadcf_getf_2
 0001:00075888       aReceiveDji_msg
 0001:000758C0       aFilesizesD
 0001:000758D0       aDownloadFileFailedS
 0001:000758E8       aMultiDisplaySaveFileSDownloadInfor
 0001:0007592C       aMultiDisplaySaveFileSDownloadInf_0
 0001:00075974       aAllFilesHasBee
 0001:000759B4       aDji_key_page_p
 0001:000759E0       aCurrentpageind
 0001:000759F8       aG_thmdispmgr_p
 0001:00075A1C       aDji_key_page_n
 0001:00075A48       aG_thmdispmgr_c
 0001:00075A6C       aAmba_key_leftC
 0001:00075A94       aDji_playbac_63
 0001:00075AE8       aAmba_key_right
 0001:00075B10       aAmba_key_upCom
 0001:00075B38       aAmba_key_downC
 0001:00075B60       aDji_key_zoomin
 0001:00075B88       aDji_playbac_64
 0001:00075BDC       aDji_key_zoomou
 0001:00075C08       aDji_key_rotate
 0001:00075C30       aAmba_key_okCom
 0001:00075C58       aDji_key_backCo
 0001:00075C80       aAmba_key_delCo
 0001:00075CA8       aDji_key_cancel
 0001:00075CD0       aKey_defaultCom
 0001:00075CF8       aValueD
 0001:00075D04       aDjivideodispla
 0001:00075D1C       aDji_msgPbSStar
 0001:00075D38       aSKeycode0xX
 0001:00075D4C       aReceiveVideo_s
 0001:00075D80       aReceiveVideo_0
 0001:00075DB4       aFileSIsError
 0001:00075DC8       aSomeErrorHappe
 0001:00075DF0       aDji_playbac_65
 0001:00075E28       aDurationD
 0001:00075E38       aReceiveVideo_jump_to_point_positio
 0001:00075E78       aReceiveAmba_key_okCommandVideoDisp
 0001:00075EB4       aDji_playbackSDuration0
 0001:00075ED8       aDurationD_0
 0001:00075EE8       aReceiveAmba__5
 0001:00075F28       aVirtualbuttonP
 0001:00075F48       aDjiplaybacksta
 0001:00075F60       aSStart___
 0001:00075F6C       a______1
 0001:00075F74       a______2
 0001:00075F7C       a______3
 0001:00075F84       aSEnd___
 0001:00075F90       aDjiplaybackini
 0001:00075FA0       aDji_playbac_53
 0001:00075FF0       aDji_playbac_54
 0001:00076038       aDji_playbac_55
 0001:0007607C       aDjipbsdactio_0
 0001:00076090       aDji_playbac_56
 0001:000760E4       aDjipbpicdragta
 0001:000760F8       aDji_playbac_57
 0001:0007614C       aDjivalidationt
 0001:00076160       aDjifilescantas
 0001:00076170       aAmbatimer_setE
 0001:0007618C       aDjigetcursingl
 0001:000761C8       a02x
 0001:000761D0       aDji_prtS
 0001:000761E0       aDjisdstatget
 0001:000761F0       aDji_sdopSTakeS
 0001:00076224       aDjisdstatset
 0001:00076234       aDjisdfullchk
 0001:00076244       aDji_sdopSTheIn
 0001:00076274       aDjisdop_dcfove
 0001:00076290       aDjisdop_dcfo_0
 0001:000762AC       aDji_sdopSDDjis
 0001:000762D8       aDjisdop_sdinit
 0001:000762EC       aDjisdop_sdinse
 0001:00076300       aDji_sdopSDjisd
 0001:00076338       aDjisdop_sdform
 0001:0007634C       aSBeginToFormat
 0001:00076368       aDji_sdopSThere
 0001:000763A4       aDji_sdopSDji_0
 0001:000763CC       aDji_sdopSDFail
 0001:00076408       aDji_sdopSTak_0
 0001:0007642C       aDji_sdopSFaile
 0001:00076460       aSCurrentSdCl_0
 0001:00076490       aSFormatsdSucce
 0001:000764AC       aDjisdop_sdclus
 0001:000764C8       aSUnsupported_0
 0001:000764EC       aSUCurrentSdClu
 0001:0007652C       aTryToStopRecor
 0001:00076540       aTryToStopConti
 0001:0007655C       aDjisdop_sdmone
 0001:00076570       aSTheSdCardCIsF
 0001:00076590       aSUStopTheConti
 0001:000765C8       aDjisdop_capsiz
 0001:000765DC       aDji_sdopSDjius
 0001:0007661C       aDji_sdopSDji_1
 0001:00076668       aDji_sdopSDji_2
 0001:000766AC       aDji_sdopSDji_3
 0001:000766D8       aDjisdop_videob
 0001:000766EC       aDji_sdopSDji_4
 0001:00076730       aDji_sdopSGetBi
 0001:00076754       aDjisdop_sdprof
 0001:00076768       aDji_sdopSThe_0
 0001:00076798       aDjisdop_usable
 0001:000767B0       aDjisdop_usab_0
 0001:000767C8       aDjisdopinit
 0001:000767D4       aDji_sdopSMutex
 0001:000767F8       aVer_1
 0001:000767FC       aShowFirmwareAndHardwareVersion_
 0001:00076820       aDbg
 0001:00076824       aSetDebugLevelTDjiDbgLevel_EgTDji
 0001:00076858       aFreq
 0001:00076860       aShowCurrentFre
 0001:00076894       aTemp
 0001:0007689C       aShowTemperatur
 0001:000768E4       aSus
 0001:000768E8       aSuspendDspTDjiSusFreqdivshift_Eg
 0001:00076920       aRes
 0001:00076924       aResumeDspTDjiRes_EgTDjiRes
 0001:0007694C       aMode_2
 0001:00076954       aSwitchModeTDji
 0001:000769A0       aHdmi_1
 0001:000769A8       aReconnectHdmiB
 0001:000769E0       aWdg
 0001:000769E4       aDisableWatchDogStopAutoFeedStart
 0001:00076A3C       aOsd
 0001:00076A40       aVideoRecordOsdTestTDjiOsdFxFyFwF
 0001:00076AB4       aMemtest
 0001:00076ABC       aMemoryTestTDjiMemtestTestTimesOp
 0001:00076B38       a3a
 0001:00076B3C       a3aTestEntryTDji3aXxx_EgTDji3a___
 0001:00076B6C       aReboot
 0001:00076B74       aSystemRebootWdtSoftResetTDjiRebo
 0001:00076BBC       aRommisc
 0001:00076BC4       aMiscRomDataSaveLoadTestTDjiRommi
 0001:00076C34       aFlush_1
 0001:00076C3C       aFlushLogTDjiFlush_EgTDjiFlush
 0001:00076C64       aUpdater
 0001:00076C6C       aFirmwareCamera368UpdateTestTDjiU
 0001:00076CB8       aConsole
 0001:00076CC0       aConsoleOnOffControl_TDjiConsole0
 0001:00076D18       aReason
 0001:00076D20       aPrintResetReas
 0001:00076D54       aAfrgb
 0001:00076D5C       aAfRgbCountFyFv
 0001:00076D74       aAfcfa
 0001:00076D7C       aAfCfaCountFyFv
 0001:00076D94       aAfinfo
 0001:00076D9C       aAfInfo1Buffer2
 0001:00076DBC       aAfvalue
 0001:00076DC4       aAfCurrentValue
 0001:00076E24       aCircular
 0001:00076E30       aCircularBuffer
 0001:00076E8C       aTracking
 0001:00076E98       aTrackingTestTD
 0001:00076EF8       aGimbal_0
 0001:00076F00       aGimbalTestTDji
 0001:00076F3C       aPano_1
 0001:00076F44       aPanoTestTDjiPa
 0001:00076FB8       aAutoreboot
 0001:00076FC4       aAutoRebootCont
 0001:00077014       aMemshow
 0001:0007701C       aShowMemConfig
 0001:0007702C       aLogfile
 0001:00077034       aLogfiletest_tD
 0001:0007706C       aMac
 0001:00077070       aSetAuthorizedMac_TDjiMacXxXxXxXx
 0001:000770A0       aUst
 0001:000770A4       aUserSettingsRelatedTestCommands_
 0001:000770CC       aSto
 0001:000770D0       aStorageRelatedTestCommands_
 0001:000770F0       aMsg
 0001:000770F4       aMessageHandlerRelatedTestCommand
 0001:0007711C       aUeg
 0001:00077120       aUpdateEngineRelatedTestCommands_
 0001:00077148       aShm
 0001:0007714C       aShmooRelatedTestCommands_
 0001:0007716C       aLed
 0001:00077170       aLedRelatedTestCommands_
 0001:0007718C       aRename
 0001:00077194       aFileRenameTDjiRenameOldNameNewNa
 0001:000771EC       aEncrypt
 0001:000771F4       aEncryptRelatedTestCommands
 0001:00077214       aPb
 0001:00077218       aPlaybackRelatedTestCommands
 0001:00077238       aAfif
 0001:00077240       aAfInterface
 0001:00077250       aLoaderVersionS
 0001:00077264       aFirmwareVersio
 0001:0007727C       aHardwareVersio
 0001:00077294       aBuildInfoSS
 0001:000772A8       aMar242016
 0001:000772B4       a171813
 0001:000772C0       aSystemCalabrat
 0001:000772EC       aSystemCalabr_0
 0001:00077314       aInputError_Usa
 0001:00077358       aGetSystemPrint
 0001:00077384       aSetTheSystemPr
 0001:000773B8       aDji_shlDji_dl_
 0001:000773E4       aDji_shlDji_d_0
 0001:00077414       aDji_shlDji_d_1
 0001:00077440       aDji_shlDji_d_2
 0001:0007746C       aDji_shlDji_d_3
 0001:00077498       aDji_shl
 0001:000774D0       aDji_shlCortexF
 0001:000774EC       aDji_shlArmFreq
 0001:00077508       aDji_shlDdrFreq
 0001:00077524       aDji_shlCoreFre
 0001:00077540       aDji_shlIdspFre
 0001:0007755C       aDji_shlAxiFreq
 0001:00077578       aDji_shlAhbFreq
 0001:00077594       aDji_shlApbFreq
 0001:000775B0       aSupportedComma
 0001:000775C8       aSS_9
 0001:000775D4       aErrorInvalidCo
 0001:000775F0       aDji_shlGetTemp
 0001:0007761C       aDji_shlNodeDTe
 0001:00077640       aDji_shlArgnumD
 0001:00077668       aDji_shlArg0DEr
 0001:00077684       aDji_shlSuspend
 0001:000776A0       aDji_shlIdspclk
 0001:000776D0       aDji_shlResumeD
 0001:000776F0       aDji_shlInput_0
 0001:00077708       aDji_shlSwitchT
 0001:00077728       aDji_shlIdDData
 0001:00077744       aDji_shlInputEr
 0001:0007775C       aDji_shlCameraF
 0001:00077784       aDji_shl368Firm
 0001:000777A8       aCircularBuff_0
 0001:000777F4       aDji_shlReadCir
 0001:0007781C       aDji_shlWriteCi
 0001:00077844       aDji_shlCircula
 0001:0007786C       aDji_shlAutoReb
 0001:0007788C       aDji_shlAutoR_0
 0001:000778AC       aDjishlhdmireco
 0001:000778C0       aDji_shlSDjicmm
 0001:000778F4       aDji_shlSHdmiRe
 0001:00077918       aDjishlwdgctrl
 0001:00077928       aDji_shlSStopAu
 0001:00077958       aDji_shlSStartA
 0001:00077988       aDji_shlSDisabl
 0001:000779AC       aDji_shlSUnsupp
 0001:000779CC       aDji_shlArgnu_0
 0001:000779F4       aDji_shlArgnu_1
 0001:00077A20       aDji_shlManualW
 0001:00077A54       aDji_shlStartMe
 0001:00077A88       aDjishlrename
 0001:00077A98       aDji_shlSRename
 0001:00077AC8       aDji_shlSRena_0
 0001:00077AF0       aDji_shlSInputI
 0001:00077B10       aDji_shlErrorVa
 0001:00077B28       aDjishllogtest
 0001:00077B38       aDjiLogToSdIsD
 0001:00077B4C       aCTestlog_bin
 0001:00077B5C       aDji_shlSOpenLo
 0001:00077B98       aDji_shlSWriteT
 0001:00077BBC       aDji_shlSInputE
 0001:00077BD8       aDji_shlSShellC
 0001:00077BF8       aDji_shlUpdataM
 0001:00077C14       aSupportedDjiCo
 0001:00077C30       aHelp_1
 0001:00077C38       aDjishlcmdinit
 0001:00077C48       aDji_shlSShel_0
 0001:00077C6C       aDji_shlSInitCi
 0001:00077C98       aDji_shlSShel_1
 0001:00077CBC       aShow_5
 0001:00077CC4       aShowShmooInfoT
 0001:00077CE8       aClr
 0001:00077CEC       aClearShmooInfoTDjiShmClr_
 0001:00077D10       aDbg_0
 0001:00077D14       aSetShmooDebugT
 0001:00077D48       aDjishminfoget
 0001:00077D58       aDji_shmSGetMna
 0001:00077D74       aDjishminfoset
 0001:00077D84       aDjishmddrtest
 0001:00077D94       aDji_shmSOpenFi
 0001:00077DB4       aDji_shmSParseH
 0001:00077DD8       aDji_shmSCheckI
 0001:00077DF8       aDjishmshmoobyt
 0001:00077E10       aDji_shmSDll_va
 0001:00077E34       aDji_shmSDll__0
 0001:00077E58       aDjishmshmoob_0
 0001:00077E70       aDji_shmByteval
 0001:00077EAC       aDji_shmSShmooF
 0001:00077EC8       aDji_shmSShmo_0
 0001:00077EE4       aDji_shmSShmo_1
 0001:00077F00       aDjishmbestvalc
 0001:00077F14       aDji_shmSInvali
 0001:00077F54       aDji_shmSSigmax
 0001:00077F80       aDji_shmSSigbes
 0001:00077FA0       aDjishmshmoopro
 0001:00077FB4       aDji_shmSGetShm
 0001:00077FD8       aDji_shmResumeM
 0001:0007802C       aDji_shmNotResu
 0001:00078084       aDji_shmSDjishm
 0001:000780C8       aDji_shmLineDMa
 0001:00078114       aDji_shmSSetShm
 0001:00078138       aDji_shmSDjis_0
 0001:0007817C       aDji_shmPshmooi
 0001:000781B4       aDji_shmPshmo_0
 0001:000781EC       aDji_shmPshmo_1
 0001:00078224       aDji_shmByteDMa
 0001:00078268       aDjishmresultre
 0001:0007827C       aCS_2
 0001:00078284       aShmresult_txt
 0001:00078294       aByteDMaxlimit0
 0001:000782D0       aDji_shmSWriteF
 0001:000782F0       aDjishmshmooent
 0001:00078304       aDji_shmDdrShmo
 0001:00078324       aDji_shmDdrSh_0
 0001:00078340       aDji_shmSRename
 0001:00078380       aDjishmdetectpr
 0001:00078394       aShmtest_bin
 0001:000783A0       aDjishmootask
 0001:000783B0       aDji_shmSCreate
 0001:000783DC       aDjishmtestshow
 0001:000783EC       aDjishmtestdebu
 0001:000783FC       aDji_shmSArgnum
 0001:00078448       aSd
 0001:0007844C       aGps
 0001:00078450       aVideo_8
 0001:00078458       aDcf
 0001:0007845C       aCap
 0001:00078460       aBpc
 0001:00078464       aPrint_fs_dev_i
 0001:00078490       aSdTotalCluster
 0001:000784A8       aSdUnusedCluste
 0001:000784C0       aSdBytesPerSect
 0001:000784DC       aSdSectorsPerCl
 0001:000784F8       aSdClustersPerC
 0001:0007851C       aSdUnusedClus_0
 0001:0007853C       aSdFormatTypeD
 0001:00078550       aCannotGetStatu
 0001:00078564       aAmbafs_getdevF
 0001:0007857C       aPrint_sd_facto
 0001:000785AC       aSdManufacturer
 0001:000785C4       aSdOemApplicati
 0001:000785E0       aSdProductNameS
 0001:000785F4       aSdProductSeria
 0001:00078618       aSdProductManuf
 0001:0007863C       aPrintsdinfoThe
 0001:00078660       aSdSlotD
 0001:0007866C       aSdCardNotPrese
 0001:00078684       aSdCardPresent_
 0001:00078698       aSdCapacityUKb
 0001:000786AC       aSdSpareCapacit
 0001:000786C8       aFileSystemCont
 0001:000786E8       aCanTGetFileSys
 0001:00078704       aInitialValueOf
 0001:00078724       aFs_fat_unknown
 0001:00078734       aFat32_2
 0001:0007873C       aFs_fat32l
 0001:00078748       aFs_exfat
 0001:00078754       aDefaultUnkown
 0001:00078764       aMemoryIOCombo
 0001:00078778       aMechanicalMemo
 0001:0007878C       aSdxcMemory
 0001:00078798       aSdhcMemory
 0001:000787A4       aSdMemory
 0001:000787B0       aMmcMemory
 0001:000787BC       aMemory
 0001:000787C4       aUnknown_3
 0001:000787CC       aSdCardTypeS
 0001:000787E0       aClass0
 0001:000787E8       aClass2
 0001:000787F0       aClass4
 0001:000787F8       aClass6
 0001:00078800       aClass10
 0001:0007880C       aSdCardSpeedS
 0001:00078820       aSdUhsValueD
 0001:00078834       aSdStatusD
 0001:00078844       aSdWpD
 0001:00078850       aSdSuspendD
 0001:00078860       aSdIsinitD
 0001:00078870       aSdIsmmcD
 0001:00078880       aUsageTDjiStoSd
 0001:000788BC       aTDjiStoSdForma
 0001:000788FC       aTDjiStoSdStatu
 0001:00078934       aTDjiStoSdInfoS
 0001:0007896C       aDjitestsd
 0001:00078978       aInputParameter
 0001:00078998       aPrint
 0001:000789A0       aFormat
 0001:000789A8       aStatus_1
 0001:000789B0       aTheCurrentSdSt
 0001:000789CC       aInfo_3
 0001:000789D4       aSdFsFat12
 0001:000789E0       aSdFsFat16
 0001:000789EC       aSdFsFat32
 0001:000789F8       aSdFsExfat
 0001:00078A04       aSdFsUnkown
 0001:00078A14       aSdRemainShotsU
 0001:00078A28       aSdRemainSecond
 0001:00078A40       aCurrentSdSlotU
 0001:00078A54       aCurrentSdDrive
 0001:00078A68       aCurrentSdState
 0001:00078A80       aState
 0001:00078A88       aSUTooLessInput
 0001:00078AAC       aSUSetTheSlotUS
 0001:00078AD4       aSUUseTheDefaul
 0001:00078AFC       aSUSetTheSdRese
 0001:00078B28       aClear_0
 0001:00078B30       aSUClearTheSlot
 0001:00078B58       aSUDjisdstatget
 0001:00078B78       aSUGetTheSlotUS
 0001:00078BA0       aUsageTDjiStoGp
 0001:00078BE0       aTDjiStoGpsSetf
 0001:00078C50       aTDjiStoGpsSetg
 0001:00078C98       aTDjiStoGpsGetf
 0001:00078CD4       aTDjiStoGpsGetg
 0001:00078D10       aTDjiStoGpsGeth
 0001:00078D48       aDjitestgps
 0001:00078D54       aSetflight
 0001:00078D60       aUseTheDefaultG
 0001:00078D80       aUseTheDefaul_0
 0001:00078DA0       aUseTheDefaul_1
 0001:00078DC0       aUseTheDefaultM
 0001:00078DE0       aUseTheDefaul_2
 0001:00078E00       aUseTheDefaul_3
 0001:00078E20       aUseTheDefaul_4
 0001:00078E40       aUseTheDefaultV
 0001:00078E68       aSetgimbal
 0001:00078E74       aUseTheDefaul_5
 0001:00078E94       aUseTheDefaul_6
 0001:00078EB4       aUseTheDefaul_7
 0001:00078ED4       aUseTheDefaul_8
 0001:00078EF4       aSethome
 0001:00078EFC       aUseTheDefaultH
 0001:00078F1C       aUseTheDefaul_9
 0001:00078F3C       aSUSetHomeInfoF
 0001:00078F58       aGetexif
 0001:00078F60       aSGetTheGpsInfo
 0001:00078F84       aSGpsLatitudeS_
 0001:00078FA0       aSGpsLongitudeS
 0001:00078FBC       aSGpsRelativeAl
 0001:00078FE0       aSGpsAbsoluteAl
 0001:00079004       aSMakerNoteXSpe
 0001:00079024       aSMakerNoteYSpe
 0001:00079044       aSMakerNoteZSpe
 0001:00079064       aSMakerNoteFlig
 0001:00079094       aSMakerNoteFl_0
 0001:000790C0       aSMakerNoteFl_1
 0001:000790F0       aSMakerNoteGimb
 0001:00079120       aSMakerNoteGi_0
 0001:0007914C       aSMakerNoteGi_1
 0001:0007917C       aGetflight
 0001:00079188       aSUGetTheFlight
 0001:000791B0       aFlightInfo
 0001:000791C0       aLogitude_4f
 0001:000791D4       aLatitude_4f
 0001:000791E8       aAltitude_4f
 0001:000791FC       aZspeed_2f
 0001:0007920C       aXspeed_2f
 0001:0007921C       aYspeed_2f
 0001:0007922C       aPitch_2f
 0001:0007923C       aRoll_2f
 0001:0007924C       aYaw_2f
 0001:00079258       aVersionmathU
 0001:0007926C       aValidflagU
 0001:0007927C       aGetgimbal
 0001:00079288       aSUGetTheGimbal
 0001:000792B0       aGimbalInfo
 0001:000792C0       aCalcflagU
 0001:000792D0       aGethome
 0001:000792D8       aSUGetTheHomeIn
 0001:000792FC       aHomeInfo
 0001:00079308       aLongitude_4f
 0001:0007931C       aDjifileexistch
 0001:0007932C       aSOpenFileSFa_0
 0001:00079354       aUsageTDjiStoVi
 0001:000793B4       aTDjiStoVideoSe
 0001:00079408       aTDjiStoVideo_0
 0001:0007944C       aTDjiStoVideo_1
 0001:000794A4       aTDjiStoVideo_2
 0001:00079518       aTDjiStoVideoGe
 0001:0007955C       aTDjiStoVideoVi
 0001:000795B0       aTDjiStoVideoVu
 0001:00079604       aTDjiStoVideoDe
 0001:0007965C       aTDjiStoVideoRe
 0001:000796A4       aTDjiStoVideoVa
 0001:0007970C       aDjitestvideo
 0001:0007971C       aType
 0001:00079724       aUseTheDefau_10
 0001:00079740       aSetTheVideoTyp
 0001:0007975C       aSetTheVideoT_0
 0001:00079778       aLimit
 0001:00079780       aUseTheDefaultL
 0001:0007979C       aSetTheRecordFi
 0001:000797C8       aTranstime
 0001:000797D4       aResolution
 0001:000797E0       aInvalidTransco
 0001:00079800       aSetTheXcodeRes
 0001:00079824       aSetTheXcodeR_0
 0001:00079848       aSetTheXcodeR_1
 0001:0007986C       aDbgsw
 0001:00079874       aSetTheMovieRec
 0001:0007989C       aTheRecordFileC
 0001:000798CC       aVinfo
 0001:000798D4       aSTheInputFileN
 0001:000798F4       aSTheFileNameIs
 0001:00079910       aSVideoDuration
 0001:00079934       aSVideoResoluti
 0001:00079954       aSVideoFramerat
 0001:00079970       aDelete
 0001:00079978       aSRemoveFileSSu
 0001:00079994       aSRemoveFileSFa
 0001:000799B0       aRepair
 0001:000799B8       aFopen
 0001:000799C0       aDjifileexist_1
 0001:000799D8       aDjifileexist_0
 0001:000799F4       aValid
 0001:000799FC       aSTheFileSIsVal
 0001:00079A18       aSTheFileSIsInv
 0001:00079A34       aSDjifilevalidc
 0001:00079A54       aRotate_2
 0001:00079A5C       aSUSetTheCamera
 0001:00079A80       aSUClearTheCame
 0001:00079AA8       aSUSetTheGimbal
 0001:00079AD0       aTime
 0001:00079AD8       aSUCurrentTimeU
 0001:00079AF4       aTranscode
 0001:00079B00       aYouMustInputTh
 0001:00079B28       aSTheFileSWillB
 0001:00079B4C       aXcode_0
 0001:00079B54       aSTheFileSWil_0
 0001:00079B84       aDeleteall
 0001:00079B90       aSThePathSWillB
 0001:00079BB0       aClipinfo
 0001:00079BBC       aGetTheClipFsIn
 0001:00079BDC       aCurrentClipDir
 0001:00079BF4       aDirNumberMaxU
 0001:00079C08       aFilesNumberMax
 0001:00079C1C       aXcodemode
 0001:00079C28       aStartToChangeT
 0001:00079C48       aXpbmode
 0001:00079C50       aStartToChang_0
 0001:00079C74       aVuuid
 0001:00079C7C       aSVideoUuid0x08
 0001:00079C94       aXaudio
 0001:00079C9C       aSetStream0Audi
 0001:00079CBC       aSetStream1Audi
 0001:00079CDC       aSetStream0Stre
 0001:00079D04       aXpause
 0001:00079D0C       aBeginToPauseTh
 0001:00079D28       aBeginToResumeT
 0001:00079D44       aSTheFileSWil_1
 0001:00079D70       aXstore
 0001:00079D78       aC_6
 0001:00079D7B       a1_mov
 0001:00079D84       aUsageTDjiStoCa
 0001:00079DC8       aDjitestcapture
 0001:00079DD8       aSFlag0x08x
 0001:00079DE8       aSThumbnaiAddr0
 0001:00079E10       aSScreenAddr0x0
 0001:00079E34       aSMainImageAddr
 0001:00079E5C       aUsageTDjiStoDc
 0001:00079EB8       aTDjiStoDcfGetM
 0001:00079F28       aTDjiStoDcfGetF
 0001:00079F94       aTDjiStoDcfGetN
 0001:00079FFC       aTDjiStoDcfGetP
 0001:0007A06C       aTDjiStoDcfGetL
 0001:0007A0D4       aTDjiStoDcfGe_0
 0001:0007A12C       aTDjiStoDcfGe_1
 0001:0007A198       aTDjiStoDcfGe_2
 0001:0007A200       aTDjiStoDcfGe_3
 0001:0007A270       aTDjiStoDcfGe_4
 0001:0007A2D8       aTDjiStoDcfGetC
 0001:0007A344       aTDjiStoDcfGetU
 0001:0007A3A0       aTDjiStoDcfGe_5
 0001:0007A420       aTDjiStoDcfGe_6
 0001:0007A474       aTDjiStoDcfDele
 0001:0007A4C8       aTDjiStoDcfDump
 0001:0007A528       aDjifileappendt
 0001:0007A53C       aThisIsATest
 0001:0007A54C       aDjifilewritete
 0001:0007A560       aThisIsATest_0
 0001:0007A570       aDjitestdcf
 0001:0007A57C       aSUseTheDefault
 0001:0007A5A0       aSSetTheMaxfile
 0001:0007A5C0       aMode_0
 0001:0007A5C8       aSTheCurrentDmf
 0001:0007A5E8       aSTheCurrentMax
 0001:0007A60C       aFamount
 0001:0007A614       aSUseTheDefau_0
 0001:0007A634       aSTheFileAmount
 0001:0007A654       aFname
 0001:0007A65C       aSUseTheDefau_1
 0001:0007A684       aSTheFidxDFileN
 0001:0007A6A8       aFirst_fname
 0001:0007A6B4       aSFirstFileName
 0001:0007A6D0       aNext_fname
 0001:0007A6DC       aSNextFileNameI
 0001:0007A6F8       aPrevious_fname
 0001:0007A708       aSPreviousFileN
 0001:0007A728       aLast_fname
 0001:0007A734       aSLastFileNameI
 0001:0007A750       aFirst_idx
 0001:0007A75C       aSDjidcf_firstf
 0001:0007A780       aSFirstIdxDirNo
 0001:0007A7BC       aNext_idx
 0001:0007A7C8       aSDjidcf_nextfi
 0001:0007A7EC       aSNextIdxDirNoU
 0001:0007A828       aPrevious_idx
 0001:0007A838       aSDjidcf_prefil
 0001:0007A85C       aSPreviousIdxDi
 0001:0007A89C       aLast_idx
 0001:0007A8A8       aSDjidcf_lastfi
 0001:0007A8CC       aSLastIdxDirNoU
 0001:0007A908       aCur_idx
 0001:0007A910       aSDjidcf_curfil
 0001:0007A934       aSCurrentIdxDir
 0001:0007A974       aUnique_idx
 0001:0007A980       aSDjidcf_fileid
 0001:0007A9A8       aSTheFileSIndex
 0001:0007A9C4       aUnique_fname
 0001:0007A9D4       aSTooLessInputP
 0001:0007A9F4       aSDjidcf_fnameg
 0001:0007AA18       aSIdxUTypeDFile
 0001:0007AA3C       aDump_2
 0001:0007AA44       aCurrent
 0001:0007AA4C       aAppend
 0001:0007AA54       aSUseTheDefau_2
 0001:0007AA7C       aWrite_0
 0001:0007AA84       aSBeginToDele_0
 0001:0007AAB0       aDng_valid
 0001:0007AABC       aSTheFileSIsV_0
 0001:0007AAD8       aSTheFileSIsI_0
 0001:0007AAF4       aNextfname
 0001:0007AB00       aSTheNextFileNa
 0001:0007AB20       aCurfname
 0001:0007AB2C       aSTheCurrentFil
 0001:0007AB4C       aUsageTDjiStoBp
 0001:0007AB84       aDjitestbpc
 0001:0007AB90       aSTheBpcFileNam
 0001:0007ABAC       aGetTheCurrentB
 0001:0007ABCC       aTest_6
 0001:0007ABD4       aSupportedTes_3
 0001:0007ABF8       aDjitrackinghan
 0001:0007AC0C       aDji_trackSYuvD
 0001:0007AC64       aDji_trackSTake
 0001:0007AC84       aDji_trackTrack
 0001:0007ACB0       aDji_trackSendD
 0001:0007ACD8       aDji_trackSDjii
 0001:0007AD08       aDji_trackTra_0
 0001:0007AD38       aDji_trackIpcAt
 0001:0007AD58       aDji_trackAttac
 0001:0007AD90       aDjitrackingini
 0001:0007ADA0       aDji_trackSfail
 0001:0007ADC4       aDjitrackingena
 0001:0007ADDC       aDji_trackSStat
 0001:0007AE00       aDji_trackFailT
 0001:0007AE40       aDji_trackFai_0
 0001:0007AE84       aDji_trackRegis
 0001:0007AEC0       aDji_trackFai_1
 0001:0007AF08       aDji_trackUnreg
 0001:0007AF48       aDji_trackSTa_0
 0001:0007AF6C       aDjitrackingset
 0001:0007AF84       aDjitrackingreg
 0001:0007AF9C       aDjitrackinggim
 0001:0007AFB8       aDji_trackSGetT
 0001:0007AFE8       aDji_trackSTrac
 0001:0007B024       aDji_trackSFcYa
 0001:0007B048       aDji_trackSSe_0
 0001:0007B078       aDji_trackSYaws
 0001:0007B0B4       aDji_trackSSend
 0001:0007B0E0       aDjitrackingapp
 0001:0007B0F8       aDjicmmcaposddr
 0001:0007B118       aDji_trackSClea
 0001:0007B134       aDji_trackSPosi
 0001:0007B15C       aDji_trackTra_1
 0001:0007B194       aDjitrackingsho
 0001:0007B1A4       aDji_trackTra_2
 0001:0007B1C0       aDji_trackEnabl
 0001:0007B1D8       aDji_trackNeedS
 0001:0007B1F8       aDji_trackTra_3
 0001:0007B214       aDji_trackTra_4
 0001:0007B234       aDji_trackFrame
 0001:0007B24C       aDji_trackRetur
 0001:0007B270       aDji_trackInput
 0001:0007B28C       aDji_trackTra_5
 0001:0007B2AC       aDji_trackTra_6
 0001:0007B2CC       aDji_trackTra_7
 0001:0007B304       aDji_trackDjish
 0001:0007B32C       aTranssrv_memin
 0001:0007B340       aDji_transSLUAl
 0001:0007B378       aDji_transSLU_0
 0001:0007B3AC       aTranssrv_memal
 0001:0007B3C0       aDji_transSLUTy
 0001:0007B3F8       aDji_transSLUBa
 0001:0007B434       aDji_transSLU_1
 0001:0007B468       aDji_transSLU_2
 0001:0007B49C       aDji_transSLU_3
 0001:0007B4D4       aDji_transSLU_4
 0001:0007B50C       aTranssrv_memfr
 0001:0007B520       aDji_transSLUNo
 0001:0007B544       aTranssrv_msgbu
 0001:0007B568       aDji_transSLU_5
 0001:0007B58C       aDji_transSLU_6
 0001:0007B5C4       aTranssrv_msg_0
 0001:0007B5DC       aDji_transSLU_7
 0001:0007B610       aTranssrv_msg_1
 0001:0007B624       aDji_transSLUNu
 0001:0007B648       aDji_transSLUFr
 0001:0007B670       aTranssrv_datab
 0001:0007B688       aDji_transSLU_8
 0001:0007B6C0       aDji_transSLUTr
 0001:0007B704       aTranssrv_dat_0
 0001:0007B71C       aDji_transSLU_9
 0001:0007B740       aDji_transSLUDa
 0001:0007B768       aTranssrv_dat_1
 0001:0007B784       aTranssrv_dat_2
 0001:0007B7A0       aTranssrv_dat_3
 0001:0007B7C0       aDji_transSLUWr
 0001:0007B7F4       aDji_transSLUUp
 0001:0007B830       aTranssrv_dat_4
 0001:0007B84C       aTranssrv_dat_5
 0001:0007B868       aTranssrv_dat_6
 0001:0007B888       aDji_transSLURe
 0001:0007B8C4       aDji_transSL_10
 0001:0007B900       aTranssrv_dat_7
 0001:0007B920       aDji_transSL_11
 0001:0007B948       aTranssrv_queue
 0001:0007B95C       aDji_transSL_12
 0001:0007B988       aTranssrv_que_0
 0001:0007B99C       aDji_transSLUQu
 0001:0007B9C0       aTranssrv_que_1
 0001:0007B9D4       aDji_transSL_13
 0001:0007B9F8       aTranssrv_windo
 0001:0007BA0C       aDji_transSL_14
 0001:0007BA40       aTranssrv_win_4
 0001:0007BA58       aDji_transSLUWi
 0001:0007BA7C       aTranssrv_win_0
 0001:0007BA90       aDji_transSL_15
 0001:0007BABC       aDji_transSL_16
 0001:0007BAE0       aDji_transSL_17
 0001:0007BB24       aTranssrv_win_1
 0001:0007BB38       aDji_transSL_18
 0001:0007BB5C       aDji_transSL_19
 0001:0007BB88       aTranssrv_win_2
 0001:0007BBA0       aDji_transSL_20
 0001:0007BBDC       aSearchSeqUU
 0001:0007BBF4       aTranssrv_win_3
 0001:0007BC08       aDji_transSL_21
 0001:0007BC30       aDji_transSL_22
 0001:0007BC68       aTranssrv_recvd
 0001:0007BC7C       aDji_transSL_23
 0001:0007BCB4       aDji_transSLUGe
 0001:0007BCE0       aDji_transSLUDe
 0001:0007BD08       aDji_transSLUDj
 0001:0007BD3C       aDji_transSL_24
 0001:0007BD70       aDji_transSLUAm
 0001:0007BDA4       aDji_transSL_25
 0001:0007BDD4       aDji_transSL_26
 0001:0007BE08       aTranssrv_recvm
 0001:0007BE1C       aDji_transSL_27
 0001:0007BE54       aDji_transSL_28
 0001:0007BE80       aTranssrv_sends
 0001:0007BE98       aDji_transSL_29
 0001:0007BED4       aDji_transSL_30
 0001:0007BF04       aTranssrv_setst
 0001:0007BF1C       aDji_transSL_31
 0001:0007BF4C       aDji_transSLUSe
 0001:0007BF7C       aTranssrv_sendm
 0001:0007BF90       aDji_transSL_32
 0001:0007BFBC       aDji_transSL_33
 0001:0007BFEC       aTranssrv_sendd
 0001:0007C000       aDji_transSL_34
 0001:0007C038       aDji_transSL_35
 0001:0007C064       aDji_transSL_36
 0001:0007C090       aDji_transSL_37
 0001:0007C0C4       aTranssrv_sendf
 0001:0007C0D8       aTranssrv_set_0
 0001:0007C0FC       aDji_transSL_38
 0001:0007C12C       aSetBandWidthCo
 0001:0007C154       aBandWidthUCont
 0001:0007C178       aTranssrv_setli
 0001:0007C194       aDji_transSL_39
 0001:0007C1C4       aSetDebugFlag_0
 0001:0007C1DC       aTranssrv_resen
 0001:0007C1F4       aDji_transSL_40
 0001:0007C220       aDji_transSL_41
 0001:0007C25C       aDji_transSL_42
 0001:0007C288       aDji_transSL_43
 0001:0007C2C8       aDji_transSL_44
 0001:0007C2F4       aTranssrv_res_0
 0001:0007C30C       aDji_transSL_45
 0001:0007C338       aDji_transSL_46
 0001:0007C364       aDji_transSLUSu
 0001:0007C390       aDji_transSL_47
 0001:0007C3BC       aTranssrv_dores
 0001:0007C3D0       aDji_transSL_48
 0001:0007C3F0       aDji_transSL_49
 0001:0007C430       aDji_transSL_50
 0001:0007C45C       aDji_transSL_51
 0001:0007C488       aDji_transSL_52
 0001:0007C4B0       aDji_transSLUOf
 0001:0007C4D8       aDji_transSL_53
 0001:0007C520       aDji_transSL_54
 0001:0007C548       aDji_transSL_55
 0001:0007C578       aDji_transSL_56
 0001:0007C5A4       aDji_transSL_57
 0001:0007C5D8       aDji_transSL_58
 0001:0007C610       aDji_transSL_59
 0001:0007C644       aDji_transSL_60
 0001:0007C670       aDji_transSL_61
 0001:0007C6A0       aDji_transSL_62
 0001:0007C6C8       aDji_transSLUId
 0001:0007C6F4       aDji_transSLUUU
 0001:0007C720       aDji_transSL_63
 0001:0007C750       aDji_transSL_64
 0001:0007C77C       aDji_transSL_65
 0001:0007C7AC       aDji_transSL_66
 0001:0007C7F0       aItemSizeUError
 0001:0007C818       aDji_transSL_67
 0001:0007C844       aTranssrv_sendp
 0001:0007C85C       aDji_transSL_68
 0001:0007C880       aTranssrv_senda
 0001:0007C898       aDji_transSL_69
 0001:0007C8BC       aTranssrv_getjp
 0001:0007C8D4       aDji_transSLUOp
 0001:0007C900       aDji_transSL_70
 0001:0007C92C       aDji_transSL_71
 0001:0007C968       aDji_transSLUJp
 0001:0007C998       aDji_transSLUEx
 0001:0007C9DC       aDji_transSLUIf
 0001:0007CA24       aDji_transSLUJu
 0001:0007CA5C       aDji_transSLUFi
 0001:0007CAA4       aDji_transSLUTi
 0001:0007CAD4       aDji_transSL_72
 0001:0007CB04       aDji_transSLUCa
 0001:0007CB3C       aDji_transSL_73
 0001:0007CB78       aDji_transSLUTh
 0001:0007CBB8       aTranssrv_get_0
 0001:0007CBD0       aDji_transSLUFo
 0001:0007CBFC       aDji_transSL_74
 0001:0007CC30       aDji_transSL_75
 0001:0007CC70       aDji_transSLUMp
 0001:0007CCB4       aDji_transSLUSc
 0001:0007CCF4       aTranssrv_getdn
 0001:0007CD0C       aDji_transSLUDn
 0001:0007CD34       aTranssrv_get_1
 0001:0007CD4C       aDji_transSL_76
 0001:0007CD84       aDji_transSL_77
 0001:0007CDB4       aDji_transSL_78
 0001:0007CDE4       aDji_transSL_79
 0001:0007CE10       aTranssrv_getth
 0001:0007CE28       aDji_transSLUSN
 0001:0007CE58       aDji_transSL_80
 0001:0007CE88       aCMiscThm_0
 0001:0007CE98       aDji_transSL_81
 0001:0007CECC       aDji_transSLUUn
 0001:0007CF00       aTranssrv_getsc
 0001:0007CF18       aDji_transSL_82
 0001:0007CF4C       aTranssrv_msgch
 0001:0007CF60       aDji_transSLUMe
 0001:0007CF94       aDji_transSL_83
 0001:0007CFCC       aDji_transSL_84
 0001:0007CFFC       aDji_transSL_85
 0001:0007D034       aDji_transSL_86
 0001:0007D068       aDji_transSL_87
 0001:0007D098       aTranssrv_getfi
 0001:0007D0B0       aDji_transSL_88
 0001:0007D0D8       aDji_transSL_89
 0001:0007D110       aDji_transSL_90
 0001:0007D13C       aDji_transSL_91
 0001:0007D168       aDji_transSL_92
 0001:0007D1B0       aDji_transSL_93
 0001:0007D1E0       aDji_transSL_94
 0001:0007D210       aDji_transSLUFa
 0001:0007D264       aDji_transSLUCl
 0001:0007D288       aDji_transSL_95
 0001:0007D2AC       aDji_transSL_96
 0001:0007D2EC       aDji_transSLUSi
 0001:0007D334       aDji_transSL_97
 0001:0007D374       aDji_transSL_98
 0001:0007D3AC       aTranssrv_endfi
 0001:0007D3EC       aTranssrv_sen_1
 0001:0007D510       aTranssrv_getli
 0001:0007D578       aDji_transSLUIn
 0001:0007D6C0       aDji_transSLUTo
 0001:0007D73C       aTranssrv_endli
 0001:0007D77C       aTranssrv_sendl
 0001:0007D810       aTranssrv_getst
 0001:0007D8C0       aDji_transSLUSt
 0001:0007D994       aTranssrv_sen_0
 0001:0007DA0C       aAddAnEmptyFram
 0001:0007DA94       aDji_transSLUHa
 0001:0007DB40       aDji_transSLUDu
 0001:0007DB98       aDji_transSLUAd
 0001:0007DC10       aTranssrv_endst
 0001:0007DCF0       aDji_transSLUPa
 0001:0007DD50       aTranssrv_mainp
 0001:0007DD64       aDji_transSLUPr
 0001:0007DE34       aDji_transSLUDr
 0001:0007DFF8       aTransferSucces
 0001:0007E010       aDji_transSLUCo
 0001:0007E040       aTransferNoAnsw
 0001:0007E05C       aTransferErrorA
 0001:0007E074       aDji_transSLUSa
 0001:0007E0C4       aDji_transSLUIm
 0001:0007E0E8       aTranssrv_maint
 0001:0007E100       aTransWaitFlag0
 0001:0007E14C       aDji_transSLULi
 0001:0007E170       aTranssrv_init
 0001:0007E180       aDji_transSLUIp
 0001:0007E1D0       aDji_transSLUMs
 0001:0007E2F8       aDji_transSLUCr
 0001:0007E3A4       aTranssrvtask
 0001:0007E3E8       aShow_6
 0001:0007E3F0       aShowUpdaterEng
 0001:0007E41C       aPkt
 0001:0007E420       aSetPacketUpdateStageTDjiUegPktStage_
 0001:0007E450       aFw_0
 0001:0007E454       aSetFirmwareUpdateStageTDjiUegFwFidStage_
 0001:0007E48C       aCfm
 0001:0007E490       aClr_0
 0001:0007E494       aClearAllUpdateStageTDjiUegClr_
 0001:0007E4BC       aSave_2
 0001:0007E4C4       aSaveFirmwareUp
 0001:0007E4FC       aSet
 0001:0007E500       aEnablePacketUp
 0001:0007E544       aVlnk
 0001:0007E54C       aSetPacketUpdat
 0001:0007E594       aDjiuegfpgafini
 0001:0007E5AC       aDji_uegSGetFil
 0001:0007E5E0       aCS_1
 0001:0007E5E8       aP3x_fw_log_ab_
 0001:0007E5FC       aP3x_fw_result_
 0001:0007E614       aCSSS_0
 0001:0007E624       aMisc_1
 0001:0007E62C       aDeleteHistoryS
 0001:0007E648       a08dDeleteHisto
 0001:0007E66C       aDjiuegupdatelo
 0001:0007E684       aDji_uegSInvali
 0001:0007E6A8       aDji_uegSOpenLo
 0001:0007E6CC       aDji_uegSWriteL
 0001:0007E6F0       aDjiuegupdatere
 0001:0007E70C       aDji_uegSOpenFi
 0001:0007E72C       aDji_uegSWriteF
 0001:0007E74C       aDjiuegpathpost
 0001:0007E764       aDji_uegSInva_0
 0001:0007E78C       a_updated
 0001:0007E798       a_damaged
 0001:0007E7A4       a_skipped
 0001:0007E7B0       a_receive
 0001:0007E7BC       a_factory
 0001:0007E7C8       a_success
 0001:0007E7D4       a_fail
 0001:0007E7DC       aDjiuegfwconfig
 0001:0007E7F0       aDji_uegSSearch
 0001:0007E81C       aDji_uegSInva_1
 0001:0007E874       aDjiuegfwmsghan
 0001:0007E888       aDji_uegSInva_2
 0001:0007E8B8       aDjiuegfwinfoge
 0001:0007E8CC       aDjiuegfwrxinfo
 0001:0007E8E4       aDjiuegfwpathge
 0001:0007E8F8       aDji_uegSInva_3
 0001:0007E920       aDjiuegfwstepre
 0001:0007E938       aDji_uegSInva_4
 0001:0007E968       aDjiuegfwstages
 0001:0007E97C       aDji_uegSInva_5
 0001:0007E9A8       aDji_uegSGetFir
 0001:0007E9D0       aDjiuegfwstageg
 0001:0007E9E4       aDjiuegfwconfir
 0001:0007E9F8       aDjiuegfwconf_0
 0001:0007EA0C       aDjiuegupdatest
 0001:0007EA24       aDji_uegSReadRe
 0001:0007EA50       aDji_uegSSetPac
 0001:0007EA78       aDji_uegSSetFir
 0001:0007EAB0       aDji_uegSSetF_0
 0001:0007EAEC       aDjiuegfwflaggi
 0001:0007EB00       aDji_uegSUndefi
 0001:0007EB3C       aDjiuegfwflagwa
 0001:0007EB50       aDji_uegSUnde_0
 0001:0007EB90       aDjiuegfwisencf
 0001:0007EBC4       aDji_uegSGetF_0
 0001:0007EBFC       aDji_uegSStateF
 0001:0007EC2C       aDji_uegSInva_6
 0001:0007EC50       aDji_uegSOpen_0
 0001:0007EC7C       aDji_uegSReadFi
 0001:0007ECB0       aDji_uegSSeekFi
 0001:0007ECE4       aDji_uegSRead_0
 0001:0007ED18       aDji_uegSVertif
 0001:0007ED40       aDji_uegSCheckF
 0001:0007ED64       aDji_uegSCalcSu
 0001:0007ED84       aDjiuegfwcheck
 0001:0007EDB4       aDji_uegSFirmwa
 0001:0007EDE0       aDji_uegRawFirm
 0001:0007EE08       aDji_uegEncFirm
 0001:0007EE30       aDjiuegfwdetect
 0001:0007EE44       aDji_uegSGetF_1
 0001:0007EE7C       aDji_uegFirmwar
 0001:0007EEA0       aDji_uegSRename
 0001:0007EEE0       aDji_uegSSFirmw
 0001:0007EF04       aDjiuegfwmsgver
 0001:0007EF20       aDjiuegfwmsgv_0
 0001:0007EF3C       aDji_uegSSCheck
 0001:0007EF70       aDji_uegSGetPac
 0001:0007EF94       aDji_uegSInva_7
 0001:0007EFBC       aPhantom3_djiba
 0001:0007EFCC       aDji_uegSBatter
 0001:0007F010       a08d02d02d02dVD
 0001:0007F06C       aDji_uegSOrigin
 0001:0007F094       aDji_uegSUpdate
 0001:0007F0BC       aDji_uegSNeedUp
 0001:0007F0D8       aDjiuegfwmsgent
 0001:0007F0F4       aDjiuegfwmsge_0
 0001:0007F10C       aDji_uegSSUpdat
 0001:0007F140       aDjiuegfwmsgcon
 0001:0007F16C       aDji_uegSResetS
 0001:0007F198       aDji_uegSEstabl
 0001:0007F1D8       aDjiuegfwmsgc_0
 0001:0007F1F4       aDji_uegSSUpd_0
 0001:0007F228       aDjiuegfwmsgtra
 0001:0007F244       aDji_uegSSendSU
 0001:0007F288       aDji_uegSRead_1
 0001:0007F2A8       aDjiuegfwmsgt_0
 0001:0007F2C4       aDji_uegSSTrans
 0001:0007F308       aDjiuegfwmsgfin
 0001:0007F324       aDjiuegfwmsgf_0
 0001:0007F33C       aDji_uegSSFinis
 0001:0007F37C       aDji_uegSSFin_0
 0001:0007F3C0       aDjiuegfwmsgreb
 0001:0007F3EC       aDjiuegfwmsgr_0
 0001:0007F404       aDji_uegSSReboo
 0001:0007F438       aDjiuegfwusbtra
 0001:0007F450       aDjiuegfwcamera
 0001:0007F488       aDji_uegSOrig_0
 0001:0007F4B8       aDji_uegSUpda_0
 0001:0007F4E8       aDjiuegfwcamapp
 0001:0007F4FC       aDji_uegSSGetPa
 0001:0007F524       aDji_uegSFirm_0
 0001:0007F554       aDji_uegSetMagi
 0001:0007F570       aDji_uegSStartU
 0001:0007F5AC       aDji_uegSSaveUp
 0001:0007F5E4       aDjiuegfwcamldr
 0001:0007F5F8       aDjiuegfwcambst
 0001:0007F60C       aDjiuegfwwifien
 0001:0007F630       aHg310_bin
 0001:0007F63C       aDji_uegSCopyFi
 0001:0007F66C       aDji_uegSVert_0
 0001:0007F698       aDjiuegfpgaclea
 0001:0007F6B0       aDji_uegSGetF_2
 0001:0007F6E8       aDji_uegSStartS
 0001:0007F70C       a08d02d02dStart
 0001:0007F74C       aDjiuegfwversio
 0001:0007F760       aDji_uegSInva_8
 0001:0007F790       aDji_uegSCheckV
 0001:0007F7BC       aDji_uegSSVersi
 0001:0007F7F8       aDji_uegSS1Time
 0001:0007F82C       aDji_uegSChec_0
 0001:0007F854       aDjiuegfwentryp
 0001:0007F868       aDji_uegSUpda_1
 0001:0007F890       aDji_uegSS2Fail
 0001:0007F8C0       aDji_uegSS2Time
 0001:0007F8F4       aDji_uegSUpda_2
 0001:0007F91C       aDjiuegfwconf_1
 0001:0007F930       aDji_uegSUpda_3
 0001:0007F95C       aDji_uegSS3Fail
 0001:0007F990       aDji_uegSS3Time
 0001:0007F9C8       aDji_uegSUpda_4
 0001:0007F9F0       aDjiuegfwtransm
 0001:0007FA08       aDji_uegSFirm_1
 0001:0007FA34       aDji_uegSS4Fail
 0001:0007FA6C       aDji_uegSFirm_2
 0001:0007FA98       aDji_uegSS4Time
 0001:0007FAD0       aDji_uegPleaseD
 0001:0007FAF4       a08d02d02dUsbCo
 0001:0007FB18       aDji_uegPleaseI
 0001:0007FB3C       a08d02d02dSdCar
 0001:0007FB64       aDji_uegSTransm
 0001:0007FB90       aDjiuegfwfinish
 0001:0007FBA4       aDji_uegSFinish
 0001:0007FBD0       aDji_uegSS5Time
 0001:0007FC08       aDji_uegSFini_0
 0001:0007FC30       aDjiuegfwreboot
 0001:0007FC44       aDji_uegSReboot
 0001:0007FC6C       aDji_uegSS6Time
 0001:0007FCA0       aDji_uegSRebo_0
 0001:0007FCC8       aDjiuegfwsuccee
 0001:0007FCE0       aDji_uegReport
 0001:0007FD08       aDji_uegFirmw_0
 0001:0007FD2C       aDji_uegPacketS
 0001:0007FD50       aDji_uegSendTim
 0001:0007FD74       aDji_uegTotalTi
 0001:0007FD98       aDji_ueg
 0001:0007FDC4       aDjiuegfwfailha
 0001:0007FDD8       a08dPacketUpgra
 0001:0007FE14       aResultFailed_R
 0001:0007FE64       aDji_uegPacketU
 0001:0007FE84       aDjiuegfwrxrece
 0001:0007FE9C       aDji_uegSOpen_1
 0001:0007FEC8       aDji_uegSWrit_0
 0001:0007FEF8       aDjiuegfwrxentr
 0001:0007FF14       aDji_uegCameraE
 0001:0007FF38       aDji_uegSSystem
 0001:0007FF5C       aDji_uegSLinuxN
 0001:0007FF80       aDji_uegSCheckC
 0001:0007FFA8       aDji_uegSCardEr
 0001:0007FFD4       aDji_uegSGetOpM
 0001:00080004       aDji_uegSCurren
 0001:00080040       aDji_uegSMotorI
 0001:00080070       aDji_uegSAuthor
 0001:000800A4       aDji_uegSAjustT
 0001:000800DC       aDji_uegSGetRxF
 0001:00080114       aDji_uegCamer_0
 0001:00080138       a08dFirmwareUpg
 0001:0008016C       aDjiuegfwrxconf
 0001:00080184       aDji_uegCameraC
 0001:000801AC       aDji_uegSCurr_0
 0001:000801F0       a08dFirmwareU_0
 0001:00080244       aDji_uegCamer_1
 0001:00080268       aDjiuegfwrxtran
 0001:00080284       aDji_uegSInva_9
 0001:000802B4       aDji_uegSInv_10
 0001:000802F4       aDji_uegCameraT
 0001:0008031C       aDji_uegSTran_0
 0001:0008035C       aDji_uegTransmi
 0001:0008037C       aDji_uegSTran_1
 0001:000803B4       aDji_uegTrans_0
 0001:000803E0       aDjiuegfwrxfini
 0001:00080408       aDji_uegCameraF
 0001:0008042C       aDji_uegSSizeCh
 0001:00080458       aDji_uegSSear_0
 0001:00080494       aDji_uegSCalcCr
 0001:000804C0       aDji_uegSExpext
 0001:000804EC       aDji_uegSCalcMd
 0001:00080518       aDji_uegSExpe_0
 0001:00080534       aDji_uegSActual
 0001:00080550       aDji_uegSRetryE
 0001:00080588       aDji_uegSDelete
 0001:000805BC       aDji_uegSRena_0
 0001:000805F0       aDji_uegCamer_2
 0001:00080614       a08dFirmwareU_1
 0001:00080654       aDjiuegfwupdate
 0001:00080668       a08d04d_02d_02d
 0001:000806B4       a08dS_BootD
 0001:000806E4       aRemoConDisconn
 0001:000806F8       a08dFirmwareSDe
 0001:0008072C       a08d02d02dFirmw
 0001:0008075C       aDji_uegSRebo_1
 0001:0008078C       a08d02d02dFir_3
 0001:000807CC       aDji_uegSSRetry
 0001:00080830       a08d02d02dFir_4
 0001:000808A8       a08d02d02dFir_5
 0001:00080914       a08d02d02dFir_6
 0001:00080974       a08d02d02dFir_7
 0001:000809D8       a08d02d02dFir_8
 0001:00080A28       aDji_uegSUnde_1
 0001:00080A64       aDji_uegSLinuxB
 0001:00080A88       aDji_uegSIpcAtt
 0001:00080AA8       aDji_uegSSwitch
 0001:00080AD0       a08d02d02dFir_9
 0001:00080B30       aDji_uegSStopSt
 0001:00080B54       a08d02d02dStopS
 0001:00080B94       aDji_uegStepDIs
 0001:00080BC0       a08d02d02dFi_10
 0001:00080C00       aDji_uegSFirm_4
 0001:00080C28       a08dDone_
 0001:00080C3C       aDji_uegSFirm_5
 0001:00080C64       aDjiuegfworderc
 0001:00080C7C       aDji_uegSSkipUn
 0001:00080CA8       aDjiuegfwupda_0
 0001:00080CBC       aDjiuegStask
 0001:00080CCC       aDji_uegSCreate
 0001:00080D0C       aDji_uegSTermin
 0001:00080D50       aDji_uegSDele_0
 0001:00080D90       aDjiuegpktstage
 0001:00080DA4       aDjiuegpktsta_0
 0001:00080DB8       aResultForbidde
 0001:00080E28       aResultSuccess_
 0001:00080E3C       aResultCorrupte
 0001:00080EA4       aResultAbort_Th
 0001:00080F18       aResultCanceled
 0001:00080F44       aResultTimeout_
 0001:00080FA8       aResultProhibit
 0001:00081024       aResultAbort__0
 0001:000810AC       aDjiuegpktselec
 0001:000810BC       aDji_uegSNullPo
 0001:000810E4       aDji_uegSGetP_0
 0001:00081108       aDji_uegSkipPac
 0001:00081128       aSkippedS
 0001:00081134       aS_7
 0001:0008113C       aDji_uegSRena_1
 0001:0008117C       aSkippedPacketS
 0001:00081190       aP3x_fw_v99_99_
 0001:000811A8       a04d_02d_02d02d
 0001:000811F0       aPacketS
 0001:000811FC       aP3x_fw_debug
 0001:0008120C       aP3x_fw_debug_2
 0001:0008121C       aP3x_fw_loop
 0001:00081228       aDji_uegPacketD
 0001:0008124C       aDjiuegpktheade
 0001:00081260       aDji_uegSStatPa
 0001:0008128C       aDji_uegSOpenPa
 0001:000812B8       aDji_uegSPacket
 0001:000812F8       aDji_uegSReadHe
 0001:00081328       aDji_uegSSeekPa
 0001:00081354       aDji_uegSPack_0
 0001:00081394       aDji_uegSReadWh
 0001:000813C8       aDjiuegpktversi
 0001:000813E0       aDji_uegSNull_0
 0001:00081404       aDji_uegSCalc_0
 0001:00081424       aDji_uegSWriteN
 0001:0008144C       aDji_uegSReadNa
 0001:00081470       aDji_uegRetryEx
 0001:000814A8       aDjiuegpktver_0
 0001:000814D0       aDji_uegSExpect
 0001:000814E8       aDji_uegSActu_0
 0001:00081500       aDji_uegSVert_1
 0001:00081520       aDjiuegpktver_1
 0001:00081554       aDji_uegNoNeedT
 0001:00081580       aDjiuegpktflowt
 0001:000815B0       aDji_uegSGetVer
 0001:000815D8       aDji_uegNandVer
 0001:00081638       a08dRecordVlink
 0001:00081680       aDjiuegpkthea_0
 0001:00081698       aDji_uegSInv_11
 0001:000816C8       aDji_uegSInv_12
 0001:000816F8       aDji_uegSInv_13
 0001:00081728       aDji_uegSInv_14
 0001:00081790       aDji_uegSExpe_1
 0001:000817BC       aDji_uegPacketV
 0001:0008181C       a08dPacketVlink
 0001:00081858       aDjiuegpktperce
 0001:00081874       aDji_uegSNull_1
 0001:0008189C       aDjiuegpktver_2
 0001:000818B4       aDji_uegSGetPak
 0001:000818D8       aDji_uegSSkip_0
 0001:0008190C       aDji_uegSInv_15
 0001:00081940       a08d02d02d02d_0
 0001:00081980       a08d02d02d02d_1
 0001:000819C8       a08d02d02d02d_2
 0001:000819FC       a08d02d02d02d_3
 0001:00081A34       aDji_uegSNotDet
 0001:00081A54       a08d02d02d02dDe
 0001:00081A84       aDji_uegSRemain
 0001:00081AB0       aDji_uegSEndRem
 0001:00081AE0       aDjiuegpktfwinf
 0001:00081B04       aDjiuegpktorder
 0001:00081B1C       aDji_uegSInitFi
 0001:00081B54       a08d02d02dFir_0
 0001:00081B84       a08d02d02dFir_1
 0001:00081BCC       a08d02d02dFir_2
 0001:00081C18       aDjiuegpktconfo
 0001:00081C2C       aDji_uegSInv_16
 0001:00081C58       aDji_uegSSetF_1
 0001:00081C98       aDjiuegpktuserc
 0001:00081CB0       aDji_uegSTimeOu
 0001:00081CF8       a08dTimeoutUpgr
 0001:00081D20       aDji_uegSTime_0
 0001:00081D64       a08dProhibitFli
 0001:00081DA4       aDji_uegSTime_1
 0001:00081DE8       a08dTimeoutStar
 0001:00081E1C       aDji_uegSSetCon
 0001:00081E3C       a08dUserConfirm
 0001:00081E58       a08dUserCancell
 0001:00081E74       aDji_uegSConfir
 0001:00081E90       aDjiuegpktupdat
 0001:00081EA0       a08dPacketSDete
 0001:00081ED4       a08dPacketUpg_0
 0001:00081EF8       a08d0100Firmwar
 0001:00081F2C       a08dPacketUpg_1
 0001:00081F68       a08d0100Firmw_0
 0001:00081FA4       a08dPacketSResu
 0001:00081FD4       aDji_uegStateCh
 0001:00081FF8       a08dPacketUpg_2
 0001:0008203C       aDji_uegState_0
 0001:00082060       aDji_uegPacketC
 0001:00082084       aDji_uegSGetP_1
 0001:000820B8       a08dPacketUpg_3
 0001:000820F4       a08dPacketCheck
 0001:00082110       aDji_uegSCheckP
 0001:00082140       aDji_uegUpdateF
 0001:00082164       aDji_uegPacke_1
 0001:00082188       aDji_uegVersion
 0001:000821B4       a08dVersionChec
 0001:000821D8       aDji_uegSChec_1
 0001:00082208       a08dPacketUpg_4
 0001:00082244       aDji_uegVersi_0
 0001:0008226C       a08dPacketUpg_5
 0001:000822AC       aDji_uegUserCon
 0001:000822D0       a08dWaitingForU
 0001:000822F8       aDji_uegSUserCo
 0001:0008231C       a08dPacketUpg_7
 0001:00082354       aDji_uegSUser_0
 0001:00082378       aDji_uegUserC_0
 0001:0008239C       aUpgrading___
 0001:000823AC       aDji_uegFirmw_1
 0001:000823D8       a08dFirmwareU_2
 0001:000823FC       aDji_uegSFirm_3
 0001:00082430       aDji_uegFirmw_2
 0001:0008245C       a08dPacketUpg_6
 0001:00082490       aDji_uegPacke_2
 0001:000824B4       aDji_uegPacke_0
 0001:000824D8       aDjiuegpktupd_0
 0001:000824EC       aDji_uegSCrea_0
 0001:00082518       aDji_uegSTerm_0
 0001:00082544       aDji_uegSDele_1
 0001:00082570       aDjiuegupdate_0
 0001:00082588       aDji_uegSResume
 0001:000825AC       aDji_uegSSetP_0
 0001:000825D4       aDjiueginit
 0001:000825E0       aDji_uegSUpda_5
 0001:00082608       aDji_uegSChec_2
 0001:00082634       aDji_uegSCrea_1
 0001:0008265C       aDji_uegSCrea_2
 0001:00082684       aDji_uegSCrea_3
 0001:000826B4       aDji_uegSCrea_4
 0001:000826E0       aDji_uegSCrea_5
 0001:00082710       aDji_uegSCrea_6
 0001:00082740       aDji_uegSCrea_7
 0001:00082770       aDji_uegSCrea_8
 0001:000827A0       aDji_uegSCrea_9
 0001:000827C8       aDji_uegSUpda_6
 0001:000827F0       aDjiuegtestshow
 0001:00082804       aDji_uegPacke_3
 0001:00082828       aDji_uegCheckSt
 0001:00082854       aDji_uegFirmw_3
 0001:00082880       aDji_uegConfirm
 0001:000828AC       aDji_uegFirmw_4
 0001:000828DC       aDji_uegUpdateS
 0001:00082908       aDji_uegFirmw_5
 0001:00082934       aDjiuegtestpkts
 0001:0008294C       aDji_uegSArgnum
 0001:0008296C       aDji_uegSSetP_1
 0001:000829A4       aDji_uegSetPack
 0001:000829CC       aDjiuegtestfwst
 0001:000829E4       aDji_uegSSetF_2
 0001:00082A30       aDji_uegSetFirm
 0001:00082A58       aDjiuegtestconf
 0001:00082A70       aDji_uegSSetF_3
 0001:00082ABC       aDji_uegSetFi_0
 0001:00082AE8       aDjiuegtestfw_0
 0001:00082B00       aDji_uegSSaveFi
 0001:00082B30       aDji_uegSaveFir
 0001:00082B5C       aDjiuegtestfw_1
 0001:00082B74       aDji_uegClearPa
 0001:00082B9C       aDjiuegtestloop
 0001:00082BB0       aDji_uegSInv_17
 0001:00082BDC       aDji_uegSPack_1
 0001:00082C00       aDebug
 0001:00082C08       aLoop
 0001:00082C10       aEnable_0
 0001:00082C18       aDisable_0
 0001:00082C20       aDjiuegtestvers
 0001:00082C50       aDji_uegSLatest
 0001:00082CA0       aDji_ust_multi_
 0001:00082CB8       aDji_ust_photo_
 0001:00082CD4       aDji_ust_phot_0
 0001:00082CE8       aDji_ust_phot_1
 0001:00082CFC       aDji_ust_iso
 0001:00082D08       aDji_ust_wb
 0001:00082D14       aDji_ust_ae_met
 0001:00082D2C       aDji_ust_shutte
 0001:00082D44       aDji_ust_ev_bia
 0001:00082D54       aDji_ust_phot_2
 0001:00082D68       aDji_ust_sharpn
 0001:00082D7C       aDji_ust_contra
 0001:00082D90       aDji_ust_conti_
 0001:00082DA4       aDji_ust_phot_3
 0001:00082DBC       aDji_ust_scene
 0001:00082DCC       aDji_ust_face_d
 0001:00082DE0       aDji_ust_satura
 0001:00082DF4       aDji_ust_hue
 0001:00082E00       aDji_ust_apertu
 0001:00082E14       aDji_ust_digita
 0001:00082E2C       aDji_ust_video_
 0001:00082E40       aDji_ust_vide_0
 0001:00082E5C       aDji_ust_vide_1
 0001:00082E70       aDji_ust_vide_2
 0001:00082E84       aDji_ust_vide_3
 0001:00082E9C       aDji_ust_vide_4
 0001:00082EB4       aDji_ust_vide_5
 0001:00082EC8       aDji_ust_camera
 0001:00082EE0       aDji_ust_gps_co
 0001:00082EF4       aDji_ust_op_mod
 0001:00082F04       aDji_ust_usb_cl
 0001:00082F18       aDji_ust_hdmi_o
 0001:00082F2C       aDji_ust_dmf
 0001:00082F38       aDji_ust_mode_d
 0001:00082F4C       aDji_ust_histog
 0001:00082F60       aDji_ust_subtit
 0001:00082F74       aDji_ust_pal_nt
 0001:00082F88       aDji_ust_pano_m
 0001:00082F9C       aDji_ust_cam_re
 0001:00082FB0       aDjiustromsecto
 0001:00082FC8       aDji_ustSUndefi
 0001:00082FF4       aDjiustusersett
 0001:0008300C       aDji_ustSGetSto
 0001:0008304C       aDji_ustSWriteN
 0001:0008309C       aDjiustuserse_0
 0001:000830B8       aDji_ustSReadNa
 0001:00083108       aDjiustmulticap
 0001:00083120       aDji_ustSSizeDS
 0001:00083150       aDji_ustSSettin
 0001:0008317C       aDji_ustSStartS
 0001:000831A0       aDji_ustSCallCa
 0001:000831D4       aDji_ustSEndSet
 0001:000831F8       aDjiustphotojpe
 0001:00083214       aDji_ustSSett_0
 0001:00083260       aDji_ustSSett_1
 0001:00083284       aDjiustphotosiz
 0001:00083298       aDjiustphotofmt
 0001:000832AC       aDjiustisoset
 0001:000832BC       aDji_ustSCurren
 0001:000832FC       aDjiustwbset
 0001:00083308       aDjiustaemeterm
 0001:00083320       aDjiustshuttert
 0001:00083338       aDji_ustSCurr_0
 0001:00083380       aDji_ustSShutte
 0001:000833B0       aDjiustevbiasse
 0001:000833C0       aDji_ustSCurr_1
 0001:000833F0       aDjiustphotoaeb
 0001:00083404       aDji_ustSAebSet
 0001:00083448       aDjiustsharpnes
 0001:0008345C       aDjiustcontrast
 0001:00083470       aDjiustconticap
 0001:00083484       aDji_ustSContic
 0001:000834C4       aDji_ustSCont_0
 0001:000834FC       aDjiustphotoqui
 0001:00083514       aDji_ustSQuickv
 0001:00083548       aDjiustsceneset
 0001:00083558       aDji_ustSCurr_2
 0001:0008359C       aDjiustfacedete
 0001:000835B0       aDji_ustSFaceDe
 0001:000835E8       aDjiustsaturati
 0001:000835FC       aDjiusthueset
 0001:0008360C       aDjiustaperture
 0001:00083620       aDjiustdigitale
 0001:00083638       aDjiustvideosiz
 0001:0008364C       aDjiustvideosto
 0001:00083668       aDjiustvideoafl
 0001:0008367C       aDjiustvideofov
 0001:00083690       aDjiustvideoqua
 0001:000836A8       aDjiustvideostr
 0001:000836C0       aDjiustvideoaud
 0001:000836D4       aDji_ustSAudioS
 0001:00083708       aDjiustcameraco
 0001:00083720       aDjiustgpsconfi
 0001:00083734       aDjiustopmodese
 0001:00083744       aDji_ustSModeDi
 0001:00083764       aDjiustusbclass
 0001:00083778       aDjiusthdmiouts
 0001:0008378C       aDjiustdmfset
 0001:0008379C       aDjiustmodedial
 0001:000837B0       aDji_ustSCurr_3
 0001:000837E4       aDjiusthistogra
 0001:000837F8       aDjiustsubtitle
 0001:0008380C       aDjiustpalntscs
 0001:00083820       aDjiustpanomode
 0001:00083834       aDjiustpanomo_0
 0001:00083848       aDjiustcamrever
 0001:0008385C       aDjiustmultic_0
 0001:00083874       aDjiustphotoj_0
 0001:00083890       aDjiustphotos_0
 0001:000838A4       aDjiustphotof_0
 0001:000838B8       aDjiustisoget
 0001:000838C8       aDjiustwbget
 0001:000838D4       aDjiustaemete_0
 0001:000838EC       aDjiustshutte_0
 0001:00083904       aDjiustevbiasge
 0001:00083914       aDjiustphotoa_0
 0001:00083928       aDjiustsharpn_0
 0001:0008393C       aDjiustcontra_0
 0001:00083950       aDjiustcontic_0
 0001:00083964       aDjiustphotoq_0
 0001:0008397C       aDjiustsceneget
 0001:0008398C       aDjiustfacede_0
 0001:000839A0       aDjiustsatura_0
 0001:000839B4       aDjiusthueget
 0001:000839C4       aDjiustapertu_0
 0001:000839D8       aDjiustdigita_0
 0001:000839F0       aDjiustvideos_0
 0001:00083A04       aDjiustvideos_1
 0001:00083A20       aDjiustvideoa_0
 0001:00083A34       aDjiustvideof_0
 0001:00083A48       aDjiustvideoq_0
 0001:00083A60       aDjiustvideos_2
 0001:00083A78       aDjiustvideoa_1
 0001:00083A8C       aDjiustcamera_0
 0001:00083AA4       aDjiustgpscon_0
 0001:00083AB8       aDjiustopmodege
 0001:00083AC8       aDjiustusbcla_0
 0001:00083ADC       aDjiusthdmioutg
 0001:00083AF0       aDjiustdmfget
 0001:00083B00       aDjiustmodedi_0
 0001:00083B14       aDjiusthistog_0
 0001:00083B28       aDjiustsubtit_0
 0001:00083B3C       aDjiustpalntscg
 0001:00083B50       aDjiustcamrev_0
 0001:00083B64       aDjiustsetfunce
 0001:00083B7C       aDji_ustSExecut
 0001:00083BB8       aDjiusttakeeffe
 0001:00083BCC       aDji_ustSTakeUs
 0001:00083C04       aDji_ustSExec_0
 0001:00083C48       aDji_ustSLoadUs
 0001:00083C78       aDji_ustSLoad_0
 0001:00083CA8       aDjiustvideoq_1
 0001:00083CC4       aDji_ustSSett_2
 0001:00083CF8       aDjiustphotos_1
 0001:00083D14       aDjiustphotof_1
 0001:00083D30       aDjiustvideos_3
 0001:00083D4C       aDji_ustSReconf
 0001:00083D70       aDjiustvideos_4
 0001:00083D90       aDjiustusbcla_1
 0001:00083DAC       aDjiustmodedi_1
 0001:00083DC8       aDji_ustSCurr_4
 0001:00083DFC       aDjiustsetcallb
 0001:00083E14       aDji_ustSInputI
 0001:00083E38       aDjiustuserse_1
 0001:00083E50       aDji_ustSStorag
 0001:00083E80       aDji_ustSTake_0
 0001:00083EBC       aDji_ustSUserSe
 0001:00083EFC       aDji_ustSWriteU
 0001:00083F38       aDjiusersetting
 0001:00083F50       aDji_ustSReadUs
 0001:00083F84       aDji_ustSUser_0
 0001:00083FD4       aDjiusersetti_0
 0001:00083FE8       aDji_ustSLoad_1
 0001:00084020       aDji_ustSExec_1
 0001:00084058       aDji_ustVersion
 0001:00084070       aDji_ustUserIdM
 0001:0008408C       aDji_ustDS____0
 0001:000840B0       aDji_ustDS____1
 0001:000840D8       aDji_ustDS____2
 0001:00084108       aDji_ustDS____3
 0001:00084130       aDji_ustDS_____
 0001:00084154       aDji_ustMagic0x
 0001:0008416C       aDji_ustChecksu
 0001:00084184       aDjiustdefaultu
 0001:000841A8       aDji_ustSSaveUs
 0001:000841E0       aDjiustdefaul_0
 0001:00084200       aDjiustuserse_2
 0001:00084218       aDji_ustSInputE
 0001:00084250       aDji_ustSTake_1
 0001:00084290       aDji_ustSCallSe
 0001:000842CC       aDji_ustSSetFun
 0001:00084300       aDjiustuserse_3
 0001:00084318       aDji_ustSInpu_0
 0001:00084350       aDji_ustSGetUse
 0001:00084380       aDji_ustSGetFun
 0001:000843B4       aDjiustuserse_4
 0001:000843D4       aDjiustvideobit
 0001:000843EC       aDji_ustSInpu_1
 0001:00084420       aDji_ustSGetVid
 0001:00084444       aDji_ustSUnsupp
 0001:0008446C       aDjiustadjustsh
 0001:00084484       aDji_ustSOrigin
 0001:000844AC       aDji_ustSAdjust
 0001:000844D4       aDjiustadjustis
 0001:000844E4       aDji_ustSOrig_0
 0001:00084504       aDji_ustSAdju_0
 0001:00084524       aDjiustitemmute
 0001:0008453C       aDji_ustSCreate
 0001:00084580       aDjiustinit
 0001:0008458C       aDji_ustSUser_1
 0001:000845B4       aDji_ustSAmbanf
 0001:000845E4       aDji_ustSAmba_0
 0001:00084610       aDji_ustSCrea_0
 0001:00084648       aDji_ustSCrea_1
 0001:00084684       aDji_ustSCrea_2
 0001:000846C4       aDji_ustSLoad_2
 0001:00084700       aDji_ustSUseDef
 0001:0008472C       aDji_ustSLoadDe
 0001:00084764       aDji_ustSUser_2
 0001:000849E0       aSaveUserSettingsToRomTDjiUstSPos_E
 0001:00084A20       aLoadUserSettingsFromRomTDjiUstLPos
 0001:00084A64       aLoadDefaultUserSettingsTDjiUstD_Eg
 0001:00084AA0       aModifyUserSett
 0001:00084AF0       aPrintUserSetti
 0001:00084B24       aDjiusttestsave
 0001:00084B34       aDji_ustArgnumD
 0001:00084B5C       aDji_ustArg0DEr
 0001:00084B78       aDji_ustSDjiust
 0001:00084BB0       aDji_ustSOk
 0001:00084BC4       aDjiusttestload
 0001:00084BD4       aDji_ustSDjiuse
 0001:00084C0C       aDjiusttestdefa
 0001:00084C20       aDjiusttestsetb
 0001:00084C34       aDji_ustSArgnum
 0001:00084C54       aDcim_0
 0001:00084C5C       a_2f
 0001:00084C64       a_6f_6f_3f
 0001:00084C74       aDji_videoopSUG
 0001:00084CAC       aMeta
 0001:00084CB4       aHdlr
 0001:00084CBC       aMdir
 0001:00084CC4       aIlst
 0001:00084CCC       aData
 0001:00084CD4       aXtra
 0001:00084CDC       aWmCategory
 0001:00084CE8       aV01_30_5036_1
 0001:00084CF4       aFc300x_0
 0001:00084CFC       aDjirecvideores
 0001:00084D1C       aDji_videoopSTh
 0001:00084D4C       aDji_videoopSGe
 0001:00084D7C       aDji_videoopSUn
 0001:00084DA4       aDjivideoresinf
 0001:00084DB8       aDji_videoopS_0
 0001:00084DE4       aDji_videoop_14
 0001:00084E14       aUdta
 0001:00084E1C       aFree
 0001:00084E24       aDji_videoop_15
 0001:00084E5C       aDjivideoop_fty
 0001:00084E74       aFtyp
 0001:00084E7C       aDji_videoopSIn
 0001:00084EA4       aDjivideoop_lim
 0001:00084EBC       aDji_videoopSDj
 0001:00084EEC       aDjivideoop_mvh
 0001:00084F04       aDji_videoopS_1
 0001:00084F30       aDjivideoop_tkh
 0001:00084F48       aDjivideoop_hdl
 0001:00084F60       aDjivideoop_sts
 0001:00084F78       aDjivideoop_mdi
 0001:00084FB0       aDji_videoopSUA
 0001:00084FDC       aDji_videoopS_2
 0001:00085010       aDji_videoopS_3
 0001:0008503C       aDji_videoopSAm
 0001:00085064       aDji_videoopS_4
 0001:00085098       aDji_videoopSMi
 0001:000850D4       aDjivideoop_tra
 0001:000850EC       aDji_videoopS_5
 0001:00085114       aDji_videoopS_6
 0001:00085148       aDji_videoopS_7
 0001:00085170       aDji_videoopS_8
 0001:000851A4       aDji_videoopS_9
 0001:000851C8       aDjivideoop_udt
 0001:000851E0       aDji_videoop_10
 0001:00085214       aDjivideoop_vid
 0001:0008522C       aDji_videoop_11
 0001:0008525C       aDji_videoopSFa
 0001:00085280       aDji_videoop_12
 0001:000852B4       aDji_videoop_13
 0001:000852E8       aSTheFileSMvhdD
 0001:00085330       aDjigpstobuf
 0001:0008533C       aDjicmtatomtobu
 0001:00085350       aDjiresatomtobu
 0001:00085360       aDjiudtatobuf
 0001:00085370       aMvhd
 0001:00085378       aTkhd
 0001:00085380       aElst
 0001:00085388       aEdts
 0001:00085390       aMdhd
 0001:00085398       aMhlr
 0001:000853A0       aVide
 0001:000853A8       aSoun
 0001:000853B0       aDji_avc
 0001:000853B8       aDji_jpg
 0001:000853C0       aDji_aac
 0001:000853C8       aVmhd
 0001:000853D0       aSmhd
 0001:000853D8       aDref
 0001:000853E0       aAlis
 0001:000853E8       aDinf
 0001:000853F0       aStsd
 0001:000853F8       aAvc1
 0001:00085400       aMjpa
 0001:00085408       aMp4a
 0001:00085410       aDjiAvcEncoder
 0001:00085420       aDjiMjpegEncode
 0001:00085434       aAvcc
 0001:0008543C       aEsds
 0001:00085444       aStts
 0001:0008544C       aCtts
 0001:00085454       aStsc
 0001:0008545C       aStsz
 0001:00085464       aStco
 0001:0008546C       aStss
 0001:00085474       aStbl
 0001:0008547C       aMinf
 0001:00085484       aMdia
 0001:0008548C       aTrak
 0001:00085494       aMoov
 0001:0008549C       aDjiidxnameinit
 0001:000854AC       aIdx00
 0001:000854B4       aIdx01
 0001:000854BC       aIdx10
 0001:000854C4       aIdx11
 0001:000854CC       aDji_videoop_16
 0001:000854FC       aDjivideoidxfil
 0001:00085510       aSS_3
 0001:00085518       aDji_videoopSWr
 0001:00085568       aDjivideoop_ind
 0001:00085584       aDji_videoop_17
 0001:000855AC       aDji_videoopSUD
 0001:000855E0       aDjivideoop_moo
 0001:000855FC       aDji_videoopSSa
 0001:00085634       aDji_videoopSUp
 0001:00085674       aDjiflushmoovto
 0001:00085688       aDji_videoop_18
 0001:000856BC       aDjiindexheadge
 0001:000856CC       aDji_videoopSOp
 0001:000856F4       aDjivideomoovch
 0001:00085704       aDji_videoop_19
 0001:00085730       aDjivideofilere
 0001:00085744       aDji_videoop_20
 0001:00085780       aDji_videoop_21
 0001:000857B0       aDji_videoop_22
 0001:000857EC       aDji_videoop_23
 0001:00085828       aDji_videoop_24
 0001:00085860       aDji_videoop_25
 0001:00085890       aDji_videoop_26
 0001:000858D4       aDji_videoopSRe
 0001:0008590C       aDji_videoop_27
 0001:00085944       aDji_videoop_28
 0001:0008597C       aDjivideoinvali
 0001:00085998       aDji_videoop_29
 0001:000859D8       aDji_videoop_30
 0001:00085A10       aSUDeleteTheInv
 0001:00085A44       aDjipathvideore
 0001:00085A58       aDji_videoop_31
 0001:00085A90       aDji_videoop_32
 0001:00085AD0       aDji_videoop_33
 0001:00085B10       aDji_videoopSOn
 0001:00085B40       aDji_videoop_34
 0001:00085B7C       aDjivideoop_v_0
 0001:00085B94       aSUsbInserted
 0001:00085BA8       aCS_0
 0001:00085BB0       aDji_videoop_35
 0001:00085BE4       aDji_videoop_36
 0001:00085C20       aDjivideofmtset
 0001:00085C38       aSBeginToSetThe
 0001:00085C60       aSBeginToSetT_0
 0001:00085C88       aSInvalidVideoT
 0001:00085CA0       aDjicamreverses
 0001:00085CBC       aSBeginToSetT_1
 0001:00085CEC       aSBeginToSetT_2
 0001:00085D1C       aDjivideoinit
 0001:00085D2C       aDji_videoopSMu
 0001:00085D6C       aDji_videoopSCr
 0001:00085DB0       aDji_videoop_37
 0001:00085DF0       aDjidircreate
 0001:00085E00       aDji_videoopSUI
 0001:00085E30       aSS_4
 0001:00085E38       aSSD
 0001:00085E40       aOriginalFileNa
 0001:00085E64       aDji_videoopSUR
 0001:00085E90       aDji_videoop_38
 0001:00085EBC       aDjirepairdircr
 0001:00085ED0       aDji_videoop_39
 0001:00085EFC       aDjilogdircreat
 0001:00085F0C       aDjivideothmdir
 0001:00085F24       aDjivideoxcoded
 0001:00085F3C       aXcode
 0001:00085F44       aDjipridircreat
 0001:00085F54       aSS_5
 0001:00085F5C       aMisc_0
 0001:00085F64       aDjidirallfiled
 0001:00085F78       aDji_videoop_40
 0001:00085FA4       aDji_videoopSDe
 0001:00085FE0       aDjivideothmfna
 0001:00085FF4       aDji_videoop_41
 0001:00086024       aSD_0
 0001:0008602C       aDji_videoop_42
 0001:00086054       aDji_videoop_43
 0001:0008607C       aDjivideoxcodec
 0001:00086098       aSTheInputParam
 0001:000860B8       aSS03d
 0001:000860C4       aTrans
 0001:000860CC       aSCorresponding
 0001:000860E8       aDji_videoop_44
 0001:00086118       aDeleteTheDirSF
 0001:00086134       aDjivideoxcodef
 0001:00086150       aSGeneratePathS
 0001:00086168       aSDirSDoesnTExi
 0001:00086184       aS03dS
 0001:00086190       a_mov_0
 0001:00086198       aSUTheUltimateX
 0001:000861C4       aDjivideoxcod_0
 0001:000861DC       aSS03d03d
 0001:000861EC       aSUTheXcodePath
 0001:00086234       aSUTheXcodeFile
 0001:00086258       a_mp4_0
 0001:00086260       aDjivideoop_m_0
 0001:0008627C       aDji_videoop_45
 0001:000862B0       aDjivideoop_m_1
 0001:000862CC       aDji_videoopSTa
 0001:00086310       aDjivideoop_v_1
 0001:0008632C       aDji_videoopSDA
 0001:00086358       a_dng_0
 0001:00086360       a_jpg_0
 0001:00086368       aDjifilevalidch
 0001:00086378       aSDDjigetfileex
 0001:000863A4       aSUUnsupportedF
 0001:000863C4       aDjicamerarever
 0001:000863DC       aDji_videoopSUT
 0001:00086418       aDjicamreversec
 0001:0008642C       aSUTheCameraWil
 0001:00086454       aRotate
 0001:0008645C       aNormal
 0001:00086464       aSUDidnTNeedToR
 0001:00086484       aCameraReverseT
 0001:000864A8       aNormal_0
 0001:000864B0       aRotate_0
 0001:000864B8       aDjicamerarev_0
 0001:000864D4       aSUCurrentSyste
 0001:00086510       aDji_videoop_46
 0001:0008655C       aDji_videoopSUF
 0001:00086598       aSUThePreviousA
 0001:000865DC       aDji_videoopSUS
 0001:00086620       aDji_videoop_47
 0001:00086664       aDjivideouuidge
 0001:00086674       aDji_videoop_48
 0001:000866A0       aCurrentVideoUu
 0001:000866BC       aDjidirandfilen
 0001:000866D0       aDji_videoop_49
 0001:000866FC       aCurrentVideoDi
 0001:00086720       aDjirecordingvi
 0001:00086748       aDji_videoop_50
 0001:0008677C       aDji_videoop_51
 0001:000867A4       aDji_videoop_52
 0001:000867D4       aDjixcodingfree
 0001:000867F0       aDjixcodingvide
 0001:00086810       aDji_videoop_53
 0001:00086848       aDji_videoop_54
 0001:00086888       aDji_videoop_55
 0001:000868D8       aFreeAtomDataLe
 0001:00086904       aDjimsgvideopar
 0001:00086918       aDji_videoop_56
 0001:00086954       aSUDirnoUFileno
 0001:00086990       aDjimsgrspfsinf
 0001:000869A4       aDji_videoop_57
 0001:000869CC       aDji_videoop_58
 0001:000869F8       aDjiclipfsinfog
 0001:00086A0C       aDji_videoopSVi
 0001:00086A44       aDjixcodemaxdir
 0001:00086A5C       aDji_videoop_59
 0001:00086A84       aDjixcodemaxd_0
 0001:00086A98       aDji_videoop_60
 0001:00086AD8       aDjixcodeprivat
 0001:00086AF4       aDjivideoautosp
 0001:00086B10       aDji_videoop_61
 0001:00086B50       aDjivideoauto_0
 0001:00086B6C       aDjivideouudige
 0001:00086B84       aSUCurrentVideo
 0001:00086BA8       aDjivideouuidin
 0001:00086BBC       aDji_videoop_62
 0001:00086BEC       aDjivideoop_l_0
 0001:00086C08       aDji_videoopSSt
 0001:00086C3C       aDji_videoop_63
 0001:00086C6C       aPano
 0001:00086C74       aDjipanomaxfile
 0001:00086C90       aDji_videoop_64
 0001:00086CBC       aDjipanodirdele
 0001:00086CD0       aDji_videoop_65
 0001:00086CFC       aDji_videoop_66
 0001:00086D24       aPanorama
 0001:00086D30       aSRootpathSIsNo
 0001:00086D50       aDji_videoop_67
 0001:00086D78       aSS03d_04d
 0001:00086D88       aSPathSIsNotExi
 0001:00086DA4       aDji_videoopDel
 0001:00086DCC       aDjipanodircrea
 0001:00086DE0       aDji_videoop_68
 0001:00086E14       aDji_videoopSSc
 0001:00086E4C       aDjipanofnamege
 0001:00086E5C       aSS04d_jpg
 0001:00086E6C       aSS04d_dng
 0001:00086E7C       aDjipanofnameup
 0001:00086E90       aDjipanourlwrit
 0001:00086EA0       aDji_videoop_69
 0001:00086ECC       a_html
 0001:00086ED4       aDji_videoop_70
 0001:00086F04       aSSSSS03d_04dSS
 0001:00086F20       aHtmlHead
 0001:00086F30       aMetaHttpEqui_0
 0001:00086F68       aMetaHttpEquivC
 0001:00086FB0       aMetaHttpEquivR
 0001:00086FE8       aHeadHtml
 0001:00086FF8       aDji_videoop_71
 0001:00087028       aWarningTonecur
 0001:00087070       aWarningTonec_0
 0001:000870BC       aWarningTonec_1
 0001:00087108       aAmbadsp_imgset
 0001:00087124       aPipeDAlgoDFunc
 0001:00087160       aTonecurveredDD
 0001:0008718C       aTonecurvegreen
 0001:000871B8       aTonecurveblueD
 0001:00087214       aWarning_Cannot
 0001:00087238       aAmbadsp_imgs_0
 0001:0008725C       aWarning_Ambads
 0001:00087298       aAmbadsp_imgs_1
 0001:000872BC       aWarning_Ptonec
 0001:000872DC       aAmbadsp_imgget
 0001:00087300       aWarning_Amba_0
 0001:0008733C       aAmbadsp_imgg_0
 0001:00087360       aAmbaimg_ctrlfu
 0001:00087380       aSDRval0xXMutex
 0001:000873A4       aSDRval0xX
 0001:000873BC       aAmbaimg_ctrl_0
 0001:000873F0       aAmbaimgprocMod
 0001:0008741C       aSChannelcountD
 0001:00087434       aSIcf_param_sSi
 0001:00087454       aAdjTable_param
 0001:00087488       aAaa_paramsStru
 0001:000874C0       aWarningShutter
 0001:000874F0       aWarningShutt_0
 0001:00087514       aIp_mode_liso_s
 0001:00087530       aIp_mode_hiso_s
 0001:0008754C       aIso_idx_type
 0001:00087564       aAgc_idx_type
 0001:0008757C       aAmbaimg_ctrl_1
 0001:000875A0       aImgparamVersio
 0001:000875DC       aImgparamStruct
 0001:00087620       aImgparamVers_0
 0001:00087658       aAaaparamVersio
 0001:000876A0       aAaaparamStruct
 0001:000876E4       aAaaparamVers_0
 0001:00087728       aStillparamVers
 0001:00087770       aStillparamStru
 0001:000877B8       aVideoVersionnu
 0001:00087800       aVideoStructVer
 0001:00087844       aVideoVersion_0
 0001:00087888       aPhotoVersionnu
 0001:000878D0       aPhotoStructVer
 0001:00087914       aPhotoVersion_0
 0001:00087958       aStillLisoVersi
 0001:000879A0       aStillLisoStruc
 0001:000879E8       aStillHisoVersi
 0001:00087A30       aStillHisoStruc
 0001:00087A78       aK_assertAtSD
 0001:00087A8C       aOpenLoadFileFa
 0001:00087AA0       aOpenSaveFileFa
 0001:00087AB4       aImg_procCannot
 0001:00087AD4       a0m
 0001:00087ADC       a031m
 0001:00087AE4       a032m
 0001:00087AEC       a033m
 0001:00087AF4       a034m
 0001:00087AFC       a035m
 0001:00087B04       a036m
 0001:00087B0C       a037m
 0001:00087B14       a08u
 0001:00087B1C       aS_25
 0001:00087B24       a0m_0
 0001:00087B2C       aSThDD
 0001:00087B3C       aSD_2
 0001:00087B4C       aAmbaprinttask
 0001:00087B5C       aUS
 0001:00087B64       aAdjfunc_memmgr
 0001:00087B78       aSDRval0xXSizeD
 0001:00087B98       aAdjfunc_param_
 0001:00087C70       aSChannelcoun_0
 0001:00087C88       aWbGainErrorFor
 0001:00087CA4       aAdj_def_resetI
 0001:00087CD4       aAmba_adj_video
 0001:00087CE8       aAmbaAdjLib_Rev
 0001:00087D10       aS_0
 0001:00087D18       aEv_index5dAwb5
 0001:00087D4C       aBlackControl
 0001:00087D5C       aNf_index5dBlac
 0001:00087D88       aBlackcorr5d5d5
 0001:00087DA4       a3dColorControl
 0001:00087DB8       aColorratio5dCc
 0001:00087DD4       aWb6d6d
 0001:00087DF8       aEv_index5dUv_y
 0001:00087E14       aEv_index5dGamm
 0001:00087E6C       aEvccflg5d
 0001:00087E78       aEv_index5dChro
 0001:00087ED0       aEv_index5dAnti
 0001:00087EF0       aEv_index5dGbgr
 0001:00087F18       aEv_index5dLoca
 0001:00087F7C       aRgb_to_yuv5d5d
 0001:00087FBC       aGammatable5d5d
 0001:00087FFC       aChromascale5d5
 0001:0008803C       aLocalexposure5
 0001:0008807C       aAntialiasingst
 0001:00088098       aGbgrmismatch5d
 0001:000880B4       aStill
 0001:000880BC       aVideo_0
 0001:000880C4       aDisableEv_colo
 0001:000880D8       aDisableBlc
 0001:000880E8       aDisableAwbRati
 0001:000880FC       aDisableAeTarge
 0001:00088110       aAe_target5d
 0001:00088124       aGamma
 0001:0008812C       aGammaratio3d
 0001:00088140       aL_expo
 0001:00088148       aLocalexposurer
 0001:00088164       aAutoknee
 0001:00088170       aAutokneeratio3
 0001:00088188       aBinning
 0001:00088190       aNon_binning
 0001:000881A0       aBinning_2x
 0001:000881B0       aBinning_3x
 0001:000881C0       aBinning_4x
 0001:000881D0       aBinning_8x
 0001:000881E0       aError_2
 0001:000881EC       aBinningHnumDHd
 0001:00088224       aVideo_adj_tabl
 0001:00088250       aAaddjj
 0001:00088258       aTImgprocAdjAeD
 0001:00088280       aAeTargetSetAeT
 0001:000882A4       aTImgprocAdjAwb
 0001:000882CC       aAwbSetAwbRatio
 0001:000882F4       aTImgprocAdjBlc
 0001:00088318       aBlcSetBlc
 0001:00088348       aTImgprocAdjEvD
 0001:00088370       aEvSetEv_color
 0001:00088398       aTImgprocAdjVid
 0001:000883D0       aTImgprocAdjGam
 0001:00088400       aTImgprocAdjL_e
 0001:00088434       aTImgprocAdjAut
 0001:0008846C       aTImgprocAdjOnO
 0001:000884A0       aTImgprocAdjBin
 0001:000884E0       aAmbaaudio_comb
 0001:000884F4       aAudS0xX0xX0x_2
 0001:00088510       aAmbaaudio_buff
 0001:0008852C       aAmbaaudio_bu_0
 0001:00088544       aAmbaaudio_bu_1
 0001:0008855C       aAudS0xX0xX_2
 0001:00088570       aAmbaaudio_bu_2
 0001:00088590       aAmbaaudio_bu_3
 0001:000885B0       aAmbaaudio_decm
 0001:000885CC       aAudS0xX0xX_1
 0001:000885E0       aPcmdecInter_bu
 0001:000885FC       aPleaseSetPcmco
 0001:00088644       aAacDecErrorD
 0001:00088658       aAmbaaudio_ac3d
 0001:00088670       aAc3decErr_msgD
 0001:00088684       aAc3decFatalErr
 0001:000886A0       aK_assertAtS_31
 0001:000886B4       aAc3decWarning0
 0001:000886CC       aAmbaaudio_deco
 0001:000886E4       aAudS0xXS0xX_1
 0001:000886FC       aFadeOutDoneSto
 0001:00088714       aAudS0xX0xX0x_1
 0001:00088730       aDecode_data_re
 0001:00088744       aDecGetLof
 0001:00088750       aDecSuspendFail
 0001:00088764       aAudDecPreSyncE
 0001:0008877C       aAudDecCanTSync
 0001:000887B0       aAudDecFirstVal
 0001:000887D8       aAmbaaudio_decc
 0001:000887EC       aAmbaaudio_de_0
 0001:00088800       aAmbaaudio_deci
 0001:00088818       aIbufferAGotLof
 0001:0008882C       aIbufferBGotLof
 0001:00088840       aAmbaaudio_decb
 0001:00088858       aAmbaaudio_dect
 0001:00088870       aAudioDecoderTa
 0001:00088884       aAmbaaudio_de_1
 0001:0008889C       aAmbaaudio_decs
 0001:000888B4       aAmbaaudio_de_2
 0001:000888C8       aAmbaaudio_de_3
 0001:000888E0       aAdpcmDonTSuppo
 0001:00088908       aAmbaaudio_de_4
 0001:00088920       aAmbaaudio_de_5
 0001:00088938       aAmbaaudio_de_7
 0001:00088950       aAmbaaudio_decf
 0001:00088968       aFadeOutDone
 0001:000889F8       aAmbaaudio_even
 0001:00088A1C       aAudS0xX0xX0x_3
 0001:00088A38       aAmbaaudio_regi
 0001:00088A58       aAmbaaudio_unre
 0001:00088A7C       aAmbaaudio_setd
 0001:00088A94       aWrongAudioDe_0
 0001:00088AC8       aAudSDebugLevel
 0001:00088AE4       aAmbaaudio_inpu
 0001:00088B04       aAudS0xX0xX
 0001:00088B18       aAmbaaudio_in_0
 0001:00088B3C       aAmbaaudio_in_1
 0001:00088B54       aAmbaaudio_in_2
 0001:00088B6C       aAudS0xXS0xX
 0001:00088B84       aMakeup
 0001:00088B8C       aSFcSetUpError
 0001:00088BA4       aAudS0xX0xX0xX
 0001:00088BC0       aAmbaaudio_in_3
 0001:00088BDC       aStopframe
 0001:00088BE8       aSInputTaskStop
 0001:00088C00       aAmbaaudio_in_4
 0001:00088C1C       aAudioInputTask
 0001:00088C30       aAmbaaudio_in_8
 0001:00088C4C       aAmbaaudio_in_5
 0001:00088C64       aAmbaaudio_in_6
 0001:00088C80       aAmbaaudio_in_7
 0001:00088C98       aSAmbaaudio_eff
 0001:00088CC0       aSAmbaaudio_e_0
 0001:00088CE8       aAmbaaudio_outp
 0001:00088D04       aAudS0xXS0xX_0
 0001:00088D1C       aOutputZero
 0001:00088D28       aGetLof
 0001:00088D30       aOutputZero2
 0001:00088D40       aGetLof2
 0001:00088D4C       aOutputZero3
 0001:00088D5C       aGetLof3
 0001:00088D68       aOutputZeroPaus
 0001:00088D7C       aNo_abu_op
 0001:00088D88       aAmbaaudio_ou_0
 0001:00088DA4       aPreFill
 0001:00088DB0       aAudS0xX0xX0x_0
 0001:00088DCC       aSetEoc
 0001:00088DD4       aDmaStop
 0001:00088DE0       aOutputTaskStop
 0001:00088DF4       aAmbaaudio_ou_1
 0001:00088E10       aAudS0xX0xX_0
 0001:00088E24       aAudioOutputTas
 0001:00088E38       aAmbaaudio_ou_2
 0001:00088E58       aAmbaaudio_ou_3
 0001:00088E7C       aAmbaaudio_ou_4
 0001:00088E94       aAmbaaudio_ou_5
 0001:00088EB0       aOutputTaskStar
 0001:00088EC8       aAmbaaudio_ou_6
 0001:00088EE4       aErrCreateJpege
 0001:00088F04       aErrPleaseSetVa
 0001:00088F80       aErrCreateYuvge
 0001:00088FA0       aErrRawBufferDe
 0001:00088FD0       aErrAmbadsp_cmd
 0001:00088FF4       aErrAmbadsp_sti
 0001:00089028       aErrAmbadsp_s_0
 0001:0008905C       aWarningCanTSto
 0001:0008907C       aReuseRawBufAt0
 0001:00089094       aAmbadsp_cmdvca
 0001:000890B4       aRawbufrpD
 0001:000890C0       aErrAmbadsp_s_1
 0001:00089110       aTakeYuvMutexFa
 0001:00089124       aErrRegionWithO
 0001:00089164       aErrAmbadsp_s_2
 0001:000891A0       aTakeJpegMutexF
 0001:000891B8       aErrEitherPwork
 0001:00089230       aErrHisoCanTBeB
 0001:00089268       aY2yFromDDToDD
 0001:00089294       aScreennailActi
 0001:000892BC       aY2yFromDDToD_0
 0001:000892F4       aErrNotSupportY
 0001:00089324       aErrAmbadsp_s_3
 0001:00089378       aErrRotateflipD
 0001:000893A8       aErrorProgramId
 0001:000893CC       aPleaseUseThePr
 0001:00089408       aTheCrcNumD
 0001:00089424       aTheCrcInThread
 0001:0008943C       aTheCrcInLinuxU
 0001:00089454       aTheCrcValuesAr
 0001:00089478       aCrcValuesCheck
 0001:00089494       aBindingErrorCl
 0001:000894CC       aBindingSvcProg
 0001:000894EC       aCanNotFindSvcF
 0001:00089510       aOtherBindingPr
 0001:00089528       aRecvingTimeout
 0001:0008953C       aErrEventidD
 0001:0008954C       aErrTakeAmbadsp
 0001:00089570       aAmbafs_chdir
 0001:00089580       aSDParameterErr
 0001:00089598       aSDInternalErro
 0001:000895B0       aAmbafs_fopen
 0001:000895C0       aSDInvalidParam
 0001:000895DC       aSDAmbafsmutexC
 0001:00089604       aSDFilegetinsta
 0001:00089624       aAmbafs_fclose
 0001:00089634       aSDParameterE_0
 0001:00089650       aAmbafs_remove
 0001:00089660       aAmbafs_rename
 0001:00089670       aAmbafs_fread
 0001:00089680       aAmbafs_fwrite
 0001:00089690       aAmbafs_fseek
 0001:000896A0       aAmbafs_fappend
 0001:000896B0       aAmbafs_getfpfr
 0001:000896C4       aSDGetFileinsta
 0001:000896E8       aAmbafs_fsexec
 0001:000896F8       aAmbafs_firstdi
 0001:0008970C       aAmbafs_nextdir
 0001:00089720       aAmbafs_mkdir
 0001:00089730       aAmbafs_rmdir
 0001:00089740       aAmbafs_stat
 0001:0008974C       aAmbafs_setvol
 0001:0008975C       aAmbafs_getvol
 0001:0008976C       aAmbafs_getdev
 0001:0008977C       aAmbafs_chmod
 0001:0008978C       aAmbafs_chdmod
 0001:0008979C       aAmbafs_format
 0001:000897AC       aSDParameterE_1
 0001:000897D4       aAmbafs_ftell
 0001:000897E4       aAmbafs_cleandi
 0001:000897F4       aAmbafs_chmoddi
 0001:00089804       aSDInternalEr_0
 0001:0008981C       aC
 0001:00089824       aAmbafs_getfile
 0001:0008983C       aSFileinstanceI
 0001:00089868       aAmbafs_freefil
 0001:00089880       aSNoFreeFileIns
 0001:000898B4       aFsgetfreespace
 0001:000898C4       aK_assertAtSD_3
 0001:000898D8       aDevicePreadFai
 0001:000898EC       aGetFreeSpaceEr
 0001:00089900       aAmbakal_memfre
 0001:00089918       aInternalAmbafs
 0001:00089934       aParameterError
 0001:00089944       aRomfsInternalE
 0001:0008995C       aUnknownAmbafs_
 0001:00089974       aUnknownFileSys
 0001:00089990       aUnknownFatalEr
 0001:000899A4       _AmbaRTC_Epoch
 0001:00089B08       aVcap_setup_0
 0001:00089B14       aChannel_id0x_5
 0001:00089B38       aStream_type0_6
 0001:00089B5C       aVid_skipD_0
 0001:00089B7C       aInput_format_0
 0001:00089B9C       aSensor_idD_0
 0001:00089BBC       aKeep_statesD_0
 0001:00089BDC       aInterlaced_o_0
 0001:00089BFC       aVidcap_wD_0
 0001:00089C1C       aVidcap_hD_0
 0001:00089C3C       aMain_wD_0
 0001:00089C5C       aMain_hD_0
 0001:00089C7C       aPreview_w_aL_0
 0001:00089C9C       aPreview_h_aL_0
 0001:00089CBC       aInput_center_2
 0001:00089CE0       aInput_center_3
 0001:00089D04       aZoom_factor__0
 0001:00089D28       aZoom_factor__1
 0001:00089D4C       aCmdreaddlyD_0
 0001:00089D6C       aSensor_reado_1
 0001:00089D90       aNoise_filter_2
 0001:00089DB0       aMctf_chanD_1
 0001:00089DD0       aMcts_chanD_1
 0001:00089DF0       aCc_enD_1
 0001:00089E10       aCmpr_enD_1
 0001:00089E30       aCmpr_ditherD_1
 0001:00089E50       aModeD_2
 0001:00089E70       aImage_stabil_1
 0001:00089E90       aBit_resoluti_0
 0001:00089EB0       aBayer_patter_2
 0001:00089ED0       aPreview_form_2
 0001:00089EF0       aPreview_form_3
 0001:00089F10       aNo_pipelinef_0
 0001:00089F30       aPreview_fram_2
 0001:00089F50       aPreview_w_bT_0
 0001:00089F70       aPreview_h_bT_0
 0001:00089F90       aPreview_fram_3
 0001:00089FB0       aPreview_a_st_0
 0001:00089FD0       aPreview_a_sr_0
 0001:00089FF0       aPreview_b_sr_0
 0001:0008A010       aPreview_b_st_0
 0001:0008A030       aNum_of_prevs_0
 0001:0008A050       aNum_of_prevs_1
 0001:0008A070       aPrev_a_destD_0
 0001:0008A090       aPrev_b_destD_0
 0001:0008A0B0       aPrev_c_destD_0
 0001:0008A0D0       aAllow_no_his_0
 0001:0008A0F0       aNum_raw_buff_0
 0001:0008A110       aVin_frame_ra_1
 0001:0008A130       aVout_frame_r_2
 0001:0008A150       aPip_wD_0
 0001:0008A170       aPip_hD_0
 0001:0008A190       aVcap_cmd_msg_1
 0001:0008A1B0       aPip_frame_de_1
 0001:0008A1D0       aVin_frame_ra_2
 0001:0008A1F0       aVout_frame_r_3
 0001:0008A210       aPts_deltaD_1
 0001:0008A230       aVideo_delay__0
 0001:0008A250       aVproc_low_de_0
 0001:0008A270       aMax_hiso_wD_0
 0001:0008A290       aMax_hiso_hD_0
 0001:0008A2B0       aEis_update_a_0
 0001:0008A2D4       aBbar_sz_mbsD_0
 0001:0008A2F4       aNum_streamsD_0
 0001:0008A314       aDigital_effe_0
 0001:0008A334       aPreview_src__2
 0001:0008A354       aPreview_src__3
 0001:0008A374       aPreview_src__4
 0001:0008A394       aPreview_src__5
 0001:0008A3B4       aMain_w_extra_0
 0001:0008A3D4       aPip_dram_wD_0
 0001:0008A3F4       aPip_dram_hD_0
 0001:0008A414       aSec_2_out_ex_0
 0001:0008A434       aVwarp_blk_hD_0
 0001:0008A454       aDelay_linesD_0
 0001:0008A474       aVcap_cmd_req_0
 0001:0008A494       aNo_h264_enco_0
 0001:0008A4B4       aEnable_sec1__0
 0001:0008A4D4       aVin_vout_vsy_1
 0001:0008A4F4       aSec3_input_w_0
 0001:0008A514       aRaw_capture__0
 0001:0008A538       aVcap_prev_se_0
 0001:0008A550       aPreview_idD_0
 0001:0008A56C       aPreview_form_4
 0001:0008A588       aPreview_wD_0
 0001:0008A5A4       aPreview_hD_0
 0001:0008A5C0       aPreview_fram_4
 0001:0008A5DC       aPreview_srcD_0
 0001:0008A5F8       aPreview_stop_0
 0001:0008A614       aPreview_dest_0
 0001:0008A630       aPreview_src__6
 0001:0008A64C       aPreview_src__7
 0001:0008A668       aPreview_src__8
 0001:0008A684       aPreview_src__9
 0001:0008A6A0       aEnableD_5
 0001:0008A6BC       aNoisefilterstr
 0001:0008A6D8       aMctschanD
 0001:0008A6F4       aSharpenenD
 0001:0008A710       aBypassbitD
 0001:0008A72C       aRawcapstatusVc
 0001:0008A750       aRawcapstatus_0
 0001:0008A774       aRawcapstatusD
 0001:0008A788       aDspopmodeD
 0001:0008A798       aSetToIdleMode
 0001:0008A7AC       aSetToIdleModeF
 0001:0008A7C4       aWaitIdleModeFa
 0001:0008A7D8       aSetOpModeFail
 0001:0008A7EC       aActiveOpModeFa
 0001:0008A800       aVcapmodeD
 0001:0008A80C       aWrongRawCapt_0
 0001:0008A828       aWrongVcapMod_0
 0001:0008A838       aWrongOpMode
 0001:0008A848       aWaitRecordOpMo
 0001:0008A864       aDspChangeToEnc
 0001:0008A884       aWaitVcapVideoM
 0001:0008A8A0       aDspChangeToE_0
 0001:0008A8C8       aChangeToBackgr
 0001:0008A8FC       aChangeToBack_0
 0001:0008A930       aDspopmodeDVc_0
 0001:0008A94C       aNotVcapVideoMo
 0001:0008A960       aErrNumchannelD
 0001:0008A994       aWarningMctfcom
 0001:0008A9E4       aPleaseCallAmba
 0001:0008AA34       aAmbadsp_livevi
 0001:0008AA78       aAmbadsp_live_0
 0001:0008AAC4       aSystemInfoFram
 0001:0008AAE4       aErrNumchanne_0
 0001:0008AB1C       aErrOverUcodeIn
 0001:0008AB58       aErrPlumaalphat
 0001:0008ABA4       aAmbadsp_live_1
 0001:0008ABF4       aAmbadsp_wait_2
 0001:0008AC3C       aAmbadsp_wait_3
 0001:0008AC84       aErrNumchanne_1
 0001:0008ACC0       aErrNumchanne_2
 0001:0008ACFC       aHdmi4kpll0x08x
 0001:0008AD1C       aWarning_Can_32
 0001:0008AD40       aErrorIncorre_2
 0001:0008AD64       aErrorIncorre_3
 0001:0008AD88       aErrorIncorre_4
 0001:0008ADAC       aWarning_Ptaaas
 0001:0008ADD0       aAmbadsp_img3ag
 0001:0008ADF8       aWarning_Amba_1
 0001:0008AE38       aAmbadsp_img3as
 0001:0008AE60       aWarning_Amba_2
 0001:0008AEA0       aAmbadsp_img3_0
 0001:0008AEC4       aAmbadsp_img3_1
 0001:0008AEEC       aWarning_Amba_3
 0001:0008AF2C       aAmbadsp_img3_2
 0001:0008AF50       aAmbadsp_img3_3
 0001:0008AF78       aWarning_Amba_4
 0001:0008AFB8       aAmbadsp_img3_4
 0001:0008AFDC       aWarning_Pafsta
 0001:0008AFFC       aAmbadsp_img3_5
 0001:0008B024       aWarning_Amba_5
 0001:0008B068       aAmbadsp_img3_6
 0001:0008B090       aAmbadsp_img3_7
 0001:0008B0B8       aWarning_Amba_6
 0001:0008B0F8       aAmbadsp_img3_8
 0001:0008B11C       aWarning_Paaast
 0001:0008B138       aWarning_Amba_7
 0001:0008B178       aAmbadsp_img3_9
 0001:0008B19C       aAmbadsp_img_10
 0001:0008B1C8       aWarning_Amba_8
 0001:0008B210       aAmbadsp_img_11
 0001:0008B23C       aWarning_Paaafl
 0001:0008B264       aAmbadsp_img_12
 0001:0008B290       aWarning_Amba_9
 0001:0008B2D8       aAmbadsp_img_13
 0001:0008B304       aWarning_Paaa_0
 0001:0008B32C       aAmbadsp_img_14
 0001:0008B360       aWarning_Amb_10
 0001:0008B3B0       aAmbadsp_img_15
 0001:0008B3E4       aAmbadsp_img_16
 0001:0008B40C       aWarning_Amb_11
 0001:0008B44C       aAmbadsp_img_17
 0001:0008B470       aWarning_Paaaps
 0001:0008B490       aAmbadsp_img_18
 0001:0008B4B8       aWarning_Amb_12
 0001:0008B4F8       aAmbadsp_img_19
 0001:0008B51C       aAmbadsp_img_20
 0001:0008B548       aWarning_Amb_13
 0001:0008B58C       aAmbadsp_img_21
 0001:0008B5B4       aWarning_Paaaea
 0001:0008B5D8       aAmbadsp_img_22
 0001:0008B604       aWarning_Amb_14
 0001:0008B648       aAmbadsp_img_23
 0001:0008B670       aFullViewGeoInf
 0001:0008B68C       aStart_xD
 0001:0008B69C       aStart_yD
 0001:0008B6AC       aWidthD_10
 0001:0008B6BC       aHeightD_10
 0001:0008B6CC       aHsubsampleDD_1
 0001:0008B6E0       aVsubsampleDD_1
 0001:0008B6F4       aUserInputGeoIn
 0001:0008B718       aErrorPvignette
 0001:0008B744       aTestPvignettec
 0001:0008B768       aErrorFactors_2
 0001:0008B7B8       aErrorVignett_1
 0001:0008B7E8       aVignetteCoreEr
 0001:0008B824       aVignetteCore_0
 0001:0008B864       aVignetteCore_1
 0001:0008B8A0       aVignetteCore_2
 0001:0008B8E0       aVignetteCore_3
 0001:0008B91C       aErrorPvigcorrb
 0001:0008B944       aErrorPvigcor_0
 0001:0008B978       aErrorPvigcor_1
 0001:0008B9B0       aErrorPvigcor_2
 0001:0008B9E8       aErrorPvigcor_3
 0001:0008BA1C       aAmbadsp_imgc_5
 0001:0008BA44       aPipeDAlgoDF_29
 0001:0008BA80       aAmba_dsp_img_v
 0001:0008BAA4       aEnbD_0
 0001:0008BAC4       aGainshiftD
 0001:0008BAE4       aVigstrengtheff
 0001:0008BB04       aChromaratioD
 0001:0008BB24       aVigstrengthD
 0001:0008BB44       aCurrentvinse_0
 0001:0008BB60       aStartxD_7
 0001:0008BB80       aStartyD_8
 0001:0008BBA0       aWidthD_11
 0001:0008BBC0       aHeightD_11
 0001:0008BBE0       aHsubsampleDD_2
 0001:0008BC00       aVsubsampleDD_2
 0001:0008BC20       aCalibvignettei
 0001:0008BC38       aVesrion0xX
 0001:0008BC64       aTablewidthD_0
 0001:0008BC90       aTableheightD_0
 0001:0008BCBC       aPvignetteredga
 0001:0008BCE8       aPvignettegreen
 0001:0008BD14       aPvignettegre_0
 0001:0008BD40       aPvignetteblueg
 0001:0008BD6C       aVinsensorgeo_4
 0001:0008BD88       aStartxD_8
 0001:0008BDAC       aStartyD_9
 0001:0008BDD0       aWidthD_12
 0001:0008BDF4       aHeightD_12
 0001:0008BE18       aHsubsampleDD_3
 0001:0008BE3C       aVsubsampleDD_3
 0001:0008BE60       aAmbadsp_imgs_2
 0001:0008BE8C       aWarning_Can_37
 0001:0008BEB0       aAmbadsp_imgc_6
 0001:0008BEE0       aWarning_Amb_15
 0001:0008BF28       aTransformed_vi
 0001:0008BF48       aTransformed__0
 0001:0008BF70       aTransformed__1
 0001:0008BF98       aTransformed__2
 0001:0008BFBC       aAmbadsp_imgc_7
 0001:0008BFEC       aAmbadsp_imgs_3
 0001:0008C01C       aWarning_Amb_16
 0001:0008C064       aAmbadsp_imgs_4
 0001:0008C094       aWarning_Pvigne
 0001:0008C0BC       aAmbadsp_imgg_1
 0001:0008C0EC       aWarning_Amb_17
 0001:0008C134       aAmbadsp_imgg_2
 0001:0008C164       aAmbadsp_imgs_5
 0001:0008C198       aWarning_Amb_18
 0001:0008C1E8       aAmbadsp_imgs_6
 0001:0008C21C       aSetDebugForVig
 0001:0008C244       aSetDebugForV_0
 0001:0008C26C       aAmbadsp_imgs_7
 0001:0008C28C       aPipeDAlgoDF_26
 0001:0008C2C8       aErrorWarpVersi
 0001:0008C2F0       aErrorHorgridnu
 0001:0008C330       aErrorVergridnu
 0001:0008C374       aErrorCalibPwar
 0001:0008C390       aErrorThetaFSti
 0001:0008C3D8       aErrorFactorsOf
 0001:0008C428       aErrorCalibVinG
 0001:0008C480       aCurrentVinGeoX
 0001:0008C4CC       aErrorDummyWind
 0001:0008C500       aVinR2rWindowWD
 0001:0008C524       aErrorInvalidCf
 0001:0008C544       aErrorInvalidMa
 0001:0008C568       aAmbadsp_imgcal
 0001:0008C58C       aAmba_dsp_img_w
 0001:0008C5AC       aWarpenbD
 0001:0008C5C0       aControlD
 0001:0008C5D4       aThetaF
 0001:0008C5E4       aCalibwarpinfo
 0001:0008C5F8       aVersion0xX
 0001:0008C618       aHorgridnumD
 0001:0008C634       aVergridnumD
 0001:0008C650       aTilewidthexpD
 0001:0008C66C       aTileheightexpD
 0001:0008C688       aVinsensorgeo
 0001:0008C6A0       aStartxD
 0001:0008C6BC       aStartyD
 0001:0008C6D8       aWidthD
 0001:0008C6F4       aHeightD
 0001:0008C710       aHsubsample
 0001:0008C72C       aFactornumD
 0001:0008C74C       aFactordenD
 0001:0008C76C       aVsubsample
 0001:0008C788       aPwarp0xX
 0001:0008C7A0       aCalibwarpinfo_
 0001:0008C7EC       aVinsensorgeo_0
 0001:0008C800       aStartxD_0
 0001:0008C818       aStartyD_0
 0001:0008C830       aWidthD_0
 0001:0008C848       aHeightD_0
 0001:0008C860       aHsubsample_0
 0001:0008C878       aFactornumD_0
 0001:0008C894       aFactordenD_0
 0001:0008C8B0       aVsubsample_0
 0001:0008C8C8       aR2routwindim_w
 0001:0008C8E8       aR2routwindim_h
 0001:0008C908       aDmywingeo_star
 0001:0008C924       aDmywingeo_st_0
 0001:0008C940       aDmywingeo_widt
 0001:0008C95C       aDmywingeo_heig
 0001:0008C978       aCfawindim_widt
 0001:0008C994       aCfawindim_heig
 0001:0008C9B0       aActwincrop_lef
 0001:0008C9D0       aActwincrop_l_0
 0001:0008C9F0       aActwincrop_rig
 0001:0008CA10       aActwincrop_r_0
 0001:0008CA30       aMainwindim_wid
 0001:0008CA4C       aMainwindim_hei
 0001:0008CA68       aPrevwindim0_wi
 0001:0008CA88       aPrevwindim0_he
 0001:0008CAA8       aPrevwindim1_wi
 0001:0008CAC8       aPrevwindim1_he
 0001:0008CAE8       aScreennaildim_
 0001:0008CB08       aScreennaildi_0
 0001:0008CB28       aThumbnaildim_w
 0001:0008CB48       aThumbnaildim_h
 0001:0008CB68       aHorskewphasein
 0001:0008CB94       aWarning_Can_34
 0001:0008CBB8       aAmbadsp_imgc_0
 0001:0008CBE4       aWarning_Amb_19
 0001:0008CC28       aWarnUnsupportM
 0001:0008CC40       aAmbadsp_imgc_1
 0001:0008CC6C       aAmbadsp_imgs_8
 0001:0008CC98       aWarning_Amb_20
 0001:0008CCDC       aAmbadsp_imgs_9
 0001:0008CD08       aWarning_Pwarpc
 0001:0008CD2C       aAmbadsp_imgg_3
 0001:0008CD58       aWarning_Amb_21
 0001:0008CD9C       aAmbadsp_imgg_4
 0001:0008CDC8       aSetDebugForWar
 0001:0008CDEC       aSetDebugForW_0
 0001:0008CE10       aErrorPwarpdzoo
 0001:0008CE40       aErrorPwarpdz_0
 0001:0008CE84       aErrorPwarpdz_1
 0001:0008CEC8       aErrorInVideoMo
 0001:0008CF28       aErrorInVideo_0
 0001:0008CF88       aErrorInStillMo
 0001:0008CFE8       aErrorInStill_0
 0001:0008D048       aErrorPmodePipe
 0001:0008D070       aAmbadsp_img_24
 0001:0008D0A0       aWarning_Amb_22
 0001:0008D10C       aWarning_Pwarpd
 0001:0008D134       aAmbadsp_imgg_5
 0001:0008D164       aWarning_Amb_23
 0001:0008D1B0       aAmbadsp_imgg_6
 0001:0008D1E0       aError_CanBeOnl
 0001:0008D210       aAmbadsp_imgg_7
 0001:0008D248       aWarning_Amb_24
 0001:0008D29C       aAmbadsp_imgg_8
 0001:0008D2D4       aErrorPipenumDE
 0001:0008D304       aErrorTheDThPpi
 0001:0008D32C       aWarning_Incorr
 0001:0008D348       aErrorMemHasBee
 0001:0008D364       aErrorCreateCon
 0001:0008D388       aErrorOffsetDSi
 0001:0008D3A4       aErrorDefaultTa
 0001:0008D3CC       aErrorMemoryGet
 0001:0008D3E4       aErrorLoadDefau
 0001:0008D40C       aVideoTableShpa
 0001:0008D440       aVideoTableSh_0
 0001:0008D474       aVideoTableSh_1
 0001:0008D4A4       aVideoTableSh_2
 0001:0008D4D4       aVideoTableSh_3
 0001:0008D508       aVideoTableSh_4
 0001:0008D540       aVideoTableLeto
 0001:0008D574       aVideoTableCsto
 0001:0008D5A8       aVideoTableCcin
 0001:0008D5D8       aVideoTableCc3d
 0001:0008D608       aVideoTableCcou
 0001:0008D638       aVideoTableMctf
 0001:0008D66C       aVideoTableHotp
 0001:0008D6A8       aVideoTableDark
 0001:0008D6E8       aVideoTableChro
 0001:0008D720       aVideoTableCawa
 0001:0008D750       aVideoTableCa_0
 0001:0008D780       aVideoTableWarp
 0001:0008D7B0       aVideoTableWa_0
 0001:0008D7E0       aVideoTableVigr
 0001:0008D80C       aVideoTableVigg
 0001:0008D840       aVideoTableVi_0
 0001:0008D874       aVideoTableVigb
 0001:0008D8A4       aVideoTableFpnr
 0001:0008D8D8       aStillTableShpa
 0001:0008D90C       aStillTableSh_0
 0001:0008D940       aStillTableSh_1
 0001:0008D970       aStillTableSh_2
 0001:0008D9A0       aStillTableSh_3
 0001:0008D9D4       aStillTableSh_4
 0001:0008DA0C       aStillTableLeto
 0001:0008DA40       aStillTableCsto
 0001:0008DA74       aStillTableCcin
 0001:0008DAA4       aStillTableCc3d
 0001:0008DAD4       aStillTableCcou
 0001:0008DB04       aStillTableMctf
 0001:0008DB38       aStillTableHotp
 0001:0008DB74       aStillTableDark
 0001:0008DBB4       aStillTableChro
 0001:0008DBEC       aStillTableCawa
 0001:0008DC1C       aStillTableCa_0
 0001:0008DC4C       aStillTableWarp
 0001:0008DC7C       aStillTableWa_0
 0001:0008DCAC       aStillTableVigr
 0001:0008DCD8       aStillTableVigg
 0001:0008DD0C       aStillTableVi_0
 0001:0008DD40       aStillTableVigb
 0001:0008DD70       aStillTableFpnr
 0001:0008DDA4       aErrorPipevHasB
 0001:0008DDC4       aErrorPipeDIsNo
 0001:0008DDEC       aErrorPipeVRequ
 0001:0008DE20       aErrorPipeVRe_0
 0001:0008DE54       aErrorCreateC_0
 0001:0008DE74       aErrorPipesHasB
 0001:0008DE94       aErrorPipeDIs_0
 0001:0008DEBC       aErrorPipeSRequ
 0001:0008DEF0       aErrorPipeSRe_0
 0001:0008DF24       aStillIsoCfg0xX
 0001:0008DF4C       aStillIsoCfgTab
 0001:0008DF7C       aErrorPipedHasB
 0001:0008DF9C       aErrorPipeDIs_1
 0001:0008DFC4       aErrorPipeDRequ
 0001:0008DFF8       aErrorPipeDRe_0
 0001:0008E02C       aErrorMemaddrDM
 0001:0008E060       aErrorContextId
 0001:0008E090       aDsp_imgutility
 0001:0008E0C0       aDsp_imgutili_0
 0001:0008E0F8       aErrorIncorrect
 0001:0008E12C       aError_TblNumbe
 0001:0008E160       aError_SrcConte
 0001:0008E190       aError_OneOrMor
 0001:0008E1EC       aErrorConfigIdD
 0001:0008E218       aDsp_imgutili_1
 0001:0008E248       aErrorRegistIkc
 0001:0008E26C       aErrorMemaddr_0
 0001:0008E28C       aErrorGetRequir
 0001:0008E2B0       aErrorGivenMems
 0001:0008E2EC       aErrorInitPipeF
 0001:0008E314       aAmbadsp_imguti
 0001:0008E33C       aAmbadsp_imgu_0
 0001:0008E360       aWarning_Unknow
 0001:0008E380       aAmbadsp_imgu_1
 0001:0008E3A8       aWarning_Cann_0
 0001:0008E3C4       aAmbadsp_imgu_2
 0001:0008E3E8       aWarning_Inco_0
 0001:0008E408       aAmbadsp_imgu_3
 0001:0008E430       aWarning_Cann_1
 0001:0008E454       aAmbadsp_imgu_4
 0001:0008E47C       aAmbadsp_imgu_5
 0001:0008E4A4       aAmbadsp_imgu_6
 0001:0008E4D0       aAmbadsp_imgu_7
 0001:0008E4FC       aAmbadsp_img_25
 0001:0008E520       aWarning_videoP
 0001:0008E570       aWarning_Amb_25
 0001:0008E5AC       aAmbadsp_img_26
 0001:0008E5D0       aAmbadsp_img_27
 0001:0008E5F4       aWarning_Amb_26
 0001:0008E630       aAmbadsp_img_28
 0001:0008E654       aAmbadsp_imgg_9
 0001:0008E678       aWarning_Amb_27
 0001:0008E6B4       aAmbadsp_img_29
 0001:0008E6D8       aWarningStrengt
 0001:0008E718       aAmbadsp_img_30
 0001:0008E734       aPipeDAlgoDFu_4
 0001:0008E770       aStrengthD
 0001:0008E79C       aWarning_Can_10
 0001:0008E7C0       aAmbadsp_img_31
 0001:0008E7E8       aWarning_Amb_28
 0001:0008E828       aAmbadsp_img_32
 0001:0008E850       aWarning_Pstren
 0001:0008E870       aAmbadsp_img_33
 0001:0008E898       aWarning_Amb_29
 0001:0008E8D8       aAmbadsp_img_34
 0001:0008E900       aWarningEnbDSho
 0001:0008E940       aWarningSaturat
 0001:0008E990       aAmbadsp_img_35
 0001:0008E9B0       aPipeDAlgoDFu_1
 0001:0008E9EC       aEnbDAlpharrDAl
 0001:0008EA4C       aWarning_Cann_7
 0001:0008EA70       aAmbadsp_img_36
 0001:0008EA9C       aWarning_Amb_30
 0001:0008EAE0       aAmbadsp_img_37
 0001:0008EB0C       aWarning_Pcfale
 0001:0008EB2C       aAmbadsp_img_38
 0001:0008EB58       aWarning_Amb_31
 0001:0008EB9C       aAmbadsp_img_39
 0001:0008EBC8       aWarningEnbDS_0
 0001:0008EC10       aWarningCorrect
 0001:0008EC68       aWarningHotpixe
 0001:0008ECC0       aWarningDarkpix
 0001:0008ED18       aAmbadsp_img_40
 0001:0008ED44       aPipeDAlgoDFu_5
 0001:0008ED80       aEnbDHotpixelst
 0001:0008EDE4       aWarning_Can_11
 0001:0008EE08       aAmbadsp_img_41
 0001:0008EE3C       aWarning_Amb_32
 0001:0008EE8C       aAmbadsp_img_42
 0001:0008EEC0       aWarning_Pdbpco
 0001:0008EEDC       aAmbadsp_img_43
 0001:0008EF10       aWarning_Amb_33
 0001:0008EF5C       aAmbadsp_img_44
 0001:0008EF90       aErrorFactors_1
 0001:0008EFE0       aErrorSbpCorrec
 0001:0008F00C       aSensorWindowWi
 0001:0008F03C       aFpnBufferPoint
 0001:0008F058       aWrongDisableMo
 0001:0008F080       aNotAValidFpnPi
 0001:0008F09C       aBypassFpnMapWi
 0001:0008F0CC       aBypassFpnPitch
 0001:0008F0FC       aBypassPmapIsAN
 0001:0008F11C       aAmbadsp_img_45
 0001:0008F144       aAmba_dsp_img_m
 0001:0008F160       aPipeDAlgoDF_28
 0001:0008F19C       aAmba_dsp_img_s
 0001:0008F1BC       aEnbD
 0001:0008F1CC       aCurrentvinsens
 0001:0008F1E8       aStartxD_5
 0001:0008F208       aStartyD_6
 0001:0008F228       aWidthD_8
 0001:0008F248       aHeightD_8
 0001:0008F268       aHsubsampleDD
 0001:0008F288       aVsubsampleDD
 0001:0008F2A8       aCalibsbpinfo
 0001:0008F2BC       aVesrionD
 0001:0008F2DC       aSbpbuffer0xX
 0001:0008F2FC       aVinsensorgeo_3
 0001:0008F318       aStartxD_6
 0001:0008F33C       aStartyD_7
 0001:0008F360       aWidthD_9
 0001:0008F384       aHeightD_9
 0001:0008F3A8       aHsubsampleDD_0
 0001:0008F3CC       aVsubsampleDD_0
 0001:0008F3F0       aWarning_Can_36
 0001:0008F414       aAmbadsp_img_46
 0001:0008F448       aWarning_Amb_34
 0001:0008F494       aAmbadsp_img_47
 0001:0008F4E8       aWarning_Psbpco
 0001:0008F504       aAmbadsp_img_48
 0001:0008F538       aWarning_Amb_35
 0001:0008F584       aAmbadsp_img_49
 0001:0008F5B8       aAmbadsp_img_50
 0001:0008F5F0       aWarning_Amb_36
 0001:0008F644       aAmbadsp_img_51
 0001:0008F67C       aWarning_Psbp_0
 0001:0008F6A0       aAmbadsp_img_52
 0001:0008F6D8       aWarning_Amb_37
 0001:0008F72C       aAmbadsp_img_53
 0001:0008F764       aSetDebugForSta
 0001:0008F790       aSetDebugForS_0
 0001:0008F7BC       aWarningBlackbD
 0001:0008F808       aWarningBlackgb
 0001:0008F854       aWarningBlackgr
 0001:0008F8A0       aWarningBlackrD
 0001:0008F8EC       aAmbadsp_img_54
 0001:0008F90C       aPipeDAlgoDFu_3
 0001:0008F948       aBlackrDBlackgr
 0001:0008F990       aWarning_Cann_9
 0001:0008F9B4       aAmbadsp_img_55
 0001:0008F9E0       aWarning_Amb_38
 0001:0008FA24       aAmbadsp_img_56
 0001:0008FA50       aWarning_Pblack
 0001:0008FA70       aAmbadsp_img_57
 0001:0008FA9C       aWarning_Amb_39
 0001:0008FAE0       aAmbadsp_img_58
 0001:0008FB18       aWarning_Can_33
 0001:0008FB3C       aAmbadsp_img_59
 0001:0008FB64       aWarning_Amb_40
 0001:0008FBA4       aAmbadsp_img_60
 0001:0008FBC8       aWarning_Pvinse
 0001:0008FBEC       aAmbadsp_img_61
 0001:0008FC14       aWarning_Amb_41
 0001:0008FC54       aAmbadsp_img_62
 0001:0008FC78       aVoutIdxD
 0001:0008FC88       aVout_mixer_s_0
 0001:0008FCB4       aInterlacedD_0
 0001:0008FCCC       aFrm_rateD_0
 0001:0008FCE4       aAct_win_widt_0
 0001:0008FCFC       aAct_win_heig_0
 0001:0008FD14       aBack_ground__0
 0001:0008FD2C       aBack_ground__1
 0001:0008FD44       aBack_ground__2
 0001:0008FD5C       aMixer_444D_0
 0001:0008FD74       aHighlight_vD_0
 0001:0008FD8C       aHighlight_uD_0
 0001:0008FDA4       aHighlight_yD_0
 0001:0008FDBC       aHighlight_th_0
 0001:0008FDD4       aReverse_enD_0
 0001:0008FDEC       aCsc_enD_0
 0001:0008FE04       aVout_video_s_0
 0001:0008FE18       aEnD_1
 0001:0008FE40       aSrcD_1
 0001:0008FE68       aFlipD_1
 0001:0008FE90       aRotateD_1
 0001:0008FEB8       aWin_offset_x_1
 0001:0008FEE0       aWin_offset_y_1
 0001:0008FF08       aWin_widthD_1
 0001:0008FF30       aWin_heightD_1
 0001:0008FF58       aDefault_img__0
 0001:0008FF80       aDefault_img__1
 0001:0008FFA8       aDefault_img__2
 0001:0008FFD0       aDefault_img__3
 0001:0008FFF8       aDefault_img__4
 0001:00090020       aVout_osd_set_0
 0001:00090030       aEnD_2
 0001:00090050       aSrcD_2
 0001:00090070       aFlipD_2
 0001:00090090       aRescaler_enD_0
 0001:000900B0       aPremultiplie_0
 0001:000900D0       aGlobal_blend_0
 0001:000900F0       aWin_offset_x_2
 0001:00090110       aWin_offset_y_2
 0001:00090130       aWin_widthD_2
 0001:00090150       aWin_heightD_2
 0001:00090170       aRescaler_inp_1
 0001:00090190       aRescaler_inp_2
 0001:000901B0       aOsd_buf_dram_1
 0001:000901D4       aOsd_buf_pitc_1
 0001:000901F4       aOsd_buf_repe_1
 0001:00090214       aOsd_direct_m_0
 0001:00090234       aOsd_transpar_1
 0001:00090254       aOsd_transpar_2
 0001:00090274       aOsd_swap_byt_0
 0001:00090294       aOsd_buf_info_0
 0001:000902B8       aVout_display_0
 0001:000902CC       aDisp_config__0
 0001:000902F4       aDual_vout_vy_0
 0001:00090318       aVin_vout_vsy_2
 0001:0009033C       aVout_dve_set_0
 0001:0009034C       aDve_config_d_0
 0001:00090370       aWarningVout0Al
 0001:000903B8       aWarningVout1Al
 0001:00090448       aImgWarpCoreHas
 0001:0009046C       aImgWarpCoreCon
 0001:000904A0       aImgWarpCoreC_0
 0001:000904D4       aImgWarpCoreDoe
 0001:000904FC       aImgWarpCoreH_0
 0001:0009051C       aErrorCreateClb
 0001:00090540       aErrorCreateC_1
 0001:00090564       aErrorCreatePar
 0001:00090588       aErrorCreateP_0
 0001:000905AC       aErrorGetparamc
 0001:000905C4       aWarningStillVi
 0001:000905F8       aErrorGetcalibc
 0001:00090620       aErrorRawwDRawh
 0001:0009063C       aLefttopxD0
 0001:0009064C       aLefttopyD0
 0001:0009065C       aAct_rightbotxD
 0001:0009067C       aAct_rightbotyD
 0001:000906A0       aAct_lefttopxDC
 0001:000906C4       aAct_lefttopyDC
 0001:000906F8       aDetectDummyWin
 0001:00090748       aDetectDummyW_0
 0001:00090798       aWarningNoSuita
 0001:000907B4       aWarningCfaoutw
 0001:000907E4       aWarningCfaouth
 0001:00090814       aErrorCalcactwi
 0001:0009082C       aErrorCalcdmywi
 0001:00090844       aErrorCalccfaou
 0001:00090860       aErrorRawhD_
 0001:00090870       aErrorImgwarpco
 0001:00090898       aErrorOutputwin
 0001:000908A8       aDefaultCommand
 0001:000908CC       aDef_cmd_code0x
 0001:000908E4       aDspNoResponseA
 0001:0009090C       aAmbadsp_getopm
 0001:00090928       aDspVinNoRespon
 0001:00090958       aDspVoutNoRespo
 0001:00090988       aAmbadsp_armcom
 0001:0009099C       aDsp_armcommvds
 0001:000909BC       aSMsgQueueFull
 0001:000909D0       aDsp_armcommasy
 0001:000909F0       aAsyncMsg
 0001:000909FC       aDsp_armcommv_0
 0001:00090A18       aVdspMsg
 0001:00090A24       aVdsp_0
 0001:00090A2C       aVcapMsg
 0001:00090A38       aVcap_0
 0001:00090A40       aDspCmdSeqNo_Er
 0001:00090A5C       aVdspCmdBuf0xXC
 0001:00090A98       aVcapCmdBuf0xXC
 0001:00090AD4       aCmd_code0xX_33
 0001:00090AE8       aIdsp_cmd_code0
 0001:00090B00       aAsyncCmd_seq_n
 0001:00090B30       aAsync_cmd_code
 0001:00090B48       aErrAsyncCmdTim
 0001:00090B60       aA
 0001:00090B64       aB_0
 0001:00090B68       aC_7
 0001:00090B6C       aD_2
 0001:00090B70       a1
 0001:00090B78       a2_11
 0001:00090B80       a3_4
 0001:00090B88       a4_1
 0001:00090B90       a5_1
 0001:00090B98       a6_0
 0001:00090BA0       aAmbsh
 0001:00090BA8       aDevNull
 0001:00090BB4       aDevNull_0
 0001:00090BC0       aCannotOpenS
 0001:00090BD4       aOutOfMemory
 0001:00090BE4       aAmbashelltask
 0001:00090BF4       aDDoneS
 0001:00090C04       aStringremovech
 0001:00090C18       aK_assertAtS_20
 0001:00090C2C       aA_history
 0001:00090C38       aDP
 0001:00090C40       aDc
 0001:00090C48       a4h_1
 0001:00090C50       aDd_0
 0001:00090DA4       aTypeHelpForHel
 0001:00090DBC       aS_9
 0001:00090DC4       a_ash
 0001:00090DCC       aAmbshSCommandN
 0001:00090DEC       aUnknownPrfileE
 0001:00090E04       aExecuteScriptS
 0001:00090E2C       aUnsupportPageS
 0001:00090E44       aRomallocinode
 0001:00090E54       aK_assertAtS_15
 0001:00090E68       aRominit
 0001:00090E70       aSFailed
 0001:00090E80       aSGetMemoryDFai
 0001:00090E98       aRomDFailedToIn
 0001:00090EB8       aRomDInitialize
 0001:00090ED0       aRpdev_killhibe
 0001:00090EEC       aSFailed_0
 0001:00090EF8       aAmbaipc_hibers
 0001:00090F10       aCanTNotCreat_2
 0001:00090F40       aThread_entry_e
 0001:00090F70       aAmbakal_even_3
 0001:00090F94       aAmbakal_even_4
 0001:00090FB8       aAmbakal_even_5
 0001:00090FDC       aRpdev_linkctrl
 0001:00090FF0       aAmbarpdev_link
 0001:00091004       aSAmbaipc_all_3
 0001:00091020       aHiber_valid
 0001:0009102C       aSWrongMagic0x0
 0001:00091044       aSTooManyPages0
 0001:00091068       aHibernand_writ
 0001:00091080       aK_assertAtS_17
 0001:00091094       aAmbanand_era_0
 0001:000910B8       aTryNextBlock_0
 0001:000910CC       aAmbanand_pro_0
 0001:000910F0       aAmbanand_pro_1
 0001:00091128       aHibernand_wr_0
 0001:00091140       aAmbanand_readF
 0001:00091174       aHibernand_read
 0001:0009118C       aAmbanand_rea_0
 0001:000911B0       aAmbanand_rea_1
 0001:000911D4       aHibernationI_0
 0001:0009120C       aCheckingHibern
 0001:0009123C       aHibernand_save
 0001:0009124C       aSNandPartition
 0001:00091274       aHibernand_rest
 0001:00091288       aHiber_return
 0001:00091298       aSTotalpagesDCo
 0001:000912BC       aAmbaipc_hibe_0
 0001:000912D8       aAmbanand_pro_2
 0001:00091308       aSNotEnoughBloc
 0001:00091330       aAmbaipc_hiberr
 0001:00091350       aAmbanand_rea_2
 0001:0009137C       aAmbaipc_hiberp
 0001:00091394       aAmbaipc_hibe_1
 0001:000913AC       aSCopypagesAndS
 0001:000913D4       aSAmbanand_isin
 0001:000913F0       aSHibernand_get
 0001:00091414       aSHibernand_sav
 0001:00091430       aAmbaipc_hibe_2
 0001:00091444       aAmbalink_bootF
 0001:00091458       aAmbakal_eventf
 0001:0009147C       aAmbakal_even_0
 0001:000914A0       aAmbakal_even_1
 0001:000914C4       aAmbalink_init
 0001:000914D4       aAmbalinkSpinlo
 0001:000914F8       aAmbalinkMutex0
 0001:00091514       aSPbytepoolIsNu
 0001:0009152C       aSCanTNotCreate
 0001:00091558       aAmbalink
 0001:00091564       aCanTNotCreateA
 0001:00091584       aAmbakal_even_2
 0001:000915A8       aLinuxIsSAndIpc
 0001:000915C8       aColdboot
 0001:000915D4       aWarmboot
 0001:000915E0       aHibernationBoo
 0001:000915F4       aLinuxIsSuspend
 0001:00091610       aNand_0
 0001:00091618       aDram
 0001:00091620       aCLinuxImage
 0001:00091630       aHibernationIma
 0001:0009164C       aAmbalink_bootL
 0001:00091688       aLoadLinuxKerne
 0001:000916A4       aHelp_2
 0001:000916AC       aSupportedTes_4
 0001:000916C8       aS_27
 0001:000916D0       aSTestCommandNo
 0001:000916F0       aAmbashellTestC
 0001:00091748       aPrssg
 0001:00091750       aSsg
 0001:00091758       aPrssr
 0001:00091760       aSsr
 0001:00091768       aIris_0
 0001:00091770       aSoe
 0001:00091778       aLedOn
 0001:00091784       aXen
 0001:0009178C       aMs_c
 0001:00091794       aSor
 0001:0009179C       aEor
 0001:000917A4       aLedOff
 0001:000917B0       aMs_o
 0001:000917B8       aAmbaimagemessa
 0001:000917D0       aStat_sig
 0001:000917DC       aUpsamplingrate
 0001:00091804       aDropframeD
 0001:00091814       aFifo_ack
 0001:00091820       aSsi_adv
 0001:00091828       aUU
 0001:00091830       aSsi_sof
 0001:00091838       aSsi_eof
 0001:00091840       aFifo_ack3
 0001:0009184C       aQue_pre
 0001:00091854       aMsg_eof
 0001:0009185C       aSvr_ssr
 0001:00091864       aShr_ssr
 0001:0009186C       aQue_iris_0
 0001:00091878       aMsg_sof
 0001:00091880       aSvr_ssg
 0001:00091888       aShr_ssg
 0001:00091890       aDdgc
 0001:00091898       a08dS
 0001:000918A4       a0x02x_0
 0001:000918AC       aTimer_isr
 0001:000918B8       aQue_ssx
 0001:000918C0       aQue_iris
 0001:000918CC       aTimer_soe
 0001:000918D8       aQue_soe
 0001:000918E0       aTimer_led
 0001:000918EC       aQue_lon
 0001:000918F4       aTimer_xen
 0001:00091900       aTimer_ms
 0001:0009190C       aMsg_prsor
 0001:00091918       aMsg_sor
 0001:00091920       aChksync
 0001:00091928       aUUU
 0001:00091934       aMsg_stat2
 0001:00091940       aMsg_ss
 0001:00091948       aMsg_ssc
 0001:00091950       aStat_ack3
 0001:0009195C       aStat_ack2
 0001:00091968       aStat_ack
 0001:00091974       aMsg_stat3
 0001:00091980       aMsg_stat
 0001:0009198C       aAck4_f
 0001:00091994       aAck_s
 0001:0009199C       aAck3_f
 0001:000919A4       aAck2_f
 0001:000919AC       aFifo_ack4
 0001:000919B8       aAck_f
 0001:000919C0       aFifo_ack2
 0001:000919CC       aQue_sor
 0001:000919D4       aMsg_eor
 0001:000919DC       aMsg_ack_s
 0001:000919E8       aMsg_trigs
 0001:000919F4       aDgc_s
 0001:000919FC       aDdgc_s
 0001:00091A04       aSsi_s
 0001:00091A0C       aSnap_seq
 0001:00091A18       aSnap_sput
 0001:00091A24       aSnap_lput
 0001:00091A30       aSnap_iput
 0001:00091A3C       aDdgc_sof
 0001:00091A48       aDdgc_e
 0001:00091A50       aDgc_sof
 0001:00091A58       aDgc_e
 0001:00091A60       aQue_eor
 0001:00091A68       aQue_lof
 0001:00091A70       aQue_mso
 0001:00091A78       aMsg_trige
 0001:00091A84       aSsi_e
 0001:00091A8C       aDdgc_adve
 0001:00091A98       aDgc_adve
 0001:00091AA4       aEof_set
 0001:00091AAC       aSsi_adve
 0001:00091AB8       aAdv_ssi
 0001:00091AC0       aDec_sync
 0001:00091ACC       aDropRepeatU
 0001:00091AE0       aDropFramesExce
 0001:00091B04       aDrop
 0001:00091B0C       aAdv_eof
 0001:00091B14       aDec2eof
 0001:00091B1C       aEof2sync
 0001:00091B28       aSync_blk
 0001:00091B34       aSnapAgcDgcDdgc
 0001:00091B58       aSnapShrSvrUU
 0001:00091B70       aSnap_in
 0001:00091B78       aSnap_last
 0001:00091B84       aSnapCountU
 0001:00091B94       aDirectShrSvrUU
 0001:00091BB0       aSnapSequenceAg
 0001:00091BDC       aSnapSequenceSh
 0001:00091C04       a_convert_ae_in
 0001:00091C18       aSIncorrectAe_i
 0001:00091C40       aAmba_img_exif_
 0001:00091C60       a0100SGetExifInfo
 0001:00091C7C       aPpriexif_sizeD
 0001:00091CA0       aInfo_1
 0001:00091CAC       aAe_auto_kneeD
 0001:00091CC0       aAe_tile_rowDAe
 0001:00091CE8       a5d
 0001:00091CF0       aAwb_tile_rowDA
 0001:00091D1C       a5d5d
 0001:00091D2C       a2d
 0001:00091D34       a3d
 0001:00091D3C       aD
 0001:00091D44       a5d5d5d_0
 0001:00091D58       a5d5d_0
 0001:00091D68       aChD
 0001:00091D70       aLctSrc5d5d5d
 0001:00091D88       aLctTgt5d5d5d
 0001:00091DA0       aHctSrc5d5d5d
 0001:00091DB8       aHctTgt5d5d5d
 0001:00091DD0       a3d4d
 0001:00091DDC       aLv3dEvindex5dS
 0001:00091E04       aEnd
 0001:00091E0C       aPpriexif_siz_0
 0001:00091E30       aCount12d
 0001:00091E44       aF_energy_60hzF
 0001:00091E9C       aFlg_60fpsDFlg_
 0001:00091ED8       aAmbaimagemaine
 0001:00091F00       aMaxbiasD
 0001:00091F0C       aFocalvalueD
 0001:00091F1C       aEismv_maxangxD
 0001:00091F30       aEismv_maxangyD
 0001:00091F44       aAmbaimagemai_0
 0001:00091F6C       aEisobj_adcsamp
 0001:00091F88       aEisupdateendti
 0001:00091FA0       aEisupdateend_0
 0001:00091FB8       aEisrotatefacto
 0001:00091FCC       aEisstatus_eisd
 0001:00091FE8       aTmpdmyrange_le
 0001:00092000       aTmpdmyrange_ri
 0001:00092018       aTmpdmyrange_to
 0001:00092030       aTmpdmyrange_bo
 0001:00092048       aBefore
 0001:0009206C       aWindowinfo_act
 0001:00092094       aWindowinfo_a_0
 0001:000920BC       aWindowinfo_a_1
 0001:000920E4       aWindowinfo_a_2
 0001:0009210C       aWindowinfo_dmy
 0001:00092130       aWindowinfo_d_0
 0001:00092154       aWindowinfo_d_1
 0001:00092178       aWindowinfo_d_2
 0001:0009219C       aWindowinfo_mai
 0001:000921C0       aDspzfy0xX
 0001:000921D0       aAfter
 0001:000921F4       aCaphD
 0001:000921FC       aActhD
 0001:00092204       aAmbaimagemai_1
 0001:00092230       aAmbaimagemai_2
 0001:00092268       aGyroparam_offs
 0001:00092280       aGyroparam_of_0
 0001:00092298       aGyrocalibinfo_
 0001:000922B0       aGyrocalibinf_0
 0001:000922C8       aAmbaimagemai_3
 0001:00092300       aAmbaimagemai_4
 0001:00092334       aDefeisparam_se
 0001:00092354       aDefeisparam_ei
 0001:00092378       aGyroinfo_voldi
 0001:00092390       aDefeisparam__0
 0001:000923B0       aDefeisparam__1
 0001:000923D4       aEisparam_eissc
 0001:000923F4       aEisparam_eis_0
 0001:00092414       aEisparam_eis_1
 0001:00092434       aAmbaimagemai_5
 0001:0009246C       aAmbaimagemai_6
 0001:00092498       aFramerateperse
 0001:000924AC       aCurrframetimeD
 0001:000924C0       aEissensorstatu
 0001:000924F0       aEissensorsta_0
 0001:00092524       aEissensorsta_1
 0001:00092564       aEissensorsta_2
 0001:0009259C       aVerticalblankt
 0001:000925B4       aMemallocate
 0001:000925CC       aChan0MemoryCre
 0001:000925F8       aChan1MemoryCre
 0001:00092624       aChan2MemoryCre
 0001:00092650       aChan3MemoryCre
 0001:0009267C       aChan4MemoryCre
 0001:000926A8       aChan5MemoryCre
 0001:000926D4       aChan6MemoryCre
 0001:00092700       aChan7MemoryCre
 0001:0009272C       aEismv_maxpixxD
 0001:00092740       aEismv_maxpixyD
 0001:00092754       aPmovsizeCapsta
 0001:0009276C       aDlymsD
 0001:00092778       aPmovsizeCaps_0
 0001:00092790       aPcalcwininfo_v
 0001:000927B4       aPcalcwininfo_0
 0001:000927D8       aEisdspcmdvalid
 0001:000927F0       aAudioclkpersec
 0001:00092808       aCmdreaddlyD_1
 0001:00092818       aAmbaimagemai_7
 0001:00092844       aAmbaimagemai_8
 0001:00092880       aDownsamplexD
 0001:00092890       aDownsampleyD
 0001:000928A0       aDownsamplexsft
 0001:000928B4       aDownsampleysft
 0001:000928C8       aOutput
 0001:000928EC       aCapwD
 0001:000928F4       aActivehD
 0001:00092900       aSafehD
 0001:0009290C       aActwD
 0001:00092914       aIsmovlim_movxD
 0001:00092928       aIsmovlim_movyD
 0001:0009293C       aEislimp_movxD
 0001:00092950       aRsclimp_movxD
 0001:00092964       aEislimn_movxD
 0001:00092978       aRsclimn_movxD
 0001:0009298C       aEislimp_movyD
 0001:000929A0       aRsclimp_movyD
 0001:000929B4       aEislimn_movyD
 0001:000929C8       aRsclimn_movyD
 0001:000929DC       aAmbaimagemai_9
 0001:00092A04       aEisobj_enableD
 0001:00092A18       aEisobj_enablec
 0001:00092A2C       aEisobj_stabili
 0001:00092A48       aEisobj_meenabl
 0001:00092A5C       aFlgeisdzeffect
 0001:00092A70       aEisenabledlycn
 0001:00092A84       aAmbaimagema_10
 0001:00092AB0       aAmbaimagema_11
 0001:00092AD8       aErrorVert_skew
 0001:00092B18       aErrorHori_skew
 0001:00092B5C       aTimeShift1
 0001:00092B74       aSimplifiedRpms
 0001:00092BB0       aTotalSendingDR
 0001:00092BE8       aAverageTimeToS
 0001:00092C24       aTotalSending_0
 0001:00092C5C       aAverageTimeT_0
 0001:00092C9C       aDetailedRpmsgP
 0001:00092CD8       aFromThreadxToL
 0001:00092D14       aAverageInjecti
 0001:00092D3C       aAverageInjectr
 0001:00092D60       aAverageLinuxre
 0001:00092D84       aAveragePickupr
 0001:00092DA8       aAverageRecvcal
 0001:00092DCC       aMaximunLinuxRe
 0001:00092DF0       aMaximunRpmsgti
 0001:00092E0C       aMinumunRpmsgti
 0001:00092E28       aMaximunRecvcbt
 0001:00092E44       aMinimunRecvcbt
 0001:00092E60       aFromLinuxToThr
 0001:00092E9C       aAverageInjec_0
 0001:00092EC4       aAverageThreadx
 0001:00092EEC       aMaximunThreadx
 0001:00092F14       aRvqIsrIsInvoke
 0001:00092F50       aMessageIsTooBi
 0001:00092F6C       aC0_and_c1
 0001:00092F78       aCanTNotCreateR
 0001:00092F98       aCanTNotCreateS
 0001:00092FB8       aCanTNotCreat_0
 0001:00092FD8       aCanTNotCreat_1
 0001:00092FF8       aRpclnt_cortex_
 0001:0009300C       aRpclnt_corte_0
 0001:00093020       aFailedToCreate
 0001:00093044       aAmbaipc_rpmsgr
 0001:00093060       aSRpmsgRpdevInf
 0001:0009308C       aRestoreRpmsgIn
 0001:000930A8       aZombieReplyMes
 0001:000930D0       aAsynAgain
 0001:000930E0       aSimplifiedRpcP
 0001:0009311C       aSynchronousRpc
 0001:0009313C       aAsynchronousRp
 0001:0009315C       aAverageRoundtr
 0001:00093194       aAverageDeliver
 0001:000931CC       aTotalSendingRp
 0001:0009320C       aAverageTimeFro
 0001:00093244       aTotalSending_1
 0001:00093284       aAverageTimeF_0
 0001:000932C0       aDetailedRpcPro
 0001:000932FC       aFromThreadxT_0
 0001:00093338       aAverageInjec_1
 0001:00093360       aAverageRpcTime
 0001:00093388       aAverageRpcTi_0
 0001:000933C4       aMaximunRpcTime
 0001:00093400       aMinimunRpcTime
 0001:0009343C       aMaximunTimeFro
 0001:00093474       aMinimunTimeFro
 0001:000934AC       aFromLinuxToT_0
 0001:000934E8       aAverageInjec_2
 0001:00093510       aAverageRpcTi_1
 0001:0009354C       aMaximunRpcTi_0
 0001:00093588       aMinimunRpcTi_0
 0001:000935C4       aMaximunTimeF_0
 0001:000935FC       aMinimunTimeF_0
 0001:00093634       aUsrLocalShar_0
 0001:00093678       aUsrLocalShar_1
 0001:000936B0       aSdcardhandleex
 0001:000936E4       aUsrLocalShareS
 0001:00093708       aAmbaipc_rpcsyn
 0001:00093728       aUsrLocalShar_2
 0001:0009375C       aUsrLocalShar_3
 0001:0009378C       aAmbaipc_rpcusb
 0001:000937B4       aAmbaipc_rpcini
 0001:000937C4       aAipc_rpc
 0001:000937D0       aSAmbaipc_all_0
 0001:000937EC       aErrorProgram_0
 0001:00093810       aPleaseUseThe_0
 0001:0009384C       aSvc_thread_fun
 0001:00093884       aSvc_thread_f_0
 0001:000938BC       aErrorReachedAi
 0001:000938E4       aSetThreadFinis
 0001:00093914       aAddTaskLockMut
 0001:00093940       aFullAddTaskLoc
 0001:00093974       aQueueFullError
 0001:00093998       aFullAddTaskUnl
 0001:000939CC       aQueueEmptyEven
 0001:00093A00       aAddTaskUlockMu
 0001:00093A2C       aSvc_recvEventF
 0001:00093A5C       aSvc_recvEven_0
 0001:00093A8C       aThreadpoolfunc
 0001:00093ABC       aQueueEmptyFlag
 0001:00093AEC       aQueueFullFlagG
 0001:00093B18       aThreadpoolfu_0
 0001:00093B48       aAmbaipc_svc_th
 0001:00093B60       aProgramVersion
 0001:00093B80       a7d6d5dS
 0001:00093B94       aProgDHasBeenRe
 0001:00093BBC       aKillSvcTaskErr
 0001:00093BE0       aCanTFindSvc
 0001:00093BF0       aAmbaipc_owner_
 0001:00093C08       aSAmbaipc_mutex
 0001:00093C30       aAmbaipc_mute_0
 0001:00093C44       aAmbaipc_mutext
 0001:00093C68       aSTimeoutD
 0001:00093C78       aAmbaipc_mutexg
 0001:00093C9C       aAmbaipc_mute_1
 0001:00093CC4       aAmbaipc_mutexi
 0001:00093CD8       aK_assertAtS_25
 0001:00093CEC       aAmbaipc_spinin
 0001:00093D00       aK_assertAtS_26
 0001:00093D14       aFreeSpaceForSI
 0001:00093D2C       aAmbaipc_rfsini
 0001:00093D3C       aFailedToCrea_6
 0001:00093D68       aFailedToCrea_7
 0001:00093D8C       aAipc_rfs
 0001:00093D98       aSAmbaipc_all_2
 0001:000941B4       aAmbarpc_msg_in
 0001:000941E0       aAmbarpc_msg_se
 0001:0009420C       aErrOffsetxWidt
 0001:0009424C       aDsp_set_op_mod
 0001:00094268       aCmd_code0xX_23
 0001:0009427C       aDsp_op_modeD
 0001:00094290       aMode_flags0xX
 0001:000942A8       aNum_of_chansD
 0001:000942BC       aEnc_chan_cfgsD
 0001:000942D0       aEnc_type_full_
 0001:000942EC       aEnc_type_pipD
 0001:00094308       aEnc_frm_rateD
 0001:00094324       aEnc_flagsD
 0001:00094340       aEnc_type_pivD
 0001:0009435C       aEnc_width_full
 0001:00094378       aEnc_height_ful
 0001:00094394       aEnc_width_pipD
 0001:000943B0       aEnc_height_pip
 0001:000943CC       aDsp_set_op_m_0
 0001:000943E4       aNum_of_instanc
 0001:000943FC       aEnc_chan_cfgs
 0001:0009440C       aDsp_activate_o
 0001:00094428       aDsp_suspend_op
 0001:00094440       aDsp_set_debug_
 0001:00094458       aModuleD
 0001:0009446C       aAdd_or_setD
 0001:00094480       aReservedD
 0001:00094494       aDebug_mask0xX
 0001:000944A8       aDsp_arm_mod_ds
 0001:000944BC       aSize0xX
 0001:000944D0       aDsp_set_debu_0
 0001:000944E8       aThread_mask0xX
 0001:000944FC       aDsp_set_system
 0001:00094510       aCmd_code0xX_24
 0001:0009452C       aAudio_clk_freq
 0001:00094544       aTimer_valDTick
 0001:00094564       aFrame_time_tic
 0001:00094584       aOrc_clk_freqD
 0001:0009459C       aH264enc_setup
 0001:000945AC       aChannel_idD_8
 0001:000945C8       aStream_typeD_6
 0001:000945E4       aProfile_idcD
 0001:00094600       aLevel_idcD
 0001:0009461C       aCoding_typeD
 0001:00094638       aScalelist_optD
 0001:00094654       aForce_intlc_tb
 0001:00094670       aEnc_pipeline_m
 0001:0009468C       aEncode_w_szD
 0001:000946A8       aEncode_h_szD
 0001:000946C4       aEncode_w_ofsD
 0001:000946E0       aEncode_h_ofsD
 0001:000946FC       aAff_modeD
 0001:00094718       aMD
 0001:00094734       aND
 0001:00094750       aGop_structureD
 0001:0009476C       aNumref_pD
 0001:00094788       aNumref_bD
 0001:000947A4       aUse_cabacD
 0001:000947C0       aQuality_levelD
 0001:000947DC       aAverage_bitrat
 0001:000947F8       aVbr_cntl0xX
 0001:00094818       aVbr_settingD
 0001:00094834       aAllow_i_advD
 0001:00094850       aCpb_buf_idcD
 0001:0009486C       aEn_panic_rcD
 0001:00094888       aCpb_cmp_idcD
 0001:000948A4       aFast_rc_idcD
 0001:000948C0       aTarget_storage
 0001:000948DC       aBits_fifo_base
 0001:000948FC       aBits_fifo_limi
 0001:0009491C       aInfo_fifo_base
 0001:0009493C       aInfo_fifo_limi
 0001:0009495C       aAudio_in_freqD
 0001:00094978       aVout_frame_r_1
 0001:00094994       aIr_cycleD
 0001:000949B0       aIr_typeD
 0001:000949CC       aInitial_fade_i
 0001:000949E8       aFinal_fade_out
 0001:00094A04       aIdr_intervalD
 0001:00094A20       aCpb_user_sizeD
 0001:00094A3C       aStat_fifo_base
 0001:00094A58       aStat_fifo_limi
 0001:00094A74       aFollow_gopD
 0001:00094A90       aFgop_max_mD
 0001:00094AAC       aFgop_max_nD
 0001:00094AC8       aFgop_min_nD
 0001:00094AE4       aMe_configD
 0001:00094B00       aShare_smem_opt
 0001:00094B1C       aShare_smem_max
 0001:00094B38       aPts_delta0xX
 0001:00094B58       aFast_async_msg
 0001:00094B74       aSend_recon_to_
 0001:00094B90       aRecon_buf_numD
 0001:00094BAC       aPjpeg_buf_size
 0001:00094BC8       aSlice_mb_count
 0001:00094BE4       aPic_order_cnt_
 0001:00094C00       aH264enc_start
 0001:00094C10       aChannel_idD_9
 0001:00094C34       aStream_typeD_7
 0001:00094C58       aSync_out_strea
 0001:00094C7C       aSync_out_metho
 0001:00094CA0       aBits_fifo_next
 0001:00094CC8       aInfo_fifo_next
 0001:00094CF0       aStart_encode_f
 0001:00094D14       aEncode_duratio
 0001:00094D3C       aIs_flushD
 0001:00094D60       aEnable_slow_sh
 0001:00094D84       aRes_rate_minD
 0001:00094DA8       aEnc_input_stre
 0001:00094DCC       aAlphaD
 0001:00094DF0       aBetaD
 0001:00094E14       aEn_loop_filter
 0001:00094E38       aMax_upsampling
 0001:00094E5C       aSlow_shutter_0
 0001:00094E80       aFirstgopstartb
 0001:00094EA4       aI_idr_sp_rc_ha
 0001:00094EC8       aIdr_qp_adj_str
 0001:00094EEC       aIdr_class_adj_
 0001:00094F10       aI_qp_adj_strD
 0001:00094F34       aI_class_adj_li
 0001:00094F58       aFrame_cropping
 0001:00094F7C       aFrame_crop_lef
 0001:00094FA0       aFrame_crop_rig
 0001:00094FC4       aFrame_crop_top
 0001:00094FE8       aFrame_crop_bot
 0001:0009500C       aMax_bytes_per_
 0001:00095030       aMax_bits_per_m
 0001:00095054       aSony_avcD
 0001:00095078       aAu_typeD
 0001:0009509C       aSync_with_pivD
 0001:000950C0       aRc_init_comple
 0001:000950E4       aSps_pps_header
 0001:00095108       aSync_with_vcap
 0001:0009512C       aSmvmax_scaleD
 0001:00095150       aSingle_encoder
 0001:00095174       aH264enc_stop
 0001:00095184       aChannel_idD_10
 0001:00095198       aStream_typeD_8
 0001:000951AC       aStop_methodD
 0001:000951C0       aH264enc_jpeg_s
 0001:000951D4       aCmd_code0xX_25
 0001:000951F0       aChannel_idD_11
 0001:0009520C       aStream_typeD_9
 0001:00095228       aChroma_foramtD
 0001:00095244       aBits_fifo_ba_0
 0001:00095260       aBits_fifo_li_0
 0001:0009527C       aInfo_fifo_ba_0
 0001:00095298       aInfo_fifo_li_0
 0001:000952B4       aQuant_matrix_a
 0001:000952D0       aFrame_rateD
 0001:000952EC       aIs_mjpegD
 0001:00095308       aTarget_bppD
 0001:00095324       aQlevel_snD
 0001:00095340       aQlevel_tnD
 0001:0009535C       aInitial_qlevel
 0001:00095378       aToleranceD
 0001:00095394       aMax_enc_loopD
 0001:000953B0       aRate_curve_poi
 0001:000953CC       aRate_curve_add
 0001:000953E8       aFast_async_m_0
 0001:00095404       aH264enc_update
 0001:00095424       aChannel_id0x_2
 0001:00095438       aStream_type0_3
 0001:0009544C       aOn_demand_idr0
 0001:00095464       aPts_to_change_
 0001:00095484       aH264enc_upda_0
 0001:000954A4       aAverage_bitr_0
 0001:000954BC       aPts_to_chang_0
 0001:000954DC       aH264enc_mjpeg_
 0001:000954F4       aCmd_code0xX_26
 0001:00095510       aChannel_id0x_3
 0001:0009552C       aStream_type0_4
 0001:00095548       aEncode_durat_0
 0001:00095564       aFramerate_cont
 0001:00095580       aFramerate_co_0
 0001:0009559C       aH264enc_rotate
 0001:000955AC       aChannel_id0x_4
 0001:000955C0       aStream_type0_5
 0001:000955D4       aHflipD
 0001:000955E0       aVflipD
 0001:000955EC       aRotateD
 0001:000955FC       aVert_black_bar
 0001:00095614       aVert_black_b_0
 0001:00095634       aH264enc_upda_1
 0001:00095654       aReduce_factor0
 0001:0009566C       aFrame_rate_pts
 0001:00095684       aPts_delta0xX_0
 0001:00095698       aH264enc_pause
 0001:000956A8       aPause_method0x
 0001:000956C0       aH264enc_resume
 0001:000956D0       aH264dec_setup
 0001:000956E0       aCmd_codeD
 0001:000956F8       aDecoder_idD
 0001:00095710       aDecode_type0xX
 0001:0009572C       aEnable_pic_inf
 0001:00095744       aUse_tiled_dram
 0001:0009575C       aBits_fifo_ba_1
 0001:00095778       aBits_fifo_li_1
 0001:00095794       aRbuf_smem_size
 0001:000957B0       aFbuf_dram_size
 0001:000957CC       aPjpeg_buf_si_0
 0001:000957E8       aDec_status_add
 0001:00095804       aCabac_2_recon_
 0001:00095820       aForce_fld_tile
 0001:00095838       aEc_modeD
 0001:00095850       aEnable_decppD
 0001:00095868       aFrm_buf_widthD
 0001:00095880       aFrm_buf_height
 0001:00095898       aDecpp_buf_widt
 0001:000958B4       aDecpp_buf_heig
 0001:000958D0       aMax_frm_num_of
 0001:000958EC       aH264dec_decode
 0001:000958FC       aBits_fifo_star
 0001:00095914       aBits_fifo_end0
 0001:0009592C       aFirst_frame_di
 0001:00095948       aH264dec_stop
 0001:00095958       aDecoder_id0xX
 0001:0009596C       aSeamless_flag0
 0001:00095984       aStop_flag0xX
 0001:00095998       aH264dec_speed
 0001:000959A8       aSpeed0xX
 0001:000959B8       aScan_mode0xX
 0001:000959CC       aDirection0xX
 0001:000959E0       aH264dec_trickp
 0001:000959F4       aMode0xX_5
 0001:00095A04       aCmd_code0xX_27
 0001:00095A1C       aDecoder_id0x_0
 0001:00095A34       aRotate0xX
 0001:00095A4C       aFlip0xX
 0001:00095A64       aUser_data0xX
 0001:00095A7C       aFeedback0xX
 0001:00095A94       aDst_buf
 0001:00095AA0       aIs_deflt_buf0x
 0001:00095AB8       aLu_buf_base0xX
 0001:00095AD0       aCh_buf_base0xX
 0001:00095AE8       aImg_widthD
 0001:00095AFC       aImg_heightD
 0001:00095B10       aImg_offset_xD
 0001:00095B24       aImg_offset_yD
 0001:00095B38       aBuf_pitchD
 0001:00095B4C       aCh_format0xX
 0001:00095B64       aPending_cnt0xX
 0001:00095B7C       aH264dec_yuv2yu
 0001:00095B8C       aSrc_buf
 0001:00095B98       aH264dec_paint
 0001:00095BA8       aPaint_buf
 0001:00095BB4       aH264dec_pbcap_
 0001:00095BC8       aCmd_code0xX_28
 0001:00095BE0       aDecoder_id0x_1
 0001:00095BF8       aBits_fifo_ba_2
 0001:00095C10       aBits_fifo_li_2
 0001:00095C28       aH264dec_yuv2jp
 0001:00095C3C       aYuv_buf
 0001:00095C48       aJpeg_img
 0001:00095C54       aQuant_table_ba
 0001:00095C70       aImg_base0xX
 0001:00095C8C       aImg_size_max0x
 0001:00095CA8       aImg_widthD_0
 0001:00095CC0       aImg_heightD_0
 0001:00095CD8       aImg_offset_x_0
 0001:00095CF0       aImg_offset_y_0
 0001:00095D08       aRotate0xX_0
 0001:00095D24       aFlip0xX_0
 0001:00095D40       aCh_fmt0xX
 0001:00095D5C       aVout_mixer_set
 0001:00095D70       aVout_idD
 0001:00095D88       aInterlacedD
 0001:00095DA0       aFrm_rateD
 0001:00095DB8       aAct_win_widthD
 0001:00095DD0       aAct_win_height
 0001:00095DE8       aBack_ground_vD
 0001:00095E00       aBack_ground_uD
 0001:00095E18       aBack_ground_yD
 0001:00095E30       aMixer_444D
 0001:00095E48       aHighlight_vD
 0001:00095E60       aHighlight_uD
 0001:00095E78       aHighlight_yD
 0001:00095E90       aHighlight_thre
 0001:00095EA8       aReverse_enD
 0001:00095EC0       aCsc_enD
 0001:00095ED8       aCsc_parmsD0xX
 0001:00095EF4       aVout_video_set
 0001:00095F08       aVout_idD_0
 0001:00095F30       aEnD
 0001:00095F58       aSrcD
 0001:00095F80       aFlipD
 0001:00095FA8       aRotateD_0
 0001:00095FD0       aWin_offset_xD
 0001:00095FF8       aWin_offset_yD
 0001:00096020       aWin_widthD
 0001:00096048       aWin_heightD
 0001:00096070       aDefault_img_y_
 0001:00096098       aDefault_img_uv
 0001:000960C0       aDefault_img_pi
 0001:000960E8       aDefault_img_re
 0001:00096110       aDefault_img_ig
 0001:00096138       aVout_osd_setup
 0001:00096148       aVout_idD_1
 0001:00096168       aEnD_0
 0001:00096188       aSrcD_0
 0001:000961A8       aFlipD_0
 0001:000961C8       aRescaler_enD
 0001:000961E8       aPremultipliedD
 0001:00096208       aGlobal_blendD
 0001:00096228       aWin_offset_x_0
 0001:00096248       aWin_offset_y_0
 0001:00096268       aWin_widthD_0
 0001:00096288       aWin_heightD_0
 0001:000962A8       aRescaler_input
 0001:000962C8       aRescaler_inp_0
 0001:000962E8       aOsd_buf_dram_a
 0001:0009630C       aOsd_buf_pitchD
 0001:0009632C       aOsd_buf_repeat
 0001:0009634C       aOsd_direct_mod
 0001:0009636C       aOsd_transparen
 0001:0009638C       aOsd_transpar_0
 0001:000963AC       aOsd_swap_bytes
 0001:000963CC       aOsd_buf_info_d
 0001:000963F0       aVout_osd_buffe
 0001:00096408       aCmd_code0xX_29
 0001:00096428       aVout_idD_2
 0001:00096444       aOsd_buf_dram_0
 0001:00096464       aOsd_buf_pitc_0
 0001:00096480       aOsd_buf_repe_0
 0001:0009649C       aVout_idD_4
 0001:000964AC       aVout_display_s
 0001:000964C0       aVout_idD_3
 0001:000964E4       aDual_vout_vysn
 0001:00096508       aDisp_config_dr
 0001:00096530       aVin_vout_vsy_0
 0001:00096554       aVout_dve_setup
 0001:00096564       aDve_config_dra
 0001:00096584       aVout_reset_cmd
 0001:00096594       aReset_mixerD
 0001:000965A8       aReset_dispD
 0001:000965BC       aVout_display_c
 0001:000965D8       aVout_idD_5
 0001:000965EC       aCsc_typeD
 0001:00096600       aCsc_parmsDD
 0001:00096614       aPostproc_cmd
 0001:00096624       aDecode_cat_idD
 0001:00096638       aDecode_idD
 0001:00096648       aVouta_enableD
 0001:0009665C       aVoutb_enableD
 0001:00096670       aPip_enableD
 0001:00096684       aXcode_enableD
 0001:00096698       aXcode_pic_widt
 0001:000966B0       aXcode_pic_heig
 0001:000966C8       aFrate_reduce_r
 0001:000966E4       aInput_center_0
 0001:000966FC       aInput_center_1
 0001:00096714       aVouta_target_w
 0001:00096734       aVouta_target_0
 0001:00096754       aVouta_target_1
 0001:00096774       aVouta_target_2
 0001:00096794       aVouta_zoom_fac
 0001:000967B0       aVouta_zoom_f_0
 0001:000967CC       aVoutb_target_w
 0001:000967EC       aVoutb_target_0
 0001:0009680C       aVoutb_target_1
 0001:0009682C       aVoutb_target_2
 0001:0009684C       aVoutb_zoom_fac
 0001:00096868       aVoutb_zoom_f_0
 0001:00096884       aPip_target_off
 0001:000968A0       aPip_target_o_0
 0001:000968BC       aPip_target_x_s
 0001:000968D4       aPip_target_y_s
 0001:000968EC       aPip_zoom_facto
 0001:00096908       aPip_zoom_fac_0
 0001:00096924       aVout0_flip0xX
 0001:00096938       aVout0_rotate0x
 0001:00096950       aVout0_win_offs
 0001:0009696C       aVout0_win_of_0
 0001:00096988       aVout0_win_widt
 0001:000969A0       aVout0_win_heig
 0001:000969B8       aVout1_flip0xX
 0001:000969CC       aVout1_rotate0x
 0001:000969E4       aVout1_win_offs
 0001:00096A00       aVout1_win_of_0
 0001:00096A1C       aVout1_win_widt
 0001:00096A34       aVout1_win_heig
 0001:00096A4C       aPostp_video_fa
 0001:00096A60       aEffectD_matr_0
 0001:00096A88       aEffectD_matrix
 0001:00096AB0       aEffectD_y_offs
 0001:00096AD4       aEffectD_u_offs
 0001:00096AF8       aEffectD_v_offs
 0001:00096B1C       aEffectD_y_of_0
 0001:00096B40       aEffectD_u_of_0
 0001:00096B64       aEffectD_v_of_0
 0001:00096B88       aEffectD_start_
 0001:00096BAC       aEffectD_durati
 0001:00096BD0       aPostp_config_y
 0001:00096BE8       aMatrix_valuesD
 0001:00096C00       aR_offsetX
 0001:00096C14       aG_offsetX
 0001:00096C28       aB_offsetX
 0001:00096C3C       aStilldec_confi
 0001:00096C4C       aCmd_code0xX_30
 0001:00096C64       aPic_stat_ena0x
 0001:00096C7C       aPic_stat_num0x
 0001:00096C94       aPic_stat_base0
 0001:00096CAC       aDef_buf_base0x
 0001:00096CC4       aDef_buf_size0x
 0001:00096CDC       aStilldec_decod
 0001:00096CEC       aDec_type0xX
 0001:00096D04       aEnd_of_bits0xX
 0001:00096D1C       aBits_base0xX
 0001:00096D34       aBits_size0xX
 0001:00096D4C       aDec_buf
 0001:00096D58       aStilldec_updat
 0001:00096D70       aCmd_code0xX_31
 0001:00096D84       aEnd_of_bits0_0
 0001:00096D98       aBits_base0xX_0
 0001:00096DAC       aBits_size0xX_0
 0001:00096DC0       aStilldec_termi
 0001:00096DD4       aStilldec_stop
 0001:00096DE4       aCmd_code0xX_32
 0001:00096DF8       aStop_mode0xX
 0001:00096E0C       aStilldec_yuv2y
 0001:00096E20       aProc_type0xX
 0001:00096E38       aLuma_gain0xX
 0001:00096E50       aStilldec_yuv_d
 0001:00096E64       aVout_type0xX
 0001:00096E7C       aDisp_buf
 0001:00096E88       aDisp_updateD
 0001:00096E9C       aDisp_rotateD
 0001:00096EB0       aDisp_flipD
 0001:00096EC4       aDisp_widthD
 0001:00096ED8       aDisp_heightD
 0001:00096EEC       aDisp_offset_xD
 0001:00096F00       aDisp_offset_yD
 0001:00096F14       aStilldec_blend
 0001:00096F24       aAlpha_in_type0
 0001:00096F3C       aAlpha_value0xX
 0001:00096F54       aAlpha_table_ba
 0001:00096F70       aSrc1_buf
 0001:00096F7C       aSrc2_buf
 0001:00096F88       aStilldec_paint
 0001:00096F98       aStilldec_yuv2r
 0001:00096FAC       aRgb_format0xX
 0001:00096FC4       aYuv_buf_0
 0001:00096FD0       aRgb_buf_base0x
 0001:00096FE8       aRgb_buf_pitch0
 0001:00097000       aStilldec_pbcap
 0001:00097014       aDec_yuv2jpeg
 0001:00097024       aSrc_buf_0
 0001:00097030       aAmbafs_sdprf2d
 0001:00097048       aK_assertAtSD_9
 0001:0009705C       aPf_unmountFa_0
 0001:00097070       aAmbafs_sdprf2c
 0001:00097088       aPf_setupfsiFai
 0001:0009709C       aAmbafs_sdprf_0
 0001:000970D4       aClearDirtyBitF
 0001:000970EC       aAmbafs_sdprf2f
 0001:00097108       aPf_formatFaile
 0001:0009711C       aAmbafs_sdprf_2
 0001:00097138       aAmbafs_sdprf_1
 0001:00097150       aAmbafs_sdprf_3
 0001:00097168       aAmbafs_sdprf2m
 0001:0009717C       aAmbafs_sdprf2u
 0001:00097194       aNo_mbr
 0001:0009719C       aNonSdaExfatFor
 0001:000971B4       aAmbafs_sdprf2i
 0001:000971C8       aPdm_open_dis_0
 0001:000971E0       aPdm_open_par_0
 0001:000971FC       aK_assertAtS_11
 0001:00097210       aAmbartsl_sddec
 0001:00097228       aAmbartsl_sdgoi
 0001:00097240       aAmbartsl_sds_0
 0001:0009725C       aAmbartsl_sdall
 0001:00097274       aAmbartsl_sds_1
 0001:00097290       aAmbartsl_sdios
 0001:000972B0       aAmbartsl_sdswi
 0001:000972C8       aAmbartsl_sdsel
 0001:000972E0       aAmbartsl_sds_2
 0001:000972F8       aAmbartsl_sds_3
 0001:00097310       aAmbartsl_sds_4
 0001:00097324       aAmbartsl_sdvol
 0001:00097340       aAmbartsl_sds_5
 0001:00097358       aAmbartsl_sds_6
 0001:00097374       aAmbartsl_sdr_0
 0001:00097390       aAmbartsl_sdr_1
 0001:000973B0       aAmbartsl_sds_7
 0001:000973D0       aAmbartsl_sdw_0
 0001:000973E8       aAmbartsl_sdw_1
 0001:00097408       aAmbartsl_sdera
 0001:00097424       aAmbartsl_sde_0
 0001:00097440       aAmbartsl_sde_1
 0001:0009745C       aAmbartsl_sde_2
 0001:00097478       aAmbartsl_sde_3
 0001:0009748C       aAmbartsl_sdior
 0001:000974A4       aAmbartsl_sds_8
 0001:000974BC       aAmbartsl_sds_9
 0001:000974D4       aAmbartsl_sd_10
 0001:000974EC       aAmbartsl_sd_11
 0001:00097508       aAmbartsl_sd_12
 0001:00097524       aAmbartsl_sd_13
 0001:0009758C       aK_assertAtS_32
 0001:000975A0       aDHz
 0001:000975A8       aSdpowercycle
 0001:000975B8       aK_assertAtSD_5
 0001:000975CC       aSd_wait_flagFo
 0001:000975F4       aSdsetupsdiocar
 0001:00097604       aMmc4determineb
 0001:0009761C       aSdsetupmmc4car
 0001:0009762C       aSdsetupmmccard
 0001:0009763C       aUhsSwitchGroup
 0001:00097698       aSdsetupsdmemca
 0001:000976AC       aSdsetupuhsmode
 0001:000976C8       aSdmmcTuningCom
 0001:000976E4       aAmbasd_initcar
 0001:000976FC       aGiveUpPollingA
 0001:00097714       aAmbasd_readsin
 0001:0009772C       aSDataErrorDCmd
 0001:0009774C       aSCardStatus0xX
 0001:00097764       aAmbasd_readmul
 0001:00097780       aAmbasd_writesi
 0001:00097798       aSDataErrDCmdEr
 0001:000977B8       aSR1Status0xXIn
 0001:000977D4       aSDFailTryToUpd
 0001:000977F4       aAmbasd_writemu
 0001:00097810       aAmbasd_eraseCa
 0001:0009783C       aAmbasd_eraseFa
 0001:00097858       aAmbasd_reads_0
 0001:0009786C       aAmbasd_readsec
 0001:0009789C       aSDRecoverySdCl
 0001:000978C4       aAmbasd_reads_1
 0001:000978E4       aAmbasd_write_0
 0001:000978F8       aAmbasd_writese
 0001:00097928       aAmbasd_write_1
 0001:00097958       aSDSdClockLdHz
 0001:00097974       aAmbasd_write_2
 0001:00097A5C       aAmbaaudio_encm
 0001:00097A78       aAudS0xX0xX_3
 0001:00097A8C       aAacplainEncode
 0001:00097AC0       aAacEncodeUnsup
 0001:00097AE4       aAacEncodeUns_0
 0001:00097B3C       aAudioAutomatic
 0001:00097B64       aAmbaaudio_aacs
 0001:00097B88       aAmbaaudio_aaco
 0001:00097BAC       aAmbaaudio_aace
 0001:00097BD4       aAmbaaudio_encc
 0001:00097BEC       aAmbaaudio_encu
 0001:00097C08       aAudS0xX0xX0x_4
 0001:00097C24       aS0xXAudioSendL
 0001:00097C48       aAmbaaudio_enci
 0001:00097C60       aAudS0xXS0xX_2
 0001:00097C78       aFadeOutDoneS_0
 0001:00097C90       aEncode_stop
 0001:00097C9C       aAmbaaudio_enct
 0001:00097CB4       aAudioEncoderTa
 0001:00097CC8       aAmbaaudio_en_0
 0001:00097CE0       aAmbaaudio_encs
 0001:00097CF8       aAmbaaudio_en_1
 0001:00097D0C       aAmbaaudio_en_2
 0001:00097D24       aAudioWrongPtsC
 0001:00097D48       aAdpcmDonTSup_0
 0001:00097D70       aAmbaaudio_en_3
 0001:00097D88       aAmbaaudio_en_4
 0001:00097DA0       aAmbaaudio_encf
 0001:00097DB8       aFadeOutDone_0
 0001:00097E48       aWaitMainEncode
 0001:00097E6C       aWait2ndEncoder
 0001:00097E90       aWaitEncoderIdl
 0001:00097EC4       aErrWrongVideoB
 0001:00097EE4       aDspBootDoneUco
 0001:00097F3C       aAmbadsp_suspen
 0001:00097F70       aAmbadsp_resume
 0001:00097FA0       aErrPleaseCallA
 0001:00097FD4       aDspChangedToId
 0001:00097FF0       aAmbadsp_waitev
 0001:0009801C       aDefault_binary
 0001:00098040       aDefault_bina_0
 0001:00098064       aCmd_data_gen_d
 0001:00098084       aCmd_data_gen_s
 0001:000980A4       aMsg_queue_gen_
 0001:000980C4       aMsg_queue_ge_0
 0001:000980E4       aCmd_data_vcap_
 0001:00098104       aCmd_data_vca_0
 0001:00098124       aMsg_queue_vcap
 0001:00098144       aMsg_queue_vc_0
 0001:00098164       aCmd_data_async
 0001:00098184       aCmd_data_asy_0
 0001:000981A4       aMsg_queue_asyn
 0001:000981C4       aMsg_queue_as_0
 0001:000981E4       aCmd_data_4th_d
 0001:00098204       aCmd_data_4th_s
 0001:00098224       aMsg_queue_stit
 0001:00098244       aMsg_queue_st_0
 0001:00098264       aDefault_config
 0001:00098284       aDefault_conf_0
 0001:000982A4       aDsp_buffer_dad
 0001:000982C4       aDsp_buffer_siz
 0001:000982E4       aUcode_debug_da
 0001:00098304       aUcode_debug__0
 0001:00098324       aOct16201514063
 0001:00098344       aFioprf_thruput
 0001:00098354       aFioprf_randvrf
 0001:00098364       aSd_shmoo
 0001:00098370       a1stEdgeIsRisin
 0001:00098398       a1stEdgeIsRis_0
 0001:000983C0       a1stEdgeIsFalli
 0001:000983EC       a1stEdgeIsFal_0
 0001:00098414       aDump_5
 0001:0009841C       aUsage_3
 0001:00098424       aTSShowAllPinShowTheGpioPinStatus
 0001:00098458       aTSPinInSetInputMode
 0001:0009847C       aTSPinOut01Outp
 0001:000984B8       aTSPinAltFuncAl
 0001:000984EC       aTSPinPullUpDow
 0001:0009852C       aTSPinDrive3ma6
 0001:00098568       aDSSSS
 0001:00098584       aHigh
 0001:0009858C       aLow
 0001:00098594       aPullDown
 0001:000985A0       aPullUp
 0001:000985AC       aNoPull
 0001:000985B8       a12ma
 0001:000985C0       a18ma
 0001:000985C8       aGpioFuncLevelR
 0001:0009863C       aShow_7
 0001:00098644       aPull
 0001:0009864C       aDown
 0001:00098654       aNone_0
 0001:0009865C       aDrive
 0001:00098664       aUsageTSDfsMsbL
 0001:00098690       aDoNotSupportDa
 0001:000986B4       aUnknownBitOrde
 0001:000986C8       aBusspeedU
 0001:000986D4       aProtocolS
 0001:000986E0       aResultU
 0001:000986EC       aUTx0x04xRx0x04
 0001:00098708       aUsageTSChanAdd
 0001:00098764       aErrorInvalidI2
 0001:00098788       aAddr
 0001:00098790       aErrorUnknownSl
 0001:000987B0       aErrorUnknownDa
 0001:000987CC       aErrorTxBufferO
 0001:000987F0       aU0x02x
 0001:000987FC       aDisable_4
 0001:00098804       aRzq4
 0001:0009880C       aRzq2
 0001:00098814       aRzq6
 0001:0009881C       aRzq12
 0001:00098824       aRzq8
 0001:0009882C       aRising
 0001:00098834       aFalling
 0001:0009883C       aUsageS
 0001:00098848       aDramfreqD
 0001:00098858       aDramTypeDdr2
 0001:0009886C       aDramTypeDdr3
 0001:00098880       aDramTypeLpddr
 0001:00098894       aDramTypeLpddr2
 0001:000988A8       aDramSize256mb
 0001:000988BC       aDramSize512mb
 0001:000988D0       aDramSize1gb
 0001:000988E4       aDramSize2gb
 0001:000988F8       aDramSize4gb
 0001:0009890C       aDramSize8gb
 0001:00098920       aDll00x_8x
 0001:0009893C       aDll10x_8x
 0001:00098958       aDll20x_8x
 0001:00098974       aDll30x_8x
 0001:00098990       aDll_ctrl_sel00
 0001:000989AC       aDll_ctrl_sel10
 0001:000989C8       aDll_ctrl_sel20
 0001:000989E4       aDll_ctrl_sel30
 0001:00098A00       aDram_pad_term0
 0001:00098A1C       aDdsD
 0001:00098A28       aTermS
 0001:00098A34       aTerm_valueD
 0001:00098A48       aDram_mode10x_8x
 0001:00098A64       aDdsS
 0001:00098A70       a100_2
 0001:00098A78       aOdtS
 0001:00098A84       aDram_dqs_sync0x_8x
 0001:00098AA0       aS_29
 0001:00098AA8       aSwDqs
 0001:00098AB0       aAutoDqs
 0001:00098ABC       aByte0S
 0001:00098AC8       aByte1S
 0001:00098AD4       aByte2S
 0001:00098AE0       aByte3S
 0001:00098AEC       aPll_ddrctrl0xX0x_8x
 0001:00098B14       aPll_ddrctrl20x
 0001:00098B3C       aPll_ddrctrl30x
 0001:00098B64       aDll_setting00x
 0001:00098B8C       aDll_setting10x
 0001:00098BB4       aDll_setting20x
 0001:00098BDC       aDll_setting30x
 0001:00098C04       aDll_ctrlsel00x
 0001:00098C2C       aDll_ctrlsel10x
 0001:00098C54       aDll_ctrlsel20x
 0001:00098C7C       aDll_ctrlsel30x
 0001:00098CA4       aCg_ddrinit0xX0
 0001:00098CCC       aDll_ctrlselmis
 0001:00098CF4       aDram_rsvdspace
 0001:00098D1C       aDram_config0xX
 0001:00098D44       aDram_timing10x
 0001:00098D6C       aDram_timing20x
 0001:00098D94       aDram_timing30x
 0001:00098DBC       aDram_bytemap0x
 0001:00098DE4       aDram_padterm0x
 0001:00098E0C       aLpddr2_modereg
 0001:00098E34       aDram_control0x
 0001:00098E5C       aDram_init_ctrl
 0001:00098E84       aDram_dqssync0x
 0001:00098EAC       aDram_zqcalib0x
 0001:00098ED4       aValidOptionsFo
 0001:00098F00       aS_10
 0001:00098F08       aTSTimerCounter
 0001:00098F3C       aTimerDTimedOut
 0001:00098F50       aCannotSetTimer
 0001:00098F70       aErrorDataMisma
 0001:00098F88       aErrorAtDstdata
 0001:00098FCC       aGdmaFunctionDo
 0001:00099000       aMemoryAllocate
 0001:00099014       aMemoryFreeNg
 0001:00099024       aSourceDataAddr
 0001:00099040       aDestinationDat
 0001:00099078       aSrcdataAddr0xX
 0001:0009908C       aDstdataAddr0xX
 0001:000990A0       aCheckeddataAdd
 0001:00099134       aTestLinearCopy
 0001:00099148       aTestBlockCopy
 0001:0009915C       aTestColorKeyin
 0001:00099170       aTestBlockCompo
 0001:000991A0       aTestBlockCom_0
 0001:000991D4       aTSCase_num
 0001:000991E8       aTSUnitestTestA
 0001:00099204       aExTGdma1Size
 0001:00099220       aTGdma2345Width
 0001:00099254       aTGdmaUnitest
 0001:0009926C       aCase_num
 0001:00099278       a1TestGdmaLinea
 0001:00099298       a2TestGdmaBlock
 0001:000992B8       a3TestGdmaColor
 0001:000992D4       a4TestGdmaBlock
 0001:00099308       a5TestGdmaBlock
 0001:00099340       aUnitest
 0001:00099348       aDbgmsg
 0001:00099350       aHtotal
 0001:00099388       a04dClkLine
 0001:000993C0       a____Hblank____
 0001:00099408       a04d_0
 0001:00099450       a____________Ha
 0001:00099494       aDClk
 0001:000994C0       a04d_1
 0001:000994D8       a__hsync_______
 0001:00099560       a_____________0
 0001:000995BC       aHfHb
 0001:000995D4       a04dClk04dClk
 0001:000995F0       a_____________1
 0001:00099678       a_hsync________
 0001:000996BC       aVDataEnableFie
 0001:000996D4       aVDataEnableFra
 0001:000996EC       aVblankVactive
 0001:00099738       a_____04dHLines
 0001:000997D0       a_____________2
 0001:00099820       a_____________3
 0001:000998C0       a_____________4
 0001:00099910       aVfVsyncVb
 0001:00099938       a_____________
 0001:00099960       a04d04d04d
 0001:0009998C       a_____________5
 0001:000999E0       a_____________6
 0001:00099A80       aV_____________
 0001:00099AD4       a_____________7
 0001:00099B28       a_____________8
 0001:00099B50       aVDataEnableF_0
 0001:00099B68       a_____04dHLin_0
 0001:00099BB4       a_____________9
 0001:00099C04       a____________10
 0001:00099CA4       a____________11
 0001:00099CF4       aVfVsyncVb_0
 0001:00099D20       a____________12
 0001:00099D44       a04d0_504d04d0_
 0001:00099D70       a____________13
 0001:00099DC4       a____________14
 0001:00099E64       aV____________0
 0001:00099EB8       aVfVsyncVb_1
 0001:00099EE0       a____________15
 0001:00099F34       a____________16
 0001:00099F58       aUsage
 0001:00099FB0       aPhySinkcurrent
 0001:00099FF0       a00Ma0NoPreEmph
 0001:0009A01C       a10_675Ma14_3Pr
 0001:0009A04C       a21_35Ma28_95Pr
 0001:0009A07C       a32_025Ma315Pre
 0001:0009A0AC       a42_7Ma419_7Pre
 0001:0009A0DC       a53_375Ma525_8P
 0001:0009A10C       a64_05Ma632_7Pr
 0001:0009A13C       a74_725Ma740_4P
 0001:0009A16C       aCscTypeNumberU
 0001:0009A1B0       a0Bt601
 0001:0009A1C0       a1Bt709
 0001:0009A1D0       a2IqTuning
 0001:0009A1E4       aModeColorspace
 0001:0009A234       a0Yuv444
 0001:0009A248       a1Rgb444
 0001:0009A25C       a2Yuv422
 0001:0009A270       aMode
 0001:0009A278       aTiming
 0001:0009A280       aGpio
 0001:0009A288       aTimer
 0001:0009A290       aGdma
 0001:0009A298       aHdmi
 0001:0009A2A8       aStg
 0001:0009A2AC       aStg2_0
 0001:0009A2B4       aIdx
 0001:0009A2B8       aPrf
 0001:0009A2BC       aCal_0
 0001:0009A2C0       aAmbanand_markb
 0001:0009A2D4       aK_assertAtS_13
 0001:0009A2E8       aUnknownSpareSi
 0001:0009A31C       aProgramFailed_
 0001:0009A34C       aUpdateBbtFaile
 0001:0009A360       aNandpseudocbre
 0001:0009A374       aSWaitTimeoutD
 0001:0009A38C       aSDmaWaitTimeou
 0001:0009A3A8       aSEccError
 0001:0009A3B8       aAreaDBlockDPag
 0001:0009A3F0       aSDmaError
 0001:0009A400       aNandpseudocbwr
 0001:0009A414       aSWaitTimeoutRe
 0001:0009A43C       aNandpseudocb
 0001:0009A44C       aExceedDBlocks_
 0001:0009A47C       aNeedDMoreBlock
 0001:0009A4B0       aNeedDMoreBlo_0
 0001:0009A4E4       aNeedDMoreBlo_1
 0001:0009A518       aNeedDMoreBlo_2
 0001:0009A54C       aWarningThisPar
 0001:0009A584       aErrorSExceedsN
 0001:0009A5A8       aAmbanand_loadp
 0001:0009A5C0       aSLdGetptbFaile
 0001:0009A5E4       aSLdGetmetaFail
 0001:0009A608       aSLdStartblk0Nu
 0001:0009A660       aSLdPartidLdIma
 0001:0009A6B4       aInitialBadBloc
 0001:0009A6D4       aLateDevelopedB
 0001:0009A6FC       aOtherBadBlock_
 0001:0009A718       aTryNextBlock__
 0001:0009A72C       aEraseFailed_Bl
 0001:0009A758       aMarkBadBlockFa
 0001:0009A780       aProgramFaile_0
 0001:0009A7A4       aReadFailed_Blo
 0001:0009A7C8       aCheckFailed_Bl
 0001:0009A7EC       aFailedBlockD
 0001:0009A800       aCanTGetPtbEras
 0001:0009A818       aUnableToUpdate
 0001:0009A830       aAmbanand_copyb
 0001:0009A844       aSFailedBlockDD
 0001:0009A860       aAmbanand_erase
 0001:0009A870       aSFailedBlockD
 0001:0009A888       aAmbanand_read
 0001:0009A898       aAmbanand_reads
 0001:0009A8AC       aAmbanand_progr
 0001:0009A8C0       aAmbanand_reset
 0001:0009A8D0       aAmbanand_readi
 0001:0009A8E0       aAmbanand_isini
 0001:0009A8F0       aAmbanand_init
 0001:0009A900       aAmbartsl_nandi
 0001:0009A91C       aAmbanand_setde
 0001:0009A93C       aNandS0x08x
 0001:0009A950       aMetaIsEmpty
 0001:0009A960       aBootstrap
 0001:0009A96C       aPartitionTable
 0001:0009A97C       aBootloader
 0001:0009A988       aSdFirmwareUpda
 0001:0009A9A0       aSystemSoftware
 0001:0009A9B0       aDspUcode
 0001:0009A9BC       aSystemRomData
 0001:0009A9CC       aLinuxKernel
 0001:0009A9DC       aLinuxRootFs
 0001:0009A9EC       aLinuxHibernationImage
 0001:0009AA04       aStorage1_0
 0001:0009AA10       aStorage2
 0001:0009AA1C       aIndexForVideoR
 0001:0009AA38       aUserSettings
 0001:0009AA48       aCalibrationData
 0001:0009AA5C       aAll
 0001:0009AA60       aGetPtbFailed
 0001:0009AA70       aAmbanand_setpt
 0001:0009AA80       aSGetMetaFailed
 0001:0009AA98       aSetPtbFailed
 0001:0009AAA8       aGetMetaFailed
 0001:0009AABC       aAmbanand_setme
 0001:0009AAD0       aSGetPtbFailed
 0001:0009AAE4       aSetMetaFailed
 0001:0009AAF4       aSLdRetvalLdMag
 0001:0009AB28       aNftl_stg1
 0001:0009AB34       aNftl_stg2
 0001:0009AB40       aNftl_idx
 0001:0009AB4C       aNftl_prf
 0001:0009AB58       aNftl_cal
 0001:0009AB64       aNftlgetpartobj
 0001:0009AB74       aK_assertAtSD_7
 0001:0009AB88       aNftlreadtinfo
 0001:0009AB98       aNftlwritetinfo
 0001:0009ABA8       aNftlreadimark
 0001:0009ABB8       aNftlwriteimark
 0001:0009ABC8       aNftlvalidnextt
 0001:0009ABDC       aNftlcreatesecs
 0001:0009ABF4       aNftlcreatese_0
 0001:0009AC08       aNftlupdatebbin
 0001:0009AC1C       aSDrangerTooMan
 0001:0009AC40       aNftlupdatelogi
 0001:0009AC58       aNftlupdatephyt
 0001:0009AC6C       aNftlgetusedsec
 0001:0009AC80       aNftlwriteuseds
 0001:0009AC94       aNftlcheckuseds
 0001:0009ACA8       aNftlgetlba
 0001:0009ACB4       aNftlgetpba
 0001:0009ACC0       aNftlgetlbafrom
 0001:0009ACD8       aNftlgetfirstus
 0001:0009ACEC       aNftlcreatelbat
 0001:0009AD00       aSFailedForLogi
 0001:0009AD30       aSSEraseCurrent
 0001:0009AD58       aSSLbaAbnormalE
 0001:0009AD7C       aSSEraseCurre_0
 0001:0009ADA4       aNftlcreatepbat
 0001:0009ADB8       aNftlsaveinfoto
 0001:0009ADD0       aNftlinitichunk
 0001:0009ADE0       aNftlgetreqarg
 0001:0009ADF0       aNftlsearcheras
 0001:0009AE08       aSSFail
 0001:0009AE18       aSTryToDoNftl_r
 0001:0009AE40       aSFreeTablesFai
 0001:0009AE58       aSInitTablesFai
 0001:0009AE70       aSRetryS
 0001:0009AE80       aNftlsearcher_0
 0001:0009AE98       aSRetryNftl_sea
 0001:0009AEBC       aNftlbadblockha
 0001:0009AED0       aSSNand_op_driv
 0001:0009AEEC       aSSNand_op_eras
 0001:0009AF08       aSSNand_op_prog
 0001:0009AF24       aSSNand_op_re_0
 0001:0009AF40       aSSNand_op_wp_e
 0001:0009AF58       aSSNand_op_not_
 0001:0009AF78       aSSNand_op_mark
 0001:0009AF98       aSSFatalError
 0001:0009AFB0       aNftlwritesecs
 0001:0009AFC0       aNftlwritesecsc
 0001:0009AFD0       aNftlwritepage
 0001:0009AFE0       aNftlwritepsecs
 0001:0009AFF8       aNftlwritepse_0
 0001:0009B008       aNftlwriteblock
 0001:0009B024       aNftlwriteblo_0
 0001:0009B038       aNftlprogerhand
 0001:0009B04C       aNftlinit
 0001:0009B058       aSExceedTheMaxi
 0001:0009B09C       aNftlerasepart
 0001:0009B0AC       aSPartitionIsRe
 0001:0009B0C8       aSEraseDFailed
 0001:0009B0E0       aEraseBlockDD
 0001:0009B0F8       aNftlread
 0001:0009B104       aSSNand_op_read
 0001:0009B134       aNftlwrite
 0001:0009B140       aSNftl_validate
 0001:0009B168       aAmbanftl_erase
 0001:0009B184       aSSEraseFailed
 0001:0009B19C       aAmbanftl_initl
 0001:0009B1B0       aAmbanftl_iswrp
 0001:0009B1C8       aAmbanftl_isini
 0001:0009B1D8       aAmbanftl_init
 0001:0009B1E8       aAmbanftl_deini
 0001:0009B1F8       aAmbanftl_era_0
 0001:0009B20C       aSSFreeTablesFa
 0001:0009B228       aSSInitTablesFa
 0001:0009B244       aAmbanftl_synct
 0001:0009B258       aAmbanftl_read
 0001:0009B268       aAmbanftl_write
 0001:0009B278       aAmbanftl_getto
 0001:0009B290       aAmbanftl_getst
 0001:0009B2A4       aAmbanftl_getbb
 0001:0009B2BC       aNandbbtcheckbl
 0001:0009B2D0       aK_assertAtS_12
 0001:0009B2E4       aNandbbtsearch
 0001:0009B2F4       aNandbbtread
 0001:0009B300       aNandbbtwrite
 0001:0009B310       aNandbbtcreate
 0001:0009B320       aDspopmodeDVcap
 0001:0009B34C       aWrongRawCaptur
 0001:0009B368       aWrongVcapMode
 0001:0009B378       aStillDecoderIn
 0001:0009B38C       aWaitStilldecId
 0001:0009B3A0       aStilldecIdle
 0001:0009B3B0       aVout0SrcError
 0001:0009B3C0       aVout1SrcError
 0001:0009B3D0       aDecodeTimout
 0001:0009B3E0       aPaintTimeout1
 0001:0009B3F0       aPaintTimeout2
 0001:0009B400       aY2yTimeout2
 0001:0009B410       aY2yTimout1
 0001:0009B41C       aBlendTimout
 0001:0009B42C       aY2rTimout
 0001:0009B438       aEncodeTimout
 0001:0009B448       aAmbadsp_msgdis
 0001:0009B460       aWaitRaw_cap_th
 0001:0009B488       aAmbadsp_waitjp
 0001:0009B4B0       aAmbadsp_waityu
 0001:0009B4D8       aAmbadsp_wait_0
 0001:0009B500       aAmbadsp_waitds
 0001:0009B528       aAmbadsp_waitra
 0001:0009B54C       aAmbadsp_waitpi
 0001:0009B570       aAmbadsp_waitpr
 0001:0009B59C       aAmbadsp_wait_1
 0001:0009B5C8       aMsgparserdspst
 0001:0009B5DC       aSDspmodeD
 0001:0009B5EC       aAmba_dsp_event
 0001:0009B61C       aAmba_dsp_eve_0
 0001:0009B654       aErrAmba_dsp__1
 0001:0009B684       aRawbufwpD
 0001:0009B690       aStillRawBufferFull
 0001:0009B6A8       aAmba_dsp_event_scap_raw_data_ready
 0001:0009B6D8       aErrAmba_dsp__2
 0001:0009B70C       aRaw_cap_thread
 0001:0009B728       aChannel_idDStr
 0001:0009B784       aRaw_3a_data_re
 0001:0009B7AC       aRaw_3a_data__0
 0001:0009B7D4       a3a_data_ready_
 0001:0009B804       aErrAmba_dsp_ev
 0001:0009B830       aErrAmba_dsp__0
 0001:0009B85C       aErrMainAmba_ds
 0001:0009B88C       aErrNailAmba_ds
 0001:0009B8C4       aDC0PtsbasePrev
 0001:0009B900       aDC1PtsbasePrev
 0001:0009B93C       aChannel_idDS_0
 0001:0009B9A4       aDspH264cntD
 0001:0009B9B4       aChDFLlu
 0001:0009B9C4       aChDLLlu
 0001:0009B9D4       aDspJpegcntD
 0001:0009B9E4       aAmbajpegbitsde
 0001:0009BA0C       aRgbAaa
 0001:0009BA14       aAetilenumcolDA
 0001:0009BA58       aAftilenumcolDA
 0001:0009BA9C       aCfaAaa
 0001:0009BAA4       aAwbtilenumcolD
 0001:0009BAEC       aSliceindexxDTo
 0001:0009BB0C       aErrorCawarpVer
 0001:0009BB38       aErrorHorgrid_0
 0001:0009BB78       aErrorVergrid_0
 0001:0009BBBC       aErrorInvalidCa
 0001:0009BBE4       aErrorInvalid_0
 0001:0009BC0C       aErrorCalibPcaw
 0001:0009BC2C       aErrorFactors_0
 0001:0009BC7C       aErrorCalibVi_0
 0001:0009BCD4       aCurrentVinGe_0
 0001:0009BD20       aErrorDummyWi_0
 0001:0009BD54       aVinR2rWindow_0
 0001:0009BD78       aErrorInvalid_1
 0001:0009BD98       aErrorPcawarpco
 0001:0009BDC4       aErrorPcawarp_0
 0001:0009BE00       aErrorPcawarp_1
 0001:0009BE3C       aErrorInVideo_1
 0001:0009BEA4       aErrorInVideo_2
 0001:0009BF0C       aErrorInVideo_3
 0001:0009BF74       aErrorInVideo_4
 0001:0009BFDC       aErrorInStill_1
 0001:0009C044       aErrorInStill_2
 0001:0009C0AC       aErrorInStill_3
 0001:0009C114       aErrorInStill_4
 0001:0009C17C       aErrorPmodePi_0
 0001:0009C1A4       aAmbadsp_imgc_2
 0001:0009C1C8       aPipeDAlgoDF_27
 0001:0009C204       aAmba_dsp_img_c
 0001:0009C228       aCawarpenbD
 0001:0009C23C       aCalibcawarpinf
 0001:0009C254       aVersion0xX_0
 0001:0009C274       aHorgridnumD_0
 0001:0009C290       aVergridnumD_0
 0001:0009C2AC       aTilewidthexp_0
 0001:0009C2C8       aTileheightex_0
 0001:0009C2E4       aVinsensorgeo_1
 0001:0009C2FC       aStartxD_1
 0001:0009C318       aStartyD_1
 0001:0009C334       aWidthD_1
 0001:0009C350       aHeightD_1
 0001:0009C36C       aHsubsample_1
 0001:0009C388       aFactornumD_1
 0001:0009C3A8       aFactordenD_1
 0001:0009C3C8       aVsubsample_1
 0001:0009C3E4       aRedscalefactor
 0001:0009C404       aBluescalefacto
 0001:0009C424       aPcawarp0xX
 0001:0009C444       aCalibcawarpi_0
 0001:0009C4A0       aVinsensorgeo_2
 0001:0009C4B4       aStartxD_2
 0001:0009C4CC       aStartyD_2
 0001:0009C4E4       aWidthD_2
 0001:0009C4FC       aHeightD_2
 0001:0009C514       aHsubsample_2
 0001:0009C52C       aFactornumD_2
 0001:0009C548       aFactordenD_2
 0001:0009C564       aVsubsample_2
 0001:0009C57C       aR2routwindim_0
 0001:0009C598       aR2routwindim_1
 0001:0009C5B4       aDmywingeo_st_1
 0001:0009C5D0       aDmywingeo_st_2
 0001:0009C5EC       aDmywingeo_wi_0
 0001:0009C604       aDmywingeo_he_0
 0001:0009C620       aCfawindim_wi_0
 0001:0009C638       aCfawindim_he_0
 0001:0009C654       aAmbadsp_img_63
 0001:0009C690       aWarning_Can_35
 0001:0009C6B4       aAmbadsp_imgc_3
 0001:0009C6E0       aWarning_Amb_42
 0001:0009C728       aWarnUnsuppor_0
 0001:0009C740       aAmbadsp_imgc_4
 0001:0009C770       aAmbadsp_img_64
 0001:0009C79C       aWarning_Amb_43
 0001:0009C7E4       aAmbadsp_img_65
 0001:0009C810       aWarning_Pcacal
 0001:0009C830       aAmbadsp_img_66
 0001:0009C85C       aWarning_Amb_44
 0001:0009C8A4       aAmbadsp_img_67
 0001:0009C8D0       aAmbadsp_img_68
 0001:0009C904       aWarning_Amb_45
 0001:0009C950       aAmbadsp_img_69
 0001:0009C984       aSetDebugForCaw
 0001:0009C9A8       aSetDebugForC_0
 0001:0009C9D0       aWarningEnbDS_6
 0001:0009CA10       aWarningExten_0
 0001:0009CA5C       aWarningExten_1
 0001:0009CAAC       aWarningNois_10
 0001:0009CAF8       aWarningOrig_12
 0001:0009CB4C       aWarningStren_2
 0001:0009CB9C       aWarningSelec_3
 0001:0009CBF0       aWarningSelec_4
 0001:0009CC4C       aWarningSelec_5
 0001:0009CCAC       aWarningSelec_6
 0001:0009CD0C       aAmbadsp_img_70
 0001:0009CD2C       aPipeDAlgoDF_25
 0001:0009CD68       aEnbDNoiselev_0
 0001:0009CDBC       aExtentfineDD_0
 0001:0009CE2C       aWarning_Can_31
 0001:0009CE50       aAmbadsp_img_71
 0001:0009CE78       aWarning_Amb_46
 0001:0009CEBC       aAmbadsp_img_72
 0001:0009CEE4       aWarning_Pcfano
 0001:0009CF04       aAmbadsp_img_73
 0001:0009CF2C       aWarning_Amb_47
 0001:0009CF70       aAmbadsp_img_74
 0001:0009CF98       aWarningEnabl_4
 0001:0009CFD8       aWarningOrigina
 0001:0009D02C       aWarningOrigi_0
 0001:0009D080       aWarningRadiu_0
 0001:0009D0C8       aAmbadsp_img_75
 0001:0009D0E4       aPipeDAlgoDF_16
 0001:0009D120       aEnableDNoisele
 0001:0009D150       aOriginalblends
 0001:0009D1A8       aWarning_Can_22
 0001:0009D1CC       aAmbadsp_img_76
 0001:0009D1F4       aWarning_Amb_95
 0001:0009D234       aAmbadsp_img_77
 0001:0009D25C       aWarning_Pchr_1
 0001:0009D280       aAmbadsp_img_78
 0001:0009D2A8       aWarning_Amb_96
 0001:0009D2E8       aAmbadsp_img_79
 0001:0009D310       aWarningEnabl_0
 0001:0009D354       aWarningCbadapt
 0001:0009D3A8       aWarningCradapt
 0001:0009D3FC       aWarningCbnonad
 0001:0009D450       aWarningCrnonad
 0001:0009D4A4       aWarningCbada_0
 0001:0009D4F4       aWarningCrada_0
 0001:0009D544       aAmbadsp_img_80
 0001:0009D568       aPipeDAlgoDF_11
 0001:0009D5A4       aEnableD
 0001:0009D5B4       aCbadaptivestre
 0001:0009D5E8       aCbnonadaptives
 0001:0009D620       aCbadaptiveamou
 0001:0009D668       aWarning_Can_17
 0001:0009D68C       aAmbadsp_img_81
 0001:0009D6B8       aWarning_Amb_48
 0001:0009D700       aAmbadsp_img_82
 0001:0009D72C       aWarning_Pchr_0
 0001:0009D750       aAmbadsp_img_83
 0001:0009D77C       aWarning_Amb_49
 0001:0009D7C4       aAmbadsp_img_84
 0001:0009D7F0       aWarningEnbDS_1
 0001:0009D82C       aWarningGainc_0
 0001:0009D874       aAmbadsp_img_85
 0001:0009D890       aPipeDAlgoDF_10
 0001:0009D8CC       aEnbDGaincurve
 0001:0009D8E8       a6d_0
 0001:0009D900       aWarning_Can_16
 0001:0009D924       aAmbadsp_img_86
 0001:0009D948       aWarning_Amb_50
 0001:0009D988       aAmbadsp_img_87
 0001:0009D9B0       aWarning_Pchrom
 0001:0009D9D0       aAmbadsp_img_88
 0001:0009D9F4       aWarning_Amb_51
 0001:0009DA34       aAmbadsp_img_89
 0001:0009DA5C       aAmbadsp_img_90
 0001:0009DA7C       aPipeDAlgoDFu_9
 0001:0009DAB8       aMatrixthreedta
 0001:0009DAE8       aWarning_Can_15
 0001:0009DB0C       aAmbadsp_img_91
 0001:0009DB34       aWarning_Amb_52
 0001:0009DB78       aAmbadsp_img_92
 0001:0009DBA4       aWarning_Pcol_0
 0001:0009DBC4       aAmbadsp_img_93
 0001:0009DBEC       aWarning_Amb_53
 0001:0009DC30       aAmbadsp_img_94
 0001:0009DC5C       aAmbadsp_img_95
 0001:0009DC80       aPipeDAlgoDFu_8
 0001:0009DCBC       aRegsettingaddr
 0001:0009DCDC       aWarning_Can_14
 0001:0009DD00       aAmbadsp_img_96
 0001:0009DD2C       aWarning_Amb_54
 0001:0009DD74       aAmbadsp_img_97
 0001:0009DDA0       aWarning_Pcolor
 0001:0009DDC4       aAmbadsp_img_98
 0001:0009DDF0       aWarning_Amb_55
 0001:0009DE64       aWarningCdnrmod
 0001:0009DEB4       aWarningCdnrstr
 0001:0009DF38       aPipeDAlgoDF_12
 0001:0009DF74       aCdnrmodeDCdnrs
 0001:0009DF98       aWarning_Can_18
 0001:0009DFE8       aWarning_Amb_56
 0001:0009E0D8       aWarning_Amb_57
 0001:0009E160       aWarning_PcdnrI
 0001:0009E1B4       aWarning_Amb_58
 0001:0009E23C       aWarningEnableD
 0001:0009E27C       aWarningRadiusD
 0001:0009E2BC       aWarningLumawei
 0001:0009E304       aWarningLumaw_0
 0001:0009E350       aWarningLumaw_1
 0001:0009E398       aWarningLumaw_2
 0001:0009E3E4       aWarningGaincur
 0001:0009E454       aPipeDAlgoDFu_6
 0001:0009E490       aEnbDRadiusDLum
 0001:0009E4F4       aGaincurvetable
 0001:0009E50C       a6d
 0001:0009E52C       aWarning_Can_12
 0001:0009E578       aWarning_Amb_59
 0001:0009E5E0       aWarning_Plocal
 0001:0009E62C       aWarning_Amb_60
 0001:0009E694       aWarningMatrixv
 0001:0009E6E8       aWarningYoffset
 0001:0009E734       aWarningUoffset
 0001:0009E77C       aWarningVoffset
 0001:0009E7E4       aPipeDAlgoDFu_2
 0001:0009E820       aMatrixvaluesDD
 0001:0009E894       aWarning_Cann_8
 0001:0009E8E0       aWarning_Amb_61
 0001:0009E94C       aWarning_Prgbto
 0001:0009E994       aWarning_Amb_62
 0001:0009EA00       aWarningYcombin
 0001:0009EA48       aWarningChaninf
 0001:0009EA98       aWarningChani_0
 0001:0009EAE8       aWarningChani_1
 0001:0009EB38       aWarningChani_2
 0001:0009EB88       aWarningChani_3
 0001:0009EBD4       aWarningChani_4
 0001:0009EC28       aWarningChani_5
 0001:0009EC7C       aWarningChani_6
 0001:0009ECCC       aDsp_imgcheckse
 0001:0009ECEC       aWarningY_tempo
 0001:0009ED54       aWarningCb_temp
 0001:0009EDBC       aWarningCr_temp
 0001:0009EE24       aSetvideomctfle
 0001:0009EE38       aY_temporal_eit
 0001:0009EE64       aWarningPmctfle
 0001:0009EED8       aWarningPmctf_0
 0001:0009EF4C       aWarningPmctf_1
 0001:0009EFC0       aCb_temporal_ei
 0001:0009EFEC       aWarningPmctf_2
 0001:0009F060       aWarningPmctf_3
 0001:0009F0D4       aWarningPmctf_4
 0001:0009F148       aCr_temporal_ei
 0001:0009F174       aWarningPmctf_5
 0001:0009F1E8       aWarningPmctf_6
 0001:0009F25C       aWarningPmctf_7
 0001:0009F2D0       aDsp_imgcheck_0
 0001:0009F2F0       aWarningEnbDS_2
 0001:0009F320       aDsp_imgcheck_1
 0001:0009F344       aWarningZmvenbD
 0001:0009F378       aDsp_imgcheck_2
 0001:0009F3A4       aDsp_imgcheck_3
 0001:0009F3EC       aPipeDAlgoDF_18
 0001:0009F428       aYcombinedstren
 0001:0009F444       aChaninfoD
 0001:0009F458       aTemporalalpha0
 0001:0009F4A8       aTemporalt0DTem
 0001:0009F4E8       aTemporalmaxcha
 0001:0009F504       aRadiusD
 0001:0009F514       aStrengththreed
 0001:0009F52C       aStrengthspatia
 0001:0009F544       aLeveladjustD
 0001:0009F558       aY_temporal_max
 0001:0009F588       aCb_temporal_ma
 0001:0009F5B8       aCr_temporal_ma
 0001:0009F5E8       aWarning_Can_24
 0001:0009F60C       aWarning_Dsp__5
 0001:0009F64C       aWarning__ambad
 0001:0009F690       aWarning_Amb_63
 0001:0009F714       aWarning_Amb_64
 0001:0009F774       aWarning_Pmctfi
 0001:0009F7B8       aWarning_Amb_65
 0001:0009F850       aWarning_Amb_66
 0001:0009F8BC       aWarning_Pmctfl
 0001:0009F904       aWarning_Amb_67
 0001:0009F9AC       aWarning_Amb_68
 0001:0009FA50       aWarning_Amb_69
 0001:0009FAC0       aWarning_PenbIs
 0001:0009FB18       aWarning_Amb_70
 0001:0009FBD0       aWarning_Amb_71
 0001:0009FC8C       aWarning_Amb_72
 0001:0009FD4C       aWarning_Amb_73
 0001:0009FDC0       aWarning_Pzmven
 0001:0009FE08       aWarning_Amb_74
 0001:0009FE7C       aWarningGainr0x
 0001:0009FED0       aWarningGaing0x
 0001:0009FF24       aWarningGainb0x
 0001:0009FF90       aPipeDAlgoDF_30
 0001:0009FFCC       aGainrDGaingDGa
 0001:000A0008       aWarning_Can_38
 0001:000A004C       aWarning_Amb_75
 0001:000A00A8       aWarning_Pwbgai
 0001:000A00E4       aWarning_Amb_76
 0001:000A0120       aAmbadsp_imamba
 0001:000A0154       aS_warp_enableD
 0001:000A0168       aS_warp_horz_gr
 0001:000A0190       aS_warp_vert_gr
 0001:000A01B8       aS_warp_grid_ar
 0001:000A01D8       aS_warp_grid__0
 0001:000A01F8       aS_warp_field_a
 0001:000A0214       aS_cmd_code0x_0
 0001:000A0228       aS_warp_control
 0001:000A0240       aS_warp_horizon
 0001:000A026C       aS_warp_vertica
 0001:000A0294       aS_actual_left_
 0001:000A02B0       aS_actual_lef_0
 0001:000A02CC       aS_actual_right
 0001:000A02E8       aS_actual_rig_0
 0001:000A0304       aS_zoom_xD
 0001:000A0314       aS_zoom_yD
 0001:000A0324       aS_x_center_off
 0001:000A033C       aS_y_center_off
 0001:000A0354       aS_grid_array_w
 0001:000A0370       aS_grid_array_h
 0001:000A038C       aS_horz_grid_sp
 0001:000A03B0       aS_vert_grid_sp
 0001:000A03D4       aS_vert_warp_en
 0001:000A03F0       aS_vert_warp_gr
 0001:000A0414       aS_vert_warp__0
 0001:000A0438       aS_vert_warp_ho
 0001:000A0468       aS_vert_warp_ve
 0001:000A0498       aS_force_v4tap_
 0001:000A04B4       aS_hor_skew_pha
 0001:000A04D0       aS_dummy_window
 0001:000A04EC       aS_dummy_wind_0
 0001:000A0508       aS_dummy_wind_1
 0001:000A0524       aS_dummy_wind_2
 0001:000A0540       aS_cfa_output_w
 0001:000A055C       aS_cfa_output_h
 0001:000A0578       aS_extra_sec2_v
 0001:000A05A0       aS_cmd_code0x_1
 0001:000A05B4       aS_global_offse
 0001:000A05D0       aS_global_off_0
 0001:000A05EC       aS_global_off_1
 0001:000A0608       aS_global_off_2
 0001:000A0624       aS_black_level_
 0001:000A0644       aS_black_leve_0
 0001:000A0668       aS_black_leve_1
 0001:000A0688       aS_gain_depeden
 0001:000A06AC       aS_gain_deped_0
 0001:000A06D0       aS_gain_deped_1
 0001:000A06F4       aS_def_blk1_red
 0001:000A070C       aS_def_blk1_gre
 0001:000A0724       aS_def_blk1_blu
 0001:000A073C       aS_bayer_patter
 0001:000A0754       aS_r_gainD
 0001:000A0764       aS_g_even_gainD
 0001:000A0778       aS_g_odd_gainD
 0001:000A078C       aS_b_gainD
 0001:000A079C       aS_group_indexD
 0001:000A07B0       aS_enableD_0
 0001:000A07C0       aS_radiusD_0
 0001:000A07D0       aS_luma_weight_
 0001:000A07E8       aS_luma_weigh_0
 0001:000A0804       aS_luma_weigh_1
 0001:000A0820       aS_luma_weigh_2
 0001:000A0840       aS_gain_curve_t
 0001:000A0860       aS_luma_offsetD
 0001:000A0874       aS_make_legalD
 0001:000A0888       aS_u_weight_0D
 0001:000A089C       aS_u_weight_1D
 0001:000A08B0       aS_u_weight_2D
 0001:000A08C4       aS_v_weight_0D
 0001:000A08D8       aS_v_weight_1D
 0001:000A08EC       aS_v_weight_2D
 0001:000A0900       aS_gain_curver_
 0001:000A0920       aS_alpha_rrD
 0001:000A0934       aS_alpha_rbD
 0001:000A0948       aS_alpha_brD
 0001:000A095C       aS_alpha_bbD
 0001:000A0970       aS_saturation_l
 0001:000A098C       aS_thresholdD
 0001:000A09A0       aS_shiftD
 0001:000A09B0       aS_modeD_0
 0001:000A09C0       aS_shift_coar_1
 0001:000A09DC       aS_shift_coar_2
 0001:000A09F8       aS_shift_fine_1
 0001:000A0A14       aS_shift_fine_2
 0001:000A0A30       aS_shift_cent_4
 0001:000A0A4C       aS_shift_cent_5
 0001:000A0A68       aS_shift_cent_6
 0001:000A0A84       aS_target_coa_2
 0001:000A0AA0       aS_target_coa_3
 0001:000A0ABC       aS_target_coa_4
 0001:000A0AD8       aS_target_fin_2
 0001:000A0AF0       aS_target_fin_3
 0001:000A0B0C       aS_target_fin_4
 0001:000A0B28       aS_cutoff_red_0
 0001:000A0B3C       aS_cutoff_gre_0
 0001:000A0B54       aS_cutoff_blu_0
 0001:000A0B68       aS_thresh_coa_2
 0001:000A0B84       aS_thresh_coa_3
 0001:000A0BA0       aS_thresh_coa_4
 0001:000A0BBC       aS_thresh_fin_2
 0001:000A0BD4       aS_thresh_fin_3
 0001:000A0BF0       aS_thresh_fin_4
 0001:000A0C0C       aS_clamp_direct
 0001:000A0C34       aS_activity_thr
 0001:000A0C4C       aS_activity_dif
 0001:000A0C70       aS_grad_clip_th
 0001:000A0C8C       aS_grad_noise_t
 0001:000A0CA8       aS_grad_noise_d
 0001:000A0CD0       aS_zipper_noise
 0001:000A0CFC       aS_zipper_noi_0
 0001:000A0D28       aS_max_const_hu
 0001:000A0D48       aS_fir10x_8x
 0001:000A0D5C       aS_fir20x_8x
 0001:000A0D70       aS_coring0x_8x
 0001:000A0D84       aS_level_3d0x_8
 0001:000A0D9C       aS_blend_iso0_t
 0001:000A0DBC       aS_blend_iso1_t
 0001:000A0DDC       aS_max_change_u
 0001:000A0DF4       aS_max_change_d
 0001:000A0E0C       aS_wide_edge_de
 0001:000A0E28       aS_special_mode
 0001:000A0E40       aS_coring_multi
 0001:000A0E64       aS_coring_mul_0
 0001:000A0E88       aS_coring_mul_1
 0001:000A0EB0       aS_coring_mul_2
 0001:000A0ED4       aS_coring_mul_3
 0001:000A0EFC       aS_coring_mul_4
 0001:000A0F24       aS_coring_mul_5
 0001:000A0F4C       aS_coring_mul_6
 0001:000A0F74       aS_coring_mul_7
 0001:000A0FA0       aS_coring_mul_8
 0001:000A0FCC       aS_coring_index
 0001:000A0FEC       aS_coring_ind_0
 0001:000A100C       aS_coring_ind_1
 0001:000A1030       aS_coring_ind_2
 0001:000A1050       aS_coring_ind_3
 0001:000A1070       aS_coring_ind_4
 0001:000A1094       aS_coring_ind_5
 0001:000A10B8       aS_coring_ind_6
 0001:000A10DC       aS_coring_ind_7
 0001:000A1100       aS_coring_ind_8
 0001:000A1124       aS_edge_threshD
 0001:000A1138       aS_fir2_clip_hi
 0001:000A1150       aS_fir2_clip_lo
 0001:000A1168       aS_max_change_0
 0001:000A1184       aS_max_change_1
 0001:000A11A0       aS_coring_mul_9
 0001:000A11C4       aS_coring_mu_10
 0001:000A11E8       aS_coring_mu_11
 0001:000A1210       aS_coring_mu_12
 0001:000A1234       aS_coring_mu_13
 0001:000A125C       aS_coring_mu_14
 0001:000A1284       aS_coring_mu_15
 0001:000A12AC       aS_coring_mu_16
 0001:000A12D4       aS_coring_mu_17
 0001:000A1300       aS_coring_mu_18
 0001:000A132C       aS_fir2_out_sca
 0001:000A1348       aS_fir2_out_s_0
 0001:000A1368       aS_fir2_out_s_1
 0001:000A1388       aS_fir2_out_s_2
 0001:000A13A4       aS_fir2_out_s_3
 0001:000A13C4       aS_fir2_out_s_4
 0001:000A13E4       aS_fir2_out_s_5
 0001:000A1404       aS_fir2_out_s_6
 0001:000A1428       aS_fir2_out_s_7
 0001:000A144C       aS_fir2_out_s_8
 0001:000A1478       aErrorIncorre_1
 0001:000A14A4       aDsp_imghighiso
 0001:000A14C8       aWarning_Dsp__3
 0001:000A1508       aWarning_Dsp__2
 0001:000A1598       aError_Dsp_imgh
 0001:000A15E8       aError_VideoHig
 0001:000A162C       aWarning_Cann_4
 0001:000A1648       aDsp_imgprofile
 0001:000A1668       aWarning_Dsp__4
 0001:000A16A4       aError_Dsp_im_1
 0001:000A16EC       aPipeDCfgidD_0
 0001:000A1700       aConfigStateD_0
 0001:000A1710       aVersion_number
 0001:000A1724       aDiag_case_idD
 0001:000A1738       aDebug_step_i_0
 0001:000A174C       aDebug_modeD_0
 0001:000A175C       aDebug_config_0
 0001:000A1778       aDebug_addr00x_
 0001:000A1790       aDebug_addr10x_
 0001:000A17A8       aDebug_pitch0D
 0001:000A17BC       aDebug_pitch1D
 0001:000A17D0       aDebug_width0D
 0001:000A17E4       aDebug_width1D
 0001:000A17F8       aDebug_height0D
 0001:000A1810       aDebug_height1D
 0001:000A1828       aUse_compressio
 0001:000A1840       aUse_static_b_0
 0001:000A1868       aUse_vignette_0
 0001:000A187C       aUse_lens_war_0
 0001:000A1890       aUse_ca_warpD_0
 0001:000A18A4       aUse_local_ex_0
 0001:000A18BC       aUse_chroma_s_0
 0001:000A18D4       aUse_defer_ccD
 0001:000A18E8       aUse_2nd_liso_p
 0001:000A1900       aUse_c2y_hiD
 0001:000A1910       aUse_asf_highD
 0001:000A1924       aUse_asf_chroma
 0001:000A1938       aUse_asf_med1D
 0001:000A194C       aUse_shp_medD
 0001:000A1960       aUse_shp_highD
 0001:000A1974       aUse_asf_li2D
 0001:000A1988       aUse_chroma_fil
 0001:000A19A4       aUse_chroma_f_0
 0001:000A19C0       aUse_chroma_f_1
 0001:000A19DC       aUse_chroma_f_2
 0001:000A19F8       aUse_chroma_f_3
 0001:000A1A18       aIs_hiso_videoD
 0001:000A1A2C       aUpdate_break_p
 0001:000A1A48       aUpdate_calib_d
 0001:000A1A60       aBayer_patter_0
 0001:000A1A74       aVignette_gain_
 0001:000A1A90       aRed_scale_fa_0
 0001:000A1AA8       aBlue_scale_f_0
 0001:000A1AC0       aChroma_radiusD
 0001:000A1AD4       aVignette_gain0
 0001:000A1AEC       aFpn_map_widthD
 0001:000A1B00       aFpn_map_pitchD
 0001:000A1B14       aFpn_map_height
 0001:000A1B28       aFpn_intercept_
 0001:000A1B44       aFpn_modeD
 0001:000A1B54       aFpn_map_addr0x
 0001:000A1B6C       aFpn_lookup_tab
 0001:000A1B88       aCa_warp_h
 0001:000A1B94       aCa_warp_v
 0001:000A1BA0       aGeo_warp_contr
 0001:000A1BB4       aBlack_level
 0001:000A1BC0       aWb_gain
 0001:000A1BC8       aLocal_exposu_0
 0001:000A1BD8       aChroma_scale
 0001:000A1BE8       aCc_reg0x_8x
 0001:000A1BF8       aCc_out0x_8x
 0001:000A1C08       aLnl_tone_cur_0
 0001:000A1C20       aRgb2yuv_user_0
 0001:000A1C38       aLnl_input_weig
 0001:000A1C50       aLnl_input_we_0
 0001:000A1C68       aLnl_input_we_1
 0001:000A1C80       aUse_low_noise_
 0001:000A1C9C       aUse_low_nois_0
 0001:000A1CB8       aLnl_strength_h
 0001:000A1CD0       aLnl_strength_l
 0001:000A1CE8       aUpdate_wb_gain
 0001:000A1CFC       aUpdate_tone_cu
 0001:000A1D14       aUpdate_othersD
 0001:000A1D28       aWb_saturation_
 0001:000A1D48       aWb_saturatio_0
 0001:000A1D6C       aWb_saturatio_1
 0001:000A1D90       aWb_saturatio_2
 0001:000A1DB0       aMctf_l_high_as
 0001:000A1DCC       aMctf_l_low_asf
 0001:000A1DE4       aMctf_l_med2_as
 0001:000A1E00       aMctf_l4c_edge0
 0001:000A1E18       aMctf_l_mix_124
 0001:000A1E34       aMctf_c_80x_8x
 0001:000A1E48       aMctf_c_40x_8x
 0001:000A1E5C       aMctf_c_b0x_8x
 0001:000A1E70       aMctf_l_luma_no
 0001:000A1E94       aMctf_l_li1_sha
 0001:000A1EB0       aMctf_l_li2_sha
 0001:000A1ECC       aMctf_lc_final0
 0001:000A1EE4       aSec_cc_c_cc0x_
 0001:000A1EFC       aSec_cc_l4c_edg
 0001:000A1F18       aSec_cc_l_cc0x_
 0001:000A1F30       aDark_pixel_t_0
 0001:000A1F54       aHot_pixel_th_0
 0001:000A1F74       aCc_3d_hi0x_8x
 0001:000A1F88       aChroma_media_0
 0001:000A1FAC       aHi_leakage
 0001:000A1FB8       aHi_anti_aliasi
 0001:000A1FCC       aHi_cfa_noise_f
 0001:000A1FE0       aHi_demosaic
 0001:000A1FEC       aAsf_hi
 0001:000A1FF4       aUse_dynamic__0
 0001:000A201C       aUse_aggresiv_0
 0001:000A2048       aUse_leakage__0
 0001:000A2060       aUse_anti_alias
 0001:000A2078       aUse_cfa_nois_0
 0001:000A2094       aUse_grgb_misma
 0001:000A20B4       aUse_chroma_m_0
 0001:000A20CC       aUse_shpa_for_a
 0001:000A20E4       aUpdate_ccD
 0001:000A20F4       aUpdate_luma_pr
 0001:000A2110       aUpdate_dbp_str
 0001:000A212C       aUpdate_cfa_noi
 0001:000A214C       aHi_grgb_mismat
 0001:000A2178       aHi_grgb_mism_0
 0001:000A21AC       aHi_chroma_orig
 0001:000A21DC       aHi_chroma_or_0
 0001:000A220C       aHi_chroma_nois
 0001:000A2230       aHi_chroma_no_0
 0001:000A2254       aAsf_high
 0001:000A2260       aAsf_chroma
 0001:000A226C       aAsf_med1
 0001:000A2278       aChroma_noise_l
 0001:000A2298       aChroma_noise_1
 0001:000A22B8       aChroma_origina
 0001:000A22E4       aChroma_origi_0
 0001:000A2310       aSharpen_med
 0001:000A231C       aChroma_noise_2
 0001:000A233C       aChroma_noise_3
 0001:000A235C       aChroma_origi_1
 0001:000A2388       aChroma_origi_2
 0001:000A23B4       aSharpen_high
 0001:000A23C4       aChroma_noise_4
 0001:000A23E4       aChroma_noise_5
 0001:000A2404       aChroma_origi_3
 0001:000A2430       aChroma_origi_4
 0001:000A245C       aChroma_noise_6
 0001:000A247C       aChroma_noise_7
 0001:000A249C       aChroma_origi_5
 0001:000A24C8       aChroma_origi_6
 0001:000A24F4       aChroma_noise_8
 0001:000A2514       aChroma_noise_9
 0001:000A2534       aChroma_origi_7
 0001:000A2560       aChroma_origi_8
 0001:000A258C       aDark_pixel_t_1
 0001:000A25B0       aHot_pixel_th_1
 0001:000A25D4       aCc_3d_li10x_8x
 0001:000A25E8       aChroma_media_1
 0001:000A260C       aCfa_noise_fi_1
 0001:000A2620       aDemosaic
 0001:000A262C       aLuma_li1_asf
 0001:000A263C       aLuma_li1_shp
 0001:000A264C       aLnl_strength_0
 0001:000A2664       aLi1_use_dynami
 0001:000A2690       aLi1_use_aggres
 0001:000A26C0       aLi1_use_leakag
 0001:000A26DC       aLi1_use_anti_a
 0001:000A26F8       aLi1_use_cfa_no
 0001:000A2718       aLi1_use_grgb_m
 0001:000A273C       aLi1_use_chroma
 0001:000A2758       aLi1_use_shpa_f
 0001:000A2774       aLi1_use_shpa_0
 0001:000A2790       aLi1_use_low_no
 0001:000A27AC       aAnti_aliasin_0
 0001:000A27C8       aLeakage_alpha_
 0001:000A27E0       aLeakage_alph_0
 0001:000A27F8       aLeakage_alph_1
 0001:000A2810       aLeakage_alph_2
 0001:000A2828       aLeakage_satura
 0001:000A2848       aAnti_aliasin_1
 0001:000A2868       aGrgb_mismatc_1
 0001:000A2890       aGrgb_mismatc_2
 0001:000A28C0       aChroma_radius_
 0001:000A28D8       aChroma_nois_10
 0001:000A28F8       aChroma_nois_11
 0001:000A2918       aChroma_origi_9
 0001:000A2944       aChroma_orig_10
 0001:000A2970       aAsf_li2
 0001:000A2978       aVert_warp0
 0001:000A2988       aVert_warp1
 0001:000A2998       aVert_warp2
 0001:000A29A8       aVert_warp3
 0001:000A29B8       aAmbadsp_imghig
 0001:000A29E0       aWarning_Cann_5
 0001:000A2A04       aAmbadsp_imgh_0
 0001:000A2A30       aWarning_Amb_77
 0001:000A2A74       aAmbadsp_imgh_1
 0001:000A2AA0       aAmbadsp_imgh_2
 0001:000A2ACC       aDsp_imghighi_0
 0001:000A2AE4       aCBins_0
 0001:000A2AF4       aSAddressIsNull
 0001:000A2B08       aNoBinsDirect_0
 0001:000A2B34       aK_assertAtSD_1
 0001:000A2B48       aCBinsH_idsp_st
 0001:000A2B6C       aDumpS_0
 0001:000A2B74       aCBinsH_dbg_ste
 0001:000A2B9C       aCBinsH_dbg_s_0
 0001:000A2BC4       aAmbadsp_imgh_3
 0001:000A2BE8       aWarning_Amb_78
 0001:000A2C28       aError_Ambads_0
 0001:000A2C74       aAmbadsp_imgh_4
 0001:000A2CA4       aErrorIncorre_0
 0001:000A2CD8       aWarning_Dsp_im
 0001:000A2D14       aWarning_Dsp__0
 0001:000A2D80       aError_Dsp_imgl
 0001:000A2DCC       aS_cmd_code0xX
 0001:000A2DE0       aS_enableD
 0001:000A2DF0       aS_modeD
 0001:000A2E00       aS_shift_coarse
 0001:000A2E1C       aS_shift_coar_0
 0001:000A2E38       aS_shift_fine_r
 0001:000A2E54       aS_shift_fine_0
 0001:000A2E70       aS_shift_center
 0001:000A2E8C       aS_shift_cent_0
 0001:000A2EA8       aS_shift_cent_1
 0001:000A2EC4       aS_target_coars
 0001:000A2EE0       aS_target_coa_0
 0001:000A2EFC       aS_target_coa_1
 0001:000A2F18       aS_target_fine_
 0001:000A2F30       aS_target_fin_0
 0001:000A2F4C       aS_target_fin_1
 0001:000A2F68       aS_cutoff_redD
 0001:000A2F7C       aS_cutoff_green
 0001:000A2F94       aS_cutoff_blueD
 0001:000A2FA8       aS_thresh_coars
 0001:000A2FC4       aS_thresh_coa_0
 0001:000A2FE0       aS_thresh_coa_1
 0001:000A2FFC       aS_thresh_fine_
 0001:000A3014       aS_thresh_fin_0
 0001:000A3030       aS_thresh_fin_1
 0001:000A304C       aS_radiusD
 0001:000A305C       aS_thresh_uD
 0001:000A3070       aS_thresh_vD
 0001:000A3084       aS_shift_cent_2
 0001:000A309C       aS_shift_cent_3
 0001:000A30B4       aS_shift_ring1D
 0001:000A30C8       aS_shift_ring2D
 0001:000A30DC       aS_target_uD
 0001:000A30F0       aS_target_vD
 0001:000A3104       aDsp_imglowisod
 0001:000A311C       aCBins
 0001:000A312C       aNoBinsDirector
 0001:000A3158       aSAddressIs0x_8
 0001:000A3170       aK_assertAtSD_0
 0001:000A3184       aCBinsL_idsp_st
 0001:000A31A8       aDumpS
 0001:000A31B0       aUcodeDebugData
 0001:000A31CC       aCBinsL_dbg_ste
 0001:000A31F4       aCBinsL_dbg_s_0
 0001:000A321C       aWarning_Cann_2
 0001:000A3240       aAmbadsp_imglow
 0001:000A3268       aWarning_Amb_79
 0001:000A32AC       aAmbadsp_imgl_0
 0001:000A32D8       aAmbadsp_imgl_1
 0001:000A3304       aWarning_Cann_3
 0001:000A3320       aDsp_imglowisop
 0001:000A3340       aWarning_Dsp__1
 0001:000A337C       aError_Dsp_im_0
 0001:000A33C4       aPipeDCfgidD
 0001:000A33D8       aConfigStateD
 0001:000A33E8       aCompression_mo
 0001:000A3400       aBayer_patternD
 0001:000A3414       aDebug_step_idD
 0001:000A3428       aDebug_modeD
 0001:000A3438       aWidth_inD
 0001:000A3448       aHeight_inD
 0001:000A3458       aWidth_paddedD
 0001:000A346C       aHeight_paddedD
 0001:000A3480       aWidth_chromaD
 0001:000A3494       aHeight_chromaD
 0001:000A34A8       aPhase_inc_x_ch
 0001:000A34C4       aPhase_inc_y_ch
 0001:000A34E0       aWidth_protoD
 0001:000A34F0       aHeight_protoD
 0001:000A3504       aPhase_inc_x_lu
 0001:000A351C       aPhase_inc_y_lu
 0001:000A3534       aWidth_chroma_p
 0001:000A354C       aHeight_chroma_
 0001:000A3564       aPhase_inc_x__0
 0001:000A3580       aPhase_inc_y__0
 0001:000A359C       aWidth_prev1D
 0001:000A35AC       aHeight_prev1D
 0001:000A35C0       aPhase_inc_x__1
 0001:000A35D8       aPhase_inc_y__1
 0001:000A35F0       aPhase_inc_x__2
 0001:000A360C       aPhase_inc_y__2
 0001:000A3628       aWidth_prev2D
 0001:000A3638       aHeight_prev2D
 0001:000A364C       aPhase_inc_x__3
 0001:000A3664       aPhase_inc_y__3
 0001:000A367C       aPhase_inc_x__4
 0001:000A3698       aPhase_inc_y__4
 0001:000A36B4       aWidth_outD
 0001:000A36C4       aHeight_outD
 0001:000A36D4       aPhase_inc_x__5
 0001:000A36EC       aPhase_inc_y__5
 0001:000A3704       aPhase_inc_x__6
 0001:000A3720       aPhase_inc_y__6
 0001:000A373C       aUse_static_bad
 0001:000A3760       aUse_dynamic_ba
 0001:000A3788       aUse_leakage_fi
 0001:000A37A0       aUse_cfa_noise_
 0001:000A37BC       aUse_local_expo
 0001:000A37D4       aUse_color_corr
 0001:000A37F8       aUse_chroma_sca
 0001:000A3810       aUse_chroma_med
 0001:000A3828       aUse_luma_sharp
 0001:000A3840       aUse_vignetteD
 0001:000A3854       aUse_lens_warpD
 0001:000A3868       aUse_ca_warpD
 0001:000A3878       aUse_prev1_ccD
 0001:000A388C       aUse_art_effect
 0001:000A38A0       aUse_special_gr
 0001:000A38C8       aUse_fast_lcd_p
 0001:000A38E4       aIsbypasslisocf
 0001:000A38F8       aUse_aggresive_
 0001:000A3920       aUse_new_liso_f
 0001:000A3938       aBlo_eeD
 0001:000A3944       aBlo_eoD
 0001:000A3950       aBlo_oeD
 0001:000A395C       aBlo_ooD
 0001:000A3968       aRgb2yuv_userDD
 0001:000A3980       aWb_gain_user_c
 0001:000A399C       aWb_gain_user_r
 0001:000A39B4       aWb_gain_user_g
 0001:000A39D4       aWb_gain_user_0
 0001:000A39F0       aWb_gain_user_b
 0001:000A3A08       aCfa_noise_fi_0
 0001:000A3A28       aChroma_filter_
 0001:000A3A40       aMctf_sharp0xX
 0001:000A3A54       aCc_reg_yuv0xX
 0001:000A3A68       aCc_3d_yuv0xX
 0001:000A3A78       aCc_reg_user0xX
 0001:000A3A8C       aCc_3d_user0xX
 0001:000A3AA0       aDark_threshold
 0001:000A3ABC       aHot_threshold_
 0001:000A3AD8       aFir1_user0xX
 0001:000A3AE8       aFir2_user0xX
 0001:000A3AF8       aCoring_user0xX
 0001:000A3B0C       aLnl_tone_curve
 0001:000A3B28       aCa_warp_contro
 0001:000A3B50       aCa_warp_cont_0
 0001:000A3B78       aCa_warp_cont_1
 0001:000A3BA8       aCa_warp_cont_2
 0001:000A3BD8       aCa_warp_cont_3
 0001:000A3C14       aCa_warp_cont_4
 0001:000A3C50       aCa_warp_cont_5
 0001:000A3C80       aCa_warp_cont_6
 0001:000A3CB0       aCa_warp_cont_7
 0001:000A3CEC       aCa_warp_cont_8
 0001:000A3D28       aCa_warp_cont_9
 0001:000A3D50       aCa_warp_con_10
 0001:000A3D78       aCa_warp_con_11
 0001:000A3DAC       aCa_warp_con_12
 0001:000A3DE0       aLens_warp_cont
 0001:000A3E04       aLens_warp_co_0
 0001:000A3E3C       aLens_warp_co_1
 0001:000A3E70       aLens_warp_co_2
 0001:000A3E98       aLens_warp_co_3
 0001:000A3EC0       aLens_warp_co_4
 0001:000A3EEC       aLens_warp_co_5
 0001:000A3F18       aLens_warp_co_6
 0001:000A3F38       aLens_warp_co_7
 0001:000A3F58       aLens_warp_co_8
 0001:000A3F80       aLens_warp_co_9
 0001:000A3FA8       aLens_warp_c_10
 0001:000A3FD0       aLens_warp_c_11
 0001:000A3FF8       aLens_warp_c_12
 0001:000A402C       aLens_warp_c_13
 0001:000A4060       aLens_warp_c_14
 0001:000A4088       aLens_warp_c_15
 0001:000A40BC       aLens_warp_c_16
 0001:000A40F0       aLens_warp_c_17
 0001:000A412C       aLens_warp_c_18
 0001:000A4168       aLens_warp_c_19
 0001:000A4194       aLens_warp_c_20
 0001:000A41C0       aLens_warp_c_21
 0001:000A41EC       aLens_warp_c_22
 0001:000A4218       aLens_warp_c_23
 0001:000A4244       aLens_warp_c_24
 0001:000A426C       aLens_warp_c_25
 0001:000A4294       aDebug_config_a
 0001:000A42AC       aDebug_addr00xX
 0001:000A42C0       aDebug_addr10xX
 0001:000A42D4       aDebug_pitch00x
 0001:000A42EC       aDebug_width00x
 0001:000A4304       aDebug_height00
 0001:000A431C       aDebug_pitch10x
 0001:000A4334       aDebug_width10x
 0001:000A434C       aDebug_height10
 0001:000A4364       aConfigversionn
 0001:000A4380       aChroma_noise_0
 0001:000A439C       aDebugtileidx0x
 0001:000A43B0       aMctfsharpaddr0
 0001:000A43C4       aCcreguseraddr0
 0001:000A43D8       aCc3duseraddr0x
 0001:000A43EC       aDarkthresholdu
 0001:000A4408       aHotthresholdus
 0001:000A4424       aFir1useraddr0x
 0001:000A4438       aFir2useraddr0x
 0001:000A444C       aCoringuseraddr
 0001:000A4464       aLnltonecurveus
 0001:000A4480       aAmbadsp_imgl_2
 0001:000A44A8       aAmbadsp_imgl_3
 0001:000A44CC       aWarning_Amb_80
 0001:000A450C       aError_Ambadsp_
 0001:000A4558       aAmbadsp_imgl_4
 0001:000A457C       aWarningEnab_18
 0001:000A45E4       aPipeDAlgoDF_31
 0001:000A4620       aEnbD_1
 0001:000A465C       aWarning_Can_39
 0001:000A46AC       aWarning_Amb_81
 0001:000A4720       aWarning_Pdefbl
 0001:000A4768       aWarning_Amb_82
 0001:000A47DC       aItuner_system_
 0001:000A47F0       aItuner_interna
 0001:000A4808       aItuner_aaa_fun
 0001:000A481C       aItuner_ae_info
 0001:000A482C       aItuner_wb_sim_
 0001:000A4840       aItuner_ae_stat
 0001:000A485C       aItuner_awb_sta
 0001:000A4878       aItuner_af_stat
 0001:000A4894       aItuner_static_
 0001:000A48B8       aItuner_stati_0
 0001:000A48E4       aItuner_vignett
 0001:000A4904       aItuner_vigne_0
 0001:000A492C       aItuner_warp_co
 0001:000A4948       aItuner_dzoom
 0001:000A4958       aItuner_warp__0
 0001:000A4980       aItuner_sensor_
 0001:000A499C       aItuner_stati_1
 0001:000A49B8       aItuner_deferre
 0001:000A49D4       aItuner_dynamic
 0001:000A49F8       aItuner_hiso_dy
 0001:000A4A24       aItuner_cfa_lea
 0001:000A4A40       aItuner_hiso_cf
 0001:000A4A60       aItuner_cfa_noi
 0001:000A4A78       aItuner_hiso__0
 0001:000A4A98       aItuner_anti_al
 0001:000A4AB8       aItuner_hiso_an
 0001:000A4ADC       aItuner_global_
 0001:000A4AF0       aItuner_wb_gain
 0001:000A4B00       aItuner_dgain_s
 0001:000A4B20       aItuner_local_e
 0001:000A4B38       aItuner_color_c
 0001:000A4B50       aItuner_tone_cu
 0001:000A4B64       aItuner_rgb_to_
 0001:000A4B80       aItuner_chroma_
 0001:000A4B94       aItuner_chrom_0
 0001:000A4BB0       aItuner_hiso_ch
 0001:000A4BD4       aItuner_demosai
 0001:000A4BEC       aItuner_hiso_de
 0001:000A4C08       aItuner_sharpen
 0001:000A4C1C       aItuner_final_s
 0001:000A4C38       aItuner_hiso_li
 0001:000A4C58       aItuner_hiso_hi
 0001:000A4C78       aItuner_hiso_me
 0001:000A4C98       aItuner_hiso__1
 0001:000A4CB8       aItuner_sharp_0
 0001:000A4CD0       aItuner_final_0
 0001:000A4CEC       aItuner_hiso__2
 0001:000A4D0C       aItuner_hiso__3
 0001:000A4D2C       aItuner_hiso__4
 0001:000A4D4C       aItuner_hiso__5
 0001:000A4D6C       aItuner_fir
 0001:000A4D78       aItuner_finalfi
 0001:000A4D88       aItuner_hiso__6
 0001:000A4DA0       aItuner_hiso__7
 0001:000A4DB4       aItuner_hiso__8
 0001:000A4DCC       aItuner_hiso__9
 0001:000A4DE4       aItuner_coring
 0001:000A4DF4       aItuner_final_c
 0001:000A4E08       aItuner_hiso_10
 0001:000A4E20       aItuner_hiso_11
 0001:000A4E38       aItuner_hiso_12
 0001:000A4E54       aItuner_hiso_13
 0001:000A4E70       aItuner_coring_
 0001:000A4E8C       aItuner_min_cor
 0001:000A4EA8       aItuner_final_1
 0001:000A4EC8       aItuner_final_m
 0001:000A4EE8       aItuner_final_2
 0001:000A4F04       aItuner_hiso_14
 0001:000A4F28       aItuner_hiso_15
 0001:000A4F4C       aItuner_hiso_16
 0001:000A4F6C       aItuner_hiso_17
 0001:000A4F90       aItuner_hiso_18
 0001:000A4FB4       aItuner_hiso_19
 0001:000A4FD4       aItuner_scale_c
 0001:000A4FE8       aItuner_hiso_20
 0001:000A5010       aItuner_hiso_21
 0001:000A5034       aItuner_hiso_22
 0001:000A5054       aItuner_hiso_23
 0001:000A507C       aItuner_hiso_24
 0001:000A50A0       aItuner_hiso_25
 0001:000A50C0       aItuner_video_m
 0001:000A50D4       aItuner_video_0
 0001:000A50EC       aItuner_cdnr
 0001:000A50F8       aItuner_hiso_cd
 0001:000A510C       aItuner_hiso_26
 0001:000A5130       aItuner_shp_a_o
 0001:000A5158       aItuner_sharp_b
 0001:000A5180       aItuner_asf_inf
 0001:000A5190       aItuner_hiso_as
 0001:000A51A0       aItuner_hiso_27
 0001:000A51B8       aItuner_hiso_lo
 0001:000A51CC       aItuner_hiso_28
 0001:000A51E4       aItuner_hiso_29
 0001:000A51FC       aItuner_hiso_30
 0001:000A5214       aItuner_hiso_31
 0001:000A522C       aItuner_chrom_1
 0001:000A5244       aItuner_hiso_32
 0001:000A5264       aItuner_gb_gr_m
 0001:000A527C       aItuner_hiso_gb
 0001:000A5298       aItuner_chrom_2
 0001:000A52B8       aItuner_chrom_3
 0001:000A52E0       aItuner_hiso_33
 0001:000A5308       aItuner_hiso_34
 0001:000A5328       aItuner_hiso_35
 0001:000A5348       aItuner_hiso_36
 0001:000A5368       aItuner_hiso_37
 0001:000A538C       aItuner_hiso_38
 0001:000A53B8       aItuner_hiso_39
 0001:000A53E0       aItuner_hiso_40
 0001:000A5408       aItuner_hiso_lu
 0001:000A5428       aItuner_hiso_41
 0001:000A5444       aItuner_high_is
 0001:000A545C       aItuner_hiso_42
 0001:000A5478       aItuner_hiso_43
 0001:000A549C       aItuner_hiso_fr
 0001:000A54B8       aItuner_senso_0
 0001:000A54CC       aImg_mode_pre_0
 0001:000A54E0       a_ambaituner_ch
 0001:000A55A8       aItunerWarningS
 0001:000A55F0       aSingle_shot_1
 0001:000A55FC       a_dummy_func
 0001:000A5608       aItunerWarnin_0
 0001:000A564C       aItunerDebugExe
 0001:000A5668       aItunerDebugSki
 0001:000A5684       aItunerDebugWit
 0001:000A56A0       aAmbaituner_exe
 0001:000A56B4       aItunerDebugSDE
 0001:000A56D4       aItunerWarnin_1
 0001:000A5714       aItunerErrorWar
 0001:000A5740       aItunerDebugSDI
 0001:000A579C       aItunerWarnin_2
 0001:000A5810       aItunerWarnin_3
 0001:000A5884       aItunerWarnin_4
 0001:000A58E8       aItunerWarnin_5
 0001:000A5950       aItunerWarnin_6
 0001:000A59B4       aItunerWarnin_7
 0001:000A5A14       aItunerWarnin_8
 0001:000A5A74       aItunerWarnin_9
 0001:000A5ACC       aItunerWarni_10
 0001:000A5B40       aItunerWarni_11
 0001:000A5B94       aItunerWarni_12
 0001:000A5BFC       aItunerWarni_13
 0001:000A5C5C       aItunerWarni_14
 0001:000A5CCC       aItunerWarni_15
 0001:000A5D24       aItunerWarni_16
 0001:000A5D94       aItunerWarni_17
 0001:000A5DE8       aItunerWarni_18
 0001:000A5E50       aItunerWarni_19
 0001:000A5EB8       aErrorWeDonTSup
 0001:000A5EE0       aItunerWarni_20
 0001:000A5F44       aItunerWarni_21
 0001:000A5FAC       aItunerWarni_22
 0001:000A6000       aItunerWarni_23
 0001:000A6050       aItunerWarni_24
 0001:000A60B4       aItunerWarni_25
 0001:000A6118       aItunerWarni_26
 0001:000A6180       aItunerWarni_27
 0001:000A61D4       aItunerWarni_28
 0001:000A623C       aItunerWarni_29
 0001:000A6290       aItunerWarni_30
 0001:000A62E0       aItunerWarni_31
 0001:000A6340       aItunerWarni_32
 0001:000A6394       aItunerWarni_33
 0001:000A63F4       aItunerWarni_34
 0001:000A645C       aItunerWarni_35
 0001:000A64C8       aItunerWarni_36
 0001:000A6544       aItunerWarni_37
 0001:000A65AC       aItunerWarni_38
 0001:000A6610       aItunerWarni_39
 0001:000A6678       aItunerWarni_40
 0001:000A66CC       aItunerWarni_41
 0001:000A673C       aItunerWarni_42
 0001:000A67A0       aItunerWarni_43
 0001:000A67FC       aItunerWarni_44
 0001:000A6860       aItunerWarni_45
 0001:000A68C0       aItunerWarni_46
 0001:000A692C       aItunerWarni_47
 0001:000A698C       aItunerWarni_48
 0001:000A69F0       aItunerWarni_49
 0001:000A6A84       aItunerWarni_50
 0001:000A6AEC       aItunerWarni_51
 0001:000A6B50       aItunerWarni_52
 0001:000A6BA0       aItunerWarni_53
 0001:000A6C0C       aItunerWarni_54
 0001:000A6C64       aItunerWarni_55
 0001:000A6CD4       aItunerWarni_56
 0001:000A6D3C       aItunerWarni_57
 0001:000A6DA0       aItunerWarni_58
 0001:000A6E0C       aItunerWarni_59
 0001:000A6E8C       aItunerWarni_60
 0001:000A6F08       aItunerWarni_61
 0001:000A6F7C       aItunerWarni_62
 0001:000A6FD8       aItunerWarni_63
 0001:000A7040       aItunerWarni_64
 0001:000A7098       aItunerWarni_65
 0001:000A7110       aItunerWarni_66
 0001:000A7180       aItunerWarni_67
 0001:000A71EC       aItunerWarni_68
 0001:000A7260       aItunerWarni_69
 0001:000A72E8       aItunerWarni_70
 0001:000A736C       aItunerWarni_71
 0001:000A73E8       aItunerWarni_72
 0001:000A745C       aItunerWarni_73
 0001:000A74D0       aItunerWarni_74
 0001:000A7558       aItunerWarni_75
 0001:000A75C8       aItunerWarni_76
 0001:000A7634       aItunerWarni_77
 0001:000A76A0       aItunerWarni_78
 0001:000A7718       aItunerWarni_79
 0001:000A778C       aItunerWarni_80
 0001:000A7808       aItunerWarni_81
 0001:000A785C       aItunerWarni_82
 0001:000A78D0       aItunerWarni_83
 0001:000A7928       aItunerWarni_84
 0001:000A79A4       aItunerWarni_85
 0001:000A79FC       aItunerWarni_86
 0001:000A7A74       aItunerWarni_87
 0001:000A7ACC       aItunerWarni_88
 0001:000A7B48       aItunerWarni_89
 0001:000A7BA0       aItunerWarni_90
 0001:000A7C1C       aItunerWarni_91
 0001:000A7C74       aItunerWarni_92
 0001:000A7CF0       aItunerWarni_93
 0001:000A7D4C       aItunerWarni_94
 0001:000A7DD0       aItunerWarni_95
 0001:000A7E2C       aItunerWarni_96
 0001:000A7EAC       aItunerWarni_97
 0001:000A7F24       aItunerWarni_98
 0001:000A9714       aAmbaituner_ref
 0001:000A9790       aItunerDebugSDX
 0001:000A982C       aItunerDebugSD
 0001:000AC7F8       aDspTestCommand
 0001:000AC80C       aSys_cmdOnOffPr
 0001:000AC844       aVout_cmdOnOffP
 0001:000AC87C       aEnc_cmdOnOffPr
 0001:000AC8B8       aDec_cmdOnOffPr
 0001:000AC8F4       aVcap_cmdOnOffP
 0001:000AC92C       aIdsp_cmdOnOffP
 0001:000AC964       aJpeginfoOnOffP
 0001:000AC9A0       aH264infoOnOffP
 0001:000AC9DC       aCapinfoOnOffPr
 0001:000ACA10       aVoutvideoOnOff
 0001:000ACA44       aOsdOnOffEnable
 0001:000ACA70       aCvbs_colorbarO
 0001:000ACAA8       aVininfoPrintVi
 0001:000ACAD0       aWininfoShowAll
 0001:000ACB04       aDspinfoShowDsp
 0001:000ACB3C       aVoutinfoIdxSho
 0001:000ACB6C       aPpinfoShowPpSe
 0001:000ACBA0       aPreviewinfoIdx
 0001:000ACBD4       aPwrsavinginfoS
 0001:000ACC0C       aPtsOnOffShowPt
 0001:000ACC44       aVin_sofOnOffSh
 0001:000ACC74       aVin_eofOnOffSh
 0001:000ACCA4       aVideo3ainfoOnO
 0001:000ACCD0       aStill3ainfoOnO
 0001:000ACCFC       aDef_cmd_bufOnO
 0001:000ACD48       aVdsp_cmd_bufOn
 0001:000ACD90       aVcap_cmd_bufOn
 0001:000ACDD8       aAsync_cmd_bufO
 0001:000ACE20       aDebugModuleLev
 0001:000ACE60       aModule0CommonU
 0001:000ACEAC       a3VideoEncoder4
 0001:000ACF0C       aDbgthdThread_m
 0001:000ACF78       aSys_cmd
 0001:000ACF80       aDspSys_cmdOn
 0001:000ACF90       aDspSys_cmdOff
 0001:000ACFA0       aVout_cmd
 0001:000ACFAC       aDspVout_cmdOn
 0001:000ACFBC       aDspVout_cmdOff
 0001:000ACFD0       aEnc_cmd
 0001:000ACFD8       aDspEnc_cmdOn
 0001:000ACFE8       aDspEnc_cmdOff
 0001:000ACFF8       aDec_cmd
 0001:000AD000       aDspDec_cmdOn
 0001:000AD010       aDspDec_cmdOff
 0001:000AD020       aVcap_cmd
 0001:000AD02C       aDspVcap_cmdOn
 0001:000AD03C       aDspVcap_cmdOff
 0001:000AD050       aIdsp_cmd
 0001:000AD05C       aDspIdsp_cmdOn
 0001:000AD06C       aDspIdsp_cmdOff
 0001:000AD080       aDebug_2
 0001:000AD088       aDbgthd
 0001:000AD090       aJpeginfo
 0001:000AD09C       aDspJpegBitsinf
 0001:000AD0B4       aDspJpegBitsi_0
 0001:000AD0CC       aCapinfo
 0001:000AD0D4       aDspStillCaptur
 0001:000AD0F0       aDspStillCapt_0
 0001:000AD10C       aH264info
 0001:000AD118       aDspH264Bitsinf
 0001:000AD130       aDspH264Bitsi_0
 0001:000AD148       aVdsp
 0001:000AD150       aVcap
 0001:000AD158       aMsglog
 0001:000AD160       aDspMsgLogOn
 0001:000AD170       aDspMsgLogOff
 0001:000AD180       aVin_sof
 0001:000AD188       aVin_eof
 0001:000AD190       aStill3ainfo
 0001:000AD19C       aStill3aInfoOn
 0001:000AD1B0       aStill3aInfoOff
 0001:000AD1C4       aVideo3ainfo
 0001:000AD1D0       aRepeatdrop
 0001:000AD1DC       aRepeatForDropO
 0001:000AD1F0       aRepeatForDro_0
 0001:000AD204       aVininfo
 0001:000AD20C       aWininfo
 0001:000AD214       aVinWinDimensio
 0001:000AD23C       aStartxD_4
 0001:000AD24C       aStartyD_4
 0001:000AD25C       aWidthD_7
 0001:000AD26C       aHeightD_7
 0001:000AD27C       aCfaWinDimensio
 0001:000AD290       aDummyWinDimens
 0001:000AD2A4       aStartyD_5
 0001:000AD2B4       aActiveWinDimen
 0001:000AD2CC       aLefttopxF
 0001:000AD2DC       aLefttopyF
 0001:000AD2EC       aRightbotxF
 0001:000AD2FC       aRightbotyF
 0001:000AD30C       aMainWinDimensi
 0001:000AD320       aDspinfo
 0001:000AD328       aVoutinfo
 0001:000AD334       aVoutidxShouldB
 0001:000AD350       aVoutsrc
 0001:000AD358       aSetVoutSrcToD
 0001:000AD36C       aVoutvideo
 0001:000AD378       aEnableVoutVide
 0001:000AD38C       aDisableVoutVid
 0001:000AD3A0       aEnableVoutOsd
 0001:000AD3B0       aDisableVoutOsd
 0001:000AD3C4       aCvbs_colorbar
 0001:000AD3D4       aEnableCvbsColo
 0001:000AD3EC       aDisableCvbsCol
 0001:000AD404       aPivscrsrc
 0001:000AD410       aSetPivScrSrcTo
 0001:000AD428       aPivthmsrc
 0001:000AD434       aSetPivThmSrcTo
 0001:000AD44C       aPpinfo
 0001:000AD454       aPreviewinfo
 0001:000AD460       aPreviewidxShou
 0001:000AD484       aPwrsavinginfo
 0001:000AD494       aDef_cmd_buf
 0001:000AD4A0       aVdsp_cmd_buf
 0001:000AD4B0       aVcap_cmd_buf
 0001:000AD4C0       aAsync_cmd_buf
 0001:000AD4D0       aSystemLogUsage
 0001:000AD518       aOnOffEnableDis
 0001:000AD558       aFlushFlushSysl
 0001:000AD57C       aInfoShowSyslog
 0001:000AD5A8       aDumpPathSaveSy
 0001:000AD5D8       aShowPrintSyslo
 0001:000AD60C       aDumpSystemLogF
 0001:000AD624       aCanNotCreateS
 0001:000AD638       aWriteSyslogBuf
 0001:000AD668       aWriteSyslogB_0
 0001:000AD69C       aFlush
 0001:000AD6A4       aInfo_2
 0001:000AD6AC       aSystemLogInfor
 0001:000AD6C4       aSyslog_base0xX
 0001:000AD6DC       aSyslog_limit0x
 0001:000AD6F4       aSyslog_ptr0xX
 0001:000AD70C       aSyslog_size0xX
 0001:000AD724       aSyslog_stateS
 0001:000AD738       aEnable_3
 0001:000AD740       aDisable_3
 0001:000AD748       aDump_0
 0001:000AD750       aDumpSystemLogS
 0001:000AD764       aDumpSystemLo_0
 0001:000AD77C       aShow_0
 0001:000AD784       aSyslog
 0001:000AD78C       aAmbausb_system
 0001:000AD7B0       aSUsbPhyIsOffTu
 0001:000AD7D4       aUdc_wait_hw_in
 0001:000AD7EC       aSCanTWaitUsbDe
 0001:000AD818       aSUsbDeviceHwIn
 0001:000AD844       aUsbxSystemMemo
 0001:000AD86C       aUsbxFailedTo_0
 0001:000AD89C       aUsbxUsbxVersio
 0001:000AD8C0       aUsbxDevHasBeen
 0001:000AD8E0       aUsbxDevFailsTo
 0001:000AD920       aUsbxUsbClassDN
 0001:000AD94C       aFailedToInit_2
 0001:000AD980       aFinishInitUsbx
 0001:000AD9A4       aUdc_class_rele
 0001:000AD9B8       aMscClassReset
 0001:000AD9C8       aMtpClassReset
 0001:000AD9D8       aPictClassReset
 0001:000AD9EC       aHidClassReset
 0001:000AD9FC       aUvcClassReset
 0001:000ADA0C       aSimpleClassRes
 0001:000ADA20       aCdcAcmClassRes
 0001:000ADA34       aCdcAcmMultiCla
 0001:000ADA50       aStreamClassRes
 0001:000ADA64       aMixStorageClas
 0001:000ADA7C       aWarningNoReset
 0001:000ADAAC       aErrorSNoSystem
 0001:000ADADC       aAmbausb_syst_2
 0001:000ADAF8       aSNotSupportNow
 0001:000ADB48       aDefaultdevices
 0001:000ADB68       aErrorSCanTAllo
 0001:000ADBA8       aDefaultdevic_0
 0001:000ADBC4       aErrorSCanTFree
 0001:000ADBF0       aUdc_vbus_check
 0001:000ADC04       aUsbxAlreadyInC
 0001:000ADC20       aErrorSNoSyst_0
 0001:000ADC50       aEnableUsbIsr
 0001:000ADC60       aUsbxAlreadyDis
 0001:000ADC7C       aDisableUsbIsr
 0001:000ADC8C       aUsbDeviceContr
 0001:000ADCB0       aUdc_vbus_timer
 0001:000ADCC4       aUsbxFailedToCr
 0001:000ADCF0       aUsbxFailedTo_1
 0001:000ADD20       aAmbausbdevicev
 0001:000ADD3C       aErrorSFailedTo
 0001:000ADD74       aAmbausb_syst_0
 0001:000ADD98       aSNullUsbSystem
 0001:000ADDB8       aSNullSystemCac
 0001:000ADDE0       aAmbausb_syst_1
 0001:000ADDFC       aSNullUsbClassC
 0001:000ADE18       aUx_success
 0001:000ADE24       aUx_error
 0001:000ADE30       aUx_too_many_de
 0001:000ADE44       aUx_memory_insu
 0001:000ADE5C       aUx_no_td_avail
 0001:000ADE70       aUx_no_ed_avail
 0001:000ADE84       aUx_semaphore_e
 0001:000ADE98       aUx_thread_erro
 0001:000ADEA8       aUx_mutex_error
 0001:000ADEB8       aUx_event_error
 0001:000ADEC8       aUx_memory_corr
 0001:000ADEDC       aUx_memory_arra
 0001:000ADEF4       aUx_transfer_st
 0001:000ADF08       aUx_transfer_no
 0001:000ADF20       aUx_transfer_er
 0001:000ADF34       aUx_transfer_mi
 0001:000ADF50       aUx_transfer__1
 0001:000ADF68       aUx_transfer_bu
 0001:000ADF80       aUx_transfer__2
 0001:000ADF9C       aUx_transfer_ap
 0001:000ADFBC       aUx_port_reset_
 0001:000ADFD4       aUx_controller_
 0001:000ADFF0       aUx_no_bandwidt
 0001:000AE00C       aUx_descriptor_
 0001:000AE024       aUx_over_curren
 0001:000AE040       aUx_device_enum
 0001:000AE060       aUx_device_hand
 0001:000AE07C       aUx_configurati
 0001:000AE09C       aUx_interface_h
 0001:000AE0B8       aUx_endpoint_ha
 0001:000AE0D4       aUx_function_no
 0001:000AE0F0       aUx_controlle_0
 0001:000AE108       aUx_port_index_
 0001:000AE120       aUx_no_class_ma
 0001:000AE134       aUx_host_class_
 0001:000AE154       aUx_host_clas_0
 0001:000AE16C       aUx_connection_
 0001:000AE188       aUx_host_clas_1
 0001:000AE1A8       aUx_transfer_ti
 0001:000AE1BC       aUx_buffer_over
 0001:000AE1D0       aUx_no_alternat
 0001:000AE1E8       aUx_no_device_c
 0001:000AE200       aUnknown_0
 0001:000AE208       aUnsupportOwner
 0001:000AE224       aClass0xXDoNotS
 0001:000AE250       aClassmsc_media
 0001:000AE264       aSMaxDataLength
 0001:000AE29C       aReadDSectorBut
 0001:000AE2B8       aFailToTakeRead
 0001:000AE2DC       aSReadDSectorBu
 0001:000AE2FC       aReadMediaErr_0
 0001:000AE31C       aWriteDSectorBu
 0001:000AE338       aWriteMediaEr_0
 0001:000AE358       aStatusErrDD
 0001:000AE36C       aDriveDCardIsNo
 0001:000AE390       aAmbausb_clas_1
 0001:000AE3C0       aAmbausb_clas_2
 0001:000AE3F0       aReadcachethrea
 0001:000AE408       aStartReadcache
 0001:000AE424       aWaitMscCacheRe
 0001:000AE44C       aSSdCardReadI_0
 0001:000AE490       aPleaseUseAmb_0
 0001:000AE4EC       aAmbausb_clas_3
 0001:000AE504       aFailedToInit_3
 0001:000AE534       aFinishInitUs_2
 0001:000AE554       aCreateMscmutex
 0001:000AE570       aBulkInBufferSi
 0001:000AE5A0       aFailToCreate_1
 0001:000AE5C8       aFailToClearR_0
 0001:000AE5F0       aSFailToCreateS
 0001:000AE630       aMsc_readcachet
 0001:000AE644       aSFailToCrea_12
 0001:000AE674       aDeleteMscmutex
 0001:000AE690       aFailedToClearU
 0001:000AE6C4       aFinishClearUsb
 0001:000AE6E4       aMtpClassFailTo
 0001:000AE714       aMtpClassFail_0
 0001:000AE748       aMtpClassFail_1
 0001:000AE77C       aMtpreadcacheth
 0001:000AE794       aSFirstReadFail
 0001:000AE7B0       aSReadFailed_
 0001:000AE7C4       aSSdCardReadIsT
 0001:000AE804       aPleaseUseAmbau
 0001:000AE85C       aFailedToRegist
 0001:000AE87C       aPimaEntryRegis
 0001:000AE8A0       aFailToCreateRe
 0001:000AE8C8       aFailToClearRea
 0001:000AE8EC       aMtpreadcache_t
 0001:000AE900       aFailToCreate_0
 0001:000AE928       aMtpClassStart
 0001:000AE938       aFailedToTermin
 0001:000AE960       aFailedToClearM
 0001:000AE984       aFailedToDelete
 0001:000AE9A8       aFailedToDele_0
 0001:000AE9CC       aFailedToClearP
 0001:000AE9E8       aPimaClassClear
 0001:000AEA08       aSNotSupportOpe
 0001:000AEA2C       aUdc_driver_ini
 0001:000AEA3C       aSCanTAllocateD
 0001:000AEA60       aAmbausb_drv_wa
 0001:000AEA84       aSCanTGetIsrQue
 0001:000AEAB4       aSCanTSendIsrRe
 0001:000AEAD8       aUdc_add_isr_op
 0001:000AEAF4       aSTooManyParams
 0001:000AEB10       aAmbausb_drv_en
 0001:000AEB30       aError_0
 0001:000AEB6C       aUsbEndpointPoi
 0001:000AEBD8       aSLogicalEndpoi
 0001:000AEC08       aSReachMaximumE
 0001:000AEC30       aAmbausb_drv__0
 0001:000AEC4C       aSNoMapForLogic
 0001:000AEC74       aUdc_dma_memory
 0001:000AEC94       aSCanTAllocat_1
 0001:000AECD0       aSCanTAllocat_2
 0001:000AED00       aSNoImplForForI
 0001:000AED2C       aSNoImplForFo_0
 0001:000AED58       aSTxfifoSizeDOv
 0001:000AEDA0       aSTxfifoSizeD_0
 0001:000AEDEC       aSRxfifoSizeDOv
 0001:000AEE34       aUdc_dma_memo_0
 0001:000AEE4C       aSBulkInDescIsN
 0001:000AEE68       aSCanTFree0xXSi
 0001:000AEE94       aSBulkOutDescIs
 0001:000AEEB4       aSInterruptInDe
 0001:000AEED8       aEndpoint_destr
 0001:000AEF08       aResetReleaseSe
 0001:000AEF24       aUdc_isr_task_e
 0001:000AEF38       aSCanTReceiveRe
 0001:000AEF60       aClearStallFor0
 0001:000AEF78       aUsbSetInterfac
 0001:000AEF9C       aSUnknownOperat
 0001:000AEFB8       aUsbxNoMemForIs
 0001:000AEFDC       aUsbxUdcIsrQueu
 0001:000AF000       aUdc_isr_queue
 0001:000AF010       aUsbxFailedTo_2
 0001:000AF038       aUsb_rx_mutex
 0001:000AF048       aUsbxFailedTo_3
 0001:000AF070       aAmbausb_isrtas
 0001:000AF080       aFailedToCrea_8
 0001:000AF0A0       aUdc_isr_task_d
 0001:000AF0B8       aErrorSCanTTerm
 0001:000AF0E4       aErrorSCanTDele
 0001:000AF10C       aErrorSCanTDe_0
 0001:000AF134       aErrorSCanTDe_1
 0001:000AF15C       aUsbxConfigured
 0001:000AF184       aUsbxTxBufferPo
 0001:000AF1B4       aAmbausb_drv_se
 0001:000AF1CC       aUsbxRxBufferPo
 0001:000AF1FC       aSDataCountDD_
 0001:000AF218       aUsbxRxfiofioEm
 0001:000AF234       aUsbxAmbausb_dr
 0001:000AF25C       aAmbausb_drv_in
 0001:000AF278       aErrorSCanTInit
 0001:000AF2A8       aUsbxFinishIsrH
 0001:000AF2C8       aFsConfiguratio
 0001:000AF2E8       aHsConfiguratio
 0001:000AF308       aWarningTheInte
 0001:000AF368       aDescriptor_che
 0001:000AF380       aSStringContain
 0001:000AF3B4       aAmbausb_descri
 0001:000AF3D4       aWarningUsbStri
 0001:000AF420       aErrorDescrip_0
 0001:000AF44C       aErrorPositionD
 0001:000AF468       aDpsClientStart
 0001:000AF488       aUsbpictbridget
 0001:000AF49C       aFailToInitClas
 0001:000AF4C0       aFailToReleaseD
 0001:000AF4E4       aFailToTerminat
 0001:000AF50C       aFailToDeleteCl
 0001:000AF530       aDeviceInfoSeem
 0001:000AF550       a1_01_1
 0001:000AF558       aNullCbFunction
 0001:000AF56C       aStream_instanc
 0001:000AF584       aStreamActiveIn
 0001:000AF598       aStream_insta_0
 0001:000AF5B4       aStreamDeactive
 0001:000AF5CC       aStreamnative_i
 0001:000AF5EC       aStreamnativeAc
 0001:000AF608       aStreamnative_0
 0001:000AF628       aStreamnativeDe
 0001:000AF644       aAmbausb_class_
 0001:000AF660       aStreamClass
 0001:000AF670       aFinishInitUs_1
 0001:000AF694       aCreatStreamFla
 0001:000AF6C0       aCreatClassStre
 0001:000AF6EC       aNativeStreamCl
 0001:000AF700       aStreamingFrame
 0001:000AF738       aAmbausb_clas_4
 0001:000AF754       aSFailedToClean
 0001:000AF778       aSStreamClassCl
 0001:000AF794       aNandfs_physimp
 0001:000AF7AC       aK_assertAtSD_8
 0001:000AF7C0       aNandfs_checkfo
 0001:000AF7D4       aNandfs_doinser
 0001:000AF7E4       aNandfs_doeject
 0001:000AF7F4       aPf_unmountFail
 0001:000AF808       aNandfs_checkme
 0001:000AF81C       aNandfs_drvinit
 0001:000AF82C       aNandfs_drvtbli
 0001:000AF840       aNandfs_finaliz
 0001:000AF850       aNandfs_mount
 0001:000AF860       aNandfs_unmount
 0001:000AF870       aNandfs_format
 0001:000AF880       aNandfs_getdisk
 0001:000AF894       aNandfs_init
 0001:000AF8A0       aPdm_open_diskF
 0001:000AF8B8       aPdm_open_parti
 0001:000AF8D4       aAmbafs_nandfor
 0001:000AF8EC       aPf_formatFai_0
 0001:000AF900       aBlcCalibrati_0
 0001:000AF924       aBlcCalibrati_1
 0001:000AF954       aBlackvalueDDDD
 0001:000AF970       aBlockwD
 0001:000AF97C       aBlockhD
 0001:000AF988       aRawpitchD
 0001:000AF998       aRawwidthD
 0001:000AF9A8       aRawheightD
 0001:000AF9B8       aUpperthreshold
 0001:000AF9CC       aLowerthreshold
 0001:000AF9E0       aOboffsetD
 0001:000AF9F0       aAlgotypeD
 0001:000AFA00       aNgVarianceD
 0001:000AFA1C       aFpnIaHwConvBpc
 0001:000AFA3C       aFpnIaHwConvBuf
 0001:000AFA64       aFpnIaHwConvMag
 0001:000AFA8C       aFpnIaHwConvBad
 0001:000AFAC4       aFpnIaHwConvB_0
 0001:000AFB0C       aFpnIaHwConvB_1
 0001:000AFB40       aFpnIaHwConvB_2
 0001:000AFB90       aFpnIaHwConvB_3
 0001:000AFBE4       aFpnIaHwConvB_4
 0001:000AFC34       aBpcMode
 0001:000AFC48       aBadcountD
 0001:000AFC58       aFpnDecompresse
 0001:000AFC94       aFpnIaUnpackedS
 0001:000AFCD4       aNgForDarkCorne
 0001:000AFCF0       aAmpcalib_vigca
 0001:000AFD10       aRawaddrXCapwDC
 0001:000AFD30       aBlcBlackrD
 0001:000AFD40       aErrorUnknownBa
 0001:000AFD60       aK_assertAtS_24
 0001:000AFD74       aChannelDDMaxDM
 0001:000AFD94       aErrRawDataMaxV
 0001:000AFE08       aErrRawDataMinV
 0001:000AFE38       aMaxShadingRati
 0001:000AFE50       aR_gainDB_gainD
 0001:000AFE78       aCalibrationFai
 0001:000AFEAC       aWarpToolAmbaca
 0001:000AFEE0       aNotFoundInte_0
 0001:000AFF14       aNotFoundInte_1
 0001:000AFF34       aDeterminantAF
 0001:000AFF48       aDeterminant0No
 0001:000AFF68       aInverceDDF
 0001:000AFF80       aChDDF
 0001:000AFF90       aOutputU0FF
 0001:000AFFA4       aInputX0FF
 0001:000AFFB8       aOutputU1FF
 0001:000AFFCC       aInputX1FF
 0001:000AFFE0       aOutputU2FF
 0001:000AFFF4       aInputX2FF
 0001:000B0008       aOutputU3FF
 0001:000B001C       aInputX3FF
 0001:000B0030       aHDDF
 0001:000B0040       aWarpToolAmba_0
 0001:000B0074       aPoint_rawD_xFP
 0001:000B00A0       aPoint_inputD_x
 0001:000B00D0       aPoint_outputD_
 0001:000B0100       aNotFoundInte_2
 0001:000B0130       aWb_calNotSuppo
 0001:000B014C       aUser_26
 0001:000B0154       aFiq_26
 0001:000B015C       aIrq_26
 0001:000B0164       aSvc_26
 0001:000B016C       aUk4_26
 0001:000B0174       aUk5_26
 0001:000B017C       aUk6_26
 0001:000B0184       aUk7_26
 0001:000B018C       aUk8_26
 0001:000B0194       aUk9_26
 0001:000B019C       aUk10_26
 0001:000B01A4       aUk11_26
 0001:000B01AC       aUk12_26
 0001:000B01B4       aUk13_26
 0001:000B01BC       aUk14_26
 0001:000B01C4       aUk15_26
 0001:000B01CC       aUser_32
 0001:000B01D4       aFiq_32
 0001:000B01DC       aIrq_32
 0001:000B01E4       aSvc_32
 0001:000B01EC       aUk4_32
 0001:000B01F4       aUk5_32
 0001:000B01FC       aUk6_32
 0001:000B0204       aAbt_32
 0001:000B020C       aUk8_32
 0001:000B0214       aUk9_32
 0001:000B021C       aUk10_32
 0001:000B0224       aUnd_32
 0001:000B022C       aUk12_32
 0001:000B0234       aUk13_32
 0001:000B023C       aUk14_32
 0001:000B0244       aSys_32
 0001:000B024C       aArmUndefinedIn
 0001:000B0278       aArmPrefetchExc
 0001:000B0298       aArmDataAbortEx
 0001:000B02BC       aOopsCpuExcepti
 0001:000B02D4       aPc08lxLr08lx
 0001:000B02F8       aSp08lxIp08lxFp
 0001:000B031C       aR1008lxR908lxR
 0001:000B0340       aR708lxR608lxR5
 0001:000B0364       aR408lxR308lxR2
 0001:000B0388       aR108lxR008lx
 0001:000B03A0       aFlagsCCCC
 0001:000B03B0       aIrqsSFiqsSMode
 0001:000B03CC       aT
 0001:000B03D4       aRoottask
 0001:000B03E0       _pAmbaHwStackSYS
 0001:000B03E4       _pAmbaHwStackSVC
 0001:000B03E8       _pAmbaHwStackIRQ
 0001:000B03EC       _pAmbaHwStackFIQ
 0001:000B03F0       _pAmbaHwStackUND
 0001:000B03F4       _pAmbaHwStackABT
 0001:000B0410       aCmd_code0xX_6
 0001:000B0430       aSensor_input_s
 0001:000B0448       aCmd_code0xX
 0001:000B0464       aSensor_id0xX
 0001:000B0480       aField_format0x
 0001:000B049C       aSensor_resolut
 0001:000B04B8       aSensor_pattern
 0001:000B04D4       aFirst_line_fie
 0001:000B04F0       aFirst_line_f_0
 0001:000B050C       aFirst_line_f_1
 0001:000B0528       aFirst_line_f_2
 0001:000B0544       aFirst_line_f_3
 0001:000B0560       aFirst_line_f_4
 0001:000B057C       aFirst_line_f_5
 0001:000B0598       aFirst_line_f_6
 0001:000B05B4       aSensor_readout
 0001:000B05D0       aCmd_code0xX_9
 0001:000B05E8       aEnable0xX_5
 0001:000B0600       aFixed_pattern_
 0001:000B0624       aCmd_code0xX_0
 0001:000B0648       aFpn_pixel_mode
 0001:000B066C       aRow_gain_enabl
 0001:000B0690       aColumn_gain_en
 0001:000B06B4       aNum_of_rows0xX
 0001:000B06D8       aNum_of_cols0xX
 0001:000B06FC       aFpn_pitch0xX
 0001:000B0720       aFpn_pixels_add
 0001:000B0744       aFpn_pixels_buf
 0001:000B0768       aIntercept_shif
 0001:000B078C       aIntercepts_and
 0001:000B07B0       aRow_gain_addr0
 0001:000B07D4       aColumn_gain_ad
 0001:000B07F8       aCfa_domain_lea
 0001:000B0818       aCmd_code0xX_1
 0001:000B0834       aEnable0xX
 0001:000B0850       aAlpha_rr0xX
 0001:000B086C       aAlpha_rb0xX
 0001:000B0888       aAlpha_br0xX
 0001:000B08A4       aAlpha_bb0xX
 0001:000B08C0       aSaturation_lev
 0001:000B08DC       aAnti_aliasing_
 0001:000B08F0       aCmd_code0xX_2
 0001:000B0904       aEnable0xX_0
 0001:000B0918       aThreshold0xX
 0001:000B092C       aShift0xX
 0001:000B0940       aSet_vin_config
 0001:000B0954       aCmd_code0xX_3
 0001:000B0974       aVin_widthU
 0001:000B0990       aVin_heightU
 0001:000B09AC       aVin_config_dra
 0001:000B09CC       aConfig_data_si
 0001:000B09E8       aSensor_resol_0
 0001:000B0A08       aSensor_bayer_p
 0001:000B0A28       aVin_set_dly0xX
 0001:000B0A48       aVin_enhance_mo
 0001:000B0A68       aVin_panasonic_
 0001:000B0A88       aVinConfigData
 0001:000B0A9C       a08x08x08x08x
 0001:000B0AB4       aCmd_code0xX_17
 0001:000B0AE0       aBlack_level_gl
 0001:000B0B00       aGlobal_offset_
 0001:000B0B24       aGlobal_offse_0
 0001:000B0B48       aGlobal_offse_1
 0001:000B0B6C       aGlobal_offse_2
 0001:000B0B90       aBlack_level_of
 0001:000B0BB4       aBlack_level__0
 0001:000B0BD8       aBlack_level__1
 0001:000B0BFC       aGain_depedent_
 0001:000B0C20       aGain_depeden_0
 0001:000B0C44       aGain_depeden_1
 0001:000B0C68       aDef_blk1_red0x
 0001:000B0C8C       aDef_blk1_green
 0001:000B0CB0       aDef_blk1_blue0
 0001:000B0CD4       aBayer_pattern0
 0001:000B0CF8       aCmd_code0xX_5
 0001:000B0D1C       aRgb_gain_adjus
 0001:000B0D34       aCmd_code0xX_4
 0001:000B0D48       aR_gain0xX
 0001:000B0D5C       aG_even_gain0xX
 0001:000B0D70       aG_odd_gain0xX
 0001:000B0D84       aB_gain0xX
 0001:000B0D98       aDigital_gain_s
 0001:000B0DBC       aLevel_red0xX
 0001:000B0DD8       aLevel_green_ev
 0001:000B0DF4       aLevel_green_od
 0001:000B0E10       aLevel_blue0xX
 0001:000B0E2C       aVignette_compe
 0001:000B0E48       aEnable0xX_1
 0001:000B0E6C       aGain_shift0xX
 0001:000B0E90       aTile_gain_addr
 0001:000B0EB4       aTile_gain_ad_0
 0001:000B0ED8       aTile_gain_ad_1
 0001:000B0EFC       aTile_gain_ad_2
 0001:000B0F20       aLocal_exposure
 0001:000B0F34       aGroup_index0xX
 0001:000B0F54       aEnable0xX_2
 0001:000B0F74       aRadius0xX
 0001:000B0F94       aLuma_weight_re
 0001:000B0FB4       aLuma_weight_gr
 0001:000B0FD4       aLuma_weight_bl
 0001:000B0FF4       aLuma_weight_su
 0001:000B1014       aGain_curve_tab
 0001:000B1034       aLuma_offset0xX
 0001:000B1054       aColor_correcti
 0001:000B106C       aNo_interpolati
 0001:000B108C       aYuv422_foramt0
 0001:000B10AC       aUv_center0xX
 0001:000B10CC       aMulti_red0xX
 0001:000B10EC       aMulti_green0xX
 0001:000B110C       aMulti_blue0xX
 0001:000B112C       aIn_lookup_tabl
 0001:000B114C       aMatrix_addr0xX
 0001:000B116C       aOutput_lookup_
 0001:000B118C       aOut_lookup_tab
 0001:000B11AC       aRgb_to_yuv_set
 0001:000B11C4       aGroup_index0_0
 0001:000B11E0       aMatrix_valuesU
 0001:000B11FC       aY_offsetD
 0001:000B1214       aU_offsetD
 0001:000B122C       aV_offsetD
 0001:000B1244       aChroma_scale_c
 0001:000B1258       aMake_legal0xX
 0001:000B1274       aU_weight_0D
 0001:000B128C       aU_weight_1D
 0001:000B12A4       aU_weight_2D
 0001:000B12BC       aV_weight_0D
 0001:000B12D4       aV_weight_1D
 0001:000B12EC       aV_weight_2D
 0001:000B1304       aGain_curver_ad
 0001:000B1320       aBad_pixel_corr
 0001:000B133C       aCmd_code0xX_7
 0001:000B1368       aDynamic_bad_pi
 0001:000B1394       aDynamic_bad__0
 0001:000B13C0       aCorrection_mod
 0001:000B13EC       aHot_pixel_thre
 0001:000B1418       aDark_pixel_thr
 0001:000B1444       aHot_shift0_40x
 0001:000B1470       aHot_shift50xX
 0001:000B149C       aDark_shift0_40
 0001:000B14C8       aDark_shift50xX
 0001:000B14F4       aCfa_noise_filt
 0001:000B150C       aEnable0xX_3
 0001:000B1528       aMode0xX
 0001:000B1544       aShift_coarse_r
 0001:000B1560       aShift_coarse_0
 0001:000B157C       aShift_fine_rin
 0001:000B1598       aShift_fine_r_0
 0001:000B15B4       aShift_center_r
 0001:000B15D0       aShift_center_g
 0001:000B15EC       aShift_center_b
 0001:000B1608       aTarget_coarse_
 0001:000B1624       aTarget_coars_0
 0001:000B1640       aTarget_coars_1
 0001:000B165C       aTarget_fine_re
 0001:000B1678       aTarget_fine_gr
 0001:000B1694       aTarget_fine_bl
 0001:000B16B0       aCutoff_red0xX
 0001:000B16CC       aCutoff_green0x
 0001:000B16E8       aCutoff_blue0xX
 0001:000B1704       aThresh_coarse_
 0001:000B1720       aThresh_coars_0
 0001:000B173C       aThresh_coars_1
 0001:000B1758       aThresh_fine_re
 0001:000B1774       aThresh_fine_gr
 0001:000B1790       aThresh_fine_bl
 0001:000B17AC       aDemoasic_filte
 0001:000B17C0       aCmd_code0xX_8
 0001:000B17E4       aEnable_correct
 0001:000B1808       aGrgb_mismatch_
 0001:000B182C       aGrgb_mismatc_0
 0001:000B1850       aGroup_index0_1
 0001:000B187C       aEnable0xX_4
 0001:000B18A8       aClamp_directio
 0001:000B18D4       aActivity_thres
 0001:000B1900       aActivity_diffe
 0001:000B192C       aGrad_clip_thre
 0001:000B1958       aGrad_noise_thr
 0001:000B1984       aGrad_noise_dif
 0001:000B19B0       aZipper_noise_d
 0001:000B19DC       aZipper_noise_0
 0001:000B1A08       aMax_const_hue_
 0001:000B1A34       aChroma_noise_f
 0001:000B1A4C       aRadius0xX_0
 0001:000B1A64       aMode0xX_0
 0001:000B1A7C       aThresh_u0xX
 0001:000B1A94       aThresh_v0xX
 0001:000B1AAC       aShift_center_u
 0001:000B1AC4       aShift_center_v
 0001:000B1ADC       aShift_ring10xX
 0001:000B1AF4       aShift_ring20xX
 0001:000B1B0C       aTarget_u0xX
 0001:000B1B24       aTarget_v0xX
 0001:000B1B3C       aChroma_median_
 0001:000B1B58       aK0123_table_ad
 0001:000B1B74       aU_sat_t00xX
 0001:000B1B90       aU_sat_t10xX
 0001:000B1BAC       aV_sat_t00xX
 0001:000B1BC8       aV_sat_t10xX
 0001:000B1BE4       aU_act_t00xX
 0001:000B1C00       aU_act_t10xX
 0001:000B1C1C       aV_act_t00xX
 0001:000B1C38       aV_act_t10xX
 0001:000B1C54       aLuma_sharpenin
 0001:000B1C68       aCmd_code0xX_10
 0001:000B1C90       aGroup_index0_2
 0001:000B1CB8       aEnable0xX_6
 0001:000B1CE0       aUse_generated_
 0001:000B1D08       aInput_b_enable
 0001:000B1D30       aInput_c_enable
 0001:000B1D58       aFirs_input_fro
 0001:000B1D80       aCoring1_input_
 0001:000B1DA8       aAbs0xX
 0001:000B1DD0       aYuv0xX
 0001:000B1DF8       aClip_low0xX
 0001:000B1E20       aClip_high0xX
 0001:000B1E48       aMax_change_dow
 0001:000B1E70       aMax_change_up0
 0001:000B1E98       aMax_change_d_0
 0001:000B1EC0       aMax_change_up_
 0001:000B1EE8       aGrad_thresh_00
 0001:000B1F10       aGrad_thresh_10
 0001:000B1F38       aSmooth_shift0x
 0001:000B1F60       aEdge_shift0xX
 0001:000B1F88       aAlpha_table_ad
 0001:000B1FB0       aWide_weight0xX
 0001:000B1FD8       aNarrow_weight0
 0001:000B2000       aEdge_threshold
 0001:000B2028       aEdge_thresh0xX
 0001:000B2050       aLuma_sharpen_0
 0001:000B2070       aCmd_code0xX_11
 0001:000B208C       aGroup_index0_3
 0001:000B20A8       aEnable_fir10xX
 0001:000B20C4       aEnable_fir20xX
 0001:000B20E0       aAdd_in_non_alp
 0001:000B20FC       aAdd_in_alpha10
 0001:000B2118       aAdd_in_alpha20
 0001:000B2134       aFir1_clip_low0
 0001:000B2150       aFir1_clip_high
 0001:000B216C       aFir2_clip_low0
 0001:000B2188       aFir2_clip_high
 0001:000B21A4       aCoeff_fir1_add
 0001:000B21C0       aCoeff_fir2_add
 0001:000B21DC       aCoring_table_a
 0001:000B21F8       aLuma_sharpen_1
 0001:000B2210       aCmd_code0xX_12
 0001:000B223C       aGroup_index0_4
 0001:000B2268       aEnable0xX_7
 0001:000B2294       aOutput_normal_
 0001:000B22C0       aOutput_low_noi
 0001:000B22EC       aInput_weight_r
 0001:000B2318       aInput_weight_g
 0001:000B2344       aInput_weight_b
 0001:000B2370       aInput_shift_re
 0001:000B239C       aInput_shift_gr
 0001:000B23C8       aInput_shift_bl
 0001:000B23F4       aInput_clip_red
 0001:000B2420       aInput_clip_gre
 0001:000B244C       aInput_clip_blu
 0001:000B2478       aInput_offset_r
 0001:000B24A4       aInput_offset_g
 0001:000B24D0       aInput_offset_b
 0001:000B24FC       aOutput_norma_0
 0001:000B2528       aOutput_norma_1
 0001:000B2554       aOutput_norma_2
 0001:000B2580       aOutput_low_n_0
 0001:000B25AC       aOutput_low_n_1
 0001:000B25D8       aOutput_low_n_2
 0001:000B2604       aOutput_combina
 0001:000B2630       aOutput_combi_0
 0001:000B265C       aTone_curve_add
 0001:000B2688       aPlumasharpenin
 0001:000B26A4       aCmd_code0xX_13
 0001:000B26CC       aGroup_index0_5
 0001:000B26F4       aShift_y0xX
 0001:000B271C       aShift_u0xX
 0001:000B2744       aShift_v0xX
 0001:000B276C       aOffset_y0xX
 0001:000B2794       aOffset_u0xX
 0001:000B27BC       aOffset_v0xX
 0001:000B27E4       aBits_u0xX
 0001:000B280C       aBits_v0xX
 0001:000B2834       aTone_based_3d_
 0001:000B285C       aLuma_sharpen_2
 0001:000B2880       aGroup_index0_6
 0001:000B28A4       aEdge_thresho_0
 0001:000B28C8       aIso_threshold_
 0001:000B28EC       aEdge_thresho_1
 0001:000B2910       aEdge_thresho_2
 0001:000B2934       aDir_threshold0
 0001:000B2958       aDir_threshold1
 0001:000B297C       aIso_threshold0
 0001:000B29A0       aIso_threshold1
 0001:000B29C4       aLuma_sharpen_3
 0001:000B29E8       aCmd_code0xX_14
 0001:000B2A0C       aGroup_index0_7
 0001:000B2A30       aSelect0xX
 0001:000B2A54       aLow0xX
 0001:000B2A78       aLow_00xX
 0001:000B2A9C       aLow_delta0xX
 0001:000B2AC0       aLow_val0xX
 0001:000B2AE4       aHigh0xX
 0001:000B2B08       aHigh_00xX
 0001:000B2B2C       aHigh_delta0xX
 0001:000B2B50       aHigh_val0xX
 0001:000B2B74       aBase_val0xX
 0001:000B2B98       aArea0xX
 0001:000B2BBC       aLevel_control_
 0001:000B2BE0       aLevel_contro_0
 0001:000B2C04       aLevel_contro_1
 0001:000B2C28       aLevel_contro_2
 0001:000B2C4C       aAaa_statistics
 0001:000B2C68       aCmd_code0xX_15
 0001:000B2C88       aOn0xX
 0001:000B2CA8       aAuto_shift0xX
 0001:000B2CC8       aData_fifo_base
 0001:000B2CE8       aData_fifo_limi
 0001:000B2D08       aData_fifo2_bas
 0001:000B2D28       aData_fifo2_lim
 0001:000B2D48       aAwb_tile_num_c
 0001:000B2D68       aAwb_tile_num_r
 0001:000B2D88       aAwb_tile_col_s
 0001:000B2DA8       aAwb_tile_row_s
 0001:000B2DC8       aAwb_tile_width
 0001:000B2DE8       aAwb_tile_heigh
 0001:000B2E08       aAwb_tile_activ
 0001:000B2E28       aAwb_tile_act_0
 0001:000B2E48       aAwb_pix_min_va
 0001:000B2E68       aAwb_pix_max_va
 0001:000B2E88       aAe_tile_num_co
 0001:000B2EA8       aAe_tile_num_ro
 0001:000B2EC8       aAe_tile_col_st
 0001:000B2EE8       aAe_tile_row_st
 0001:000B2F08       aAe_tile_widthU
 0001:000B2F28       aAe_tile_height
 0001:000B2F48       aAe_pix_min_val
 0001:000B2F68       aAe_pix_max_val
 0001:000B2F88       aAf_tile_num_co
 0001:000B2FA8       aAf_tile_num_ro
 0001:000B2FC8       aAf_tile_col_st
 0001:000B2FE8       aAf_tile_row_st
 0001:000B3008       aAf_tile_widthU
 0001:000B3028       aAf_tile_height
 0001:000B3048       aAf_tile_active
 0001:000B3068       aAf_tile_acti_0
 0001:000B3088       aAaa_pseudo_y_s
 0001:000B30A0       aCmd_code0xX_16
 0001:000B30B8       aMode0xX_1
 0001:000B30D0       aSum_shift0xX
 0001:000B30E8       aPixel_weightU0
 0001:000B3104       aTone_curveU0xX
 0001:000B311C       aAaa_statisti_0
 0001:000B3138       aAf_horizontal_
 0001:000B3164       aAf_filter1_sel
 0001:000B3190       aAf_horizonta_0
 0001:000B31BC       aAf_horizonta_1
 0001:000B31E8       aAf_horizonta_2
 0001:000B3214       aAf_horizonta_3
 0001:000B3240       aAf_horizonta_4
 0001:000B326C       aAf_horizonta_5
 0001:000B3298       aAf_horizonta_6
 0001:000B32C4       aAf_vertical_fi
 0001:000B32F0       aAf_tile_fv1_ho
 0001:000B331C       aAf_tile_fv1_ve
 0001:000B3348       aAf_tile_fv1__0
 0001:000B3374       aAf_tile_fv1__1
 0001:000B33A0       aAaa_statisti_1
 0001:000B33BC       aAf_horizonta_7
 0001:000B33E8       aAf_filter2_sel
 0001:000B3414       aAf_horizonta_8
 0001:000B3440       aAf_horizonta_9
 0001:000B346C       aAf_horizont_10
 0001:000B3498       aAf_horizont_11
 0001:000B34C4       aAf_horizont_12
 0001:000B34F0       aAf_horizont_13
 0001:000B351C       aAf_horizont_14
 0001:000B3548       aAf_vertical__0
 0001:000B3574       aAf_tile_fv2_ho
 0001:000B35A0       aAf_tile_fv2_ve
 0001:000B35CC       aAf_tile_fv2__0
 0001:000B35F8       aAf_tile_fv2__1
 0001:000B3624       aAaa_early_wb_g
 0001:000B363C       aRed_multiplier
 0001:000B3660       aGreen_multipli
 0001:000B3684       aGreen_multip_0
 0001:000B36A8       aBlue_multiplie
 0001:000B36CC       aEnable_ae_wb_g
 0001:000B36F0       aEnable_af_wb_g
 0001:000B3714       aEnable_histogr
 0001:000B3738       aRed_wb_multipl
 0001:000B375C       aGreen_wb_multi
 0001:000B3780       aGreen_wb_mul_0
 0001:000B37A4       aBlue_wb_multip
 0001:000B37C8       aAaa_floating_t
 0001:000B37E8       aFrame_sync_id0
 0001:000B380C       aNumber_of_tile
 0001:000B3830       aFloating_tile_
 0001:000B3854       aSet_warp_contr
 0001:000B386C       aCmd_code0xX_18
 0001:000B389C       aWarp_control0x
 0001:000B38CC       aWarp_horizonta
 0001:000B38FC       aWarp_vertical_
 0001:000B392C       aActual_left_to
 0001:000B3958       aActual_left__0
 0001:000B3984       aActual_right_b
 0001:000B39B0       aActual_right_0
 0001:000B39DC       aZoom_x0xX
 0001:000B3A0C       aZoom_y0xX
 0001:000B3A3C       aX_center_offse
 0001:000B3A68       aY_center_offse
 0001:000B3A94       aGrid_array_wid
 0001:000B3AC0       aGrid_array_hei
 0001:000B3AEC       aHorz_grid_spac
 0001:000B3B1C       aVert_grid_spac
 0001:000B3B4C       aVert_warp_enab
 0001:000B3B7C       aVert_warp_grid
 0001:000B3BA8       aVert_warp_gr_0
 0001:000B3BD4       aVert_warp_horz
 0001:000B3C04       aVert_warp_vert
 0001:000B3C34       aForce_v4tap_di
 0001:000B3C64       aHor_skew_phase
 0001:000B3C90       aDummy_window_x
 0001:000B3CBC       aDummy_window_y
 0001:000B3CE8       aDummy_window_w
 0001:000B3D14       aDummy_window_h
 0001:000B3D40       aCfa_output_wid
 0001:000B3D6C       aCfa_output_hei
 0001:000B3D98       aExtra_sec2_ver
 0001:000B3DC8       aChromatic_aber
 0001:000B3DF0       aHorz_warp_enab
 0001:000B3E20       aHorz_pass_grid
 0001:000B3E4C       aHorz_pass_gr_0
 0001:000B3E78       aHorz_pass_horz
 0001:000B3EA8       aHorz_pass_vert
 0001:000B3ED8       aVert_pass_grid
 0001:000B3F04       aVert_pass_gr_0
 0001:000B3F30       aVert_pass_horz
 0001:000B3F60       aVert_pass_vert
 0001:000B3F90       aRed_scale_fact
 0001:000B3FC0       aBlue_scale_fac
 0001:000B3FF0       aDump_idsp_conf
 0001:000B4008       aDram_addr0xX
 0001:000B401C       aDram_sizeU
 0001:000B402C       aMode0xX_2
 0001:000B4040       aBatch_cmd_seq_
 0001:000B4074       aProcess_idsp_b
 0001:000B408C       aIdsp_cmd_buf_a
 0001:000B40A8       aCmd_buf_sizeU
 0001:000B40C0       aBatch_cmd_se_0
 0001:000B40EC       aProcess_idsp_0
 0001:000B410C       aChannel_id0xX
 0001:000B4128       aStream_type0xX
 0001:000B4144       aBatch_cmd_se_1
 0001:000B415C       aErrorDsp_imgco
 0001:000B41A0       aErrorDsp_img_0
 0001:000B41E8       aShutterLineSea
 0001:000B4208       aShutterLineS_0
 0001:000B422C       aSensorStatusFp
 0001:000B425C       aFlickerRate50h
 0001:000B427C       aFlickerRate60h
 0001:000B429C       aAeAlgorithmIni
 0001:000B42C8       aFrameRate3d_
 0001:000B42E8       aAe_init_ev_tab
 0001:000B4300       aSUnit_agc_idxD
 0001:000B435C       aHalfVideo_fram
 0001:000B440C       aFullVideo_fram
 0001:000B47A8       aAe_init_interc
 0001:000B47D4       aNoSupperThisIn
 0001:000B4808       aAeMax_agc_dbEr
 0001:000B482C       aMax_agc_dbDDDD
 0001:000B485C       aMax_dgain_dbDD
 0001:000B4890       aVideo_no5d
 0001:000B48A0       aAe_luma_stat5d
 0001:000B4914       a_ae_control_2_
 0001:000B492C       aAeAlgorithmI_0
 0001:000B496C       a1111AeAlgorith
 0001:000B49A0       aSSceneModeD
 0001:000B49B8       aEv_index5dNf_i
 0001:000B49FC       aMain_fps5dAgc_
 0001:000B4A40       aAmbaAeLib_Revi
 0001:000B4A68       aVin_chg_normal
 0001:000B4A88       aVin_chg_fast
 0001:000B4AA4       aVin_chg_flocke
 0001:000B4AC4       aAdj_aeawbValue
 0001:000B4B54       aAuto_knee5d
 0001:000B4B6C       aDoNotNeedToDoA
 0001:000B4BA4       aAntiFlickerDet
 0001:000B4BD0       aAntiFlickerIsD
 0001:000B4BFC       aAntiFlickerDhz
 0001:000B4C20       aEnableAntiFlic
 0001:000B4C4C       aCanTDoAntiFlic
 0001:000B4C7C       aDisableAntiFli
 0001:000B4CA8       aFocus_distance
 0001:000B4CE0       aStill_flash_po
 0001:000B4D08       aStill_post
 0001:000B4D28       aStill_normal
 0001:000B4D4C       aStill_targetDS
 0001:000B4D78       aShot_countD
 0001:000B4D8C       aStill_luma_idx
 0001:000B4DA8       aEnablePre_flas
 0001:000B4DC0       aEv_index5dNf_0
 0001:000B4E0C       aStill_curr_evi
 0001:000B4E2C       aAe_curr_stepDT
 0001:000B4E64       aEv_index5dAe_t
 0001:000B4EA8       aEv_index5dNf_1
 0001:000B4F08       aPost_ev_index5
 0001:000B4F6C       aVin_numDLv_noD
 0001:000B4F88       aVin_numDLvD
 0001:000B4FA0       aVideoAeMode5dE
 0001:000B5018       aStillAeMode5dE
 0001:000B5090       aLuma_idxDEv_in
 0001:000B50B0       aCurrent_outdoo
 0001:000B50D0       aLvD
 0001:000B50DC       a6d6d6d6d6d6d6d
 0001:000B5104       aIso_cal
 0001:000B510C       aVideo_1
 0001:000B5114       aStill_0
 0001:000B511C       aInfo
 0001:000B5124       aLuma
 0001:000B512C       aStill_iso
 0001:000B5138       aStill_shutter
 0001:000B5148       aStill_iris
 0001:000B5154       a6d6d6d6d
 0001:000B516C       aAaee
 0001:000B5174       aTImgprocAeVide
 0001:000B51A4       aTImgprocAeStil
 0001:000B51D4       aTImgprocAeInfo
 0001:000B5208       aTImgprocAeOnOf
 0001:000B5234       aTImgprocAeLuma
 0001:000B5270       aTImgprocAeExpI
 0001:000B52B8       aMode0Iso
 0001:000B5308       aTImgprocAeSt_0
 0001:000B5334       aTImgprocAeSt_1
 0001:000B5368       aTImgprocAeSt_2
 0001:000B5394       aAmbaimgproc_in
 0001:000B53B4       aSImgparamInitE
 0001:000B53D8       aNoThisAdjTable
 0001:000B53F4       aAmbaimg_adjtas
 0001:000B5410       aSDRval0xXD_1
 0001:000B542C       aAmbaimg_adjt_0
 0001:000B543C       aSS_1
 0001:000B5448       aAdjipfunctmp_a
 0001:000B5464       aAmbaimg_adjt_1
 0001:000B548C       aAmbaimgadjctrl
 0001:000B54A4       aAmbaimg_aetask
 0001:000B54C0       aSDRval0xXD
 0001:000B54DC       aAmbaimg_aeta_0
 0001:000B54EC       aSS
 0001:000B54F8       aAeipfunctmp_ae
 0001:000B5514       aAmbaimgaectrlt
 0001:000B552C       aAmbaimg_awbtas
 0001:000B5548       aSDRval0xXD_0
 0001:000B5564       aAmbaimg_awbt_0
 0001:000B5574       aSS_0
 0001:000B5580       aAwbipfunctmp_a
 0001:000B559C       aAmbaimg_awbt_1
 0001:000B55C4       aAmbaimgawbctrl
 0001:000B55DC       aStillBasicCont
 0001:000B55F4       aBad_pixel5d5d5
 0001:000B5610       aAntialiasing_0
 0001:000B562C       aGbgrmismatch_0
 0001:000B564C       aChromamedian5d
 0001:000B5674       aDemosaic5d5d5d
 0001:000B56A0       aChroma_filter5
 0001:000B56C4       aCdnrmode5dCdnr
 0001:000B56E4       aShpaselect5d
 0001:000B56F4       aSharpena
 0001:000B5700       aSharpenb
 0001:000B570C       aStill_low_iso
 0001:000B571C       aEvindex5d
 0001:000B5730       aNfindex5d
 0001:000B5744       aHisoStillBasic
 0001:000B5764       aHisodefercolor
 0001:000B5780       aS5d5d5d5d5d5d5
 0001:000B57B4       aS_eithermaxcha
 0001:000B5824       aST05d5d5dT15d5
 0001:000B58B4       aS5d5d5d5d5d5_0
 0001:000B591C       aSEnable5d5d5d5
 0001:000B593C       aS5d5d5d5d
 0001:000B5950       aSEnable5d5d5_0
 0001:000B5974       aHisocdnrCdnrmo
 0001:000B59A0       aHisoasf
 0001:000B59A8       aHisohighasf
 0001:000B59B4       aHisomed1asf
 0001:000B59C0       aHisomed2asf
 0001:000B59CC       aHisolowasf
 0001:000B59D8       aHisohighsharp
 0001:000B59E8       aHisomedsharp
 0001:000B59F8       aHisolisharp
 0001:000B5A04       aHisochromaasf
 0001:000B5A14       aHisochromafilt
 0001:000B5A28       aHisochromafi_0
 0001:000B5A40       aHisochromafi_1
 0001:000B5A54       aHisochromafi_2
 0001:000B5A68       aHisochromafi_3
 0001:000B5A80       aHisochromafi_4
 0001:000B5A9C       aHisochromafi_5
 0001:000B5AB8       aHisochromafi_6
 0001:000B5AD4       aHisochromafi_7
 0001:000B5AF0       aHisolumafilter
 0001:000B5B08       aHisolowasfcomb
 0001:000B5B1C       aHisolicombine
 0001:000B5B2C       aHisoli2ndasf
 0001:000B5B3C       aLi2ndsharp
 0001:000B5B48       aAmba_adj_still
 0001:000B5B68       aSStart
 0001:000B5B74       aStill_high_iso
 0001:000B5B88       aSEnd_0
 0001:000B5B94       aAmbaimg_vdsp_h
 0001:000B5BB8       aSDRval0xXSiz_0
 0001:000B5BDC       aAmba_img_reset
 0001:000B5C04       aSChnoDMatrixth
 0001:000B5C34       aWbCalibrationV
 0001:000B5C6C       a_awb_control_2
 0001:000B5C88       aS1ID
 0001:000B5C98       aSD
 0001:000B5CA4       aS2Awb_curr_inf
 0001:000B5CDC       aS2ID
 0001:000B5CEC       aAmbaAwbLib_Rev
 0001:000B5D14       aAe_evidxD
 0001:000B5D2C       aOutdoor_chkD
 0001:000B5D44       aOrg_awb5d5d5d
 0001:000B5D5C       aD75_aCDSD
 0001:000B5D80       aD40_aCDSD
 0001:000B5DA4       aAd_adD
 0001:000B5DBC       aAwbTilesValueE
 0001:000B5E04       aStillAwbDDD
 0001:000B5E20       aLut_no5dSpeed5
 0001:000B5E50       aVin_numDStillA
 0001:000B5E78       aSkip_framesD
 0001:000B5EB4       aPost_still_awb
 0001:000B5EE8       a1Awb_no_whites
 0001:000B5F1C       a2Awb_no_whites
 0001:000B5F50       a5d5d5d
 0001:000B5F5C       aOutdoor_chkD_0
 0001:000B5F70       aWhite_patch_lu
 0001:000B5F88       a6d6d6d6d_0
 0001:000B5F9C       aAwb_white_chk
 0001:000B5FAC       a6d6d6d6d6d6d_0
 0001:000B6074       aStaticUint8Awb
 0001:000B60A4       aStaticUint32Aw
 0001:000B60D0       aStaticUint32_0
 0001:000B60FC       aAwbCalibration
 0001:000B6114       aAwbCalibrati_0
 0001:000B612C       aCal_setting_se
 0001:000B6154       aCal_setting__0
 0001:000B617C       aCal_setting__1
 0001:000B61A4       aCal_setting__2
 0001:000B61CC       aCal_setting__3
 0001:000B61F4       aCal_setting__4
 0001:000B621C       aCal_setting_ta
 0001:000B6244       aCal_setting__5
 0001:000B626C       aCal_setting__6
 0001:000B6294       aCal_setting__7
 0001:000B62BC       aCal_setting__8
 0001:000B62E4       aCal_setting__9
 0001:000B630C       aCal_setting_co
 0001:000B6334       aCal_setting_10
 0001:000B635C       aCal_setting_11
 0001:000B6384       aCal_setting_12
 0001:000B63AC       aCal_setting_13
 0001:000B63D4       aCal_setting_14
 0001:000B63FC       aWhite_lut_no5d
 0001:000B6410       aVideoAwb5d5d5d
 0001:000B642C       aStillAwb5d5d5d
 0001:000B6448       aVideo_2
 0001:000B6450       aStill_1
 0001:000B6458       aInfo_0
 0001:000B6460       aCal_off
 0001:000B6468       aCal_on
 0001:000B6470       aAawwbb
 0001:000B6478       aTImgprocAwbPrt
 0001:000B64AC       aTImgprocAwbVid
 0001:000B64DC       aTImgprocAwbInf
 0001:000B6504       aTImgprocAwbOnO
 0001:000B6530       aIqt_memmgr_ini
 0001:000B6540       aSDRval0xXSiz_1
 0001:000B6560       aIqt_param_init
 0001:000B6584       aSChannelcoun_1
 0001:000B659C       aScene_modeScen
 0001:000B65CC       aScene_modeSc_0
 0001:000B65FC       aScene_modeSc_1
 0001:000B662C       aScene_modeSc_2
 0001:000B665C       aScene_modeSc_3
 0001:000B668C       aScene_modeSc_4
 0001:000B66BC       aScene_modeSc_5
 0001:000B66F0       aScene_modeSc_6
 0001:000B6724       aScene_modeSc_7
 0001:000B6758       aScene_modeSc_8
 0001:000B6788       aScene_modeSc_9
 0001:000B67C0       aScene_modeS_10
 0001:000B67F0       aScene_modeS_11
 0001:000B6824       aScene_modeS_12
 0001:000B6858       aScene_modeS_13
 0001:000B6888       aScene_modeS_14
 0001:000B68BC       aScene_modeS_15
 0001:000B68EC       aScene_modeS_16
 0001:000B6920       aScene_modeS_17
 0001:000B6950       aScene_modeS_18
 0001:000B6984       aScene_modeS_19
 0001:000B69C4       aScene_modeS_20
 0001:000B69F4       aScene_modeS_21
 0001:000B6A28       aScene_modeS_22
 0001:000B6A58       aScene_modeS_23
 0001:000B6A8C       aScene_modeS_24
 0001:000B6ABC       aScene_modeS_25
 0001:000B6AF0       aScene_modeS_26
 0001:000B6B20       aScene_modeS_27
 0001:000B6B50       aScene_modeS_28
 0001:000B6B84       aScene_modeS_29
 0001:000B6BB4       aScene_modeS_30
 0001:000B6BE8       aScene_modeS_31
 0001:000B6C18       aScene_modeS_32
 0001:000B6C50       aScene_modeS_33
 0001:000B6C84       aScene_modeS_34
 0001:000B6CBC       aScene_modeS_35
 0001:000B6CEC       aScene_modeS_36
 0001:000B6D24       aScene_modeS_37
 0001:000B6D54       aScene_modeS_38
 0001:000B6D88       aSc_scene_detec
 0001:000B6D98       aSDD
 0001:000B6DAC       aScene_off3dSce
 0001:000B6DDC       aScene_tv_off3d
 0001:000B6E0C       aScene_sv_off3d
 0001:000B6E3C       aScene_av_only3
 0001:000B6E6C       aScene_night3dS
 0001:000B6EA4       aScene_sports3d
 0001:000B6EDC       aScene_portrait
 0001:000B6F14       aScene_sand_sno
 0001:000B6F4C       aScene_fire_wor
 0001:000B6F88       aScene_back_lig
 0001:000B6FC4       aScene_tripod3d
 0001:000B7000       aScene_macro3dS
 0001:000B703C       aScene_arena3dS
 0001:000B7070       aScene_museum3d
 0001:000B70A4       aScene_children
 0001:000B70D8       aScene_fisheye3
 0001:000B710C       aScene_through_
 0001:000B7140       aScene_photo_fr
 0001:000B7174       aScene_self_por
 0001:000B71A8       aScene_car_dv13
 0001:000B71C8       aScene_auto3d
 0001:000B71E4       a5d5d_2
 0001:000B71EC       aChno5dSum5d
 0001:000B7204       aVideoScene_mod
 0001:000B7234       aStillScene_mod
 0001:000B7250       aVideoCurr_scen
 0001:000B7288       aStillCurr_scen
 0001:000B72A8       aTImgprocScHist
 0001:000B7300       aHisto
 0001:000B7308       aDigital_no_eff
 0001:000B7340       aDigital_sepia3
 0001:000B7378       aDigital_bw3dDi
 0001:000B73B0       aDigital_70film
 0001:000B73E8       aDigital_popart
 0001:000B7420       aDigital_pinhol
 0001:000B7440       aDigitalEffectD
 0001:000B745C       aCfastrDSharpst
 0001:000B7480       aIafdecfashiftD
 0001:000B749C       aIafdesharpenas
 0001:000B74CC       aIafdesharpenab
 0001:000B74F4       aIafdesharpenan
 0001:000B751C       aAdjfunc_a9_mem
 0001:000B7534       aSDRval0xXSiz_2
 0001:000B7554       aAdjfunc_a9_par
 0001:000B756C       aSChannelcoun_2
 0001:000B7584       aCfa5d5d5d5d5d5
 0001:000B75C8       a_adj_chromaasf
 0001:000B75E0       aS_1
 0001:000B75E8       aSEnableD
 0001:000B75FC       a2dS_fir_coef5d
 0001:000B765C       aS_firSpecifySt
 0001:000B76B8       aS_t0t15d5d5d5d
 0001:000B76EC       aS_t0t1div5d5d5
 0001:000B7714       aS_levelstradju
 0001:000B7740       aS_per_dir_fir_
 0001:000B777C       aS_per_dir_fi_0
 0001:000B77B8       aS_per_dir_fi_1
 0001:000B77F4       a_adj_asf_contr
 0001:000B7808       aS_adapt5d5d5d5
 0001:000B7834       aS_levelstrad_0
 0001:000B7868       a_adj_sharp_fil
 0001:000B7884       aSboth5d5d5d5d5
 0001:000B78A8       aScoring5d5d5d5
 0001:000B78D4       aScoringidxscal
 0001:000B7900       aSmincoringresu
 0001:000B792C       aSscalecoring5d
 0001:000B7954       aSn_spa_firSpec
 0001:000B79B4       a2dSn_spa_firco
 0001:000B7A18       aSn_spatfir_per
 0001:000B7A5C       aSn_spatfir_p_0
 0001:000B7AA0       aSn_spatfir_p_1
 0001:000B7AE4       aSn_levelstradj
 0001:000B7B18       aSfirSpecifyStr
 0001:000B7B70       a2dSfir_fircoef
 0001:000B7BD4       aSfir_per_dir_f
 0001:000B7C10       aSfir_per_dir_0
 0001:000B7C50       aSfir_per_dir_1
 0001:000B7C90       aVideo_3
 0001:000B7C98       aPadja9funcpara
 0001:000B7CEC       aNf_index5dBadp
 0001:000B7D14       aNf_index5dChro
 0001:000B7D48       aNf_index5dDemo
 0001:000B7D80       aNf_index5dCfa5
 0001:000B7DD0       aNfindex5dMctfE
 0001:000B7DF0       aNfindex5dMctf_
 0001:000B7E34       aNfindex5dMctfY
 0001:000B7E60       aNf_index5dCh_0
 0001:000B7E7C       a5d5d5d5d5d
 0001:000B7E94       aNfindex5dCdnrm
 0001:000B7EC0       aAntialiasing_1
 0001:000B7EDC       aGbgrmismatch_1
 0001:000B7EF8       aNfindex5dShpas
 0001:000B7F14       aSharpena_0
 0001:000B7F20       aNfindex5dShpab
 0001:000B7F50       aNfindex5dShpac
 0001:000B7F88       aNfindex5dShp_0
 0001:000B7FC4       aNfindex5dShpam
 0001:000B8000       aNfindex5dShp_1
 0001:000B8038       aNfindex5dShpan
 0001:000B80A4       aNfindex5d2dShp
 0001:000B8118       aNfindex5dShp_2
 0001:000B8168       aNfindex5dShp_3
 0001:000B81BC       aNfindex5dShp_4
 0001:000B8210       aNfindex5dShp_5
 0001:000B8254       aNfindex5dShpaf
 0001:000B82BC       aNfindex5d2dS_0
 0001:000B832C       aNfindex5dShp_6
 0001:000B8378       aNfindex5dShp_7
 0001:000B83C4       aNfindex5dShp_8
 0001:000B8410       aSharpenb_0
 0001:000B841C       aNfindex5dShpbb
 0001:000B844C       aNfindex5dShpbc
 0001:000B8484       aNfindex5dShp_9
 0001:000B84C0       aNfindex5dShpbm
 0001:000B84FC       aNfindex5dShpbs
 0001:000B8534       aNfindex5dShpbn
 0001:000B85A0       aNfindex5d2dS_1
 0001:000B8614       aNfindex5dSh_10
 0001:000B8664       aNfindex5dSh_11
 0001:000B86B8       aNfindex5dSh_12
 0001:000B870C       aNfindex5dSh_13
 0001:000B8750       aNfindex5dShpbf
 0001:000B87B8       aNfindex5d2dS_2
 0001:000B8828       aNfindex5dSh_14
 0001:000B886C       aNfindex5dSh_15
 0001:000B88B0       aNfindex5dSh_16
 0001:000B8904       aDmaWaitOverTim
 0001:000B896C       aVcap_setup
 0001:000B8978       aCmd_code0xX_19
 0001:000B898C       aChannel_id0x_0
 0001:000B89B0       aStream_type0_0
 0001:000B89D4       aVid_skipD
 0001:000B89F4       aInput_formatD
 0001:000B8A14       aSensor_idD
 0001:000B8A34       aKeep_statesD
 0001:000B8A54       aInterlaced_out
 0001:000B8A74       aVidcap_wD
 0001:000B8A94       aVidcap_hD
 0001:000B8AB4       aMain_wD
 0001:000B8AD4       aMain_hD
 0001:000B8AF4       aPreview_w_aLcd
 0001:000B8B14       aPreview_h_aLcd
 0001:000B8B34       aInput_center_x
 0001:000B8B58       aInput_center_y
 0001:000B8B7C       aZoom_factor_x0
 0001:000B8BA0       aZoom_factor_y0
 0001:000B8BC4       aCmdreaddlyD
 0001:000B8BE4       aSensor_reado_0
 0001:000B8C08       aNoise_filter_s
 0001:000B8C28       aMctf_chanD
 0001:000B8C48       aMcts_chanD
 0001:000B8C68       aCc_enD
 0001:000B8C88       aCmpr_enD
 0001:000B8CA8       aCmpr_ditherD
 0001:000B8CC8       aModeD
 0001:000B8CE8       aImage_stabiliz
 0001:000B8D08       aBit_resolution
 0001:000B8D28       aBayer_patter_1
 0001:000B8D48       aPreview_format
 0001:000B8D68       aPreview_form_0
 0001:000B8D88       aNo_pipelineflu
 0001:000B8DA8       aPreview_frame_
 0001:000B8DC8       aPreview_w_bTv_
 0001:000B8DE8       aPreview_h_bTv_
 0001:000B8E08       aPreview_fram_0
 0001:000B8E28       aPreview_a_stop
 0001:000B8E48       aPreview_a_srcD
 0001:000B8E68       aPreview_b_srcD
 0001:000B8E88       aPreview_b_stop
 0001:000B8EA8       aNum_of_prevs_x
 0001:000B8EC8       aNum_of_prevs_y
 0001:000B8EE8       aPrev_a_destD
 0001:000B8F08       aPrev_b_destD
 0001:000B8F28       aPrev_c_destD
 0001:000B8F48       aAllow_no_hiso_
 0001:000B8F68       aNum_raw_buffer
 0001:000B8F88       aVin_frame_rate
 0001:000B8FA8       aVout_frame_rat
 0001:000B8FC8       aPip_wD
 0001:000B8FE8       aPip_hD
 0001:000B9008       aVcap_cmd_msg_d
 0001:000B9028       aPip_frame_dec_
 0001:000B9048       aVin_frame_ra_0
 0001:000B9068       aVout_frame_r_0
 0001:000B9088       aPts_deltaD
 0001:000B90A8       aVideo_delay_mo
 0001:000B90C8       aVproc_low_dela
 0001:000B90E8       aMax_hiso_wD
 0001:000B9108       aMax_hiso_hD
 0001:000B9128       aEis_update_add
 0001:000B914C       aBbar_sz_mbsD
 0001:000B916C       aNum_streamsD
 0001:000B918C       aDigital_effect
 0001:000B91AC       aPreview_src_w_
 0001:000B91CC       aPreview_src_h_
 0001:000B91EC       aPreview_src_x_
 0001:000B920C       aPreview_src_y_
 0001:000B922C       aMain_w_extraD
 0001:000B924C       aPip_dram_wD
 0001:000B926C       aPip_dram_hD
 0001:000B928C       aSec_2_out_extr
 0001:000B92AC       aVwarp_blk_hD
 0001:000B92CC       aDelay_linesD
 0001:000B92EC       aVcap_cmd_req_a
 0001:000B930C       aNo_h264_encode
 0001:000B932C       aEnable_sec1_ra
 0001:000B934C       aVin_vout_vsync
 0001:000B936C       aSec3_input_wai
 0001:000B938C       aRaw_capture_re
 0001:000B93B0       aVcap_prev_setu
 0001:000B93C0       aPreview_idD
 0001:000B93DC       aPreview_form_1
 0001:000B93F8       aPreview_wD
 0001:000B9414       aPreview_hD
 0001:000B9430       aPreview_fram_1
 0001:000B944C       aPreview_srcD
 0001:000B9468       aPreview_stopD
 0001:000B9484       aPreview_destD
 0001:000B94A0       aPreview_src_wD
 0001:000B94BC       aPreview_src_hD
 0001:000B94D8       aPreview_src__0
 0001:000B94F4       aPreview_src__1
 0001:000B9510       aCmd_vcap_mctf_
 0001:000B9528       aCmd_code0xX_20
 0001:000B954C       aNoise_filter_0
 0001:000B9570       aMctf_chan0xX
 0001:000B9594       aMcts_chan0xX
 0001:000B95B8       aCc_en0xX
 0001:000B95DC       aCmpr_en0xX
 0001:000B9600       aCmpr_dither0xX
 0001:000B9624       aMode0xX_3
 0001:000B9648       aImage_stabil_0
 0001:000B966C       aBitrate_y0xX
 0001:000B9690       aBitrate_uv0xX
 0001:000B96B4       aUse_zmv_as_pre
 0001:000B96D8       aReserved0xX
 0001:000B96FC       aMctf_cfg_dbase
 0001:000B9720       aCc_cfg_dbase0x
 0001:000B9744       aCmpr_cfg_dbase
 0001:000B9768       aLoadcfg_type0x
 0001:000B978C       aVcap_mctf_mv_s
 0001:000B97AC       aMctf_config_up
 0001:000B97CC       aMctf_hist_upda
 0001:000B97EC       aMctf_curves_up
 0001:000B980C       aMcts_config_up
 0001:000B982C       aShpb_config_up
 0001:000B984C       aShpc_config_up
 0001:000B986C       aShpb_fir1_upda
 0001:000B988C       aShpb_fir2_upda
 0001:000B98AC       aShpc_fir1_upda
 0001:000B98CC       aShpc_fir2_upda
 0001:000B98EC       aShpb_alphas_up
 0001:000B990C       aShpc_alphas_up
 0001:000B992C       aTone_hist_upda
 0001:000B994C       aShpb_coring1_u
 0001:000B996C       aShpc_coring1_u
 0001:000B998C       aShpb_coring2_u
 0001:000B99AC       aShpb_linear_up
 0001:000B99CC       aShpc_linear_up
 0001:000B99EC       aShpb_inv_linea
 0001:000B9A0C       aShpc_inv_linea
 0001:000B9A2C       aMctf_3d_level_
 0001:000B9A4C       aShpb_3d_level_
 0001:000B9A6C       aCc_config_upda
 0001:000B9A8C       aCc_input_table
 0001:000B9AAC       aCc_output_tabl
 0001:000B9ACC       aCc_3d_table_up
 0001:000B9AEC       aCc_matrix_upda
 0001:000B9B0C       aCc_blend_input
 0001:000B9B2C       aCmpr_all_updat
 0001:000B9B4C       aMctf_mcts_all_
 0001:000B9B6C       aCc_all_updateD
 0001:000B9B8C       aVcap_tmr_mode
 0001:000B9B9C       aTimer_scalerD
 0001:000B9BB4       aDisplay_optD
 0001:000B9BCC       aVideo_term_opt
 0001:000B9BE4       aVdsp1_int_optD
 0001:000B9BFC       aVcap_still_cap
 0001:000B9C14       aChannel_idD
 0001:000B9C3C       aStream_typeD
 0001:000B9C64       aMain_jpg_wD
 0001:000B9C8C       aMain_jpg_hD
 0001:000B9CB4       aEncode_jpg_wD
 0001:000B9CDC       aEncode_jpg_hD
 0001:000B9D04       aEncode_x_ctr_o
 0001:000B9D2C       aEncode_y_ctr_o
 0001:000B9D54       aThumbnail_w_ac
 0001:000B9D7C       aThumbnail_h_ac
 0001:000B9DA4       aThumbnail_w_dr
 0001:000B9DCC       aThumbnail_h_dr
 0001:000B9DF4       aBlank_period_d
 0001:000B9E20       aIs_use_compact
 0001:000B9E48       aScreen_thumbna
 0001:000B9E70       aScreen_thumb_0
 0001:000B9E98       aScreen_thumb_1
 0001:000B9EC0       aScreen_thumb_2
 0001:000B9EE8       aThumb_blank_pe
 0001:000B9F14       aScreen_nail_bl
 0001:000B9F40       aSn_srcD
 0001:000B9F68       aTn_srcD
 0001:000B9F90       aSkipfrmD
 0001:000B9FB8       aSkip_mainD
 0001:000B9FE0       aSkipfrm_snD
 0001:000BA008       aSkipfrm_tnD
 0001:000BA030       aIdsp_cfg_addr_
 0001:000BA058       aIdsp_cfg_addr0
 0001:000BA084       aInput_typeD
 0001:000BA0AC       aIso_processing
 0001:000BA0D4       aIs_foreground_
 0001:000BA0FC       aSkip_jpg_mainD
 0001:000BA124       aSkip_jpg_snD
 0001:000BA14C       aSkip_jpg_tnD
 0001:000BA174       aExternal_input
 0001:000BA1A0       aExternal_inp_0
 0001:000BA1C8       aExternal_inp_1
 0001:000BA1F0       aExternal_inp_2
 0001:000BA218       aExternal_inp_3
 0001:000BA240       aExternal_inp_4
 0001:000BA268       aExternal_inp_5
 0001:000BA290       aExternal_inp_6
 0001:000BA2B8       aExternal_inp_7
 0001:000BA2E0       aExternal_inp_8
 0001:000BA308       aIs_me1_outputD
 0001:000BA330       aOutput_buf_cnt
 0001:000BA358       aOutput_coding_
 0001:000BA380       aLiso_hiso_cfg_
 0001:000BA3AC       aMain_jpg_activ
 0001:000BA3D4       aMain_jpg_act_0
 0001:000BA3FC       aVcap_interval_
 0001:000BA410       aChannel_id0x_1
 0001:000BA424       aStream_type0_1
 0001:000BA438       aMode0xX_4
 0001:000BA448       aInterval_cap_a
 0001:000BA464       aFrames_to_cap0
 0001:000BA47C       aVcap_repeat_dr
 0001:000BA490       aChannel_idD_0
 0001:000BA4A4       aStream_typeD_0
 0001:000BA4B8       aMode_selD
 0001:000BA4CC       aFrame_cntD
 0001:000BA4E0       aVcap_slow_shut
 0001:000BA4F4       aSlow_shutter_u
 0001:000BA518       aVcap_osd_blend
 0001:000BA528       aChannel_idD_1
 0001:000BA53C       aStream_typeD_1
 0001:000BA550       aEnableD_4
 0001:000BA564       aArea_idD
 0001:000BA578       aSync_encD
 0001:000BA58C       aOsd_addr_y0xX
 0001:000BA5A4       aOsd_addr_uv0xX
 0001:000BA5BC       aAlpha_addr_y0x
 0001:000BA5D4       aAlpha_addr_uv0
 0001:000BA5EC       aOsd_widthD
 0001:000BA600       aOsd_pitchD
 0001:000BA614       aOsd_heightD
 0001:000BA628       aOsd_start_xD
 0001:000BA63C       aOsd_start_yD
 0001:000BA650       aVcap_mctf_gmv
 0001:000BA660       aEnable0xX_8
 0001:000BA670       aGmv0xX
 0001:000BA67C       aStill_send_inp
 0001:000BA694       aCmd_code0xX_21
 0001:000BA6B0       aChannel_idD_2
 0001:000BA6CC       aStream_type0_2
 0001:000BA6E8       aRaw_compressio
 0001:000BA704       aStop_controlD
 0001:000BA720       aInput_typeD_0
 0001:000BA73C       aNum_fbD
 0001:000BA758       aFb_idDD
 0001:000BA774       aBlend_alphaDD
 0001:000BA790       aBlend_fb_idDD
 0001:000BA7AC       aBlend_out_fb_i
 0001:000BA7C8       aVcap_set_senso
 0001:000BA7E4       aChannel_idD_3
 0001:000BA800       aStream_typeD_2
 0001:000BA81C       aVideo_framerat
 0001:000BA838       aFramerateD
 0001:000BA854       aBitrateD
 0001:000BA870       aPts_deltaD_0
 0001:000BA88C       aVcap_cmd_msg_0
 0001:000BA8A8       aPip_frame_de_0
 0001:000BA8C4       aVcap_hv_flip_c
 0001:000BA8D8       aHor_flip0xX
 0001:000BA8EC       aVer_flip0xX
 0001:000BA900       aVcap_set_video
 0001:000BA918       aChannel_idD_4
 0001:000BA930       aStream_typeD_3
 0001:000BA948       aMemory_typeD
 0001:000BA960       aAllocation_typ
 0001:000BA978       aNum_frm_bufD
 0001:000BA990       aBuf_widthD
 0001:000BA9A8       aBuf_heightD
 0001:000BA9C0       aLu_img_widthD
 0001:000BA9D8       aLu_img_heightD
 0001:000BA9F0       aLu_img_row_ofs
 0001:000BAA08       aLu_img_col_ofs
 0001:000BAA20       aCh_img_row_ofs
 0001:000BAA38       aCh_img_col_ofs
 0001:000BAA50       aChroma_formatD
 0001:000BAA68       aColocate_typeD
 0001:000BAA80       aAllocation_mod
 0001:000BAA98       aOverflow_cntlD
 0001:000BAAB0       aBuf_addr0xX
 0001:000BAAC8       aPool_buf_num0x
 0001:000BAAE0       aVcap_initiate_
 0001:000BAB04       aChannel_idD_5
 0001:000BAB1C       aStream_typeD_4
 0001:000BAB34       aMemory_typeD_0
 0001:000BAB4C       aStop_condition
 0001:000BAB64       aRaw_cap_compre
 0001:000BAB84       aRaw_cap_skip_c
 0001:000BABA4       aRaw_cap_done_s
 0001:000BABC4       aRaw_buffer_pro
 0001:000BABE4       aRaw_cap_sync_e
 0001:000BAC04       aVideo_jpeg_enc
 0001:000BAC1C       aChroma_forma_0
 0001:000BAC38       aBuf_widthD_0
 0001:000BAC54       aBuf_heightD_0
 0001:000BAC70       aLuma_img_width
 0001:000BAC8C       aLuma_img_heigh
 0001:000BACA8       aLuma_img_row_o
 0001:000BACC4       aLuma_img_col_o
 0001:000BACE0       aChroma_img_row
 0001:000BACFC       aChroma_img_col
 0001:000BAD18       aBuf_daddr0xX
 0001:000BAD38       aChannel_idD_6
 0001:000BAD4C       aVcap_send_inpu
 0001:000BAD64       aRaw_compress_0
 0001:000BAD80       aStop_control_0
 0001:000BAD94       aInput_typeD_1
 0001:000BADA8       aNum_fbLd
 0001:000BADB8       aFb_idLdLdLdLd
 0001:000BADD8       aBlend_alphLdLd
 0001:000BADFC       aBlend_fb_idLdL
 0001:000BAE20       aBlend_out_fb_0
 0001:000BAE48       aCmd_vcap_th_re
 0001:000BAE5C       aInit_skip_cntD
 0001:000BAE78       aVid_cap_wD
 0001:000BAE94       aVid_cap_hD
 0001:000BAEB0       aRaw_buffer_des
 0001:000BAECC       aCmd_vcap_video
 0001:000BAEEC       aChannel_idD_7
 0001:000BAF08       aStream_typeD_5
 0001:000BAF24       aModeD_0
 0001:000BAF40       aSrc_addr0xX
 0001:000BAF60       aSrc_widthD
 0001:000BAF7C       aSrc_heightD
 0001:000BAF98       aSrc_pitchD
 0001:000BAFB4       aSrc_comprD
 0001:000BAFD0       aIdsp_cfg_add_0
 0001:000BAFEC       aIdsp_cfg_add_1
 0001:000BB00C       aClean_raw_dst_
 0001:000BB02C       aClean_raw_ds_0
 0001:000BB048       aClean_raw_ds_1
 0001:000BB064       aClean_raw_ds_2
 0001:000BB080       aClean_raw_ds_3
 0001:000BB09C       aCmd_vcap_set_a
 0001:000BB0B4       aSource_vinD
 0001:000BB0CC       aOut_channel_id
 0001:000BB0E4       aActive_idcD
 0001:000BB0FC       aProc_idD
 0001:000BB114       aInput_x_ofsD
 0001:000BB12C       aInput_y_ofsD
 0001:000BB144       aInput_widthD
 0001:000BB15C       aInput_heightD
 0001:000BB174       aMain_widthD
 0001:000BB18C       aMain_heightD
 0001:000BB1A4       aPip_widthD
 0001:000BB1BC       aPip_heightD
 0001:000BB1D4       aPrev_0_widthD
 0001:000BB1EC       aPrev_0_heightD
 0001:000BB204       aPrev_1_widthD
 0001:000BB21C       aPrev_1_heightD
 0001:000BB234       aFlip_cntlD
 0001:000BB250       aNoise_filter_1
 0001:000BB26C       aMctf_chanD_0
 0001:000BB288       aMcts_chanD_0
 0001:000BB2A4       aCc_enD_0
 0001:000BB2C0       aCmpr_enD_0
 0001:000BB2DC       aCmpr_ditherD_0
 0001:000BB2F8       aModeD_1
 0001:000BB314       aEnable_quick_p
 0001:000BB330       aMain_output_de
 0001:000BB34C       aPrev_a_output_
 0001:000BB368       aPrev_b_output_
 0001:000BB384       aPrev_c_output_
 0001:000BB3A0       aCmd_vcap_multi
 0001:000BB3BC       aEncoder_idD
 0001:000BB3DC       aProc_idD_0
 0001:000BB3FC       aOutput_destina
 0001:000BB41C       aOutput_channel
 0001:000BB43C       aOutput_stream_
 0001:000BB45C       aPostproc_typeD
 0001:000BB47C       aNum_of_inputsD
 0001:000BB49C       aInput_pp_cfg_a
 0001:000BB4C8       aInput_channel_
 0001:000BB4F4       aInput_stream_n
 0001:000BB520       aOutput_x_ofsD
 0001:000BB54C       aOutput_y_ofsD
 0001:000BB578       aOutuput_widthD
 0001:000BB5A4       aOutput_heightD
 0001:000BB5D0       aOutput_buf_idD
 0001:000BB5FC       aIs_r2y_dir_pas
 0001:000BB628       aIs_using_defau
 0001:000BB654       aIs_using_y2y_s
 0001:000BB680       aIs_rotateD
 0001:000BB6AC       aIs_using_blend
 0001:000BB6D8       aIs_blending_ou
 0001:000BB704       aIs_rotate_2nd_
 0001:000BB730       aY2y_idsp_cmd_b
 0001:000BB75C       aY2y_or_first_b
 0001:000BB788       aY2y_or_first_0
 0001:000BB7B4       aY2y_or_first_1
 0001:000BB7E0       aSecond_blendin
 0001:000BB80C       aSecond_blend_0
 0001:000BB838       aSecond_blend_1
 0001:000BB864       aY2y_or_blendin
 0001:000BB890       aY2y_or_blend_0
 0001:000BB8BC       aY2y_or_blend_1
 0001:000BB8E8       aY2y_or_blend_2
 0001:000BB914       aY2y_or_blend_3
 0001:000BB940       aY2y_or_blend_4
 0001:000BB96C       aY2y_or_blend_5
 0001:000BB998       aIs_alpha_strea
 0001:000BB9C4       aAlpha_luma_val
 0001:000BB9F0       aAlpha_u_valueD
 0001:000BBA1C       aAlpha_v_valueD
 0001:000BBA48       aAlpha_luma_dra
 0001:000BBA74       aAlpha_chroma_d
 0001:000BBAA0       aCmd_vcap_set_t
 0001:000BBAC8       aCmd_code0xX_22
 0001:000BBAE8       aVin_idD
 0001:000BBB08       aNum_time_muxed
 0001:000BBB28       aChan_dest_arra
 0001:000BBB70       aPdm_init_diskm
 0001:000BBB8C       aPf_init_prfile
 0001:000BBBA4       aPf_attachFaile
 0001:000BBBC0       aExfat_3
 0001:000BBBCC       aFat32_4
 0001:000BBBD8       aMswin4_1
 0001:000BBBE4       aNoName
 0001:000BBBF0       aFat12_2
 0001:000BBBFC       aFat16_3
 0001:000BBC08       aAmbafs_createf
 0001:000BBC1C       aK_assertAtSD_4
 0001:000BBC30       aCreatesystemar
 0001:000BBC44       aAmbafs_createb
 0001:000BBC5C       aCreateupcaseta
 0001:000BBC70       aFat12
 0001:000BBC78       aFat12_0
 0001:000BBC80       aFat12CanTSuppo
 0001:000BBCA8       aFat16
 0001:000BBCB0       aFat16_0
 0001:000BBCB8       aFat16CanTSuppo
 0001:000BBCE0       aFat32
 0001:000BBCE8       aFat32_0
 0001:000BBCF0       aFat32CanTSuppo
 0001:000BBD18       aExfat
 0001:000BBD20       aExfat_0
 0001:000BBD28       aExfatCanTSuppo
 0001:000BBD50       aLowLevel1Forma
 0001:000BBD6C       aLowLevel2Forma
 0001:000BBD88       aLowLevel3Forma
 0001:000BBDA4       aSpcValueD
 0001:000BBDB4       aInvalidSecperc
 0001:000BBDD0       aBootsecValueD
 0001:000BBDE4       aCanTSupportThi
 0001:000BBE14       aCanTSupportT_0
 0001:000BBE40       aFlprf2format_d
 0001:000BBE5C       aFl2prf2format_
 0001:000BBE78       aSd1prf2format_
 0001:000BBE94       aSd2prf2format_
 0001:000BBFA0       aRpdev_clockset
 0001:000BBFB0       aSSetDClockIsNo
 0001:000BBFD4       aSSetDClockFail
 0001:000BBFF0       aAmbaipc_clocki
 0001:000BC004       aAmbarpdev_clk
 0001:000BC014       aSAmbaipc_alloc
 0001:000BC044       aErrorDsp_im_98
 0001:000BC098       aErrorDsp_img_1
 0001:000BC0EC       aErrorDsp_im_74
 0001:000BC134       aErrorDsp_im_75
 0001:000BC17C       aDsp_imgcorepro
 0001:000BC1A4       aErrorPmodePi_1
 0001:000BC1BC       aSWarp_controlD
 0001:000BC1FC       aTransformedHor
 0001:000BC228       aUseLogicalMap
 0001:000BC238       aUsePhysicalMap
 0001:000BC24C       aTransformedVer
 0001:000BC278       aDsp_imgcorep_0
 0001:000BC294       aS_5
 0001:000BC29C       aErrorPcalibinf
 0001:000BC2EC       aDsp_imgcorep_1
 0001:000BC30C       aSThetaF
 0001:000BC320       aErrorPwarpcalc
 0001:000BC374       aDsp_imgwarpget
 0001:000BC38C       aErrorDsp_imgwa
 0001:000BC3C0       aDsp_imgwarpgen
 0001:000BC3DC       aSWDHDTweDTheD
 0001:000BC3FC       aErrorCalcGridN
 0001:000BC438       aDsp_imgcorep_2
 0001:000BC460       aSThetaFWarpenb
 0001:000BC498       aErrorDsp_im_92
 0001:000BC4E8       aErrorDsp_im_93
 0001:000BC560       aErrorUnknownFi
 0001:000BC57C       aErrorUnknown_0
 0001:000BC598       a2d_0
 0001:000BC5A0       aLinear_then_ga
 0001:000BC5BC       aGammaFLinear_t
 0001:000BE9B8       aErrorShp_mod_1
 0001:000BE9EC       aErrorShp_modeS
 0001:000BEA20       aErrorShp_mod_0
 0001:000BEB74       aErrorDsp_img_9
 0001:000BEBC0       aErrorDsp_im_10
 0001:000BEC10       aWarning_Inco_2
 0001:000BEC50       aErrorDsp_img_3
 0001:000BEC9C       aErrorDsp_img_4
 0001:000BECEC       aErrorDsp_im_11
 0001:000BED40       aErrorDsp_im_12
 0001:000BED94       aWarning_Invali
 0001:000BEDC4       aSensorWindowOf
 0001:000BEDFC       aSensorWindow_0
 0001:000BEE28       aErrorDsp_im_96
 0001:000BEE7C       aErrorDsp_im_97
 0001:000BEED0       aErrorDsp_img_7
 0001:000BEF1C       aErrorDsp_img_8
 0001:000BEF68       aWarning_Inco_1
 0001:000BEF88       aErrorDsp_im_90
 0001:000BEFD0       aErrorDsp_im_91
 0001:000BF018       aDeleting
 0001:000BF024       aSyntaxError
 0001:000BF034       aErrorDiscardin
 0001:000BF048       aErrorPopping
 0001:000BF058       aMemoryExhauste
 0001:000BF06C       aCleanupDiscard
 0001:000BF08C       aCleanupPopping
 0001:000BF0A0       aLineDSS
 0001:000BF0B4       aCannotLoadFile
 0001:000BF0CC       aCannotLoadText
 0001:000BF0E0       aAmbashell_cmdm
 0001:000BF0F4       aSInputCmdNumbe
 0001:000BF464       aHelp_3
 0001:000BF46C       aEcho
 0001:000BF474       aDmesg
 0001:000BF47C       aSleep
 0001:000BF484       aReadb
 0001:000BF48C       aReadl
 0001:000BF494       aReadw
 0001:000BF49C       aWriteb
 0001:000BF4A4       aWritel
 0001:000BF4AC       aWritew
 0001:000BF4B4       aNftl
 0001:000BF4BC       aPs
 0001:000BF4C0       aSuspend_1
 0001:000BF4C8       aDate_0
 0001:000BF4D0       aFirmfl
 0001:000BF4D8       aCd
 0001:000BF4DC       aLs
 0001:000BF4E0       aFormat_0
 0001:000BF4E8       aReboot_0
 0001:000BF4F0       aCardmgr
 0001:000BF4F8       aVol
 0001:000BF4FC       aTrue
 0001:000BF504       aMkdir
 0001:000BF50C       aPwd
 0001:000BF510       aChmod
 0001:000BF518       aCat
 0001:000BF51C       aRm
 0001:000BF520       aCleandir
 0001:000BF52C       aSavebin_0
 0001:000BF534       aUnterminatedSt
 0001:000BF548       aFatalFlexScann
 0001:000BF57C       aFatalFlexSca_0
 0001:000BF5B4       aFatalErrorScan
 0001:000BF5E0       aOutOfDynamic_1
 0001:000BF610       aFlexScannerPus
 0001:000BF630       aOutOfDynamicMe
 0001:000BF65C       aOutOfDynamic_0
 0001:000BF690       aK_assertAtS_23
 0001:000BF6A4       aMy_yyinput
 0001:000BF6B0       aSTotalInputCmd
 0001:000BF6E4       aMy_fatal_error
 0001:000BFDF0       aGlyphDict
 0001:000C0834       aRomfs
 0001:000C083C       aProclsinitOutO
 0001:000C0858       aProcquickstatO
 0001:000C0874       aProcreadgetbuf
 0001:000C0888       aVfsTooMuchPage
 0001:000C08A8       aSAmbakal_event
 0001:000C08D0       aSAmbakal_eve_0
 0001:000C08F8       aSAmbakal_msgqu
 0001:000C0920       aProcreadscatte
 0001:000C0930       aProcgather
 0001:000C093C       aVfsTooMuchPa_0
 0001:000C0960       aProcwrite
 0001:000C096C       aProcwriteError
 0001:000C0988       aProcwriteErr_0
 0001:000C09B4       aRenameSToSFail
 0001:000C09E0       aRenameFailed
 0001:000C09F8       aIgnoreUnknownP
 0001:000C0A10       aAmbaipc_vfsini
 0001:000C0A20       aFailedToCrea_0
 0001:000C0A44       aFailedToCrea_1
 0001:000C0A6C       aFailedToCrea_2
 0001:000C0A98       aFailedToMalloc
 0001:000C0AC8       aAmbaipc_vfs_op
 0001:000C0AD8       aFailedToCrea_3
 0001:000C0AFC       aFailedToMall_0
 0001:000C0B30       aAmbaipc_vfs_sg
 0001:000C0B40       aFailedToCrea_4
 0001:000C0B6C       aFailedToCrea_5
 0001:000C0B9C       aAipc_vfs
 0001:000C0BA8       aSAmbaipc_all_1
 0001:000C0BC4       aAmbalinkReserv
 0001:000C0BE8       aAmbalink_atagi
 0001:000C0BFC       aAmbalink_mallo
 0001:000C0C14       aGetPartitionTa
 0001:000C0C30       aK_assertAtS_18
 0001:000C0C44       aAmbalinkAtag0x
 0001:000C0C68       aAmbalinkMem0x0
 0001:000C0C8C       aAmbalinkRev0x0
 0001:000C0CA8       aAmbalinkWifi08
 0001:000C0CC8       aAmbalinkPpm20x
 0001:000C0CE8       aAmbalinkCmdlin
 0001:000C0D00       aLoad_1
 0001:000C0D08       aSensor_2
 0001:000C0D10       aSystem
 0001:000C0D18       aFrmCmdLoad
 0001:000C0D30       aVringDPPP
 0001:000C0D44       aRpc_lu_msgfw_1
 0001:000C0D58       aRpc_lu_msgfw_i
 0001:000C0D6C       aRpc_lu_msgfw_0
 0001:000C0D88       aSCientCreation
 0001:000C0DA4       aRpc_lu_msgfw_2
 0001:000C0DBC       aRpc_lu_msgfw_3
 0001:000C0DD0       aSAmbaipc_cli_0
 0001:000C0DF4       aR_msgfw_send_f
 0001:000C0E0C       aRpc_r_msgfw_in
 0001:000C0E20       aSInvalidStackI
 0001:000C0E54       aI_msgfw_svc
 0001:000C0E60       aSAmbaipc_svcre
 0001:000C0E8C       aSdsetcmdreg
 0001:000C0E98       aK_assertAtSD_6
 0001:000C0EAC       aAmbartsl_sdwri
 0001:000C0EC4       aAmbartsl_sdrea
 0001:000C0ED8       aAmbartsl_sdsen
 0001:000C0EEC       aAmbartsl_sdset
 0001:000C0F00       aSdClockSourceF
 0001:000C0F24       aSdcalcclkForSd
 0001:000C0F64       aSddatadone
 0001:000C0F74       aLen0xXErr_cn_0
 0001:000C0F94       aCTest
 0001:000C0FA0       aGetdevErrorD_0
 0001:000C0FB4       aDFilesWithRa_1
 0001:000C0FE0       aCTestD
 0001:000C0FEC       aCTestDTestD_pa
 0001:000C1008       aWriteDBytesR_0
 0001:000C1038       aFopenSFailed_0
 0001:000C1050       aFailedWroteD_0
 0001:000C1070       aFcloseFailed_0
 0001:000C1084       aFailedReadDB_0
 0001:000C10A4       aWriteRandomP_1
 0001:000C10DC       aWriteRandomP_2
 0001:000C1100       aDFilesWithRa_2
 0001:000C1130       aTest_fioprf__1
 0001:000C1154       aUsageSSlotSize
 0001:000C1284       aKeep
 0001:000C128C       aTest_fioprf__2
 0001:000C12B0       aCThroughput_D_
 0001:000C12C8       aLargeFileWri_2
 0001:000C12F0       aLargeFileWri_3
 0001:000C1318       aBsDD_0
 0001:000C132C       aFopenFailedD_0
 0001:000C1340       aFwriteFailed_0
 0001:000C1354       aFseekFailedD_0
 0001:000C1368       aFcloseFailed_1
 0001:000C137C       aBsDWroteDByt_0
 0001:000C1394       aBsDWriteTime_0
 0001:000C13BC       aBsDWriteThro_0
 0001:000C13E4       aLargeFileRea_2
 0001:000C1408       aLargeFileRea_3
 0001:000C1430       aFreadFailedD_0
 0001:000C1444       aBsDReadDByte_0
 0001:000C145C       aBsDReadTimeE_0
 0001:000C1480       aBsDReadThrou_0
 0001:000C14A8       aCThruput_txt
 0001:000C14B8       aLargeFileWri_4
 0001:000C14E0       aLargeFileRea_4
 0001:000C1508       aFioprf_test_th
 0001:000C1520       aGetdevErrorD_1
 0001:000C1534       aArea_sizeDMb
 0001:000C1548       aCTest_0
 0001:000C1554       aCTestD_0
 0001:000C1560       aThroughput_D_b
 0001:000C1574       aSomeFwriteFail
 0001:000C1594       aAreaDStartFrom
 0001:000C15B0       aWriteTimeElaps
 0001:000C15D0       aWriteThroughpu
 0001:000C15F0       aSomeFreadFaile
 0001:000C1610       aReadTimeElap_0
 0001:000C162C       aReadThroughput
 0001:000C164C       aDFF
 0001:000C1658       aK_assertAtS_27
 0001:000C166C       aCTestLog_csv
 0001:000C1680       aCThroughput_on
 0001:000C1698       aFailedToCrea_9
 0001:000C16D0       aStartToWriteDa
 0001:000C1704       aWritingDataToC
 0001:000C1724       aAmbafs_writeFa
 0001:000C1740       aCThroughput_2c
 0001:000C175C       aFopenFailedSD
 0001:000C1774       aStartToWrite_0
 0001:000C17AC       aUsageSSlotUsag
 0001:000C19C4       aRand_write
 0001:000C19D0       aAlign
 0001:000C19D8       aMulti_0
 0001:000C19E0       aBs_numBiggerTh
 0001:000C19F8       aTest_fioprf__3
 0001:000C1A18       aClkon
 0001:000C1A20       aClkoff
 0001:000C1A28       aRs_0
 0001:000C1A2C       aWs_0
 0001:000C1A30       aMax_freq
 0001:000C1A3C       aParse
 0001:000C1A44       aTimeout
 0001:000C1A4C       aErase_0
 0001:000C1A54       aDs
 0001:000C1A58       aCmd11
 0001:000C1A60       aDump_reg
 0001:000C1A6C       aUsageSRandIncD
 0001:000C1AB0       aTest_sd_read_s
 0001:000C1AC4       aK_assertAtS_28
 0001:000C1AD8       aNotAMemoryCard
 0001:000C1AEC       aOutOfMemory_0
 0001:000C1AFC       aReadFromSector
 0001:000C1B24       aSectorDByteDIs
 0001:000C1B54       aDump_3
 0001:000C1B5C       aSectorD0xX
 0001:000C1B70       a02x_1
 0001:000C1B78       a4x
 0001:000C1B80       aFailed_0
 0001:000C1B8C       aSuccess
 0001:000C1B98       aUsageSRandIn_0
 0001:000C1BD8       aTest_sd_write_
 0001:000C1BF0       aRand
 0001:000C1BF8       aZero
 0001:000C1C00       aWriteToSectorD
 0001:000C1C28       aUsageSKhzSd1Sd
 0001:000C1C44       aSdMmcDesiredCl
 0001:000C1C60       aSdMmcActualClk
 0001:000C1C7C       aUsageSSd1Sd2
 0001:000C1C94       aSdclkTurnedOff
 0001:000C1CA8       aNoMbrOnTheMedi
 0001:000C1CC0       aBootType0xX
 0001:000C1CD4       aStartHeadD
 0001:000C1CE4       aStartSectorD
 0001:000C1CF8       aStartCylinderD
 0001:000C1D0C       aFatType0xX
 0001:000C1D1C       aEndingHeadD
 0001:000C1D30       aEndSectorD
 0001:000C1D40       aEndCylinderD
 0001:000C1D54       aStratLbaD
 0001:000C1D64       aTotalSectorsD
 0001:000C1D78       aJumpCommandX
 0001:000C1D8C       aCreateSysIdS
 0001:000C1DA0       aPartitionOffse
 0001:000C1DB8       aVolumeLengthD
 0001:000C1DCC       aFatOffsetD
 0001:000C1DE0       aFatLengthD
 0001:000C1DF4       aClusterHeapOff
 0001:000C1E10       aClusterCountD
 0001:000C1E24       aFirstclusterOf
 0001:000C1E40       aVolumeSeriaNum
 0001:000C1E5C       aFileSystemRevi
 0001:000C1E78       aVolumeFlagsD
 0001:000C1E8C       aBytesPerSector
 0001:000C1EA8       aSpcShiftD
 0001:000C1EB8       aNumberOfFatsD
 0001:000C1ED0       aDriveSelect0xX
 0001:000C1EE8       aPercentInUseD
 0001:000C1F00       aParameterGuidX
 0001:000C1F24       aEraseBlockSize
 0001:000C1F3C       aPageSize0xX
 0001:000C1F50       aSpareSectors0x
 0001:000C1F68       aRandomAccessTi
 0001:000C1F80       aProgrammingTim
 0001:000C1F98       aReadCycleD
 0001:000C1FAC       aWriteCycleD
 0001:000C1FC0       aCheckSum0xX
 0001:000C1FD4       aNoBsInfo
 0001:000C1FE4       aCreateSysIdS_0
 0001:000C1FF8       aSectorSizeD
 0001:000C200C       aSectorPerClust
 0001:000C2024       aReservedSecD
 0001:000C2038       aNumbersOfFatsD
 0001:000C2050       aNumbersOfRootD
 0001:000C206C       aSectorsPerFatD
 0001:000C2084       aNumbersOfSideD
 0001:000C209C       aNumbersOfHidde
 0001:000C20B8       aTotalSectors_0
 0001:000C20CC       aVolumeSn0xX
 0001:000C20E0       aPhyicalDiskNum
 0001:000C20FC       aExtendedBootsi
 0001:000C211C       aFileSystemType
 0001:000C2134       aSectorPerFat32
 0001:000C214C       aFsVersonD
 0001:000C215C       aRootClusterD
 0001:000C2170       aFsInfoD
 0001:000C2180       aBackupBootSect
 0001:000C2198       aNoFsInfo
 0001:000C21A8       aLeadSignaureXX
 0001:000C21C8       aStructureSigna
 0001:000C21EC       aNextClusterCou
 0001:000C2208       aNextFreeCluste
 0001:000C2224       aUsageSMbrBsFsS
 0001:000C224C       aReadBsFromSect
 0001:000C226C       aGetFsInfoFromS
 0001:000C2288       aFailedRvalD
 0001:000C229C       aSuccess_0
 0001:000C22A8       aUsageSShowSd1S
 0001:000C2300       aShow_3
 0001:000C2308       aData_0
 0001:000C2310       aSdmmcDInitTime
 0001:000C2334       aSdmmcDTranTime
 0001:000C2358       aUsageSClkSd1Sd
 0001:000C23B0       aTest_sd_max_fr
 0001:000C23C4       aSdio
 0001:000C23CC       aSdMaxClockDKhz
 0001:000C23E4       aMustOver10000K
 0001:000C23FC       aSetToDKhz
 0001:000C240C       aUsageSS_blkE_blkSd1Sd2SdioUsageSAllSd1Sd2
 0001:000C2458       aEraseFromSecto
 0001:000C2478       aMmcCardOnlySup
 0001:000C24A0       aFail
 0001:000C24A8       aSuccess_4
 0001:000C24B4       aUsageSPinDrivi
 0001:000C2514       aSmioPinDDMa
 0001:000C2530       aSetSmioPinDToD
 0001:000C254C       aCdwp
 0001:000C2554       aUsageSLoopCoun
 0001:000C2574       aFailedCmd0
 0001:000C2580       aFailedCmd8
 0001:000C258C       aOcrOfCardIs0xX
 0001:000C25A0       aFailAcmd41D
 0001:000C25B0       aFailedInAcmd41
 0001:000C25C4       aGiveUpPollin_0
 0001:000C25DC       aCardDoesnTSupp
 0001:000C25FC       aFailedDCmd11
 0001:000C260C       aCmd11Success
 0001:000C261C       aFailedD
 0001:000C2628       aSuccess_1
 0001:000C2634       aForever
 0001:000C263C       aTestLoopCountD
 0001:000C2654       a0x_8x0x_8x
 0001:000C2664       aUsageSSd0Sd1Rc
 0001:000C2680       aValidTestTarge
 0001:000C26A0       aS_16
 0001:000C26A8       aLen0xXErr_cn_1
 0001:000C26C8       aSd_delay_crtl_
 0001:000C26E0       aK_assertAtS_29
 0001:000C26F4       aNull
 0001:000C26FC       aCTest_1
 0001:000C2708       aGetdevErrorD_2
 0001:000C271C       aCTestD_1
 0001:000C2728       aCTestDTestD__0
 0001:000C2744       aFopenSFailed_1
 0001:000C275C       aFailedWroteD_1
 0001:000C277C       aFcloseFailed18
 0001:000C2794       aFailedReadDB_1
 0001:000C27B4       aFcloseFailed20
 0001:000C27CC       aDFilesWithRa_3
 0001:000C27FC       aASd_shmoo_txt
 0001:000C280C       aFopenSd_shmoo_
 0001:000C282C       aFailedDData_ou
 0001:000C28AC       aFailedDData__0
 0001:000C2918       aSuccessData_ou
 0001:000C2980       aSuccessData__0
 0001:000C29FC       aSuccessData__1
 0001:000C2A64       aDrivingStrengt
 0001:000C2A88       aDrivingStren_0
 0001:000C2AAC       aDrivingStren_1
 0001:000C2AD0       aDrivingStren_2
 0001:000C2AF4       aDrivingStren_3
 0001:000C2B14       aDrivingStren_4
 0001:000C2B38       aDrivingStren_5
 0001:000C2B58       aDrivingStren_6
 0001:000C2B7C       aStartTestingSd
 0001:000C2B98       aSd_shmooCp_fil
 0001:000C2BBC       aSd_shmooFormat
 0001:000C2BE0       aSd_shmooOpenAS
 0001:000C2C08       aCSd_shmoo_txt
 0001:000C2C1C       aSd_shmooOpenSF
 0001:000C2C38       aSd_shmooCp_f_0
 0001:000C2C58       aData_output_de
 0001:000C2D48       aUsageSSlotAllU
 0001:000C2FD4       aMode_1
 0001:000C2FDC       aSd_shmooChk_re
 0001:000C3010       aSd_shmooDelayC
 0001:000C3050       aSd_shmooDela_0
 0001:000C3090       aAll_dly
 0001:000C3098       aAll_str
 0001:000C30A0       a12ma_0
 0001:000C30A8       a18ma_0
 0001:000C30B0       aSd_shmooSaveSd
 0001:000C30DC       aSd_shmooSetBac
 0001:000C3130       aCardInitFailed
 0001:000C3144       aSd_shmooTestSd
 0001:000C3188       aSCfaHeader
 0001:000C31A4       aVideo_4
 0001:000C31AC       aStill_2
 0001:000C31B4       aAwbtilecolstar
 0001:000C31D0       aAwbtilerowstar
 0001:000C31EC       aAwbtilewidthD
 0001:000C3208       aAwbtileheightD
 0001:000C3224       aAwbtileactivew
 0001:000C3240       aAwbtileactiveh
 0001:000C325C       aAwbrgbshiftD
 0001:000C3278       aAwbyshiftD
 0001:000C3294       aAwbminmaxshift
 0001:000C32B0       aAetilecolstart
 0001:000C32CC       aAetilerowstart
 0001:000C32E8       aAetilewidthD
 0001:000C3304       aAetileheightD
 0001:000C3320       aAeyshiftD
 0001:000C333C       aAelinearyshift
 0001:000C3358       aAftilecolstart
 0001:000C3374       aAftilerowstart
 0001:000C3390       aAftilewidthD
 0001:000C33AC       aAftileheightD
 0001:000C33C8       aAftileactivewi
 0001:000C33E4       aAftileactivehe
 0001:000C3400       aAfyshiftD
 0001:000C341C       aAfcfayshiftD
 0001:000C3438       aAwbtilenumco_0
 0001:000C3454       aAwbtilenumrowD
 0001:000C3470       aAetilenumcolD
 0001:000C348C       aAetilenumrowD
 0001:000C34A8       aAftilenumcolD
 0001:000C34C4       aAftilenumrowD
 0001:000C34E0       aTotalslicesxD
 0001:000C34FC       aTotalslicesyD
 0001:000C3518       aSliceindexxD
 0001:000C3534       aSliceindexyD
 0001:000C3550       aSlicewidthD
 0001:000C356C       aSliceheightD
 0001:000C3588       aSlicestartxD
 0001:000C35A4       aSlicestartyD
 0001:000C35C0       aChannelidD
 0001:000C35DC       aSCfaStatisticI
 0001:000C35FC       aAwb
 0001:000C360C       aIndexSumrSumgS
 0001:000C3644       a5d5d5d5d5d5d
 0001:000C3670       aAe
 0001:000C3680       aIndexLinyCount
 0001:000C36A8       a5d5d5d5d
 0001:000C36C8       aAf
 0001:000C36D8       aIndexSumySumfv
 0001:000C36FC       a5d5d5d5d_0
 0001:000C3718       aFloatAwb
 0001:000C372C       aIndexSumrSum_0
 0001:000C3774       a5d10d10d10d10d
 0001:000C379C       aFloatAe
 0001:000C37B0       aIndexLinyCou_0
 0001:000C37E0       a5d10d10d10d
 0001:000C37FC       aFloatAf
 0001:000C3810       aIndexSumySum_0
 0001:000C3840       aSRgbHeader
 0001:000C385C       aAwbtilecolst_0
 0001:000C3878       aAwbtilerowst_0
 0001:000C3894       aAwbtilewidth_0
 0001:000C38B0       aAwbtileheigh_0
 0001:000C38CC       aAwbtileactiv_0
 0001:000C38E8       aAwbtileactiv_1
 0001:000C3904       aAwbrgbshiftD_0
 0001:000C3920       aAwbyshiftD_0
 0001:000C393C       aAwbminmaxshi_0
 0001:000C3958       aAetilecolsta_0
 0001:000C3974       aAetilerowsta_0
 0001:000C3990       aAetilewidthD_0
 0001:000C39AC       aAetileheight_0
 0001:000C39C8       aAeyshiftD_0
 0001:000C39E4       aAelinearyshi_0
 0001:000C3A00       aAftilecolsta_0
 0001:000C3A1C       aAftilerowsta_0
 0001:000C3A38       aAftilewidthD_0
 0001:000C3A54       aAftileheight_0
 0001:000C3A70       aAftileactive_0
 0001:000C3A8C       aAftileactive_1
 0001:000C3AA8       aAfyshiftD_0
 0001:000C3AC4       aAfcfayshiftD_0
 0001:000C3AE0       aAwbtilenumco_1
 0001:000C3AFC       aAwbtilenumro_0
 0001:000C3B18       aAetilenumcol_0
 0001:000C3B34       aAetilenumrow_0
 0001:000C3B50       aAftilenumcol_0
 0001:000C3B6C       aAftilenumrow_0
 0001:000C3B88       aTotalslicesx_0
 0001:000C3BA4       aTotalslicesy_0
 0001:000C3BC0       aSliceindexxD_0
 0001:000C3BDC       aSliceindexyD_0
 0001:000C3BF8       aSlicewidthD_0
 0001:000C3C14       aSliceheightD_0
 0001:000C3C30       aSlicestartxD_0
 0001:000C3C4C       aSlicestartyD_0
 0001:000C3C68       aChannelidD_0
 0001:000C3C84       aSRgbStatisticI
 0001:000C3CA4       aIndexSumy
 0001:000C3CB4       a5d5d_1
 0001:000C3CC0       aIndexSumfySumf
 0001:000C3CE4       aIndexSumy_0
 0001:000C3CF8       a5d10d
 0001:000C3D04       aIndexSumfv1hSu
 0001:000C3D40       a5d10d10d10d1_0
 0001:000C3D64       aErrorPmodePi_2
 0001:000C3D7C       aTransformedH_0
 0001:000C3DAC       aTransformedV_0
 0001:000C3DD8       aDsp_imgcorep_3
 0001:000C3DF8       aS_6
 0001:000C3E00       aErrorPcalibi_0
 0001:000C3E50       aDsp_imgcorep_4
 0001:000C3E7C       aSCawarpenbDEnb
 0001:000C3EAC       aErrorDsp_im_94
 0001:000C3EFC       aErrorDsp_im_95
 0001:000C3F50       aErrorDsp_im_86
 0001:000C3F98       aErrorDsp_im_87
 0001:000C400C       aErrorDsp_im_22
 0001:000C4058       aErrorDsp_im_23
 0001:000C40A8       aErrorDsp_im_20
 0001:000C40F0       aErrorDsp_im_21
 0001:000C4138       aErrorUndefined
 0001:000C4170       aErrorPleaseInp
 0001:000C41A8       aErrorColorCo_0
 0001:000C4208       aErrorUsingImgd
 0001:000C4258       aErrorDsp_im_18
 0001:000C42A4       aErrorDsp_im_19
 0001:000C42F0       aErrorDsp_im_17
 0001:000C433C       aErrorColorCorr
 0001:000C436C       aWarningColorCo
 0001:000C43CC       aANewCc_3dTable
 0001:000C43F4       aWarningColor_0
 0001:000C4458       aANewHisoCc_3dT
 0001:000C4484       aErrorDsp_im_24
 0001:000C44DC       aErrorDsp_im_25
 0001:000C4534       aErrorDsp_imgpr
 0001:000C4588       aErrorDsp_im_26
 0001:000C45DC       aUsePincc3dhiso
 0001:000C4600       aErrorDsp_im_13
 0001:000C4648       aErrorDsp_im_14
 0001:000C4690       aErrorDsp_img_5
 0001:000C46D8       aErrorDsp_img_6
 0001:000C4724       aFunctionname
 0001:000C4734       aParam
 0001:000C473C       aWarningS_ytone
 0001:000C4774       aWarningS_yto_0
 0001:000C47AC       aWarningS_utone
 0001:000C47E4       aWarningS_uto_0
 0001:000C481C       aWarningS_vtone
 0001:000C4854       aWarningS_vto_0
 0001:000C488C       aWarningS_speci
 0001:000C48C4       aWarningS_stren
 0001:000C4900       aWarningS_str_0
 0001:000C493C       aWarningS_perdi
 0001:000C4988       aWarningS_per_0
 0001:000C49D4       aWarningS_per_1
 0001:000C4A1C       aWarningS_coefs
 0001:000C4A5C       aWarningS_lowde
 0001:000C4A94       aWarningS_highd
 0001:000C4ACC       aWarningS_metho
 0001:000C4B00       aS_3
 0001:000C4B08       aS_4
 0001:000C4B10       aCoring
 0001:000C4B20       a4d
 0001:000C4B28       aSpecifyD
 0001:000C4B3C       aPerdirfirisost
 0001:000C4B74       aPerdirfirdirst
 0001:000C4BAC       aPerdirfirdiram
 0001:000C4BE4       aCoefsDDDDDDDDD
 0001:000C4C40       aStrengthisoD
 0001:000C4C54       aStrengthdirD
 0001:000C4C68       aEdgethreshD
 0001:000C4C7C       aWideedgedetect
 0001:000C4C94       aLowD
 0001:000C4CA0       aLowdeltaD
 0001:000C4CB4       aLowstrengthD
 0001:000C4CC8       aMidstrengthD
 0001:000C4CDC       aHighD
 0001:000C4CEC       aHighdeltaD
 0001:000C4D00       aHighstrengthD
 0001:000C4D18       aMethodD
 0001:000C4D28       aYtoneoffsetD
 0001:000C4D3C       aYtoneshiftD
 0001:000C4D50       aYtonebitsD
 0001:000C4D64       aUtoneoffsetD
 0001:000C4D78       aUtoneshiftD
 0001:000C4D8C       aUtonebitsD
 0001:000C4DA0       aVtoneoffsetD
 0001:000C4DB4       aVtoneshiftD
 0001:000C4DC8       aVtonebitsD
 0001:000C4DDC       aTableDDDDDDDDD
 0001:000C4E38       aTableChecksumD
 0001:000C4E50       aErrorAmbadsp_i
 0001:000C4E90       aWarningCoringD
 0001:000C4EE4       aSet1stsharpenn
 0001:000C4F04       aSet1stsharpe_0
 0001:000C4F30       aSharpen_min_co
 0001:000C4F4C       aSet1stsharpe_1
 0001:000C4F78       aSharpen_coring
 0001:000C4F94       aSet1stsharpe_2
 0001:000C4FBC       aSharpen_scale_
 0001:000C4FD4       aWarningEnabl_1
 0001:000C501C       aWarningModeDSh
 0001:000C505C       aWarningEdgethr
 0001:000C50A8       aWarningWideedg
 0001:000C50F8       aSet1stsharpe_3
 0001:000C5110       aThree_d
 0001:000C5118       aSet1stsharpe_4
 0001:000C5130       aNoiseFir
 0001:000C513C       aLevel_str_adju
 0001:000C5178       aPipeDAlgoDF_13
 0001:000C51B4       aSelectD
 0001:000C521C       aSharpen_fir
 0001:000C5260       aMin_coring_res
 0001:000C52AC       aCoring_index_s
 0001:000C52F4       aScale_coring
 0001:000C5328       aEnableDModeDEd
 0001:000C5360       aThreed
 0001:000C5368       aUp5x5DDown5x5D
 0001:000C53B4       aMaxchangeupDMa
 0001:000C53DC       aNoise_fir
 0001:000C53E8       aWarning_Can_19
 0001:000C543C       aWarning_Amb_83
 0001:000C54B4       aWarning_Pselec
 0001:000C5500       aWarning_Amb_84
 0001:000C55B8       aWarning_Amb_85
 0001:000C5640       aWarning_Pcorin
 0001:000C5694       aWarning_Amb_86
 0001:000C5758       aWarning_Amb_87
 0001:000C57D8       aWarning_PfirIs
 0001:000C5824       aWarning_Amb_88
 0001:000C58F4       aWarning_Amb_89
 0001:000C598C       aWarning_Plevel
 0001:000C59E8       aWarning_Amb_90
 0001:000C5AD0       aWarning_Amb_91
 0001:000C5BAC       aWarning_Amb_92
 0001:000C5C94       aWarning_Amb_93
 0001:000C5D60       aWarning_Amb_94
 0001:000C5E3C       aWarning_Amb_97
 0001:000C5EB0       aWarning_PbothI
 0001:000C5EF8       aWarning_Amb_98
 0001:000C6028       aWarning_Psharp
 0001:000C60F4       aErrorDsp_im_78
 0001:000C6138       aErrorDsp_im_79
 0001:000C617C       aErrorDsp_im_80
 0001:000C61C4       aErrorDsp_im_81
 0001:000C6210       aErrorDsp_im_82
 0001:000C625C       aErrorDsp_im_83
 0001:000C62A8       aErrorDsp_im_84
 0001:000C62F4       aErrorDsp_im_85
 0001:000C634C       aErrorDsp_img_2
 0001:000C638C       aErrorDsp_im_15
 0001:000C63D0       aWarning_GainDD
 0001:000C6400       aIncorrectWbGai
 0001:000C6414       aIncorrectDgain
 0001:000C6434       aIncorrectGloba
 0001:000C6614       aHighisoPostExe
 0001:000C6668       aErrorDsp_im_16
 0001:000C66B4       aErrorDsp_im_27
 0001:000C67A4       aFunctionname_0
 0001:000C67B4       aWarningEnabl_2
 0001:000C67E8       aAdapt_threed
 0001:000C67F8       aWarningAdapt_a
 0001:000C6838       aWarningAdapt_0
 0001:000C6874       aWarningAdapt_1
 0001:000C68B4       aWarningAdapt_2
 0001:000C68F0       aWarningAdapt_t
 0001:000C692C       aWarningAdapt_3
 0001:000C695C       aWarningAdapt_4
 0001:000C6994       aWarningAdapt_5
 0001:000C69C4       aWarningAdapt_6
 0001:000C6A00       aWarningAdapt_7
 0001:000C6A30       aWarningAdapt_8
 0001:000C6A68       aWarningAdapt_9
 0001:000C6A98       aWarningT1_upDS
 0001:000C6AC8       aWarningT1_down
 0001:000C6AFC       aLevel_str_ad_0
 0001:000C6B10       aT0t1_div
 0001:000C6B1C       aEnableD_0
 0001:000C6B30       aDirectionaldec
 0001:000C6B4C       aDirectionald_0
 0001:000C6B68       aAdapt_alphamin
 0001:000C6B84       aAdapt_alphamax
 0001:000C6BA0       aAdapt_t0upD
 0001:000C6BB4       aAdapt_t1upD
 0001:000C6BC8       aAdapt_alpham_0
 0001:000C6BE4       aAdapt_alpham_1
 0001:000C6C00       aAdapt_t0downD
 0001:000C6C18       aAdapt_t1downD
 0001:000C6C30       aLevelstradjust
 0001:000C6C40       aT0t1div
 0001:000C6C48       aMaxchangeupD
 0001:000C6C58       aMaxchangedownD
 0001:000C6C6C       aSetadvancespat
 0001:000C6CA8       aPipeDAlgoDF_14
 0001:000C6CE4       aWarning_Can_20
 0001:000C6DB0       aWarning_PasfIs
 0001:000C6E70       aWarningActivit
 0001:000C6EB4       aWarningActiv_0
 0001:000C6F04       aWarningGradcli
 0001:000C6F4C       aWarningGradnoi
 0001:000C6F94       aWarningZippern
 0001:000C6FEC       aWarningZippe_0
 0001:000C7044       aWarningBlackwh
 0001:000C7094       aWarningClampdi
 0001:000C70FC       aPipeDAlgoDFu_7
 0001:000C7138       aActivitythresh
 0001:000C7194       aZippernoisedif
 0001:000C722C       aWarning_Can_13
 0001:000C72D4       aWarning_Pdemos
 0001:000C7378       aWarningLevelbl
 0001:000C73C8       aWarningLevelgr
 0001:000C741C       aWarningLevel_0
 0001:000C7470       aWarningLevelre
 0001:000C74E0       aPipeDAlgoDFu_0
 0001:000C751C       aLevelredDLevel
 0001:000C7568       aWarning_Cann_6
 0001:000C7634       aWarning_Pdgain
 0001:000C76FC       aWarningCorin_0
 0001:000C7754       aSetfinalsharpe
 0001:000C7774       aSetfinalshar_0
 0001:000C77A0       aSharpen_min__0
 0001:000C77BC       aSetfinalshar_1
 0001:000C77E8       aSharpen_cori_0
 0001:000C7804       aSetfinalshar_2
 0001:000C782C       aSharpen_scal_0
 0001:000C7844       aWarningEnabl_3
 0001:000C788C       aWarningModeD_0
 0001:000C78D0       aWarningEdget_0
 0001:000C7920       aWarningWidee_0
 0001:000C7970       aSetfinalshar_3
 0001:000C798C       aThree_d_0
 0001:000C7994       aSetfinalshar_4
 0001:000C79B0       aNoiseFir_0
 0001:000C79BC       aLevel_str_ad_1
 0001:000C7A00       aPipeDAlgoDF_15
 0001:000C7A68       aSharpen_fir_0
 0001:000C7AAC       aMin_coring_r_0
 0001:000C7AF8       aCoring_index_0
 0001:000C7B0C       aScale_coring_0
 0001:000C7B40       aEnableDModeD_0
 0001:000C7B78       aThreed_0
 0001:000C7B80       aUp5x5DDown5x_0
 0001:000C7BD0       aMaxchangeupD_0
 0001:000C7BF8       aNoise_fir_0
 0001:000C7C14       aWarning_Can_21
 0001:000C7DBC       aWarning_Pcor_0
 0001:000C80E0       aWarning_Pfir_0
 0001:000C843C       aWarning_Plev_0
 0001:000C8E58       aWarning_Pmaxbo
 0001:000C9130       aWarning_Psha_0
 0001:000C92B0       aWarningNarrowe
 0001:000C92F0       aWarningWideena
 0001:000C932C       aWarningWidesaf
 0001:000C9374       aWarningWidethr
 0001:000C93DC       aPipeDAlgoDF_17
 0001:000C9418       aGbgrmismatchNa
 0001:000C946C       aWarning_Can_23
 0001:000C9520       aWarning_Pgbgrm
 0001:000C95D4       aSethighisoadva
 0001:000C95F4       aSethighisohigh
 0001:000C9618       aSethighisolowa
 0001:000C963C       aSethighisomed1
 0001:000C9660       aWarningLevel_s
 0001:000C96B8       aWarningT0t1_di
 0001:000C9708       aSethighisomed2
 0001:000C972C       aSethighisoli2n
 0001:000C9750       aSethighisochro
 0001:000C9778       aWarningEnabl_7
 0001:000C97AC       aThreed_1
 0001:000C97B4       aWarningAlphama
 0001:000C97E8       aWarningAlphami
 0001:000C981C       aWarningT0DShou
 0001:000C984C       aWarningT0DSh_0
 0001:000C9874       aWarningT1DShou
 0001:000C98A4       aWarningT1DSh_0
 0001:000C98CC       aWarningT1DSmal
 0001:000C98F8       aLevel_str_ad_2
 0001:000C990C       aT0t1_div_0
 0001:000C9918       aWarningLevel_1
 0001:000C9950       aWarningT0t1__0
 0001:000C99AC       aPipeDAlgoDF_20
 0001:000C9B0C       aEnableD_2
 0001:000C9B20       aDirectionald_1
 0001:000C9B3C       aDirectionald_2
 0001:000C9B58       aAlphaminD
 0001:000C9B6C       aAlphamaxD
 0001:000C9B80       aT0D
 0001:000C9B8C       aT1D
 0001:000C9B98       aLevelstradju_0
 0001:000C9BA8       aT0t1div_0
 0001:000C9BB0       aMaxchangeD
 0001:000C9BC0       aWarning_Can_26
 0001:000CA154       aWarning_High_6
 0001:000CA230       aWarning_High_7
 0001:000CA320       aWarning_High_8
 0001:000CA408       aWarning_High_9
 0001:000CA4F8       aWarning_Hig_10
 0001:000CA5E8       aWarning_Hig_11
 0001:000CA6DC       aWarning_Hig_12
 0001:000CA7D0       aWarningStren_0
 0001:000CA83C       aPipeDAlgoDF_19
 0001:000CA878       aStrengthD_0
 0001:000CA88C       aWarningEnbDS_3
 0001:000CA8CC       aWarningSatur_0
 0001:000CA93C       aEnbDAlpharrD_0
 0001:000CA98C       aWarningEnbDS_4
 0001:000CA9DC       aWarningCorre_0
 0001:000CAA38       aWarningHotpi_0
 0001:000CAA98       aWarningDarkp_0
 0001:000CAB28       aEnbDHotpixel_0
 0001:000CAB74       aWarningEnbDS_5
 0001:000CABB8       aWarningExtentf
 0001:000CAC0C       aWarningExtentr
 0001:000CAC64       aWarningNoisele
 0001:000CACB8       aWarningOrigi_1
 0001:000CAD10       aWarningStren_1
 0001:000CAD64       aWarningSelecti
 0001:000CADC0       aWarningSelec_0
 0001:000CAE24       aWarningSelec_1
 0001:000CAE88       aWarningSelec_2
 0001:000CAF18       aEnbDNoiselevel
 0001:000CAF6C       aExtentfineDDDS
 0001:000CAFCC       aWarningNarro_0
 0001:000CB014       aWarningWidee_1
 0001:000CB058       aWarningWides_0
 0001:000CB0A4       aWarningWidet_0
 0001:000CB118       aGbgrmismatch_2
 0001:000CB160       aWarningActiv_1
 0001:000CB1AC       aWarningActiv_2
 0001:000CB204       aWarningGradc_0
 0001:000CB250       aWarningGradn_0
 0001:000CB2A0       aWarningZippe_1
 0001:000CB300       aWarningZippe_2
 0001:000CB35C       aWarningBlack_0
 0001:000CB3B4       aWarningClamp_0
 0001:000CB42C       aActivitythre_0
 0001:000CB488       aZippernoised_0
 0001:000CB514       aWarningEnabl_5
 0001:000CB560       aWarningCbada_1
 0001:000CB5BC       aWarningCrada_1
 0001:000CB618       aWarningCbnon_0
 0001:000CB674       aWarningCrnon_0
 0001:000CB6D0       aWarningCbada_2
 0001:000CB728       aWarningCrada_2
 0001:000CB7AC       aEnableD_1
 0001:000CB7BC       aCbadaptivest_0
 0001:000CB7F0       aCbnonadaptiv_0
 0001:000CB828       aCbadaptiveam_0
 0001:000CB858       aWarningEnabl_6
 0001:000CB8D4       aWarningCdnrm_0
 0001:000CB92C       aWarningCdnrs_0
 0001:000CB9C0       aCdnrmodeDCdn_0
 0001:000CB9E4       aWarning_Can_25
 0001:000CBAAC       aWarning_Highis
 0001:000CBC28       aWarning_High_0
 0001:000CBDB4       aWarning_High_1
 0001:000CBF34       aWarning_High_2
 0001:000CC0A8       aWarning_High_3
 0001:000CC210       aWarning_Pdem_0
 0001:000CC37C       aWarning_High_4
 0001:000CC518       aWarning_High_5
 0001:000CC6DC       aWarning_Pcdn_0
 0001:000CC7CC       aWarningEnabl_8
 0001:000CC81C       aWarningModeD_1
 0001:000CC864       aWarningEdget_1
 0001:000CC8B8       aWarningWidee_2
 0001:000CC910       aSethighisohi_0
 0001:000CC930       aThree_d_1
 0001:000CC938       aSethighisohi_1
 0001:000CC958       aNoiseFir_1
 0001:000CC964       aLevel_str_ad_3
 0001:000CC978       aWarningLevel_2
 0001:000CC9CC       aWarningCorin_1
 0001:000CCA28       aSethighisohi_2
 0001:000CCA50       aSethighisohi_3
 0001:000CCA84       aSharpen_min__1
 0001:000CCAA0       aWarningSharpen
 0001:000CCB10       aSethighisohi_4
 0001:000CCB44       aSharpen_cori_1
 0001:000CCB60       aWarningSharp_0
 0001:000CCBD0       aSethighisohi_5
 0001:000CCC00       aSharpen_scal_1
 0001:000CCC18       aWarningSharp_1
 0001:000CCCB0       aPipeDAlgoDF_21
 0001:000CCCEC       aEnableDModeD_1
 0001:000CCD24       aThreed_2
 0001:000CCD2C       aUp5x5DDown5x_1
 0001:000CCD50       aAmbadsp_imgpri
 0001:000CCD84       aMaxchangeupD_1
 0001:000CCDAC       aNoise_fir_1
 0001:000CCE20       aSharpen_fir_1
 0001:000CCE6C       aMin_coring_r_1
 0001:000CCEC0       aCoring_index_1
 0001:000CCF10       aScale_coring_1
 0001:000CCF20       aWarningEnabl_9
 0001:000CCF6C       aWarningModeD_2
 0001:000CCFB4       aWarningEdget_2
 0001:000CD008       aWarningWidee_3
 0001:000CD05C       aSethighisomeds
 0001:000CD07C       aSethighisome_0
 0001:000CD09C       aWarningLevel_3
 0001:000CD0F0       aWarningCorin_2
 0001:000CD14C       aSet1stsharpe_5
 0001:000CD16C       aSethighisome_1
 0001:000CD19C       aWarningSharp_2
 0001:000CD20C       aSethighisome_2
 0001:000CD240       aWarningSharp_3
 0001:000CD2B0       aSethighisome_3
 0001:000CD2DC       aWarningSharp_4
 0001:000CD340       aDsp_imgprintse
 0001:000CD36C       aAmbadsp_imgp_0
 0001:000CD4B4       aWarning_Can_27
 0001:000CDAC4       aWarning_Hig_13
 0001:000CDBAC       aWarning_Hig_14
 0001:000CDC9C       aWarning_Hig_15
 0001:000CDD9C       aWarning_Hig_16
 0001:000CDE94       aWarning_Hig_17
 0001:000CE760       aWarning_Hig_18
 0001:000CE844       aWarning_Hig_19
 0001:000CE92C       aWarning_Hig_20
 0001:000CEA28       aWarning_Hig_21
 0001:000CEB20       aWarning_Hig_22
 0001:000CEE0C       aWarningEnab_10
 0001:000CEE5C       aWarningModeD_3
 0001:000CEEA4       aWarningEdget_3
 0001:000CEEFC       aWarningWidee_4
 0001:000CEF54       aSethighisoliso
 0001:000CEF74       aThree_d_2
 0001:000CEF7C       aSethighisoli_0
 0001:000CEFA0       aNoiseFir_2
 0001:000CEFAC       aLevel_str_ad_4
 0001:000CEFC0       aWarningCorin_3
 0001:000CF01C       aSethighisoli_1
 0001:000CF044       aSethighisoli_2
 0001:000CF078       aSharpen_min__2
 0001:000CF094       aSethighisoli_3
 0001:000CF0C8       aSharpen_cori_2
 0001:000CF0E4       aSethighisoli_4
 0001:000CF114       aSharpen_scal_2
 0001:000CF160       aPipeDAlgoDF_22
 0001:000CF19C       aEnableDModeD_2
 0001:000CF1D4       aThreed_3
 0001:000CF1DC       aUp5x5DDown5x_2
 0001:000CF200       aAmbadsp_imgp_1
 0001:000CF234       aMaxchangeupD_2
 0001:000CF25C       aNoise_fir_2
 0001:000CF2D4       aSharpen_fir_2
 0001:000CF320       aMin_coring_r_2
 0001:000CF374       aCoring_index_2
 0001:000CF3C4       aScale_coring_2
 0001:000CF3D4       aWarningEnab_11
 0001:000CF424       aWarningModeD_4
 0001:000CF46C       aWarningEdget_4
 0001:000CF4C4       aWarningWidee_5
 0001:000CF51C       aSethighisoli_5
 0001:000CF53C       aSethighisoli_6
 0001:000CF560       aWarningCorin_4
 0001:000CF5BC       aSethighisoli_7
 0001:000CF5E4       aSethighisoli_8
 0001:000CF618       aSethighisoli_9
 0001:000CF64C       aSethighisol_10
 0001:000CF6B0       aAmbadsp_imgp_2
 0001:000CF80C       aWarning_Can_28
 0001:000CFE30       aWarning_Hig_23
 0001:000CFF1C       aWarning_Hig_24
 0001:000D000C       aWarning_Hig_25
 0001:000D010C       aWarning_Hig_26
 0001:000D0208       aWarning_Hig_27
 0001:000D0B04       aWarning_Hig_28
 0001:000D0BF0       aWarning_Hig_29
 0001:000D0CDC       aWarning_Hig_30
 0001:000D0DDC       aWarning_Hig_31
 0001:000D0ED8       aWarning_Hig_32
 0001:000D11D4       aWarningEnab_12
 0001:000D1220       aWarningNoise_0
 0001:000D1274       aWarningNoise_1
 0001:000D12C4       aWarningOrigi_2
 0001:000D1320       aWarningOrigi_3
 0001:000D137C       aWarningRadiu_1
 0001:000D13CC       aAmbadsp_imgh_5
 0001:000D13F4       aPipeDAlgoDF_23
 0001:000D1430       aEnableDNoise_0
 0001:000D1460       aOriginalblen_0
 0001:000D14A8       aAmbadsp_imgh_6
 0001:000D14D8       aEdgestartcbDEd
 0001:000D1518       aWarningEnab_13
 0001:000D1560       aWarningNoise_2
 0001:000D15B4       aWarningNoise_3
 0001:000D1608       aWarningOrigi_4
 0001:000D1664       aWarningOrigi_5
 0001:000D16C0       aAmbadsp_imgh_7
 0001:000D16E8       aEnableDNoise_1
 0001:000D1750       aWarningEnab_14
 0001:000D1798       aWarningNoise_4
 0001:000D17EC       aWarningNoise_5
 0001:000D1840       aWarningOrigi_6
 0001:000D189C       aWarningOrigi_7
 0001:000D18F8       aAmbadsp_imgh_8
 0001:000D1920       aWarningEnab_15
 0001:000D1968       aWarningNoise_6
 0001:000D19BC       aWarningNoise_7
 0001:000D1A10       aWarningOrigi_8
 0001:000D1A6C       aWarningOrigi_9
 0001:000D1AC8       aAmbadsp_imgh_9
 0001:000D1AF0       aWarningEnab_16
 0001:000D1B3C       aWarningNoise_8
 0001:000D1B94       aWarningNoise_9
 0001:000D1BEC       aWarningOrig_10
 0001:000D1C4C       aWarningOrig_11
 0001:000D1CD8       aWarning_Can_29
 0001:000D1DAC       aWarning_Pchr_2
 0001:000D1F44       aWarning_Pchr_3
 0001:000D20DC       aWarning_Pchr_4
 0001:000D2258       aWarning_Pchr_5
 0001:000D23D4       aWarning_Pchr_6
 0001:000D255C       aWarning_Pchr_7
 0001:000D263C       aWarningT0DSh_1
 0001:000D2684       aWarningT1DSh_1
 0001:000D26CC       aWarningT1DSm_0
 0001:000D2710       aWarningMaxchan
 0001:000D2770       aWarningSignalp
 0001:000D27C4       aHighisosetluma
 0001:000D27E0       aEither_max_cha
 0001:000D2800       aThree_d_3
 0001:000D2830       aPipeDAlgoDF_24
 0001:000D286C       aT0DT1DAlphamax
 0001:000D28D4       aEithermaxchang
 0001:000D28F0       aThreed_4
 0001:000D28F8       aWarningT0DSh_2
 0001:000D293C       aWarningT1DSh_2
 0001:000D2980       aWarningT1DSm_1
 0001:000D29C0       aWarningMaxch_0
 0001:000D2A1C       aWarningSigna_0
 0001:000D2A6C       aHighisosetlowa
 0001:000D2AA8       aWarningT0cbDSh
 0001:000D2AF8       aWarningT1cbDSh
 0001:000D2B48       aWarningT1_cbDS
 0001:000D2B98       aWarningMaxch_1
 0001:000D2C00       aWarningSigna_1
 0001:000D2C5C       aHighisosetchro
 0001:000D2C80       aCbEithermaxcha
 0001:000D2C9C       aWarningT0crDSh
 0001:000D2CEC       aWarningT1crDSh
 0001:000D2D3C       aWarningT1_crDS
 0001:000D2D8C       aWarningMaxch_2
 0001:000D2DF4       aWarningSigna_2
 0001:000D2E50       aCrEithermaxcha
 0001:000D2E9C       aT0cbDT1cbDAlph
 0001:000D2F10       aT0crDT1cbDAlph
 0001:000D2F84       aWarningT0cbD_0
 0001:000D2FD4       aWarningT1cbD_0
 0001:000D3024       aWarningT1_cb_0
 0001:000D3074       aWarningMaxch_3
 0001:000D30DC       aWarningSigna_3
 0001:000D3138       aHighisosetch_0
 0001:000D315C       aWarningT0crD_0
 0001:000D31AC       aWarningT1crD_0
 0001:000D31FC       aWarningT1_cr_0
 0001:000D324C       aWarningMaxch_4
 0001:000D32B4       aWarningSigna_4
 0001:000D3340       aWarningT0cbD_1
 0001:000D3394       aWarningT1cbD_1
 0001:000D33E8       aWarningT1_cb_1
 0001:000D343C       aWarningMaxch_5
 0001:000D34A8       aWarningSigna_5
 0001:000D3508       aHighisosetch_1
 0001:000D3530       aWarningT0crD_1
 0001:000D3584       aWarningT1crD_1
 0001:000D35D8       aWarningT1_cr_1
 0001:000D362C       aWarningMaxch_6
 0001:000D3698       aWarningSigna_6
 0001:000D372C       aSet1stsharpe_6
 0001:000D374C       aHighisosethigh
 0001:000D376C       aFreq_recover
 0001:000D37A8       aMaxdownDMaxupD
 0001:000D37C0       aLevel
 0001:000D37C8       aWarningT0cbD_2
 0001:000D3810       aWarningT1cbD_2
 0001:000D3858       aWarningT1cbDSm
 0001:000D389C       aWarningMaxch_7
 0001:000D38FC       aWarningSigna_7
 0001:000D3950       aWarningT0crD_2
 0001:000D3998       aWarningT1crD_2
 0001:000D39E0       aWarningT1crDSm
 0001:000D3A24       aWarningMaxch_8
 0001:000D3A84       aWarningSigna_8
 0001:000D3AD8       aWarningT0yDSho
 0001:000D3B20       aWarningT1yDSho
 0001:000D3B68       aWarningT1yDSma
 0001:000D3BAC       aWarningMaxch_9
 0001:000D3C08       aWarningSigna_9
 0001:000D3C58       aHighisosethi_0
 0001:000D3C74       aYEithermaxchan
 0001:000D3CB8       aT0yDT1yDAlpham
 0001:000D3D28       aWarningEnab_17
 0001:000D3D9C       aEnableD_3
 0001:000D3DAC       aHighisosethi_1
 0001:000D3DCC       aBlendLuma
 0001:000D3E04       aWarning_Can_30
 0001:000D3ED8       aWarning_Pluman
 0001:000D4058       aWarning_Plowas
 0001:000D41E4       aWarning_Pchr_8
 0001:000D4390       aWarning_Pchr_9
 0001:000D4548       aWarning_Pch_10
 0001:000D46F8       aWarning_Phighi
 0001:000D487C       aWarning_Phig_0
 0001:000D49F4       aWarning_Phig_1
 0001:000D4B8C       aWarning_Phig_2
 0001:000D4C78       aS_control0x04x
 0001:000D4C90       aEnableVideoInp
 0001:000D4CAC       aEnableCaptureW
 0001:000D4CC8       aValidDataClock
 0001:000D4D00       aValidDataClo_0
 0001:000D4D38       aOperatingModeS
 0001:000D4D54       aOperatingModeM
 0001:000D4D70       aOperatingModeB
 0001:000D4D9C       aOperatingModeU
 0001:000D4DBC       aSyncModeBt_656
 0001:000D4DE8       aSyncModeBt_601
 0001:000D4E10       aEmbeddedSyncCo
 0001:000D4E4C       aEmbeddedSync_0
 0001:000D4E80       aEmbeddedSync_1
 0001:000D4EAC       aEmbeddedSync_2
 0001:000D4ED8       aEmbeddedSync_3
 0001:000D4F14       aVsyncPolarityA
 0001:000D4F34       aVsyncPolarit_0
 0001:000D4F54       aHsyncPolarityA
 0001:000D4F74       aHsyncPolarit_0
 0001:000D4F94       aField0Polarity
 0001:000D4FB0       aIsSonySpecific
 0001:000D4FD4       aIsSonySpecif_0
 0001:000D4FF8       aEnableBt_656Er
 0001:000D501C       aToggleHsyncDur
 0001:000D5040       aToggleHsyncD_0
 0001:000D50AC       aS_inputconfig0
 0001:000D50C4       aPadTypeLvds
 0001:000D50D8       aPadTypeLvcmos
 0001:000D50F0       aDataRateDual
 0001:000D5104       aDataRateSingle
 0001:000D511C       aDataWidth2Pixe
 0001:000D5134       aDataWidth1Pixe
 0001:000D514C       aInputSourceGpi
 0001:000D5164       aInputSourceLvd
 0001:000D517C       aColorSpaceOfIn
 0001:000D51A4       aColorSpaceOf_0
 0001:000D51CC       aDataTypeYuv422
 0001:000D51F8       aDataTypeRaw10B
 0001:000D5214       aDataTypeRaw12B
 0001:000D5230       aDataTypeRaw14B
 0001:000D524C       aInputOrderOfYu
 0001:000D5278       aInputOrderOf_0
 0001:000D52A4       aInputOrderOf_1
 0001:000D52D0       aInputOrderOf_2
 0001:000D52FC       aInputOrderOf_3
 0001:000D532C       aInputOrderOf_4
 0001:000D535C       aInputOrderOf_5
 0001:000D538C       aInputOrderOf_6
 0001:000D53BC       aSensorInterfac
 0001:000D53D8       aSensorInterf_0
 0001:000D53F8       aSerialInterfac
 0001:000D5418       aSerialInterf_0
 0001:000D5438       aS_status0x04x
 0001:000D544C       aBeginofframeDe
 0001:000D5468       aTrigger0Trigge
 0001:000D5484       aTrigger0NoTrig
 0001:000D54A0       aTrigger1Trigge
 0001:000D54BC       aTrigger1NoTrig
 0001:000D54D8       aFifoOverflowD
 0001:000D54F0       aShortLineD
 0001:000D5504       aShortFrameD
 0001:000D5518       aCurrentvideofi
 0001:000D5534       aLossOfHsync1Hs
 0001:000D5560       aLossOfHsync0Hs
 0001:000D5588       aLossOfVsync1Vs
 0001:000D55B4       aLossOfVsync0Vs
 0001:000D55DC       aFrameEndD
 0001:000D55F0       aMasterModeFram
 0001:000D560C       aCapturedWindow
 0001:000D5628       aUcBt_656Errors
 0001:000D5640       aIllegalProgram
 0001:000D565C       aSlvs_control0x
 0001:000D5674       aSlvsModeEnable
 0001:000D568C       aSonySensorMode
 0001:000D56A4       aSyncCodeRepeat
 0001:000D56CC       aSyncCodeRepe_0
 0001:000D56F8       aEnableSyncCode
 0001:000D5720       aEnableNJitterS
 0001:000D5744       aStallVinWhenSl
 0001:000D5768       aApplyNewParamA
 0001:000D5790       aApplyNewPara_0
 0001:000D57B8       aNumberOfActive
 0001:000D57DC       aEnableVsyncMax
 0001:000D57FC       aAllowVariableL
 0001:000D5820       aNumberOfCodeCh
 0001:000D583C       aSlvs_control10
 0001:000D5854       aSlvsSyncCodeRe
 0001:000D5878       aSlvsSyncCodeLs
 0001:000D5898       aSlvsDetectEavD
 0001:000D58B0       aSlvs_status0x0
 0001:000D58C8       aReceiverHadLoc
 0001:000D58F4       aReceiverEntere
 0001:000D591C       aVsyncPositiveE
 0001:000D5940       aVsyncNegativeE
 0001:000D5964       aOneFullActiveL
 0001:000D598C       aMax_FrameHeigh
 0001:000D59B0       aReceivedNewPro
 0001:000D59DC       aOutputStallSee
 0001:000D59F8       aInputEndOfLine
 0001:000D5A1C       aOutputEndOfLin
 0001:000D5A40       aSyncCodeMatchD
 0001:000D5A64       aPixelCaptureAc
 0001:000D5A84       aValidPixelHasB
 0001:000D5AAC       aSolHasBeenSent
 0001:000D5AD0       aEolHasBeenSent
 0001:000D5AF4       aSyncCodeErrorH
 0001:000D5B20       aSlvs_debug0x04
 0001:000D5B38       aSlvsReceiverLo
 0001:000D5B5C       aSlvsReceiverWa
 0001:000D5B80       aCurrentVsyncSt
 0001:000D5BA0       aSerialSyncCode
 0001:000D5BC0       aHblank0xX
 0001:000D5BD4       aVsyncGreaterTh
 0001:000D5BF4       aNewProgramingI
 0001:000D5C18       aOutputStall0xX
 0001:000D5C30       aSyncCodeWordCo
 0001:000D5C50       aPixelDepth0xX
 0001:000D5C68       aNumberOfActi_0
 0001:000D5C88       aMipi_config_00
 0001:000D5CA0       aMipi_config_10
 0001:000D5CB8       aVirtualchannel
 0001:000D5CD4       aVirtualchann_0
 0001:000D5CF0       aMipiLogicEnabl
 0001:000D5D0C       aMipiHsSettleCo
 0001:000D5D2C       aDecompressionI
 0001:000D5D6C       aDecompressio_0
 0001:000D5DAC       aDataTypeSelect
 0001:000D5DDC       aDataTypeSele_0
 0001:000D5E08       aDataTypeSele_1
 0001:000D5E34       aDataTypeSele_2
 0001:000D5E60       aDataTypeSele_3
 0001:000D5E8C       aDataTypeSele_4
 0001:000D5EC0       aDataTypeSele_5
 0001:000D5EF8       aDataTypeSele_6
 0001:000D5F30       aDataTypeSele_7
 0001:000D5F60       aDataTypeMask0x
 0001:000D5F78       aByteSwappingSh
 0001:000D5FA0       aMipi_error0x04
 0001:000D5FB8       a0DataLane0SotH
 0001:000D5FDC       a1DataLane1SotH
 0001:000D6000       a2DataLane2SotH
 0001:000D6024       a3DataLane3SotH
 0001:000D6048       a42BitOfErrorsD
 0001:000D6070       a51BitOfEroorCo
 0001:000D6098       a6CrcErrorDetec
 0001:000D60B4       a7UnknownPacket
 0001:000D60D8       a8FrameendFrame
 0001:000D6100       a9DataLane0SotH
 0001:000D6128       a10DataLane1Sot
 0001:000D6150       a11DataLane2Sot
 0001:000D6178       a12DataLane3Sot
 0001:000D61A0       aMipi_phy_state
 0001:000D61BC       a0RxHighSpeedCl
 0001:000D61D8       a1RxUltraLowPow
 0001:000D6200       a2ClockLaneUltr
 0001:000D6228       a3ClockLaneStop
 0001:000D6244       a4DataLane0Ultr
 0001:000D626C       a5DataLane0Stop
 0001:000D628C       a6DataLane1Ultr
 0001:000D62B4       a7DataLane1Stop
 0001:000D62D4       a8DataLane2Ultr
 0001:000D62FC       a9DataLane2Stop
 0001:000D631C       a10DataLane3Ult
 0001:000D6344       a11DataLane3Sto
 0001:000D6364       aMipi_phy_statu
 0001:000D6380       a0Rxactivehs00x
 0001:000D639C       a1Rxactivehs10x
 0001:000D63B8       a2Rxactivehs20x
 0001:000D63D4       a3Rxactivehs30x
 0001:000D63F0       a4Errcontrol00x
 0001:000D640C       a5Errcontrol10x
 0001:000D6428       a6Errcontrol20x
 0001:000D6444       a7Errcontrol30x
 0001:000D6460       aVinInfoParseBe
 0001:000D6478       aS_v_activeD
 0001:000D648C       aS_h_activeD
 0001:000D64A0       aS_v_totalD
 0001:000D64B4       aS_h_totalD
 0001:000D64C8       aS_minvD
 0001:000D64D8       aS_minhD
 0001:000D64E8       aS_voutstart00x
 0001:000D6500       aS_voutstart10x
 0001:000D6518       aS_captureUUUU
 0001:000D6534       aSlvs_savToSavF
 0001:000D6558       aSlvs_eavColumn
 0001:000D6584       aSlvs_vsync_max
 0001:000D659C       aSlvs_line_sync
 0001:000D65D4       aSlvs_data_lane
 0001:000D65EC       aLogical0123456
 0001:000D6620       aPhysicalUUUUUU
 0001:000D6660       aSlvs_sync_code
 0001:000D6678       aActiveVideoSav
 0001:000D66B4       aVerticalBlanki
 0001:000D66F4       aMipi_crc_error
 0001:000D671C       aMipi_framenumb
 0001:000D673C       aVinInfoParseEn
 0001:000D6754       aSEndpointStatu
 0001:000D6778       aSelfTestFailed
 0001:000D678C       aPartialDeletio
 0001:000D67A0       aStoreNotAvaila
 0001:000D67B4       aSpecByFormatUn
 0001:000D67D0       aNoValidObjectI
 0001:000D67E8       aInvalidCodeFor
 0001:000D67FC       aUnknownVendorC
 0001:000D6810       aCaptureAlready
 0001:000D682C       aDeviceBusy
 0001:000D6838       aInvalidParentO
 0001:000D6850       aInvalidDeviceP
 0001:000D686C       aInvalidDevic_0
 0001:000D6888       aInvalidParamet
 0001:000D689C       aSessionAlready
 0001:000D68B4       aTransactionCan
 0001:000D68CC       aSpecByDestinat
 0001:000D68EC       aInvalidObjectP
 0001:000D6908       aInvalidObjec_0
 0001:000D6924       aInvalidObjec_1
 0001:000D6940       aInvalidObjectR
 0001:000D695C       aGroupNotSuppor
 0001:000D6970       aInvalidDataset
 0001:000D6980       aSpecByGroupUns
 0001:000D699C       aSpecByDepthUns
 0001:000D69B8       aObjectTooLarge
 0001:000D69CC       aObjectPropNotS
 0001:000D69E8       aUnknown_1
 0001:000D69F0       a_ux_device_c_7
 0001:000D6A14       aError_1
 0001:000D6A40       aSPimaIsNull
 0001:000D6A80       aPtpRspBlkStart
 0001:000D6AB8       aRspCode0xXS
 0001:000D6ACC       aParam10xX
 0001:000D6ADC       aParam20xX
 0001:000D6AEC       aParam30xX
 0001:000D6AFC       aPtpRspBlkEnd
 0001:000D6B34       aGetDeviceInfo
 0001:000D6B44       aOpenSenssion
 0001:000D6B54       aCloseSession
 0001:000D6B64       aGetStorageIds
 0001:000D6B74       aGetStorageInfo
 0001:000D6B88       aGetNumObjects
 0001:000D6B98       aGetObjectHandl
 0001:000D6BAC       aGetObjectInfo
 0001:000D6BBC       aGetObject
 0001:000D6BC8       aGetThumb
 0001:000D6BD4       aDeleteObject
 0001:000D6BE4       aSendObjectInfo
 0001:000D6BF8       aSendObject
 0001:000D6C04       aFormatStore
 0001:000D6C14       aGetDevicePropV
 0001:000D6C2C       aSetDevicePropV
 0001:000D6C44       aGetPartialObje
 0001:000D6C58       aGetDevicePrope
 0001:000D6C74       aGetObjectPrope
 0001:000D6C94       aGetObjectPro_0
 0001:000D6CB0       aGetObjectPro_1
 0001:000D6CCC       aGetObjectPro_2
 0001:000D6CE8       aUnknown_2
 0001:000D6D10       aUx_device_cl_1
 0001:000D6D3C       aUx_slave_cla_6
 0001:000D6D64       aPtpCmdBlkStart
 0001:000D6D9C       aOpCode0xXS
 0001:000D6DB0       aParam10xX_0
 0001:000D6DC0       aParam20xX_0
 0001:000D6DD0       aParam30xX_0
 0001:000D6DE0       aParam40xX
 0001:000D6DF0       aParam50xX
 0001:000D6E00       aPtpCmdBlkEnd
 0001:000D6E38       aMtp_drvOperati
 0001:000D6E64       aUsbResetByHost
 0001:000D6E78       aUsbVbusDisconn
 0001:000D6E90       aUsbVbusConnect
 0001:000D6EA4       aSystemTimerThr
 0001:000D6ED8       aSvFRatio0xXCal
 0001:000D6F38       aAe_iso_cal_fun
 0001:000D6F48       aS_2
 0001:000D6F50       aEv_get_tv_valu
 0001:000D6F60       aErrorInImg_get
 0001:000D6F84       aK_assertAtSD_2
 0001:000D6F98       aTvFIndexDTv_4_
 0001:000D6FE4       aAvF
 0001:000D6FF8       aBvFLux_numberD
 0001:000D701C       aColumn_numberO
 0001:000D709C       aK_assertAtS_10
 0001:000D70B0       aAmbafs_nullprf
 0001:000D70C8       aPdm_open_dis_1
 0001:000D70E0       aPdm_open_par_1
 0001:000D70FC       aNoName_0
 0001:000D7908       aUsageSDriveOp
 0001:000D7920       aValidOps
 0001:000D7930       aInfoInformatio
 0001:000D7950       aInsertSoftware
 0001:000D796C       aEjectSoftwareE
 0001:000D7988       aSyncSyncCardOp
 0001:000D79A8       aEn_ffmonEnable
 0001:000D79D0       aDis_ffmonDisab
 0001:000D79F8       aMountSlot
 0001:000D7A08       aUnmountSlot
 0001:000D7A1C       aFast_ecnSlotPa
 0001:000D7A38       aReinitReInitia
 0001:000D7A64       aSdWorkingFrequ
 0001:000D7A80       aKhz
 0001:000D7A8C       aIostat_enable
 0001:000D7A9C       aIostat_disable
 0001:000D7AB0       aIostatDiagramB
 0001:000D7AD0       aFat32_ecl
 0001:000D7ADC       aDebou
 0001:000D7AE4       aFat12_1
 0001:000D7AEC       aFat16s
 0001:000D7AF4       aExtendedMsDosF
 0001:000D7B0C       aFat16_1
 0001:000D7B14       aFat32_1
 0001:000D7B1C       aFat32l
 0001:000D7B24       aExfat_1
 0001:000D7B2C       aFat16l
 0001:000D7B34       aExtendedMsDo_0
 0001:000D7B4C       aRomfs_0
 0001:000D7B54       aUnknown_4
 0001:000D7B5C       aNoDiagram
 0001:000D7B68       a5dSecs
 0001:000D7B78       aD_1
 0001:000D7B80       aSwitch_0
 0001:000D7B88       aDrvinfo
 0001:000D7B90       aInfo_4
 0001:000D7B98       aCannotGetSta_0
 0001:000D7BAC       aMemoryIOComb_0
 0001:000D7BC0       aMechanicalMe_0
 0001:000D7BD4       aSdxcMemory_0
 0001:000D7BE0       aSdhcMemory_0
 0001:000D7BEC       aSdMemory_0
 0001:000D7BF8       aMmcMemory_0
 0001:000D7C04       aMemory_0
 0001:000D7C0C       aUnknown_5
 0001:000D7C14       aSlotCInfo
 0001:000D7C24       aPresentS
 0001:000D7C34       aTypeS
 0001:000D7C40       aNameS_0
 0001:000D7C4C       aBusWidthD
 0001:000D7C5C       aTotalSectors_1
 0001:000D7C70       aSectorSizeD_0
 0001:000D7C84       aWriteProtectS
 0001:000D7C98       aFormatS
 0001:000D7CA8       aSpeedS
 0001:000D7CB4       aInsert_0
 0001:000D7CBC       aCardAlreadyPre
 0001:000D7CD4       aCardInserted
 0001:000D7CE4       aCannotInsertCa
 0001:000D7CFC       aEject
 0001:000D7D04       aCardEjected
 0001:000D7D14       aCannotEjectCar
 0001:000D7D28       aMount
 0001:000D7D30       aMountFail
 0001:000D7D40       aUnmount
 0001:000D7D48       aUnmountFail
 0001:000D7D58       aReinit
 0001:000D7D60       aNoCardInSlot
 0001:000D7D74       aNotSupported
 0001:000D7D84       aCannotReinitCa
 0001:000D7D9C       aIostat_enabl_0
 0001:000D7DAC       aIoStatisticsEn
 0001:000D7DC4       aIostat_disab_0
 0001:000D7DD4       aIoStatisticsDi
 0001:000D7DEC       aIostat
 0001:000D7DF4       aReadDiagram
 0001:000D7E54       aWriteDiagram
 0001:000D7E64       aIoStatistics
 0001:000D7E74       aBytesReadU
 0001:000D7E84       aReadTimeElap_1
 0001:000D7EA0       aBytesWritenU
 0001:000D7EB4       aWriteTimeEla_0
 0001:000D7ED0       aReadThroughp_0
 0001:000D7EF0       aWriteThrough_0
 0001:000D7F10       aGetIoStatistic
 0001:000D7F2C       aUsageSFile
 0001:000D7F40       aCwdSIsOffline
 0001:000D7F58       aSSS_0
 0001:000D7F68       aSSNotFound
 0001:000D7F7C       aUsageSPath
 0001:000D7F90       aSSS_1
 0001:000D7FA0       aCwdSIsOfflin_0
 0001:000D7FB8       aCdSFailed
 0001:000D7FC8       aSSS_2
 0001:000D7FD4       aUsage1SRASHFil
 0001:000D7FFC       aUsage2SDRASHDi
 0001:000D802C       aCwdSIsOfflin_1
 0001:000D8044       aSSS_3
 0001:000D8054       aNumberOfChange
 0001:000D806C       aDo_chmoddirFai
 0001:000D8080       aUsageSPathPatt
 0001:000D809C       aUsageSSYyyyMmD
 0001:000D80C0       aSun
 0001:000D80C4       aMon
 0001:000D80C8       aTue
 0001:000D80CC       aWed
 0001:000D80D0       aThu
 0001:000D80D4       aFri
 0001:000D80D8       aSat
 0001:000D80DC       aJan
 0001:000D80E0       aFeb
 0001:000D80E4       aMar
 0001:000D80E8       aApr
 0001:000D80EC       aMay
 0001:000D80F0       aJun
 0001:000D80F4       aJul
 0001:000D80F8       aAug
 0001:000D80FC       aSep
 0001:000D8100       aOct
 0001:000D8104       aNov
 0001:000D8108       aDec
 0001:000D810C       a3s3s02d02d02d0
 0001:000D8130       aUsage_1
 0001:000D8138       aSRtosDspOnOffR
 0001:000D8168       aSRtosDspDsp_de
 0001:000D81A8       aFailedToSetMes
 0001:000D81C8       aRtosMessageOn
 0001:000D81DC       aRtosMessageOff
 0001:000D81F0       aDspMessageOn
 0001:000D8204       aDspMessageOff
 0001:000D8218       aRtos
 0001:000D8220       aDsp_debug
 0001:000D822C       aProg
 0001:000D8234       aPrepro
 0001:000D823C       aStorage0
 0001:000D8248       aStorage1
 0001:000D8254       aIndexforvideor
 0001:000D826C       aUsersetting
 0001:000D8278       aCalibrationdat
 0001:000D829C       aAmbanftl_get_0
 0001:000D82B8       aCS_bin
 0001:000D82C4       aAmbafs_fopen_2
 0001:000D82E0       aAmbanftl_readD
 0001:000D8308       aCwdSIsOfflin_2
 0001:000D8320       a4l
 0001:000D8328       a4h
 0001:000D8330       aValidTargetsFo
 0001:000D8358       aUsageSDrivePar
 0001:000D8374       aParamFat12Fat1
 0001:000D83E8       aMediaUnavailab
 0001:000D83FC       aSS_10
 0001:000D8408       aFormatSuccessf
 0001:000D841C       aSupportedBuilt
 0001:000D843C       aS_30
 0001:000D8444       aStartTimeDMs
 0001:000D8458       aCCCCCS2d4d_2d_
 0001:000D8488       aEndTimeDMs
 0001:000D849C       aDFilesTotalTak
 0001:000D84CC       aNul
 0001:000D84D0       aJan_0
 0001:000D84D4       aFeb_0
 0001:000D84D8       aMar_0
 0001:000D84DC       aApr_0
 0001:000D84E0       aMay_0
 0001:000D84E4       aJun_0
 0001:000D84E8       aJul_0
 0001:000D84EC       aAug_0
 0001:000D84F0       aSep_0
 0001:000D84F4       aOct_0
 0001:000D84F8       aNov_0
 0001:000D84FC       aDec_0
 0001:000D8500       aS_19
 0001:000D8508       aCwdSIsOfflin_3
 0001:000D8520       a__0
 0001:000D8524       aUsageSDir
 0001:000D8538       aSSCannotCreate
 0001:000D855C       aCwdSIsOfflin_4
 0001:000D8574       aMkdirSFailed
 0001:000D8584       aNftl_stg
 0001:000D8590       aNftl_stg2_0
 0001:000D859C       aNftl_idx_0
 0001:000D85A8       aNftl_prf_0
 0001:000D85B4       aNftl_cal_0
 0001:000D85C0       aRs
 0001:000D85C4       aWs
 0001:000D85C8       aVerify
 0001:000D85D0       aPr
 0001:000D85D4       aPw
 0001:000D85D8       aErase_1
 0001:000D85E0       aErase_lba
 0001:000D85EC       aThruput_0
 0001:000D85F4       aInit_7
 0001:000D85FC       aDeinit
 0001:000D8604       aStatus_2
 0001:000D860C       aRclm_bb
 0001:000D8614       aBbm
 0001:000D8618       aL2p
 0001:000D861C       aP2l
 0001:000D8620       aUlba
 0001:000D8628       aUupba
 0001:000D8630       aUsageSRandIn_1
 0001:000D8668       aRand_0
 0001:000D8670       aDump_4
 0001:000D8678       aStg2
 0001:000D8680       aInvalidArgumen
 0001:000D8694       aOutOfMemory_1
 0001:000D86A4       aReadSectorDWit
 0001:000D86C8       aReadError
 0001:000D86D8       aSectorDByteD_0
 0001:000D871C       a2x
 0001:000D873C       aFailed_1
 0001:000D8748       aSuccess_2
 0001:000D8754       aUsageSRandIn_2
 0001:000D878C       aZero_0
 0001:000D8794       aWriteSectorDWi
 0001:000D87BC       aVerifySectorDW
 0001:000D87E4       a4l_0
 0001:000D87EC       aWriteSectorDEr
 0001:000D8804       aReadSectorDErr
 0001:000D881C       aVerifySectorDE
 0001:000D8840       a4h_0
 0001:000D8848       aUsageSSMMeSRan
 0001:000D888C       aAmbsh_nftl_pre
 0001:000D88A0       aK_assertAtS_30
 0001:000D88B4       aReadBlockDPage
 0001:000D88E0       aPageDByteDIs0x
 0001:000D890C       aUsageSSMMeSR_0
 0001:000D8950       aAmbsh_nftl_pwr
 0001:000D8964       aWriteBlockDPag
 0001:000D8990       aUsageSS
 0001:000D89A0       aEraseSucceed
 0001:000D89B0       aEraseFailed
 0001:000D89C0       aUsageSSStart_l
 0001:000D89E8       aStart_lbaStart
 0001:000D8A0C       aBlocksNumberOf
 0001:000D8A34       aCleanUpFromLog
 0001:000D8A5C       aEraseLogicalBl
 0001:000D8A7C       aEraseLogical_0
 0001:000D8A9C       aUsageSBsAreasS
 0001:000D8ABC       aAmbsh_nftl_thr
 0001:000D8AD0       aAreaSizeDMb
 0001:000D8AE4       aOutOfMemory_3
 0001:000D8AF4       aAreaDStartFromDMb
 0001:000D8B10       aWriteTimeEla_1
 0001:000D8B30       aWriteTimeThrou
 0001:000D8B58       aReadTimeElap_2
 0001:000D8B74       aReadTimeThroug
 0001:000D8B98       aDFF_0
 0001:000D8BA4       aDNftl_log_csv
 0001:000D8BB4       aFopenFailedD_1
 0001:000D8BC8       aFwriteFailed_1
 0001:000D8BDC       aUsageSSAllMode
 0001:000D8C44       aSNftlInitFaile
 0001:000D8C5C       aSNftlInitSucce
 0001:000D8C74       aUsageSSAll
 0001:000D8C88       aSNftlDeinitFai
 0001:000D8CA4       aSNftlDeinitSuc
 0001:000D8CE8       aNameS_1
 0001:000D8CF8       aNotInitialized
 0001:000D8D0C       aStartichunkblk
 0001:000D8D24       aIchunkblksD
 0001:000D8D38       aStartftlblkD
 0001:000D8D4C       aFtlblocksD
 0001:000D8D60       aLblksperzoneD
 0001:000D8D74       aPblksperzoneD
 0001:000D8D88       aRblks_per_zone
 0001:000D8DA0       aTotalzonesD
 0001:000D8DB4       aNumbbD
 0001:000D8DC4       aTotal_logical_
 0001:000D8DE0       aTotalsecsD
 0001:000D8DF4       aTotal_sizeDKb
 0001:000D8E0C       aWrprotectD
 0001:000D8E20       aUsageSSAllInit
 0001:000D8E7C       aS_17
 0001:000D8E84       aSReclaimBadBlo
 0001:000D8EA4       aBeforeReclaimT
 0001:000D8EC8       aAfterReclaimTh
 0001:000D8EEC       aFalseBadBlocks
 0001:000D8F04       aNumberOfBad_bl
 0001:000D8F2C       aNumberOfFailed
 0001:000D8F48       aNumberOfFail_0
 0001:000D8F64       aNumberOfFail_1
 0001:000D8F84       aZoneDDD
 0001:000D8F98       aOriginalBb_inf
 0001:000D8FB0       aBadBlocksD
 0001:000D8FC4       aAvaiableSpareB
 0001:000D8FE0       aMinimunSpareBl
 0001:000D900C       aUsageSSBlockPa
 0001:000D9034       aTheMaximunBloc
 0001:000D9058       aNoPhysicalAddr
 0001:000D9070       aPhysicalAddres
 0001:000D9090       aBlockD
 0001:000D909C       aPageD_0
 0001:000D90A8       aAbsolutePageD
 0001:000D90BC       aSectorD
 0001:000D90C8       aAbsoluteSector
 0001:000D90E0       aNoLogicalAddre
 0001:000D90F4       aLogicalAddress
 0001:000D9114       aSUsedLogicalBl
 0001:000D9138       aNumberOfUsedLo
 0001:000D915C       aTotalNumberOfL
 0001:000D9180       aSUnusedPhysica
 0001:000D91A8       a4d_1
 0001:000D91B0       a4d_2
 0001:000D91B8       aNumberOfUnused
 0001:000D91E0       aTotalNumberOfP
 0001:000D9208       aValidTestTar_0
 0001:000D922C       aS_22
 0001:000D9234       aReady
 0001:000D923C       aCompleted
 0001:000D9248       aTerminated
 0001:000D9254       aSuspended
 0001:000D9260       aSleep_0
 0001:000D9268       aQueue_susp
 0001:000D9274       aSemaphore_susp
 0001:000D9284       aEvent_flag
 0001:000D9290       aBlock_memory
 0001:000D92A0       aByte_memory
 0001:000D92AC       aIo_driver
 0001:000D92B8       aFile
 0001:000D92C0       aTcp_ip
 0001:000D92C8       aMutex_susp
 0001:000D92D4       aUsageSTskProfi
 0001:000D92F0       aSTskTaskInfo
 0001:000D930C       aSIrqResetAllId
 0001:000D9338       aSProfileResetP
 0001:000D9368       aIdPriPreemptSc
 0001:000D9450       a3d5d9d7d16s9d9
 0001:000D9484       aReset_2
 0001:000D948C       aProfile_1
 0001:000D9494       aUsageSAddrVal
 0001:000D94AC       aUsageSAddr
 0001:000D94C0       a0x_2x
 0001:000D94C8       a0x_4x
 0001:000D94D0       a0x_8x
 0001:000D94D8       aUsageRebootYes
 0001:000D94F0       aRebooting___
 0001:000D9504       aUsageSFile_0
 0001:000D9518       aCwdSIsOfflin_5
 0001:000D9530       aSSS_4
 0001:000D9540       aSSNotFound_0
 0001:000D9554       aUsageSFilename
 0001:000D9580       aNoDriveAssigne
 0001:000D9594       aMediaUnavail_0
 0001:000D95A8       aUnknownSyntax
 0001:000D95BC       aSSErrD
 0001:000D95D0       aUsageSSec
 0001:000D95E4       aUsageSSrStandb
 0001:000D95FC       aStandby_0
 0001:000D9604       aUsageSDriveNam
 0001:000D9620       aDriveCVolumeIs
 0001:000D9640       aVolumeS
 0001:000D964C       aTotalClustersL
 0001:000D9664       aEmptyClustersL
 0001:000D967C       aBytesPerSect_0
 0001:000D9694       aSectorsPerClus
 0001:000D96B0       aClustersPerGro
 0001:000D96C8       aEmptyClusterGr
 0001:000D96E4       aTotalSpaceLldK
 0001:000D96FC       aUsedSpaceLldKb
 0001:000D9714       aFreeSpaceLldKb
 0001:000D972C       aGetFree_direct
 0001:000D9750       aFreeDirectoryE
 0001:000D976C       aSetVolumeOnCDr
 0001:000D9790       aVolumeOnCDrive
 0001:000D97B0       aRaster1
 0001:000D97B8       aRaster5
 0001:000D9850       aSmooth
 0001:000D9858       aSmoothLcd
 0001:000D9864       aSmoothLcdv
 0001:000D9954       aPostscriptCmaps
 0001:000D9968       aPsnames
 0001:000D9970       a_null
 0001:000D9976       aNonmarkingretu
 0001:000D9987       aNotequal
 0001:000D9990       aInfinity
 0001:000D9999       aLessequal
 0001:000D99A3       aGreaterequal
 0001:000D99B0       aPartialdiff
 0001:000D99BC       aSummation
 0001:000D99C6       aProduct
 0001:000D99CE       aPi
 0001:000D99D1       aIntegral
 0001:000D99DA       aOmega
 0001:000D99E0       aRadical
 0001:000D99E8       aApproxequal
 0001:000D99F4       aDelta
 0001:000D99FA       aNonbreakingspa
 0001:000D9A0B       aLozenge
 0001:000D9A13       aApple
 0001:000D9A19       aFranc
 0001:000D9A1F       aGbreve
 0001:000D9A26       aGbreve_0
 0001:000D9A2D       aIdotaccent
 0001:000D9A38       aScedilla
 0001:000D9A41       aScedilla_0
 0001:000D9A4A       aCacute
 0001:000D9A51       aCacute_0
 0001:000D9A58       aCcaron
 0001:000D9A5F       aCcaron_0
 0001:000D9A66       aDcroat
 0001:000D9A6D       a_notdef
 0001:000D9A75       aSpace
 0001:000D9A7B       aExclam
 0001:000D9A82       aQuotedbl
 0001:000D9A8B       aNumbersign
 0001:000D9A96       aDollar
 0001:000D9A9D       aPercent
 0001:000D9AA5       aAmpersand
 0001:000D9AAF       aQuoteright
 0001:000D9ABA       aParenleft
 0001:000D9AC4       aParenright
 0001:000D9ACF       aAsterisk
 0001:000D9AD8       aPlus
 0001:000D9ADD       aComma
 0001:000D9AE3       aHyphen
 0001:000D9AEA       aPeriod
 0001:000D9AF1       aSlash
 0001:000D9AF7       aZero_1
 0001:000D9AFC       aOne
 0001:000D9B00       aTwo
 0001:000D9B04       aThree
 0001:000D9B0A       aFour
 0001:000D9B0F       aFive
 0001:000D9B14       aSix
 0001:000D9B18       aSeven
 0001:000D9B1E       aEight
 0001:000D9B24       aNine
 0001:000D9B29       aColon
 0001:000D9B2F       aSemicolon
 0001:000D9B39       aLess
 0001:000D9B3E       aEqual
 0001:000D9B44       aGreater
 0001:000D9B4C       aQuestion
 0001:000D9B55       aAt
 0001:000D9B58       aAbcdefghijklmn
 0001:000D9B8C       aBracketleft
 0001:000D9B98       aBackslash
 0001:000D9BA2       aBracketright
 0001:000D9BAF       aAsciicircum
 0001:000D9BBB       aUnderscore
 0001:000D9BC6       aQuoteleft
 0001:000D9BD0       aAbcdefghijkl_0
 0001:000D9C04       aBraceleft
 0001:000D9C0E       aBar
 0001:000D9C12       aBraceright
 0001:000D9C1D       aAsciitilde
 0001:000D9C28       aExclamdown
 0001:000D9C33       aCent
 0001:000D9C38       aSterling
 0001:000D9C41       aFraction
 0001:000D9C4A       aYen
 0001:000D9C4E       aFlorin
 0001:000D9C55       aSection
 0001:000D9C5D       aCurrency
 0001:000D9C66       aQuotesingle
 0001:000D9C72       aQuotedblleft
 0001:000D9C7F       aGuillemotleft
 0001:000D9C8D       aGuilsinglleft
 0001:000D9C9B       aGuilsinglright
 0001:000D9CAA       aFi
 0001:000D9CAD       aFl
 0001:000D9CB0       aEndash
 0001:000D9CB7       aDagger
 0001:000D9CBE       aDaggerdbl
 0001:000D9CC8       aPeriodcentered
 0001:000D9CD7       aParagraph
 0001:000D9CE1       aBullet
 0001:000D9CE8       aQuotesinglbase
 0001:000D9CF7       aQuotedblbase
 0001:000D9D04       aQuotedblright
 0001:000D9D12       aGuillemotright
 0001:000D9D21       aEllipsis
 0001:000D9D2A       aPerthousand
 0001:000D9D36       aQuestiondown
 0001:000D9D43       aGrave
 0001:000D9D49       aAcute
 0001:000D9D4F       aCircumflex
 0001:000D9D5A       aTilde
 0001:000D9D60       aMacron
 0001:000D9D67       aBreve
 0001:000D9D6D       aDotaccent
 0001:000D9D77       aDieresis
 0001:000D9D80       aRing
 0001:000D9D85       aCedilla
 0001:000D9D8D       aHungarumlaut
 0001:000D9D9A       aOgonek
 0001:000D9DA1       aCaron
 0001:000D9DA7       aEmdash
 0001:000D9DAE       aAe_0
 0001:000D9DB1       aOrdfeminine
 0001:000D9DBD       aLslash
 0001:000D9DC4       aOslash
 0001:000D9DCB       aOe
 0001:000D9DCE       aOrdmasculine
 0001:000D9DDB       aAe_1
 0001:000D9DDE       aDotlessi
 0001:000D9DE7       aLslash_0
 0001:000D9DEE       aOslash_0
 0001:000D9DF5       aOe_0
 0001:000D9DF8       aGermandbls
 0001:000D9E03       aOnesuperior
 0001:000D9E0F       aLogicalnot
 0001:000D9E1A       aMu
 0001:000D9E1D       aTrademark
 0001:000D9E27       aEth
 0001:000D9E2B       aOnehalf
 0001:000D9E33       aPlusminus
 0001:000D9E3D       aThorn
 0001:000D9E43       aOnequarter
 0001:000D9E4E       aDivide
 0001:000D9E55       aBrokenbar
 0001:000D9E5F       aDegree
 0001:000D9E66       aThorn_0
 0001:000D9E6C       aThreequarters
 0001:000D9E7A       aTwosuperior
 0001:000D9E86       aRegistered
 0001:000D9E91       aMinus
 0001:000D9E97       aEth_0
 0001:000D9E9B       aMultiply
 0001:000D9EA4       aThreesuperior
 0001:000D9EB2       aCopyright
 0001:000D9EBC       aAacute
 0001:000D9EC3       aAcircumflex
 0001:000D9ECF       aAdieresis
 0001:000D9ED9       aAgrave
 0001:000D9EE0       aAring
 0001:000D9EE6       aAtilde
 0001:000D9EED       aCcedilla
 0001:000D9EF6       aEacute
 0001:000D9EFD       aEcircumflex
 0001:000D9F09       aEdieresis
 0001:000D9F13       aEgrave
 0001:000D9F1A       aIacute
 0001:000D9F21       aIcircumflex
 0001:000D9F2D       aIdieresis
 0001:000D9F37       aIgrave
 0001:000D9F3E       aNtilde
 0001:000D9F45       aOacute
 0001:000D9F4C       aOcircumflex
 0001:000D9F58       aOdieresis
 0001:000D9F62       aOgrave
 0001:000D9F69       aOtilde
 0001:000D9F70       aScaron
 0001:000D9F77       aUacute
 0001:000D9F7E       aUcircumflex
 0001:000D9F8A       aUdieresis
 0001:000D9F94       aUgrave
 0001:000D9F9B       aYacute
 0001:000D9FA2       aYdieresis
 0001:000D9FAC       aZcaron
 0001:000D9FB3       aAacute_0
 0001:000D9FBA       aAcircumflex_0
 0001:000D9FC6       aAdieresis_0
 0001:000D9FD0       aAgrave_0
 0001:000D9FD7       aAring_0
 0001:000D9FDD       aAtilde_0
 0001:000D9FE4       aCcedilla_0
 0001:000D9FED       aEacute_0
 0001:000D9FF4       aEcircumflex_0
 0001:000DA000       aEdieresis_0
 0001:000DA00A       aEgrave_0
 0001:000DA011       aIacute_0
 0001:000DA018       aIcircumflex_0
 0001:000DA024       aIdieresis_0
 0001:000DA02E       aIgrave_0
 0001:000DA035       aNtilde_0
 0001:000DA03C       aOacute_0
 0001:000DA043       aOcircumflex_0
 0001:000DA04F       aOdieresis_0
 0001:000DA059       aOgrave_0
 0001:000DA060       aOtilde_0
 0001:000DA067       aScaron_0
 0001:000DA06E       aUacute_0
 0001:000DA075       aUcircumflex_0
 0001:000DA081       aUdieresis_0
 0001:000DA08B       aUgrave_0
 0001:000DA092       aYacute_0
 0001:000DA099       aYdieresis_0
 0001:000DA0A3       aZcaron_0
 0001:000DA0AA       aExclamsmall
 0001:000DA0B6       aHungarumlautsm
 0001:000DA0C8       aDollaroldstyle
 0001:000DA0D7       aDollarsuperior
 0001:000DA0E6       aAmpersandsmall
 0001:000DA0F5       aAcutesmall
 0001:000DA100       aParenleftsuper
 0001:000DA112       aParenrightsupe
 0001:000DA125       aTwodotenleader
 0001:000DA134       aOnedotenleader
 0001:000DA143       aZerooldstyle
 0001:000DA150       aOneoldstyle
 0001:000DA15C       aTwooldstyle
 0001:000DA168       aThreeoldstyle
 0001:000DA176       aFouroldstyle
 0001:000DA183       aFiveoldstyle
 0001:000DA190       aSixoldstyle
 0001:000DA19C       aSevenoldstyle
 0001:000DA1AA       aEightoldstyle
 0001:000DA1B8       aNineoldstyle
 0001:000DA1C5       aCommasuperior
 0001:000DA1D3       aThreequarterse
 0001:000DA1E7       aPeriodsuperior
 0001:000DA1F6       aQuestionsmall
 0001:000DA204       aAsuperior
 0001:000DA20E       aBsuperior
 0001:000DA218       aCentsuperior
 0001:000DA225       aDsuperior
 0001:000DA22F       aEsuperior
 0001:000DA239       aIsuperior
 0001:000DA243       aLsuperior
 0001:000DA24D       aMsuperior
 0001:000DA257       aNsuperior
 0001:000DA261       aOsuperior
 0001:000DA26B       aRsuperior
 0001:000DA275       aSsuperior
 0001:000DA27F       aTsuperior
 0001:000DA289       aFf
 0001:000DA28C       aFfi
 0001:000DA290       aFfl
 0001:000DA294       aParenleftinfer
 0001:000DA2A6       aParenrightinfe
 0001:000DA2B9       aCircumflexsmal
 0001:000DA2C9       aHyphensuperior
 0001:000DA2D8       aGravesmall
 0001:000DA2E3       aAsmall
 0001:000DA2EA       aBsmall
 0001:000DA2F1       aCsmall
 0001:000DA2F8       aDsmall
 0001:000DA2FF       aEsmall
 0001:000DA306       aFsmall
 0001:000DA30D       aGsmall
 0001:000DA314       aHsmall
 0001:000DA31B       aIsmall
 0001:000DA322       aJsmall
 0001:000DA329       aKsmall
 0001:000DA330       aLsmall
 0001:000DA337       aMsmall
 0001:000DA33E       aNsmall
 0001:000DA345       aOsmall
 0001:000DA34C       aPsmall
 0001:000DA353       aQsmall
 0001:000DA35A       aRsmall
 0001:000DA361       aSsmall
 0001:000DA368       aTsmall
 0001:000DA36F       aUsmall
 0001:000DA376       aVsmall
 0001:000DA37D       aWsmall
 0001:000DA384       aXsmall
 0001:000DA38B       aYsmall
 0001:000DA392       aZsmall
 0001:000DA399       aColonmonetary
 0001:000DA3A7       aOnefitted
 0001:000DA3B1       aRupiah
 0001:000DA3B8       aTildesmall
 0001:000DA3C3       aExclamdownsmal
 0001:000DA3D3       aCentoldstyle
 0001:000DA3E0       aLslashsmall
 0001:000DA3EC       aScaronsmall
 0001:000DA3F8       aZcaronsmall
 0001:000DA404       aDieresissmall
 0001:000DA412       aBrevesmall
 0001:000DA41D       aCaronsmall
 0001:000DA428       aDotaccentsmall
 0001:000DA437       aMacronsmall
 0001:000DA443       aFiguredash
 0001:000DA44E       aHypheninferior
 0001:000DA45D       aOgoneksmall
 0001:000DA469       aRingsmall
 0001:000DA473       aCedillasmall
 0001:000DA480       aQuestiondownsm
 0001:000DA492       aOneeighth
 0001:000DA49C       aThreeeighths
 0001:000DA4A9       aFiveeighths
 0001:000DA4B5       aSeveneighths
 0001:000DA4C2       aOnethird
 0001:000DA4CB       aTwothirds
 0001:000DA4D5       aZerosuperior
 0001:000DA4E2       aFoursuperior
 0001:000DA4EF       aFivesuperior
 0001:000DA4FC       aSixsuperior
 0001:000DA508       aSevensuperior
 0001:000DA516       aEightsuperior
 0001:000DA524       aNinesuperior
 0001:000DA531       aZeroinferior
 0001:000DA53E       aOneinferior
 0001:000DA54A       aTwoinferior
 0001:000DA556       aThreeinferior
 0001:000DA564       aFourinferior
 0001:000DA571       aFiveinferior
 0001:000DA57E       aSixinferior
 0001:000DA58A       aSeveninferior
 0001:000DA598       aEightinferior
 0001:000DA5A6       aNineinferior
 0001:000DA5B3       aCentinferior
 0001:000DA5C0       aDollarinferior
 0001:000DA5CF       aPeriodinferior
 0001:000DA5DE       aCommainferior
 0001:000DA5EC       aAgravesmall
 0001:000DA5F8       aAacutesmall
 0001:000DA604       aAcircumflexsma
 0001:000DA615       aAtildesmall
 0001:000DA621       aAdieresissmall
 0001:000DA630       aAringsmall
 0001:000DA63B       aAesmall
 0001:000DA643       aCcedillasmall
 0001:000DA651       aEgravesmall
 0001:000DA65D       aEacutesmall
 0001:000DA669       aEcircumflexsma
 0001:000DA67A       aEdieresissmall
 0001:000DA689       aIgravesmall
 0001:000DA695       aIacutesmall
 0001:000DA6A1       aIcircumflexsma
 0001:000DA6B2       aIdieresissmall
 0001:000DA6C1       aEthsmall
 0001:000DA6CA       aNtildesmall
 0001:000DA6D6       aOgravesmall
 0001:000DA6E2       aOacutesmall
 0001:000DA6EE       aOcircumflexsma
 0001:000DA6FF       aOtildesmall
 0001:000DA70B       aOdieresissmall
 0001:000DA71A       aOesmall
 0001:000DA722       aOslashsmall
 0001:000DA72E       aUgravesmall
 0001:000DA73A       aUacutesmall
 0001:000DA746       aUcircumflexsma
 0001:000DA757       aUdieresissmall
 0001:000DA766       aYacutesmall
 0001:000DA772       aThornsmall
 0001:000DA77D       aYdieresissmall
 0001:000DA78C       a001_000
 0001:000DA794       a001_001
 0001:000DA79C       a001_002
 0001:000DA7A4       a001_003
 0001:000DA7AC       aBlack
 0001:000DA7B2       aBold
 0001:000DA7B7       aBook
 0001:000DA7BC       aLight
 0001:000DA7C2       aMedium
 0001:000DA7C9       aRegular
 0001:000DA7D1       aRoman
 0001:000DA7D7       aSemibold
 0001:000DB148       aSfntTable
 0001:000DB154       aPostscriptFontName
 0001:000DB16C       aGlyphDict_0
 0001:000DB178       aBdf
 0001:000DB17C       aTtCmaps
 0001:000DB188       aSfnt
 0001:000DB190       aPostscriptCmap
 0001:000DB1A4       aCharset_regist
 0001:000DB1B8       aCharset_encodi
 0001:000DB7DC       aXf86DriverName
 0001:000DB7F0       aTruetype
 0001:000DB7FC       aTruetypeEngine
 0001:000DB80C       aTtGlyf
 0001:000DB814       aTruetype_0
 0001:000DB820       aSfnt_0
 0001:000DB828       a_notdef_0
 0001:000DB8B8       aDfkaishoSb
 0001:000DB8C9       aDfkaishu
 0001:000DB8DA       aDfkaiSb
 0001:000DB8EB       aHuatiankaiti
 0001:000DB8FC       aHuatiansongti
 0001:000DB90D       aMingliu
 0001:000DB91E       aPmingliu
 0001:000DB92F       aMingli43
 0001:000DBDF4       aLoad_3
 0001:000DBDFC       aSync_debug
 0001:000DBE08       aEnable_debug_t
 0001:000DBE1C       aClear_debug_ti
 0001:000DBE30       aPrint_debug_ti
 0001:000DBE44       aDrop_repeat
 0001:000DBE50       aSensorCmdLoad
 0001:000DBE60       aSensorSyncDebu
 0001:000DBE84       aAeEnableDebugT
 0001:000DBEAC       aClearDebugTimi
 0001:000DBEC8       aPrintDebugTimi
 0001:000DBEE4       aDropRepeatDDDD
 0001:000DBF08       aLoad_2
 0001:000DBF10       aDebug_7
 0001:000DBF18       aSystemCmdLoad
 0001:000DBF28       aImageSystemDeb
 0001:000DBF74       aErrorDsp_im_28
 0001:000DBFCC       aErrorDsp_im_29
 0001:000DC024       aWarningDsp_img
 0001:000DC084       aErrorDsp_im_30
 0001:000DC0D8       aErrorDsp_im_31
 0001:000DC12C       aWarningDsp_i_0
 0001:000DC188       aErrorDsp_im_32
 0001:000DC1E8       aErrorDsp_im_33
 0001:000DC248       aWarningDsp_i_1
 0001:000DC2B0       aErrorDsp_im_34
 0001:000DC310       aErrorDsp_im_35
 0001:000DC374       aWarningDsp_i_2
 0001:000DC3DC       aErrorDsp_im_36
 0001:000DC438       aErrorDsp_im_37
 0001:000DC494       aWarningDsp_i_3
 0001:000DC4F8       aErrorDsp_im_38
 0001:000DC548       aErrorDsp_im_39
 0001:000DC598       aWarningDsp_i_4
 0001:000DC5F0       aErrorDsp_im_40
 0001:000DC640       aErrorDsp_im_41
 0001:000DC690       aWarningDsp_i_5
 0001:000DC6E8       aErrorDsp_im_42
 0001:000DC738       aErrorDsp_im_43
 0001:000DC830       aErrorUndefin_1
 0001:000DC854       aErrorUndefin_0
 0001:000DC874       aErrorDsp_im_44
 0001:000DC8C4       aErrorDsp_im_45
 0001:000DC914       aErrorDsp_im_46
 0001:000DC958       aErrorDsp_im_47
 0001:000DC99C       aErrorDsp_im_76
 0001:000DC9E4       aErrorDsp_im_77
 0001:000DCA2C       aErrorDsp_im_88
 0001:000DCA80       aErrorDsp_im_89
 0001:000DCAD4       aUsePincc3dhi_0
 0001:000DCAF8       aErrorDsp_im_48
 0001:000DCB38       aErrorDsp_im_49
 0001:000DCB7C       aErrorDsp_im_50
 0001:000DCBC4       aErrorDsp_im_51
 0001:000DCC0C       aErrorDsp_im_52
 0001:000DCC54       aErrorDsp_im_53
 0001:000DCC9C       aErrorDsp_im_54
 0001:000DCCE4       aErrorDsp_im_55
 0001:000DCD34       aErrorDsp_im_56
 0001:000DCD7C       aErrorDsp_im_57
 0001:000DCDC8       aErrorDsp_im_58
 0001:000DCE14       aErrorDsp_im_59
 0001:000DCE68       aErrorDsp_im_60
 0001:000DCEBC       aErrorDsp_im_61
 0001:000DCF10       aErrorDsp_im_62
 0001:000DCF68       aErrorDsp_im_63
 0001:000DCFB4       aErrorDsp_im_64
 0001:000DD004       aErrorAmbadsp_0
 0001:000DD054       aErrorDsp_im_65
 0001:000DD0AC       aErrorDsp_im_66
 0001:000DD108       aErrorDsp_im_67
 0001:000DD160       aErrorDsp_im_68
 0001:000DD1B8       aErrorDsp_im_69
 0001:000DD21C       aErrorDsp_im_70
 0001:000DD280       aErrorDsp_im_71
 0001:000DD2E4       aErrorDsp_im_72
 0001:000DD348       aErrorDsp_im_73
 0001:000DD550       aUvcDefaultUnkn
 0001:000DD578       aUvc_it_process
 0001:000DD5A8       aSOut_of_rangeI
 0001:000DD5CC       aSUnknownBreque
 0001:000DD5EC       aUvc_it_proce_0
 0001:000DD618       aUvc_process_re
 0001:000DD630       aSUnsupportedCo
 0001:000DD65C       aUnknownControl
 0001:000DD67C       aProcess_reques
 0001:000DD6A0       aUvcRequestErrorCodeControlUvc_get_curCode0xX
 0001:000DD6DC       aSUnknownVcRequ
 0001:000DD700       aProcess_power_
 0001:000DD71C       aPowerModeContr
 0001:000DD740       aPowerModeControlUvc_get_cur_
 0001:000DD764       aPowerModeControlGet_info_
 0001:000DD784       aProcess_video_control_request
 0001:000DD7A4       aSUnknownVsControlSelector0xX
 0001:000DD7D0       aProcess_video_
 0001:000DD818       aUvc_process__0
 0001:000DD830       aSUnknownInterf
 0001:000DD854       aUvc_pu_process
 0001:000DD894       aUvc_pu_proce_0
 0001:000DD8D0       aUvc_pu_proce_1
 0001:000DD908       aUvc_pu_proce_2
 0001:000DD948       aUvc_pu_proce_3
 0001:000DD988       aUvc_pu_proce_4
 0001:000DD9C8       aUnknownPuContr
 0001:000DD9EC       a_ux_device_c_8
 0001:000DDA14       aSCanTGetData_1
 0001:000DDA48       aCd001
 0001:000DDA50       aTransferreques
 0001:000DDA74       aErrorSDonTSupp
 0001:000DDAA4       aUsbxEp0xXTxErr
 0001:000DDAF0       aUsbxEpDTxZerol
 0001:000DDB44       aTransferrequ_0
 0001:000DDB68       aSSemaInError0x
 0001:000DDB84       aCompletion_cod
 0001:000DDB9C       aNoDescOrDmaIsN
 0001:000DDBC4       aDmaStatus0xX
 0001:000DDBD8       aDescIsNull
 0001:000DDBE8       aGetreceivedada
 0001:000DDC0C       aTransfercallba
 0001:000DDC30       aOverflowCondit
 0001:000DDC70       aSSemaPutOutFai
 0001:000DDC98       aDonTKnowHowToH
 0001:000DDCD0       aSSemaPutOutF_0
 0001:000DDCF8       aSSemaPutOutF_1
 0001:000DDD20       aDescIsNullForP
 0001:000DDD3C       aRxlengthIs0xff
 0001:000DDD64       aSemaPutInFaile
 0001:000DDD80       a0xX2RxLengthD
 0001:000DDD9C       aTransferoutpac
 0001:000DDDB8       aRequiresetstal
 0001:000DDDD8       aRequiresetst_0
 0001:000DDDF8       aRequireclearst
 0001:000DDE1C       aRequireclear_0
 0001:000DDE3C       aDescD0xXStatus
 0001:000DDE84       a0xXBnaOccursSt
 0001:000DDEA8       a0xXBnaOccurs_
 0001:000DDF14       aElapsedTime10u
 0001:000DDF38       aIdTimePercentT
 0001:000DDF60       a3d10u10_1fS
 0001:000DDF78       a10u10_1fInterr
 0001:000DDFAC       a10d10_1fIdle
 0001:000DDFC0       a10_0f10_1fErro
 0001:000DE008       aIdSensitiveEna
 0001:000DE02C       a3d8s8s8u
 0001:000DE040       aLevel_0
 0001:000DE048       aEdge
 0001:000DE050       aEnable_6
 0001:000DE058       aDisable_5
 0001:000DE060       a3d10s10s8u
 0001:000DE0B0       aNoName_1
 0001:000DE18C       aExfat_2
 0001:000E0238       nullsub_2
 0001:000E023C       nullsub_3
 0001:000E0240       _Decide_PivAdjTableNo
 0001:000E098C       fmt
 0001:000E0990       Amba_AdjPivControl
 0001:000E0C2C       imgproc_adjapptest
 0001:000E12E4       str2
 0001:000E1330       memcpy
 0001:000E1344       AmbaDSP_ImgSetToneCurve_CheckArgs
 0001:000E14B8       AmbaDSP_ImgSetToneCurve_PrintInfo
 0001:000E15D0       img_dsp_profile
 0001:000E15D8       AmbaDSP_ImgSetToneCurve
 0001:000E19C4       AmbaDSP_ImgGetToneCurve
 0001:000E1DF4       AmbaImg_CtrlFunc_Get_Mem_CtrlAddr
 0001:000E1EB0       AmbaImg_CtrlFunc_MemMgr_Init
 0001:000E1F94       AmbaImg_CtrlFunc_Param_Init
 0001:000E60FC       AmbaImg_CtrlFunc_Iq_Param_VerNum
 0001:000E6B70       aS_23
 0001:000E6B74       AmbaPrintTask_Entry
 0001:000E7170       AmbaPrintk_Flush
 0001:000E71A0       AmbaPrintk
 0001:000E72EC       AmbaPrintTask_Init
 0001:000E7550       pMutex
 0001:000E7554       AmbaPrint
 0001:000E7740       AmbaSysLog_Write
 0001:000E7A94       aS_24
 0001:000E7AA0       format
 0001:000E7AB4       pStackBase
 0001:000E7AB8       EntryFunction
 0001:000E7ABC       str
 0001:000E7AC0       pTask
 0001:000E87E4       AmbaImg_Proc_Cmd
 0001:000E87F0       AdjFunc_MemMgr_Init
 0001:000E8880       AdjFunc_Param_Init
 0001:000E9450       Amba_Adj_Video_Init
 0001:000EEDA8       memset_0
 0001:000EEDD4       strcmp
 0001:000EEE48       atoi
 0001:000EEE54       AmbaTimer_GetSysTickCount
 0001:000EF12C       img_dsp_core_utility_mem_status
 0001:000F0BE4       img_dsp_core_utility_get_context
 0001:000F0D70       img_dsp_core_utility_get_context_mutex
 0001:000F3590       DSP_ImgUtilityGetConfig
 0001:000F3740       AmbaDSP_ImgUtilityInitArch
 0001:000F38CC       AmbaDSP_ImgUtilityCtxInit
 0001:000F3CF4       AmbaDSP_ImgUtilityCfgInit
 0001:000F3DE4       AmbaDSP_ImgUtilityCfgPostExe
 0001:000F3F34       AmbaDSP_ImgUtilityCfgStatusGet
 0001:000F3FEC       AmbaDSP_ImgSetSizeInfo
 0001:000F40FC       AmbaDSP_ImgSetDebugMode
 0001:000F421C       AmbaDSP_ImgGetDebugMode
 0001:000F43D4       AmbaKAL_TaskCreate
 0001:000F4424       AmbaKAL_TaskDelete
 0001:000F4430       AmbaKAL_TaskTerminate
 0001:000F4460       AmbaKAL_TaskIdentify
 0001:000F45B8       AmbaKAL_MutexTake
 0001:000F45F0       AmbaKAL_MutexGive
 0001:000F45FC       AmbaKAL_EventFlagCreate
 0001:000F461C       AmbaKAL_EventFlagTake
 0001:000F4670       AmbaKAL_EventFlagGive
 0001:000F4680       AmbaKAL_EventFlagClear
 0001:000F46D0       AmbaMoviePlayback_MsgQueueCreate
 0001:000F4754       AmbaKAL_MsgQueueSend
 0001:000F493C       MemAllocate
 0001:000F4998       AmbaKAL_MemFree
 0001:000F49BC       DSP_ImgCoreProcessToneCurve
 0001:000F5270       AmbaDSP_ImgSetCfaLeakageFilterCmdInfo
 0001:000F530C       AmbaDSP_ImgSetAntiAliasingCmdInfo
 0001:000F5534       AmbaDSP_ImgSetStaticBlackLevelCmdInfo
 0001:000F5870       AmbaDSP_ImgSetDgainSaturationLevelCmdInfo
 0001:000F593C       AmbaDSP_ImgSetVignetteCompensationCmdInfo
 0001:000F59EC       AmbaDSP_ImgSetLocalExposureCmdInfo
 0001:000F5AB4       AmbaDSP_ImgSetColorCorrectionCmdInfo
 0001:000F5BCC       AmbaDSP_ImgSetRgbToYuvMatrixCmdInfo
 0001:000F5CE0       AmbaDSP_ImgSetChromaScaleCmdInfo
 0001:000F5DCC       AmbaDSP_ImgSetDynamicBadPixelCorrectionCmdInfo
 0001:000F5E90       AmbaDSP_ImgSetCfaNoiseFilterCmdInfo
 0001:000F604C       AmbaDSP_ImgSetDemosaicFilterCmdInfo
 0001:000F61E8       AmbaDSP_ImgSetNoiseFilterCmdInfo
 0001:000F6364       AmbaDSP_ImgSetChromaMedianFilterCmdInfo
 0001:000F649C       AmbaDSP_ImgSet1stLumaSharpeningCmdInfo
 0001:000F668C       AmbaDSP_ImgSetLumaSharpenFirConfigCmdInfo
 0001:000F67F0       AmbaDSP_ImgSetLumaSharpeningLnlCmdInfo
 0001:000F6B00       AmbaDSP_ImgSetLumaSharpeningBlendControlCmdInfo
 0001:000F6C08       AmbaDSP_ImgSetLumaSharpeningLevelControlCmdInfo
 0001:000F6DB4       AmbaDSP_ImgSetAaaStatisticsSetupCmdInfo
 0001:000F72B4       AmbaDSP_ImgSetAaaPseudoYSetupCmdInfo
 0001:000F743C       AmbaDSP_ImgSetAaaStatisticsSetup1CmdInfo
 0001:000F76D4       AmbaDSP_ImgSetAaaStatisticsSetup2CmdInfo
 0001:000F79A4       AmbaDSP_ImgSetAaaEarlyWbGainCmdInfo
 0001:000F7A7C       AmbaDSP_ImgSetAaaFloatingTileConfigCmdInfo
 0001:000F7BA0       AmbaDSP_ImgSetWarpcontrolCmdInfo
 0001:000F7ED4       AmbaDSP_ImgSetChromaticAbberationWarpControlCmdInfo
 0001:000F8144       AmbaDSP_ImgSetDumpIdspconfigCmdInfo
 0001:000F81FC       AmbaDSP_ImgSetProcessIdspBatchCmdInfo
 0001:000F8340       AmbaDSP_ImgSetProcessIdspBatchWthTagsCmdInfo
 0001:000F85C4       AmbaImg_AeTask_MemMgr_Init
 0001:000F868C       AmbaImg_AeTask
 0001:000F8748       AmbaImg_AeCtrlTask_Init
 0001:000F8884       AmbaImg_AwbTask_MemMgr_Init
 0001:000F894C       AmbaImg_AwbTask
 0001:000F8A08       AmbaImg_AwbTask_Init
 0001:000F8B50       AmbaImg_AdjTask_MemMgr_Init
 0001:000F8C18       AmbaImg_AdjTask
 0001:000F8CD4       AmbaImg_AdjTask_Init
 0001:00100B88       ae_init_interchange_aperture
 0001:0010417C       _ae_control_2_init_full
 0001:0010E3E4       _awb_control_2_init_full
 0001:0010ED7C       Awb_Control_Init
 0001:00115CA0       Amba_Adj_Still_High_Iso_Control
 0001:00116104       AmbaImg_VDsp_Handler_MemMgr_Init
 0001:00116288       Amba_Img_Reset_Video_Pipe_Ctrl_Params
 0001:0011A488       AmbaImgProc_Init_Video_Params
 0001:0011B448       Iqt_MemMgr_Init
 0001:0011B4D8       Iqt_Param_Init
 0001:0011C200       Sc_Scene_Detect
 0001:0011E3F4       AmbaFS_Chdir
 0001:0011E5EC       AmbaFS_fopen
 0001:0011E700       AmbaFS_fclose
 0001:0011E7A4       AmbaFS_remove
 0001:0011E828       AmbaFS_rename
 0001:0011E8D8       AmbaFS_fread
 0001:0011E958       AmbaFS_fwrite
 0001:0011E9D8       AmbaFS_fseek
 0001:0011EA44       AmbaFS_fappend
 0001:0011EAAC       AmbaFS_GetFpFromDta
 0001:0011EB74       AmbaFS_fsexec
 0001:0011ECD0       AmbaFS_FirstDirEnt
 0001:0011EE7C       AmbaFS_NextDirEnt
 0001:0011EFC4       AmbaFS_Mkdir
 0001:0011F04C       AmbaFS_Rmdir
 0001:0011F0EC       AmbaFS_Stat
 0001:0011F348       AmbaFS_SetVol
 0001:0011F3B0       AmbaFS_GetVol
 0001:0011F438       AmbaFS_GetDev
 0001:0011F4D8       AmbaFS_Chmod
 0001:0011F56C       AmbaFS_Chdmod
 0001:0011F5F8       AmbaFS_Format
 0001:0011F734       AmbaFS_ftell
 0001:0011F7A4       AmbaFS_feof
 0001:0011F7EC       AmbaFS_CleanDir
 0001:0011F894       AmbaFS_ChmodDir
 0001:0011FAD0       AmbaFS_GetFileInstance
 0001:0011FB2C       AmbaFS_FreeFileInstance
 0001:0011FCB4       AmbaFS_GetError
 0001:0011FD20       vsprintf
 0001:0011FD68       snprintf
 0001:0011FE8C       AmbaRTSL_TimerGetTickCount
 0001:0011FED4       strlen
 0001:0011FF28       sprintf
 0001:001200B4       AmbaDSP_Suspend
 0001:001201E0       AmbaDSP_Resume
 0001:00120274       AmbaDSP_sub_E720274
 0001:001204E4       AmbaDSP_WaitEventFlag
 0001:001209A4       memmove
 0001:0012955C       a0123456789abcd
 0001:0012F0B4       amba_debug_printf
 0001:0012F210       DSP_ImgLowIsoPostExeCfg
 0001:0012F53C       AmbaDSP_ImgLowIsoPrintCfgInfo1
 0001:0012F728       AmbaDSP_ImgLowIsoPrintCfg2
 0001:0012F7FC       DSP_ImgLowIsoDumpCfg
 0001:0012FC48       AmbaDSP_ImgLowIsoSetDebugMode
 0001:0012FD4C       AmbaDSP_ImgLowIsoGetDebugMode
 0001:0012FF0C       AmbaDSP_ImgLowIsoPrintCfg
 0001:00130794       AmbaDSP_ImgLowIsoDumpCfg
 0001:00130B4C       amba_debug_printf_0
 0001:0013294C       DSP_ImgHighIsoPostExeCfg
 0001:00133530       AmbaDSP_ImgHighIsoCfgPrint
 0001:00134258       AmbaDSP_ImgHighIsoSetDebugMode
 0001:00134414       AmbaDSP_ImgHighIsoGetDebugMode
 0001:00134694       DSP_ImgHighIsoDumpCfg
 0001:00134DEC       AmbaDSP_ImgHighIsoDumpCfg
 0001:00134FF8       _txe_thread_create
 0001:00135214       _txe_thread_delete
 0001:00135268       _txe_thread_terminate
 0001:001352BC       _txe_thread_suspend
 0001:001352F4       _txe_thread_resume
 0001:0013555C       _tx_thread_identify
 0001:00135CB4       _txe_mutex_get
 0001:00135D64       _txe_mutex_put
 0001:00135DD0       _txe_event_flags_create
 0001:00136020       _txe_event_flags_set
 0001:001378E4       AmbaDSP_MsgDispatchTask
 0001:00137910       AmbaDSP_MsgDispatchTask_Init
 0001:00137B34       AmbaDSP_WaitJpegEncodeDone
 0001:00137B78       AmbaDSP_WaitYuvSyncRawCnt
 0001:00137BC8       AmbaDSP_WaitYuvGenDone
 0001:00137C2C       AmbaDSP_WaitDspMemChange
 0001:00137C7C       AmbaDSP_WaitRaw2Yuv3A
 0001:00137CCC       AmbaDSP_WaitPivAvail
 0001:00137D34       AmbaDSP_WaitPreviewDone
 0001:00137DC4       AmbaDSP_WaitPreviewStart
 0001:00137E8C       AmbaDSP_GetOpMode
 0001:00137F24       MsgParserDSPStatus
 0001:001383E8       pTaskName
 0001:0013971C       nullsub_4
 0001:0013D72C       Ae_Iso_Cal_Func
 0001:0013DC98       SetDgainSaturationLevel
 0001:0013DDE4       AmbaDSP_ImgSetDgainSaturationLevelInfo
 0001:0013DE60       AmbaDSP_ImgSetDgainSaturationLevel
 0001:0013E0D8       AmbaDSP_ImgGetDgainSaturationLevel
 0001:0013E268       SetCfaLeakageFilter
 0001:0013E31C       AmbaDSP_ImgSetCfaLeakageFilterInfo
 0001:0013E3A8       AmbaDSP_ImgSetCfaLeakageFilter
 0001:0013E5F0       AmbaDSP_ImgGetCfaLeakageFilter
 0001:0013E778       SetRgbToYuvMatrix
 0001:0013E964       AmbaDSP_ImgSetRgbToYuvMatrixInfo
 0001:0013EA20       AmbaDSP_sub_E73EA20
 0001:0013EA28       AmbaDSP_ImgSetRgbToYuvMatrix
 0001:0013ED04       AmbaDSP_ImgGetRgbToYuvMatrix
 0001:0013F074       AmbaDSP_ImgSetStaticBlackLevelInfo
 0001:0013F0F0       AmbaDSP_ImgSetStaticBlackLevel
 0001:0013F380       AmbaDSP_ImgGetStaticBlackLevel
 0001:0013F574       AmbaDSP_ImgSetAntiAliasingInfo
 0001:0013F5E4       AmbaDSP_ImgSetAntiAliasing
 0001:0013F878       AmbaDSP_ImgGetAntiAliasing
 0001:0013FB78       AmbaDSP_ImgSetDynamicBadPixelCorrectionInfo
 0001:0013FBF4       AmbaDSP_ImgSetDynamicBadPixelCorrection
 0001:0013FF18       AmbaDSP_ImgGetDynamicBadPixelCorrection
 0001:001400B4       SetLocalExposure
 0001:00140328       AmbaDSP_ImgSetLocalExposureInfo
 0001:0014043C       AmbaDSP_sub_E74043C
 0001:00140444       AmbaDSP_ImgSetLocalExposure
 0001:00140730       AmbaDSP_ImgGetLocalExposure
 0001:00140B64       AmbaDSP_ImgSetDemosaicInfo
 0001:00140BFC       AmbaDSP_ImgSetDemosaic
 0001:00140E20       AmbaDSP_ImgGetDemosaic
 0001:00140FD4       AmbaDSP_ImgSetColorCorrectionRegInfo
 0001:00141040       AmbaDSP_ImgSetColorCorrectionReg
 0001:001412D4       AmbaDSP_ImgGetColorCorrectionReg
 0001:00141484       AmbaDSP_ImgSetColorCorrectionInfo
 0001:001414F0       AmbaDSP_ImgSetColorCorrection
 0001:00141A2C       AmbaDSP_ImgGetColorCorrection
 0001:00141BF0       SetChromaScale
 0001:00141CD4       AmbaDSP_ImgSetChromaScaleInfo
 0001:00141DC4       AmbaDSP_ImgSetChromaScale
 0001:00142070       AmbaDSP_ImgGetChromaScale
 0001:00142208       SetChromaMedianFilter
 0001:00142448       AmbaDSP_ImgSetChromaMedianFilterInfo
 0001:001424E4       AmbaDSP_ImgSetChromaMedianFilter
 0001:001427E0       AmbaDSP_ImgGetChromaMedianFilter
 0001:00142994       SetColorDependentNoiseReduction
 0001:00142AE4       AmbaDSP_ImgSetColorDependentNoiseReductionInfo
 0001:00142B4C       AmbaDSP_sub_E742B4C
 0001:00142B54       AmbaDSP_ImgSetCDNRToneCurveSelect
 0001:00142C88       AmbaDSP_ImgSetColorDependentNoiseReduction
 0001:0014311C       AmbaDSP_ImgGetColorDependentNoiseReduction
 0001:001441E4       Set1stSharpenNoiseSharpenCoring
 0001:0014426C       Set1stSharpenNoiseSharpenFir
 0001:00144294       Set1stSharpenNoiseSharpenMinCoringResult
 0001:001442B8       Set1stSharpenNoiseSharpenCoringIndexScale
 0001:001442DC       Set1stSharpenNoiseSharpenScaleCoring
 0001:00144310       Set1stSharpenNoiseBoth
 0001:00144480       Set1stSharpenNoiseNoise
 0001:001444C0       AmbaDSP_ImgSet1stLumaProcessingModeInfo
 0001:0014452C       AmbaDSP_ImgSet1stSharpenNoiseSharpenCoringInfo
 0001:00144598       AmbaDSP_ImgSet1stSharpenNoiseSharpenFirInfo
 0001:00144600       AmbaDSP_ImgSet1stSharpenNoiseSharpenMinCoringResultInfo
 0001:0014466C       AmbaDSP_ImgSet1stSharpenNoiseSharpenCoringIndexScaleInfo
 0001:001446D8       AmbaDSP_ImgSet1stSharpenNoiseSharpenScaleCoringInfo
 0001:0014474C       AmbaDSP_ImgSet1stSharpenNoiseBothInfo
 0001:001447F0       AmbaDSP_ImgSetSet1stSharpenNoiseNoiseInfo
 0001:001448F0       AmbaDSP_ImgSet1stLumaProcessingMode
 0001:00144FE0       AmbaDSP_ImgGet1stLumaProcessingMode
 0001:0014516C       AmbaDSP_ImgSet1stSharpenNoiseSharpenCoring
 0001:0014544C       AmbaDSP_ImgGet1stSharpenNoiseSharpenCoring
 0001:001455C4       AmbaDSP_ImgSet1stSharpenNoiseSharpenFir
 0001:0014590C       AmbaDSP_ImgGet1stSharpenNoiseSharpenFir
 0001:00145A60       AmbaDSP_ImgSet1stSharpenNoiseSharpenMinCoringResult
 0001:00145CC0       AmbaDSP_ImgGet1stSharpenNoiseSharpenMinCoringResult
 0001:00145E28       AmbaDSP_ImgSet1stSharpenNoiseSharpenCoringIndexScale
 0001:0014607C       AmbaDSP_ImgGet1stSharpenNoiseSharpenCoringIndexScale
 0001:001461D0       AmbaDSP_ImgSet1stSharpenNoiseSharpenScaleCoring
 0001:0014642C       AmbaDSP_ImgGet1stSharpenNoiseSharpenScaleCoring
 0001:0014658C       AmbaDSP_ImgSet1stSharpenNoiseBoth
 0001:00146948       AmbaDSP_ImgGet1stSharpenNoiseBoth
 0001:00146AB4       AmbaDSP_ImgSet1stSharpenNoiseNoise
 0001:00146DD8       AmbaDSP_ImgGet1stSharpenNoiseNoise
 0001:0014766C       SetAdvanceSpatialFilter
 0001:00147690       AmbaDSP_ImgSetAdvanceSpatialFilterInfo
 0001:00147704       AmbaDSP_ImgSetAdvanceSpatialFilter
 0001:00147D8C       AmbaDSP_ImgGetAdvanceSpatialFilter
 0001:00148050       SetFinalSharpenNoiseSharpenFir
 0001:00148074       SetFinalSharpenNoiseSharpenMinCoringResult
 0001:00148098       SetFinalSharpenNoiseSharpenCoringIndexScale
 0001:001480BC       SetFinalSharpenNoiseSharpenScaleCoring
 0001:001480E0       SetFinalSharpenNoiseBoth
 0001:0014824C       SetFinalSharpenNoiseNoise
 0001:00148288       AmbaDSP_ImgSetFinalSharpenNoiseSharpenCoringInfo
 0001:001482F0       AmbaDSP_ImgSetFinalSharpenNoiseSharpenFirInfo
 0001:0014835C       AmbaDSP_ImgSetFinalSharpenNoiseSharpenMinCoringResultInfo
 0001:001483C4       AmbaDSP_ImgSetFinalSharpenNoiseSharpenCoringIndexScaleInfo
 0001:00148494       AmbaDSP_ImgSetSharpenBMaxChangeInfo
 0001:00148534       AmbaDSP_ImgSetSharpenBSignalRetainLevelInfo
 0001:001485C4       AmbaDSP_ImgSetFinalSharpenNoiseSharpenCoring
 0001:00148884       AmbaDSP_ImgGetFinalSharpenNoiseSharpenCoring
 0001:00148A24       AmbaDSP_ImgSetFinalSharpenNoiseSharpenFir
 0001:00148D1C       AmbaDSP_ImgGetFinalSharpenNoiseSharpenFir
 0001:00148EFC       AmbaDSP_ImgSetFinalSharpenNoiseSharpenMinCoringResult
 0001:001491D8       AmbaDSP_ImgGetFinalSharpenNoiseSharpenMinCoringResult
 0001:001493A4       AmbaDSP_ImgSetFinalSharpenNoiseSharpenCoringIndexScale
 0001:0014967C       AmbaDSP_ImgGetFinalSharpenNoiseSharpenCoringIndexScale
 0001:00149830       AmbaDSP_ImgSetFinalSharpenNoiseSharpenScaleCoring
 0001:00149B04       AmbaDSP_ImgGetFinalSharpenNoiseSharpenScaleCoring
 0001:00149CC0       AmbaDSP_ImgSetFinalSharpenNoiseBoth
 0001:00149FD8       AmbaDSP_ImgGetFinalSharpenNoiseBoth
 0001:0014A1A4       AmbaDSP_ImgSetFinalSharpenNoiseNoise
 0001:0014A4A4       AmbaDSP_ImgGetFinalSharpenNoiseNoise
 0001:0014A6F4       SetChromaFilter
 0001:0014A874       AmbaDSP_ImgSetChromaFilterInfo
 0001:0014A8FC       AmbaDSP_ImgSetChromaFilter
 0001:0014AB54       AmbaDSP_ImgGetChromaFilter
 0001:0014AE3C       AmbaDSP_ImgSetSetGbGrMismatchInfo
 0001:0014AEB8       AmbaDSP_ImgSetGbGrMismatch
 0001:0014B0E0       AmbaDSP_ImgGetGbGrMismatch
 0001:0014B274       SetVideoMctf
 0001:0014B648       DSP_ImgCheckSetVideoMctfLevel
 0001:0014BAB0       DSP_ImgCheckSetVideoMctfEnable
 0001:0014BB18       DSP_ImgCheckSetVideoMctfZMVEnable
 0001:0014BB80       DSP_ImgCheckSetVideoMctfCompressionEnable
 0001:0014BBE8       DSP_ImgCheckSetVideoMctfGlobalMotionVector
 0001:0014BC58       AmbaDSP_ImgSetVideoMctfInfo
 0001:0014BE48       nullsub_5
 0001:0014BE4C       nullsub_6
 0001:0014BE50       nullsub_7
 0001:0014BE54       nullsub_8
 0001:0014BE58       nullsub_9
 0001:0014BE5C       AmbaDSP_sub_E74BE5C
 0001:0014C174       DSP_ImgGetVideoMctfAddress
 0001:0014C254       _AmbaDSP_CmdVcapMctfGmvSetup
 0001:0014C3E8       AmbaDSP_ImgSetVideoMctfPowerSaving
 0001:0014C4EC       AmbaDSP_ImgSetVideoMctf
 0001:0014C720       AmbaDSP_ImgGetVideoMctf
 0001:0014C884       AmbaDSP_ImgSetVideoMctfLevel
 0001:0014CAAC       AmbaDSP_ImgGetVideoMctfLevel
 0001:0014CBD0       AmbaDSP_ImgSetVideoMctfGhostPrv
 0001:0014CDB8       AmbaDSP_ImgSetVideoMctfEnable
 0001:0014CFBC       AmbaDSP_ImgSetVideoMctfCompressionEnable
 0001:0014D1D0       AmbaDSP_ImgSetVideoMctfGlobalMotionVector
 0001:0014D3D0       AmbaDSP_ImgGetVideoMctfGlobalMotionVector
 0001:0014D4F8       AmbaDSP_ImgSetVideoMctfZMVEnable
 0001:0014D6D8       AmbaDSP_ImgGetVideoMctfZMVEnable
 0001:0014D868       SetHighIsoAntiAliasing
 0001:0014D8C8       AmbaDSP_ImgSetHighIsoAntiAliasingInfo
 0001:0014D92C       SetCfaLeakageFilter_1
 0001:0014DA64       SetHighIsoDynamicBadPixelCorrection
 0001:0014DC48       AmbaDSP_ImgSetHighIsoDynamicBadPixelCorrectionInfo
 0001:0014DCBC       SetHighIsoCfaNoiseFilter
 0001:0014E0FC       AmbaDSP_ImgSetHighIsoCfaNoiseFilterInfo
 0001:0014E1E4       SetHighIsoGbGrMismatch
 0001:0014E338       AmbaDSP_ImgSetSetHighIsoGbGrMismatchInfo
 0001:0014E3AC       SetHighIsoDemosaic
 0001:0014E628       AmbaDSP_ImgSetHighIsoDemosaicInfo
 0001:0014E6E0       SetHighIsoChromaMedianFilter
 0001:0014E924       AmbaDSP_ImgSetHighIsoChromaMedianFilterInfo
 0001:0014EA28       AmbaDSP_ImgSetHighIsoDeferColorCorrectionInfo
 0001:0014EBF4       AmbaDSP_ImgSetHighIsoColorDependentNoiseReductionInfo
 0001:0014EC74       AmbaDSP_ImgSetHighIsoAntiAliasing
 0001:0014EE0C       AmbaDSP_ImgGetHighIsoAntiAliasing
 0001:0014EF60       AmbaDSP_ImgSetHighIsoCfaLeakageFilter
 0001:0014F114       AmbaDSP_ImgGetCfaLeakageFilter_1
 0001:0014F26C       AmbaDSP_ImgSetHighIsoDynamicBadPixelCorrection
 0001:0014F414       AmbaDSP_ImgGetDynamicBadPixelCorrection_1
 0001:0014F56C       AmbaDSP_ImgSetHighIsoCfaNoiseFilter
 0001:0014F72C       AmbaDSP_ImgGetHighIsoCfaNoiseFilter
 0001:0014F87C       AmbaDSP_ImgSetHighIsoGbGrMismatch
 0001:0014FA24       AmbaDSP_ImgGetHighIsoGbGrMismatch
 0001:0014FB7C       AmbaDSP_ImgSetHighIsoDemosaic
 0001:0014FD2C       AmbaDSP_ImgGetHighIsoDemosaic
 0001:0014FE78       AmbaDSP_ImgSetHighIsoChromaMedianFilter
 0001:00150024       AmbaDSP_ImgGetHighIsoChromaMedianFilter
 0001:00150178       AmbaDSP_ImgSetHighIsoDeferColorCorrection
 0001:00150324       AmbaDSP_ImgGetHighIsoDeferColorCorrection
 0001:00150478       AmbaDSP_ImgSetHighIsoColorDependentNoiseReduction
 0001:00150630       AmbaDSP_ImgGetHighIsoColorDependentNoiseReduction
 0001:00150810       SetHighIsoAdvanceSpatialFilter
 0001:00150834       SetHighIsoHighAdvanceSpatialFilter
 0001:00150858       SetHighIsoLowAdvanceSpatialFilter
 0001:0015087C       SetHighIsoMed1AdvanceSpatialFilter
 0001:00150944       SetHighIsoMed2AdvanceSpatialFilter
 0001:00150968       SetHighIsoLi2ndAdvanceSpatialFilter
 0001:0015098C       SetHighIsoChromaAdvanceSpatialFilter
 0001:00150D68       AmbaDSP_ImgSetHighIsoAdvanceSpatialFilterInfo
 0001:00150DD0       AmbaDSP_ImgSetHighIsoHighAdvanceSpatialFilterInfo
 0001:00150E38       AmbaDSP_ImgSetHighIsoLowAdvanceSpatialFilterInfo
 0001:00150EA0       AmbaDSP_ImgSetHighIsoMed1AdvanceSpatialFilterInfo
 0001:00150F08       AmbaDSP_ImgSetHighIsoMed2AdvanceSpatialFilterInfo
 0001:00150F70       AmbaDSP_ImgSetHighIsoLi2ndAdvanceSpatialFilterInfo
 0001:00150FD8       AmbaDSP_ImgSetHighIsoChromaAdvanceSpatialFilterInfo
 0001:00151108       AmbaDSP_ImgSetHighIsoAdvanceSpatialFilter
 0001:0015132C       AmbaDSP_ImgSetHighIsoHighAdvanceSpatialFilter
 0001:00151554       AmbaDSP_ImgSetHighIsoLowAdvanceSpatialFilter
 0001:001517A0       AmbaDSP_ImgSetHighIsoMed1AdvanceSpatialFilter
 0001:001519DC       AmbaDSP_ImgSetHighIsoMed2AdvanceSpatialFilter
 0001:00151C10       AmbaDSP_ImgSetHighIsoLi2ndAdvanceSpatialFilter
 0001:00151E64       AmbaDSP_ImgSetHighIsoChromaAdvanceSpatialFilter
 0001:00152090       AmbaDSP_ImgGetHighIsoAdvanceSpatialFilter
 0001:001521E0       AmbaDSP_ImgGetHighIsoHighAdvanceSpatialFilter
 0001:00152330       AmbaDSP_ImgGetHighIsoLowAdvanceSpatialFilter
 0001:00152484       AmbaDSP_ImgGetHighIsoMed1AdvanceSpatialFilter
 0001:001525D4       AmbaDSP_ImgGetHighIsoMed2AdvanceSpatialFilter
 0001:00152728       AmbaDSP_ImgGetHighIsoLi2ndAdvanceSpatialFilter
 0001:00152878       AmbaDSP_ImgGetHighIsoChromaAdvanceSpatialFilter
 0001:00152A5C       SetHighIsoHighSharpenNoiseBoth
 0001:00152BC8       SetHighIsoHighSharpenNoiseNoise
 0001:00152C58       SetHighIsoHighSharpenNoiseSharpenCoring
 0001:00152CE0       SetHighIsoHighSharpenNoiseSharpenFir
 0001:00152D04       SetHighIsoHighSharpenNoiseSharpenMinCoringResult
 0001:00152D80       SetHighIsoHighSharpenNoiseSharpenCoringIndexScale
 0001:00152DFC       SetHighIsoHighSharpenNoiseSharpenScaleCoring
 0001:00152E78       AmbaDSP_ImgSetHighIsoHighSharpenNoiseMaxChangeInfo
 0001:00152F14       AmbaDSP_ImgPrintSetHighIsoHighSharpenNoiseNoiseInfo
 0001:00152F9C       AmbaDSP_ImgSetHighIsoHighSharpenNoiseSharpenCoringInfo
 0001:00153008       AmbaDSP_ImgSetHighIsoHighSharpenNoiseSharpenFirInfo
 0001:00153070       AmbaDSP_ImgSetHighIsoHighSharpenNoiseSharpenMinCoringResultInfo
 0001:001530D8       AmbaDSP_ImgSetHighIsoHighSharpenNoiseSharpenCoringIndexScaleInfo
 0001:00153140       AmbaDSP_ImgSetHighIsoHighSharpenNoiseSharpenScaleCoringInfo
 0001:001531A8       SetHighIsoMedSharpenNoiseBoth
 0001:00153314       SetHighIsoMedSharpenNoiseNoise
 0001:0015342C       Set1stSharpenNoiseSharpenFir_1
 0001:00153450       SetHighIsoMedSharpenNoiseSharpenMinCoringResult
 0001:001534CC       SetHighIsoMedSharpenNoiseSharpenCoringIndexScale
 0001:00153548       SetHighIsoMedSharpenNoiseSharpenScaleCoring
 0001:001535C4       DSP_ImgPrintSetHighIsoMedSharpenNoiseBothInfo
 0001:00153664       AmbaDSP_ImgPrintSetHighIsoMedSharpenNoiseNoiseInfo
 0001:001536EC       AmbaDSP_ImgSetHighIsoMedSharpenNoiseSharpenCoringInfo
 0001:0015375C       AmbaDSP_ImgSetHighIsoMedSharpenNoiseSharpenFirInfo
 0001:001537C8       AmbaDSP_ImgSetHighIsoMedSharpenNoiseSharpenMinCoringResultInfo
 0001:00153838       AmbaDSP_ImgSetHighIsoMedSharpenNoiseSharpenCoringIndexScaleInfo
 0001:001538AC       AmbaDSP_ImgSetHighIsoMedSharpenNoiseSharpenScaleCoringInfo
 0001:00153940       AmbaDSP_ImgSetHighIsoHighSharpenNoiseBoth
 0001:00153B94       AmbaDSP_ImgSetHighIsoHighSharpenNoiseNoise
 0001:00153D54       AmbaDSP_ImgSetHighIsoHighSharpenNoiseSharpenCoring
 0001:00153F14       AmbaDSP_ImgSetHighIsoHighSharpenNoiseSharpenFir
 0001:001540CC       AmbaDSP_ImgSetHighIsoHighSharpenNoiseSharpenCoringIndexScale
 0001:00154288       AmbaDSP_ImgSetHighIsoHighSharpenNoiseSharpenMinCoringResult
 0001:0015443C       AmbaDSP_ImgSetHighIsoHighSharpenNoiseSharpenScaleCoring
 0001:001545E4       AmbaDSP_ImgGetHighIsoHighSharpenNoiseBoth
 0001:00154734       AmbaDSP_ImgGetHighIsoHighSharpenNoiseNoise
 0001:0015488C       AmbaDSP_ImgGetHighIsoHighSharpenNoiseSharpenCoring
 0001:001549D8       AmbaDSP_ImgGetHighIsoHighSharpenNoiseSharpenFir
 0001:00154B24       AmbaDSP_ImgGetHighIsoHighSharpenNoiseSharpenCoringIndexScale
 0001:00154C74       AmbaDSP_ImgGetHighIsoHighSharpenNoiseSharpenMinCoringResult
 0001:00154DC0       AmbaDSP_ImgGetHighIsoHighSharpenNoiseSharpenScaleCoring
 0001:00154F14       AmbaDSP_ImgSetHighIsoMedSharpenNoiseBoth
 0001:0015514C       AmbaDSP_ImgSetHighIsoMedSharpenNoiseNoise
 0001:00155308       AmbaDSP_ImgSetHighIsoMedSharpenNoiseSharpenCoring
 0001:001554C0       AmbaDSP_ImgSetHighIsoMedSharpenNoiseSharpenFir
 0001:00155684       AmbaDSP_ImgSetHighIsoMedSharpenNoiseSharpenCoringIndexScale
 0001:00155838       AmbaDSP_ImgSetHighIsoMedSharpenNoiseSharpenMinCoringResult
 0001:001559E8       AmbaDSP_ImgSetHighIsoMedSharpenNoiseSharpenScaleCoring
 0001:00155B94       AmbaDSP_ImgGetHighIsoMedSharpenNoiseBoth
 0001:00155CE8       AmbaDSP_ImgGetHighIsoMedSharpenNoiseNoise
 0001:00155E40       AmbaDSP_ImgGetHighIsoMedSharpenNoiseSharpenCoring
 0001:00155F8C       AmbaDSP_ImgGetHighIsoMedSharpenNoiseSharpenFir
 0001:001560D8       AmbaDSP_ImgGetHighIsoMedSharpenNoiseSharpenCoringIndexScale
 0001:00156228       AmbaDSP_ImgGetHighIsoMedSharpenNoiseSharpenMinCoringResult
 0001:00156374       AmbaDSP_ImgGetHighIsoMedSharpenNoiseSharpenScaleCoring
 0001:00156560       SetHighIsoLiso1SharpenNoiseBoth
 0001:001566CC       SetHighIsoLiso1SharpenNoiseNoise
 0001:00156708       SetHighIsoLiso1SharpenNoiseSharpenCoring
 0001:00156790       SetHighIsoLiso1SharpenNoiseSharpenFir
 0001:001567B4       SetHighIsoLiso1SharpenNoiseSharpenMinCoringResult
 0001:001567D8       SetHighIsoLiso1SharpenNoiseSharpenCoringIndexScale
 0001:001567FC       SetHighIsoLiso1SharpenNoiseSharpenScaleCoring
 0001:00156820       AmbaDSP_ImgSetHighIsoLiso1SharpenNoiseMaxChange
 0001:001568C0       AmbaDSP_ImgPrintSetHighIsoLiso1SharpenNoiseNoise
 0001:00156948       AmbaDSP_ImgSetHighIsoLiso1SharpenNoiseSharpenCoringInfo
 0001:001569B0       AmbaDSP_ImgSetHighIsoLiso1SharpenNoiseSharpenFirInfo
 0001:00156A18       AmbaDSP_ImgSetHighIsoLiso1SharpenNoiseSharpenMinCoringResultInfo
 0001:00156A84       AmbaDSP_ImgSetHighIsoLiso1SharpenNoiseSharpenCoringIndexScaleInfo
 0001:00156AEC       AmbaDSP_ImgSetHighIsoLiso1SharpenNoiseSharpenScaleCoring
 0001:00156B54       SetHighIsoLiso2SharpenNoiseBoth
 0001:00156CC0       SetHighIsoLiso2SharpenNoiseNoise
 0001:00156CFC       SetHighIsoLiso2SharpenNoiseSharpenCoring
 0001:00156D84       SetHighIsoLiso2SharpenNoiseSharpenFir
 0001:00156DA8       SetHighIsoLiso2SharpenNoiseSharpenMinCoringResult
 0001:00156DCC       SetHighIsoLiso2SharpenNoiseSharpenCoringIndexScale
 0001:00156DF0       SetHighIsoLiso2SharpenNoiseSharpenScaleCoring
 0001:00156E14       AmbaDSP_ImgSetHighIsoLiso2SharpenNoiseMaxChange
 0001:00156EB4       AmbaDSP_ImgPrintSetHighIsoLiso2SharpenNoiseNoise
 0001:00156F3C       AmbaDSP_ImgSetHighIsoLiso2SharpenNoiseSharpenCoringInfo
 0001:00156FA4       AmbaDSP_ImgSetHighIsoLiso2SharpenNoiseSharpenFirInfo
 0001:0015700C       AmbaDSP_ImgSetHighIsoLiso2SharpenNoiseSharpenMinCoringResultInfo
 0001:00157078       AmbaDSP_ImgSetHighIsoLiso2SharpenNoiseSharpenCoringIndexScaleInfo
 0001:001570E0       AmbaDSP_ImgSetHighIsoLiso2SharpenNoiseSharpenScaleCoringInfo
 0001:0015715C       AmbaDSP_ImgSetHighIsoLiso1SharpenNoiseBoth
 0001:00157394       AmbaDSP_ImgSetHighIsoLiso1SharpenNoiseNoise
 0001:00157580       AmbaDSP_ImgSetHighIsoLiso1SharpenNoiseSharpenCoring
 0001:0015772C       AmbaDSP_ImgSetHighIsoLiso1SharpenNoiseSharpenFir
 0001:001578F8       AmbaDSP_ImgSetHighIsoLiso1SharpenNoiseSharpenCoringIndexScale
 0001:00157AA0       AmbaDSP_ImgSetHighIsoLiso1SharpenNoiseSharpenMinCoringResult
 0001:00157C5C       AmbaDSP_ImgSetHighIsoLiso1SharpenNoiseSharpenScaleCoring_0
 0001:00157E08       AmbaDSP_ImgGetHighIsoLiso1SharpenNoiseBoth
 0001:00157F58       AmbaDSP_ImgGetHighIsoLiso1SharpenNoiseNoise
 0001:001580B0       AmbaDSP_ImgGetHighIsoLiso1SharpenNoiseSharpenCoring
 0001:001581F8       AmbaDSP_ImgGetHighIsoLiso1SharpenNoiseSharpenFir
 0001:00158348       AmbaDSP_ImgGetHighIsoLiso1SharpenNoiseSharpenCoringIndexScale
 0001:00158498       AmbaDSP_ImgGetHighIsoLiso1SharpenNoiseSharpenMinCoringResult
 0001:001585E4       AmbaDSP_ImgGetHighIsoLiso1SharpenNoiseSharpenScaleCoring
 0001:00158738       AmbaDSP_ImgSetHighIsoLiso2SharpenNoiseBoth
 0001:00158970       AmbaDSP_ImgSetHighIsoLiso2SharpenNoiseNoise
 0001:00158B2C       AmbaDSP_ImgSetHighIsoLiso2SharpenNoiseSharpenCoring
 0001:00158CE0       AmbaDSP_ImgSetHighIsoLiso2SharpenNoiseSharpenFir
 0001:00158EA4       AmbaDSP_ImgSetHighIsoLiso2SharpenNoiseSharpenCoringIndexScale
 0001:00159058       AmbaDSP_ImgSetHighIsoLiso2SharpenNoiseSharpenMinCoringResult
 0001:00159208       AmbaDSP_ImgSetHighIsoLiso2SharpenNoiseSharpenScaleCoring
 0001:001593B4       AmbaDSP_ImgGetHighIsoLiso2SharpenNoiseBoth
 0001:00159508       AmbaDSP_ImgGetHighIsoLiso2SharpenNoiseNoise
 0001:00159660       AmbaDSP_ImgGetHighIsoLiso2SharpenNoiseSharpenCoring
 0001:001597A8       AmbaDSP_ImgGetHighIsoLiso2SharpenNoiseSharpenFir
 0001:001598F4       AmbaDSP_ImgGetHighIsoLiso2SharpenNoiseSharpenCoringIndexScale
 0001:00159A48       AmbaDSP_ImgGetHighIsoLiso2SharpenNoiseSharpenMinCoringResult
 0001:00159B94       AmbaDSP_ImgGetHighIsoLiso2SharpenNoiseSharpenScaleCoring
 0001:00159F8C       AmbaDSP_ImgHighIsoSetChromaFilterHighInfo
 0001:0015A08C       AmbaDSP_ImgHighIsoSetChromaFilterLowVeryLowInfo
 0001:0015A100       HighIsoSetChromaFilterPre
 0001:0015A2A0       AmbaDSP_ImgHighIsoSetChromaFilterPreInfo
 0001:0015A31C       HighIsoSetChromaFilterMed
 0001:0015A4BC       AmbaDSP_ImgHighIsoSetChromaFilterMedInfo
 0001:0015A538       HighIsoSetChromaFilterLow
 0001:0015A6D8       AmbaDSP_ImgHighIsoSetChromaFilterLowInfo
 0001:0015A754       HighIsoSetChromaFilterVeryLow
 0001:0015A8F4       AmbaDSP_ImgHighIsoSetChromaFilterVeryLowInfo
 0001:0015A978       AmbaDSP_ImgHighIsoSetChromaFilterHigh
 0001:0015AB28       AmbaDSP_ImgHighIsoGetChromaFilterHigh
 0001:0015AC80       AmbaDSP_ImgHighIsoSetChromaFilterLowVeryLow
 0001:0015AE30       AmbaDSP_ImgHighIsoGetChromaFilterLowVeryLow
 0001:0015AF8C       AmbaDSP_ImgHighIsoSetChromaFilterPre
 0001:0015B148       AmbaDSP_ImgHighIsoGetChromaFilterPre
 0001:0015B2A0       AmbaDSP_ImgHighIsoSetChromaFilterMed
 0001:0015B44C       AmbaDSP_ImgHighIsoGetChromaFilterMed
 0001:0015B5A4       AmbaDSP_ImgHighIsoSetChromaFilterLow
 0001:0015B754       AmbaDSP_ImgHighIsoGetChromaFilterLow
 0001:0015B8B0       AmbaDSP_ImgHighIsoSetChromaFilterVeryLow
 0001:0015BA60       AmbaDSP_ImgHighIsoGetChromaFilterVeryLow
 0001:0015BC44       HighIsoSetLumaNoiseCombine
 0001:0015BE34       AmbaDSP_ImgHighIsoSetLumaNoiseCombineInfo
 0001:0015BEE8       HighIsoSetLowASFCombine
 0001:0015C0D8       AmbaDSP_ImgHighIsoSetLowASFCombineInfo
 0001:0015C18C       HighIsoSetChromaFilterMedCombine
 0001:0015C53C       AmbaDSP_ImgHighIsoSetChromaFilterMedCombineInfo
 0001:0015C634       HighIsoSetChromaFilterLowCombine
 0001:0015C9EC       AmbaDSP_ImgHighIsoSetChromaFilterLowCombineInfo
 0001:0015CB28       HighIsoSetChromaFilterVeryLowCombine
 0001:0015CEE0       AmbaDSP_ImgHighIsoSetChromaFilterVeryLowCombineInfo
 0001:0015D024       AmbaDSP_ImgHighIsoSetHighIsoFreqRecoverInfo
 0001:0015D0F8       HighIsoSetHighIsoCombine
 0001:0015D67C       AmbaDSP_ImgHighIsoSetHighIsoCombineInfo
 0001:0015D7BC       HighIsoSetHighIsoLumaBlend
 0001:0015D824       AmbaDSP_ImgHighIsoSetHighIsoLumaBlendInfo
 0001:0015D888       HighIsoSetHighIsoBlendLumaLevel
 0001:0015D8AC       AmbaDSP_ImgHighIsoSetHighIsoBlendLumaLevelInfo
 0001:0015D934       AmbaDSP_ImgHighIsoSetLumaNoiseCombine
 0001:0015DB2C       AmbaDSP_ImgHighIsoGetLumaNoiseCombine
 0001:0015DC88       AmbaDSP_ImgHighIsoSetLowASFCombine
 0001:0015DE84       AmbaDSP_ImgHighIsoGetLowASFCombine
 0001:0015DFE0       AmbaDSP_ImgHighIsoSetChromaFilterMedCombine
 0001:0015E1D4       AmbaDSP_ImgHighIsoGetChromaFilterMedCombine
 0001:0015E334       AmbaDSP_ImgHighIsoSetChromaFilterLowCombine
 0001:0015E52C       AmbaDSP_ImgHighIsoGetChromaFilterLowCombine
 0001:0015E688       AmbaDSP_ImgHighIsoSetChromaFilterVeryLowCombine
 0001:0015E87C       AmbaDSP_ImgHighIsoGetChromaFilterVeryLowCombine
 0001:0015E9D4       AmbaDSP_ImgHighIsoSetHighIsoFreqRecover
 0001:0015EB84       AmbaDSP_ImgHighIsoGetHighIsoFreqRecover
 0001:0015ECE4       AmbaDSP_ImgHighIsoSetHighIsoCombine
 0001:0015EED0       AmbaDSP_ImgHighIsoGetHighIsoCombine
 0001:0015F02C       AmbaDSP_ImgHighIsoSetHighIsoLumaBlend
 0001:0015F1D4       AmbaDSP_ImgHighIsoGetHighIsoLumaBlend
 0001:0015F32C       AmbaDSP_ImgHighIsoSetHighIsoBlendLumaLevel
 0001:0015F4D8       AmbaDSP_ImgHighIsoGetHighIsoBlendLumaLevel
 0001:0015F870       _SdHostGetStatus
 0001:00160868       FSGetFreeSpace
 0001:00161174       strncpy
 0001:00161A50       AmbaFS_CreateFat
 0001:00161CB4       CreateSystemArea
 0001:00161E00       AmbaFS_CreateBootArea
 0001:001621A0       CreateUpcaseTable
 0001:001636D8       _svfprintf_r
 0001:00164D14       aHjltzl
 0001:00164D1C       aNan
 0001:00164D20       aNan_0
 0001:00164D24       aInf
 0001:00164D28       aInf_0
 0001:00164D2C       a0
 0001:00165838       AmbaDSP_ArmCommTask
 0001:00165AD4       AmbaDSP_ArmCommTask_Init
 0001:00165BD4       DSP_ArmCommVdspMsgEventHandler
 0001:00165C60       DSP_ArmCommAsyncMsgEventHandler
 0001:00165D6C       DSP_ArmCommVdspEventHandler
 0001:00169A80       AmbaDSP_CmdSetSystemInfo
 0001:00169FD8       H264ENC_START
 0001:0016A2CC       H264ENC_STOP
 0001:0016A3A0       H264ENC_JPEG_SETUP
 0001:0016A5C4       H264ENC_UPDATE_ON_DEMAND_IDR
 0001:0016A6CC       H264ENC_UPDATE_BITRATE_CHANGE
 0001:0016A804       H264ENC_MJPEG_CAPTURE
 0001:0016A904       H264ENC_ROTATE
 0001:0016AA68       H264ENC_UPDATE_FRMRATE_CHANGE
 0001:0016AB74       H264ENC_PAUSE
 0001:0016AC50       H264ENC_RESUME
 0001:0016AD60       H264DEC_SETUP
 0001:0016AEB4       H264DEC_DECODE
 0001:0016AF4C       H264DEC_STOP
 0001:0016B020       H264DEC_SPEED
 0001:0016B0C8       H264DEC_TRICKPLAY
 0001:0016B1A0       H264DEC_YUV2YUV
 0001:0016B354       H264DEC_PAINT
 0001:0016B46C       H264DEC_PBCAP_CFG
 0001:0016B50C       H264DEC_YUV2JPEG
 0001:0016B6F0       VOUT_MIXER_SETUP
 0001:0016B888       VOUT_VIDEO_SETUP
 0001:0016B9C4       VOUT_OSD_SETUP
 0001:0016BB80       VOUT_OSD_BUFFER_SETUP
 0001:0016BC40       VOUT_DISPLAY_SETUP
 0001:0016BCF8       VOUT_DVE_SETUP
 0001:0016BD9C       VOUT_RESET_CMD
 0001:0016BE4C       VOUT_DISPLAY_CSC_SETUP_CMD
 0001:0016BFA0       POSTPROC_CMD
 0001:0016C288       POSTP_VIDEO_FADING
 0001:0016C45C       POSTP_CONFIG_YUV2RGB
 0001:0016C564       STILLDEC_CONFIG
 0001:0016C650       STILLDEC_DECODE
 0001:0016C7B8       STILLDEC_UPDATE_BITS
 0001:0016C87C       STILLDEC_TERMINATE
 0001:0016C914       STILLDEC_STOP
 0001:0016C9EC       STILLDEC_YUV2YUV
 0001:0016CC44       STILLDEC_YUV_DISP
 0001:0016CDF0       STILLDEC_BLEND
 0001:0016D084       STILLDEC_PAINT
 0001:0016D208       STILLDEC_YUV2RGB
 0001:0016D374       STILLDEC_PBCAP_CFG
 0001:0016D410       DEC_YUV2JPEG
 0001:00170DD0       AmbaDSP_LiveviewConfig
 0001:001731EC       AmbaDSP_LiveviewDispConfig
 0001:00174CE4       AmbaDSP_VideoEncMainStreamConfig
 0001:001751FC       AmbaDSP_VideoEncSecStreamConfig
 0001:00175AC0       SetCfaNoiseFilter
 0001:00175F00       AmbaDSP_ImgSetCfaNoiseFilterInfo
 0001:00175FF0       AmbaDSP_ImgSetCfaNoiseFilter
 0001:0017623C       AmbaDSP_ImgGetCfaNoiseFilter
 0001:00177B44       nullsub_10
 0001:0017E100       _tx_thread_system_preempt_check
 0001:0017E214       _tx_thread_create
 0001:0017E570       _tx_thread_delete
 0001:0017EE2C       _tx_thread_system_suspend
 0001:0018157C       _tx_event_flags_set
 0001:001842A8       nullsub_11
 0001:001842AC       nullsub_12
 0001:001842B0       nullsub_13
 0001:001842B4       nullsub_14
 0001:001842B8       nullsub_15
 0001:001842BC       nullsub_16
 0001:001842C0       nullsub_17
 0001:00184C44       AmbaDSP_Img3aGetAaaStatInfo
 0001:00184E2C       AmbaDSP_Img3aSetAeStatInfo
 0001:00184FB0       AmbaDSP_Img3aSetAwbStatInfo
 0001:00185134       AmbaDSP_Img3aSetAfStatInfo
 0001:001852B0       AmbaDSP_Img3aGetAfStatExInfo
 0001:00185408       AmbaDSP_Img3aSetAaaStatInfo
 0001:00185610       AmbaDSP_Img3aGetAaaStatInfo_2
 0001:00185768       AmbaDSP_Img3aSetAaaFloatTileInfo
 0001:001858E8       AmbaDSP_Img3aGetAaaFloatTileInfo
 0001:00185A44       AmbaDSP_Img3aGetAaaFloatTileSimplfiedInfo
 0001:00185BA4       AmbaDSP_Img3aSetAaaPseudoY
 0001:00185D24       AmbaDSP_Img3aGetAaaPseudoY
 0001:00185E7C       AmbaDSP_Img3aSetAaaEarlyWbGain
 0001:00185FF4       AmbaDSP_Img3aGetAaaEarlyWbGain
 0001:00187550       AmbaDSP_JpegEncConfig
 0001:00187CF4       AmbaDSP_StillCaptureRaw
 0001:00188170       AmbaDSP_CmdVcapThreadRestart
 0001:00188560       AmbaDSP_StillGenerateCleanRaw
 0001:00188D38       AmbaDSP_StillQuickviewConfig
 0001:0018A534       AmbaDSP_StillGenerateScrnNails
 0001:0018AAC8       DSP_ImgCoreProcessDgainSaturationLevel
 0001:0018ABD4       DSP_ImgCoreProcessCfaLeakageFilter
 0001:0018ACCC       DSP_ImgCoreProcessRgbToYuvMatrix
 0001:0018AE08       DSP_ImgCoreProcessStaticBlackLevel
 0001:0018AFF4       DSP_ImgCoreProcessAntiAliasingFilter
 0001:0018B188       DSP_ImgCoreProcessDynamicBadPixelCorrection
 0001:0018B488       DSP_ImgCoreProcessLocalExposure
 0001:0018B61C       DSP_ImgCoreProcessDemosaic
 0001:0018B6EC       DSP_ImgCoreProcessColorCorrectionReg
 0001:0018BB28       DSP_ImgCoreProcessColorCorrection
 0001:0018BE84       DSP_ImgCoreProcessChromaScale
 0001:0018C048       DSP_ImgCoreProcessChromaMedianFilter
 0001:0018C5DC       DSP_ImgCoreProcessColorDependentNoiseReduction
 0001:0018CBB4       DSP_ImgCoreProcess1stSharpenNoiseSharpenCoring
 0001:0018CC98       DSP_ImgCoreProcess1stSharpenNoiseSharpenFir
 0001:0018CDD8       DSP_ImgCoreProcess1stSharpenNoiseSharpenMinCoringResult
 0001:0018CF38       DSP_ImgCoreProcess1stSharpenNoiseSharpenCoringIndexScale
 0001:0018D098       DSP_ImgCoreProcess1stSharpenNoiseSharpenScaleCoring
 0001:0018D1F8       DSP_ImgCoreProcess1stSharpenNoiseBoth
 0001:0018D458       DSP_ImgCoreProcess1stSharpenNoiseNoise
 0001:0018D760       DSP_ImgCoreProcess1stLumaProcessingMode
 0001:0018E048       DSP_ImgCoreProcessAdvanceSpatialFilter
 0001:0018E5E8       DSP_ImgCoreProcessFinalSharpenNoiseSharpenCoring
 0001:0018E740       DSP_ImgCoreProcessFinalSharpenNoiseSharpenFir
 0001:0018E90C       DSP_ImgCoreProcessFinalSharpenNoiseSharpenMinCoringResult
 0001:0018EC78       DSP_ImgCoreProcessFinalSharpenNoiseSharpenCoringIndexScale
 0001:0018EFE4       DSP_ImgCoreProcessFinalSharpenNoiseSharpenScaleCoring
 0001:0018F374       DSP_ImgCoreProcessFinalSharpenNoiseBoth
 0001:0018FE48       DSP_ImgCoreProcessFinalSharpenNoiseNoise
 0001:00190F54       DSP_ImgCoreProcessChromaFilter
 0001:001910B8       DSP_ImgCoreProcessGbGrMismatch
 0001:00191198       DSP_ImgCoreProcessVideoMctf
 0001:00191338       DSP_ImgCoreProcessVideoMctfLevel
 0001:00191424       DSP_ImgCoreProcessVideoMctfGhostPrv
 0001:001915A8       DSP_ImgCoreProcessVideoMctfEnable
 0001:00191678       DSP_ImgCoreProcessVideoMctfCompressionEnable
 0001:0019172C       SDPowerCycle
 0001:00191F38       SDSetupSdioCard
 0001:001920E0       Mmc4DetermineBusWidth
 0001:001921B8       SDSetupMmc4Card
 0001:001923AC       SDSetupMmcCard
 0001:001926AC       SDSetupUhsMode
 0001:001928E8       SdSetupSdmemCard
 0001:00192D78       AmbaSD_GetHost
 0001:00192E1C       AmbaSD_CardINSlot
 0001:00192E38       AmbaSD_InitCard
 0001:00196810       AmbaSD_ReadSingleBlock
 0001:00196C7C       AmbaSD_ReadMultipleBlock
 0001:0019756C       AmbaSD_WriteSingleBlock
 0001:001979E0       AmbaSD_WriteMultipleBlock
 0001:0019A348       AmbaSD_Erase
 0001:0019A4CC       AmbaSD_ReadSector
 0001:0019A91C       AmbaSD_WriteSector
 0001:0019B2EC       SDSetCmdReg
 0001:0019B984       AmbaRTSL_SdGetHost
 0001:0019BA58       AmbaRTSL_SDWriteData
 0001:0019BF38       AmbaRTSL_SDReadData
 0001:0019C3BC       AmbaRTSL_SDSendCmd
 0001:0019C504       AmbaRTSL_SDCardINSlot
 0001:0019C540       AmbaRTSL_SDGetWriteProtect
 0001:0019C798       AmbaRTSL_SDSetIos
 0001:0019CA08       SdDataDone
 0001:0019D494       AmbaNand_SetDevInfo
 0001:0019DAF0       NftlGetPartObj
 0001:0019DD20       NftlReadTInfo
 0001:0019E00C       NftlWriteTInfo
 0001:0019E2F8       NftlReadIMark
 0001:0019E388       NftlWriteIMark
 0001:0019E610       NftlValidNextTChunk
 0001:0019E754       NftlCreateSecsMask32
 0001:0019E7A4       NftlCreateSecsMask
 0001:0019E970       NftlUpdateBBInfo
 0001:0019E9E4       NftlUpdateLogicTable
 0001:0019EA80       NftlUpdatePhyTable
 0001:0019EB14       NftlGetUsedSecPat
 0001:0019EE9C       NftlWriteUsedSecPat
 0001:0019F47C       NftlCheckUsedSecs
 0001:0019F604       NftlGetLba
 0001:0019F710       NftlGetPba
 0001:0019F7E4       NftlGetLbaFromUsedSec
 0001:0019F9AC       NftlGetFirstUsedSec
 0001:0019FAA0       NftlCreateLbaTbl
 0001:0019FEF8       NftlCreatePbaTbl
 0001:001A0090       NftlSaveInfoToTChunk
 0001:001A01B4       NftlInitIChunk
 0001:001A06B0       NftlGetReqArg
 0001:001A09C8       NftlSearchErasedBlock
 0001:001A0C60       NftlSearchErasedBlockCb
 0001:001A1628       NftlBadBlockHandler
 0001:001A1858       NftlWriteSecs
 0001:001A1AFC       NftlWriteSecsCb
 0001:001A1DFC       NftlWritePage
 0001:001A240C       NftlWritePSecsNewBlock
 0001:001A2BC8       NftlWritePSecs
 0001:001A2F00       NftlWriteBlockPSecsNewBlock
 0001:001A3374       NftlWriteBlockPSecs
 0001:001A3480       NftlProgErHandler
 0001:001A363C       NftlInit
 0001:001A3A30       NftlErasePart
 0001:001A3C38       NftlRead
 0001:001A42F8       NftlWrite
 0001:001A479C       AmbaNFTL_EraseLogicalBlocks
 0001:001A4854       AmbaNFTL_InitLock
 0001:001A48B4       AmbaNFTL_IsWrProtect
 0001:001A4934       AmbaNFTL_IsInit
 0001:001A49B4       AmbaNFTL_Init
 0001:001A4A40       AmbaNFTL_Deinit
 0001:001A4AC4       AmbaNFTL_ErasePart
 0001:001A4BF0       AmbaNFTL_SyncTChunk
 0001:001A4C74       AmbaNFTL_Read
 0001:001A4D18       AmbaNFTL_Write
 0001:001A4DB8       AmbaNFTL_GetTotalSecs
 0001:001A4E3C       AmbaNFTL_GetStatus
 0001:001A4F08       AmbaNFTL_GetBBMStatus
 0001:001AE380       NandFS_PhySimpleWrite
 0001:001AE4F0       NandFS_CheckFormat
 0001:001AE658       NandFS_DoInsert
 0001:001AE688       NandFS_DoEject
 0001:001AE6EC       NandFS_CheckMedia
 0001:001AE788       NandFS_DrvInit
 0001:001AE7D0       NandFS_DrvTblInit
 0001:001AE818       NandFS_Finalize
 0001:001AE87C       NandFS_Mount
 0001:001AE8BC       NandFS_Unmount
 0001:001AE8FC       NandFS_Forma
 0001:001AEBF4       NandFS_GetDiskInfo
 0001:001AEF64       NandFS_Init
 0001:001AF178       AmbaFS_NandFormatDrive
 0001:001AF5D4       pdm_open_disk
 0001:001AF604       pdm_open_partition
 0001:001AF680       AmbaFS_SdPrf2DoEject
 0001:001AF6E4       AmbaFS_SdPrf2CheckMedia
 0001:001AF804       AmbaFS_SdPrf2CheckFormat
 0001:001AF9EC       AmbaFS_SdPrf2FormatDrive
 0001:001AFABC       AmbaFS_SdPrf2InitDriveTable
 0001:001AFB04       AmbaFS_SdPrf2DriveInit
 0001:001AFB4C       AmbaFS_SdPrf2Finalize
 0001:001AFBB0       AmbaFS_SdPrf2Mount
 0001:001AFBF0       AmbaFS_SdPrf2Unmount
 0001:001B0208       AmbaFS_SdPrf2GetDiskInfo
 0001:001B0404       AmbaFS_SdPrf2init
 0001:001B08A4       AmbaFS_NullPrFileinit
 0001:001B0F2C       AmbaSysInitPreOS
 0001:001B58C8       nullsub_18
 0001:001B58D4       AmbaDSP_ImgSetVinSensorInfo
 0001:001B5ADC       AmbaDSP_ImgGetVinSensorInfo
 0001:001B5C44       ImgWarpCore_GetCalibCtx.isra.3
 0001:001B5D40       ImgWarpCore_GetParamCtx.isra.1
 0001:001B62B0       AmbaDSP_WarpCore_SetCalibWarpInfo
 0001:001B6754       ImgWarpCore_CalcActWin
 0001:001B6AC0       ImgWarpCore_CalcDmyWin
 0001:001B6FC8       ImgWarpCore_CalcCfaOutWin
 0001:001B7524       ImgWarpCore_CalcWindowInfo
 0001:001B7670       ImgWarpCore_TuneOutputWinWithoutTinyScaling.isra.7
 0001:001B78C0       AmbaDSP_WarpCore_CalcWindowInfo
 0001:001B79FC       AmbaDSP_WarpCore_GetWindowInfo
 0001:001B7AAC       AmbaDSP_WarpCore_CalcDspCawarp
 0001:001B7DE0       AmbaDSP_WarpCore_CalcDspWarp
 0001:001B8010       AmbaPLL_GetIdspClk
 0001:001B804C       AmbaPLL_GetDdrClk
 0001:001B8084       AmbaPLL_GetCoreClk
 0001:001B80C0       AmbaPLL_GetAudioClk
 0001:001B80FC       AmbaPLL_GetCortexClk
 0001:001B8138       AmbaPLL_GetAhbClk
 0001:001B8170       AmbaPLL_GetApbClk
 0001:001B8288       AmbaPLL_GetAxiClk
 0001:001B87B8       DSP_ImgCoreProcessCfaNoiseFilter
 0001:001BFE94       DSP_ImgProcessColorDependentNoiseReduction
 0001:001C0388       _tx_thread_stack_error_handler
 0001:001C03C0       _tx_thread_stack_analyze
 0001:001C04CC       _tx_thread_system_return
 0001:001C053C       _tx_thread_stack_build
 0001:001C05B4       _tx_trace_object_register
 0001:001C0850       _tx_thread_system_resume
 0001:001C0EBC       _tx_timer_system_deactivate
 0001:001C3F8C       AmbaDSP_ImgSetWarpCompensation
 0001:001C43E8       AmbaDSP_ImgCalcWarpCompensation
 0001:001C47F0       AmbaDSP_ImgCalcWarpCompensation_0
 0001:001C4B70       AmbaDSP_ImgSetWarpCompensation_2
 0001:001C4FC8       AmbaDSP_ImgGetWarpCompensation
 0001:001C5524       AmbaDSP_ImgSetWarpCompensationByPass
 0001:001C5B28       AmbaDSP_ImgGetWarpCompensationByPass
 0001:001C5D50       AmbaDSP_ImgGetWarpCompensationVwarpFirstLine
 0001:001CAC90       DjiUsbClassInit
 0001:001CB0E4       nullsub_63
 0001:001CB0E8       nullsub_19
 0001:001CB36C       AmbaRTSL_SDDeconfigCard
 0001:001CB400       AmbaRTSL_SDGoIdleState
 0001:001CB48C       AmbaRTSL_SDSendOpCondCmd1
 0001:001CB564       AmbaRTSL_SDAllSendCid
 0001:001CB718       AmbaRTSL_SDSendRelativeAddr
 0001:001CB80C       AmbaRTSL_SDIOSendOPCondition
 0001:001CB938       AmbaRTSL_SDSwitchFunc
 0001:001CBCE4       AmbaRTSL_SDSelectCard
 0001:001CBD90       AmbaRTSL_SDSendIFCond
 0001:001CBE90       AmbaRTSL_SDSendExtCsd
 0001:001CBFF8       AmbaRTSL_SDSendCsd
 0001:001CC3C8       AmbaRTSL_SDVoltageSwitch
 0001:001CC478       AmbaRTSL_SDSendStatus
 0001:001CC574       AmbaRTSL_SDSetBlockLength
 0001:001CC620       AmbaRTSL_SDReadSingleBlock
 0001:001CC770       AmbaRTSL_SDReadMultipleBlock
 0001:001CC908       AmbaRTSL_SDSendTuningPattern
 0001:001CCA98       AmbaRTSL_SDWriteBlock
 0001:001CCC08       AmbaRTSL_SDWriteMultipleBlock
 0001:001CCD78       AmbaRTSL_SDEraseWEBlkStart
 0001:001CCE28       AmbaRTSL_SDEraseWRBlkEnd
 0001:001CCED8       AmbaRTSL_SDEraseGroupStart
 0001:001CCF88       AmbaRTSL_SDEraseGroupEnd
 0001:001CD034       AmbaRTSL_SDErase
 0001:001CD0E8       AmbaRTSL_SDioRWDirect
 0001:001CD320       AmbaRTSL_SDSendAppCmd
 0001:001CD3D4       AmbaRTSL_SDSetBusWidth
 0001:001CD480       AmbaRTSL_SDSendSDStatus
 0001:001CD5C4       AmbaRTSL_SDSendOPCondAcmd41
 0001:001CD6D8       AmbaRTSL_SDSetClrCardDetect
 0001:001CD7B0       AmbaRTSL_SDSendScr
 0001:001CF724       AmbaRTSL_GpioConfigInput
 0001:001CFE64       AmbaRTSL_GpioGetPinInfo
 0001:001D0CB0       NandBbtCheckBlock
 0001:001D0E58       NandBbtSearch
 0001:001D0F9C       NandBbtRead
 0001:001D106C       NandBbtWrite
 0001:001D128C       NandBbtCreate
 0001:001D16E8       AmbaNAND_MarkBlock
 0001:001D188C       NandPseudoCBRead
 0001:001D1AEC       NandPseudoCBWrite
 0001:001D1D58       NandPseudoCB
 0001:001D2A24       AmbaNAND_LoadPartition
 0001:001D30B8       AmbaNAND_Copyback
 0001:001D319C       AmbaNAND_Erase
 0001:001D3334       AmbaNAND_Read
 0001:001D368C       AmbaNAND_ReadSector
 0001:001D3928       AmbaNAND_Program
 0001:001D3CCC       AmbaNAND_Reset
 0001:001D3D5C       AmbaNAND_ReadID
 0001:001D3E00       AmbaNAND_IsInit
 0001:001D3E6C       AmbaNAND_Init
 0001:001ED998       nullsub_20
 0001:001EF8C4       pf_setupfsi
 0001:001F04B8       AmbaRTSL_TimerGet
 0001:001F0C50       AmbaLink_Entry
 0001:001F0D9C       nullsub_21
 0001:001F0DAC       AmbaRPC_MSG_Init
 0001:001F0E18       AmbaLink_Init
 0001:001F1020       AmbaLink_Boot
 0001:001F1798       AmbaSPI_Transfer
 0001:001F2BE8       DSP_ImgCoreProcessVinSensorInfo
 0001:001F3268       AmbaDSP_ImgCalcCawarpCompensationInfo
 0001:001F3554       AmbaDSP_ImgSetCawarpCompensationInfo
 0001:001F35B4       AmbaDSP_ImgCalcCawarpCompensation
 0001:001F3898       AmbaDSP_ImgSetCawarpCompensation
 0001:001F3BE4       AmbaDSP_ImgGetCawarpCompensation
 0001:001F3D94       AmbaDSP_ImgSetCawarpCompensationByPass
 0001:001F464C       _tx_execution_thread_enter
 0001:001F46BC       _tx_execution_thread_exit
 0001:001F4A08       _tx_thread_schedule
 0001:001F4AB0       tx_thread_vfp_enable
 0001:001F4AD8       tx_thread_vfp_disable
 0001:001F4E84       DSP_ImgCoreProcessVideoWarpCompensation
 0001:001F68D0       DSP_ImgCoreProcessWarpRemap
 0001:001F6AA4       DSP_ImgCoreProcessWarpRotation
 0001:001F6D0C       DSP_ImgWarpGetTileExp
 0001:001F6E04       DSP_ImgWarpGenerateFakeTbl
 0001:001F6FA0       DSP_ImgCoreProcessCalcWarpCompensation
 0001:001F74B4       AmbaIPC_OWNER_IS_REMOTE
 0001:001F7514       AmbaIPC_MutexTake
 0001:001F764C       AmbaIPC_MutexGive
 0001:001F7740       AmbaIPC_MutexInit
 0001:001F7EAC       DjiUstRomSectorInfoGet
 0001:001F7F84       DjiUstUserSettingsToRom
 0001:001F80F8       DjiUstUserSettingsFromRom
 0001:001F826C       DjiUstMultiCapNumSet
 0001:001F84E8       DjiUstPhotoJpegQualitySet
 0001:001F87C4       DjiUstPhotoSizeSet
 0001:001F8AA0       DjiUstPhotoFmtSet
 0001:001F8DA0       DjiUstIsoSet
 0001:001F91E0       DjiUstWbSet
 0001:001F94CC       DjiUstAeMeterModeSet
 0001:001F9818       DjiUstShutterTimeSet
 0001:001F9C80       DjiUstEvBiasSet
 0001:001FA04C       DjiUstPhotoAebSet
 0001:001FA304       DjiUstSharpnessSet
 0001:001FA5EC       DjiUstContrastSet
 0001:001FA8D4       DjiUstContiCapSet
 0001:001FAC30       DjiUstPhotoQuickviewSet
 0001:001FAEB0       DjiUstSceneSet
 0001:001FB250       DjiUstFaceDetectSet
 0001:001FB4D4       DjiUstSaturationSet
 0001:001FB7C4       DjiUstHueSet
 0001:001FBAB8       DjiUstApertureSet
 0001:001FBE78       DjiUstDigitalEffectSet
 0001:001FC170       DjiUstVideoSizeSet
 0001:001FC45C       DjiUstVideoStorageFmtSet
 0001:001FC74C       DjiUstVideoAflkSet
 0001:001FCAB8       DjiUstVideoFovSet
 0001:001FCDA0       DjiUstVideoQualitySet
 0001:001FD08C       DjiUstVideoStreamSet
 0001:001FD37C       DjiUstVideoAudioSet
 0001:001FD608       DjiUstCameraConfigSet
 0001:001FD8EC       DjiUstGpsConfigSet
 0001:001FDB74       DjiUstOpModeSet
 0001:001FDEE4       DjiUstUsbClassSet
 0001:001FE1D0       DjiUstHdmiOutSet
 0001:001FE4C4       DjiUstDmfSet
 0001:001FE7B0       DjiUstModeDialSet
 0001:001FEB04       DjiUstHistogramSet
 0001:001FED94       DjiUstSubtitlesSet
 0001:001FF018       DjiUstPalNtscSet
 0001:001FF2F8       DjiUstPanoModeGet
 0001:001FF3A8       DjiUstPanoModeSet
 0001:001FF694       DjiUstCamReverseSet
 0001:001FF970       DjiUstMultiCapNumGet
 0001:001FFA14       DjiUstPhotoJpegQualityGet
 0001:001FFAB8       DjiUstPhotoSizeGet
 0001:001FFB54       DjiUstPhotoFmtGet
 0001:001FFBF8       DjiUstIsoGet
 0001:001FFCD4       DjiUstWbGet
 0001:001FFD74       DjiUstAeMeterModeGet
 0001:001FFE34       DjiUstShutterTimeGet
 0001:001FFF10       DjiUstEvBiasGet
 0001:001FFFCC       DjiUstPhotoAebGet
 0001:00200068       DjiUstSharpnessGet
 0001:0020010C       DjiUstContrastGet
 0001:002001B4       DjiUstContiCapGet
 0001:00200258       DjiUstPhotoQuickviewGet
 0001:002002FC       DjiUstSceneGet
 0001:002003F0       DjiUstFaceDetectGet
 0001:00200490       DjiUstSaturationGet
 0001:0020052C       DjiUstHueGet
 0001:002005C8       DjiUstApertureGet
 0001:00200688       DjiUstDigitalEffectGet
 0001:00200728       DjiUstVideoSizeGet
 0001:002007C8       DjiUstVideoStorageFmtGet
 0001:0020086C       DjiUstVideoAflkGet
 0001:00200914       DjiUstVideoFovGet
 0001:002009B8       DjiUstVideoQualityGet
 0001:00200A5C       DjiUstVideoStreamGet
 0001:00200B00       DjiUstVideoAudioGet
 0001:00200BA8       DjiUstCameraConfigGet
 0001:00200C48       DjiUstGpsConfigGet
 0001:00200CEC       DjiUstOpModeGet
 0001:00200D8C       DjiUstUsbClassGet
 0001:00200E2C       DjiUstHdmiOutGet
 0001:00200ED4       DjiUstDmfGet
 0001:00200F7C       DjiUstModeDialGet
 0001:00201020       DjiUstHistogramGet
 0001:002010C4       DjiUstSubtitlesGet
 0001:00201168       DjiUstPalNtscGet
 0001:0020120C       DjiUstCamReverseGet
 0001:002012D8       DjiUstSetFuncExecAll
 0001:00201684       DjiUstTakeEffect
 0001:00201904       DjiUstVideoQualitySetInner
 0001:00201A08       DjiUstPhotoSizeSetCallBack
 0001:00201B74       DjiUstPhotoFmtSetCallBack
 0001:00201CB8       DjiUstVideoSizeSetCallBack
 0001:00201FF8       DjiUstVideoStreamSetCallBack
 0001:002021BC       DjiUstUsbClassSetCallBack
 0001:002022F0       DjiUstModeDialSetCallBack
 0001:002025AC       DjiUstSetCallbackReg
 0001:00202760       DjiUstUserSettingsSave
 0001:00202A6C       DjiUserSettingsLoadOnly
 0001:00202CC4       DjiUserSettingsLoad
 0001:00202F20       DjiUst_sub_E802F20
 0001:002035DC       DjiUstDefaultUserSettingsLoadOnly
 0001:00203740       DjiUstDefaultUserSettingsLoad
 0001:00203920       DjiUstUserSettingsSet
 0001:00203C74       DjiUstUserSettingsGet
 0001:00203F1C       DjiUstUserSettingsGetNoBlock
 0001:002040F0       DjiUstVideoBitRateGet
 0001:002042F4       DjiUstAdjustShutterTime
 0001:0020446C       DjiUstAdjustIso
 0001:002045E8       DjiUstItemMutexCreate
 0001:002046F0       DjiUstInit
 0001:00204D64       AmbaPrintk_Disabled
 0001:00205CB4       DjiCheckRTCTest
 0001:002062A4       aSpi
 0001:002062A8       DjiCheckingEntry
 0001:002062EC       DjiCheckingInit
 0001:002063F0       DjiAgingSetFunVal
 0001:0020657C       DjiAgingGetFunItem
 0001:002066C0       DjiAgingRecoverScript
 0001:00206890       DjiAgingVideoGetEncBn
 0001:002069CC       DjiAgingCreateBoardFile
 0001:00206E34       DjiAgingWriteRecord
 0001:002072E8       DjiAgingOpenResultFile
 0001:00207430       DjiAgingLoadResultFileToBuf
 0001:0020754C       DjiAgingRecoverResultFile
 0001:00207650       DjiAgingCreateCheckFile
 0001:00207978       DjiAgingIfDM368Ok
 0001:00207A84       DjiAgingIfM4Ok
 0001:00207B2C       DjiAgingRecordVideoStop
 0001:00207EF4       DjiAgingBakVideoStopFile
 0001:00207F8C       DjiAgingRecoverVideoStopFile
 0001:00208050       DjiAgingVideoOk
 0001:00208328       DjiAging
 0001:00208690       DjiAging_sub_E808690
 0001:00208BC4       DjiAging_0
 0001:00209248       DjiAgingTestRecord
 0001:00209364       DjiVideoCheckingEntry
 0001:002093FC       DjiVideoCheckingInit
 0001:00209460       DjiAgingTaskDelete
 0001:0020957C       AmbaDSP_sub_E80957C
 0001:002096F4       AmbaBufferInit
 0001:0020A12C       DjiNonCachedBufAlloc
 0001:0020A3B8       DjiAdcVoltageGet
 0001:0020A4D4       DjiAdcUserStringGet
 0001:0020A5EC       DjiAdcScanInfoGet
 0001:0020A7B0       DjiHardwareVerInit
 0001:0020A9D0       DjiHardwareVersionGet
 0001:0020AA88       DjiFirmWareVersionGet
 0001:0020AB34       DjiModelNameAreaGet
 0001:0020ACD0       DjiModelNameAreaSet
 0001:0020AE70       DjiLoaderVersionGet
 0001:0020AF9C       DjiVersionGet
 0001:0020B220       DjiSystemCalibrationInfoGet
 0001:0020B2E8       DjiSelfTestResultsCheck
 0001:0020B41C       DjiReboot
 0001:0020B718       DjiRomDataMiscSave
 0001:0020BA84       DjiRomDataMiscLoad
 0001:0020C360       DjiDspAssertionHandlerInit
 0001:0020C484       DjiRomDataMiscInit
 0001:0020C6C8       DjiMiscInit
 0001:0020C7C4       DjiRTCInit
 0001:0020C9B8       DjiLinuxRelatedPartsInit
 0001:0020CAD8       DjiReset68013
 0001:0020CD20       DjiPreviousStateCleanUp
 0001:0020CE7C       DjiLog2Sd
 0001:0020D0F4       DjiLog2SdDetectProc
 0001:0020D2D8       DjiLog2Sd_Init
 0001:0020D410       Dji_sub_E80D410
 0001:0020D694       DjiInitStage
 0001:0020D808       DjiSysBootUpTaskDelete
 0001:0020D938       DjiBootUp
 0001:0020DA2C       DjiMainInit
 0001:0020E82C       LoadROMImageTable
 0001:0020ED20       AmbaRTC_sub_E80ED20
 0001:0020EE00       AmbaRTC_sub_E80EE00
 0001:0020F040       RTC_GetSystemTime
 0001:0020F2DC       AmbaRTC_GetSystemTime
 0001:0020F498       DjiIsEjectSet
 0001:0020F52C       DjiIsEjectGet
 0001:0020F59C       DjiSd1InsertHandle
 0001:0020FA00       DjiSd1EjectHandle
 0001:0020FB5C       AmbaMonitor_SDInsert_Entry
 0001:0020FC10       AmbaMonitor_SDOther_Entry
 0001:0020FFBC       AmbaMonitor_SdInit
 0001:00211D24       BeepPlaybackTask
 0001:00211DD8       AmpBeepAudioOutputGetLofCB
 0001:00211E7C       AmpBeep_Init
 0001:0021217C       AmbaAudioOutputStart
 0001:002121E8       AmbaAudioOutputStop
 0001:00212594       AmbaAudio_sub_E812594
 0001:00212BAC       DjiOpModeInit
 0001:00212C44       AppMainTask_Entry
 0001:002137B4       AmbaOpModeCtrlTaskCreate
 0001:0021396C       DjiUsbDeviceClass
 0001:002139FC       DeviceSystemStart
 0001:00213A10       DeviceSystemRelease
 0001:00213A78       USBDeviceSuspend
 0001:00213A88       USBDeviceResume
 0001:00213A98       USBDeviceReset
 0001:00213B3C       USB_DeviceClassCtrlTask
 0001:00213DE4       aMsc
 0001:00213DE8       aMtp
 0001:00213DEC       aHid
 0001:00213DF0       aUvc
 0001:00213DF4       AmbaUSB_DeviceSystemInit
 0001:00213EBC       AmbaUSB_DeviceSystemDestroy
 0001:00213F10       AmbaUSB_ClassInit
 0001:00214148       DjiCmmFirmwareCheckImage
 0001:002142C8       DjiCmmFirmwareCheckHeader
 0001:00214548       DjiCmmFirmwareCheck
 0001:00214A54       DjiCameraFirmwareUpdate
 0001:00214D9C       DjiCmmCapTypeSet
 0001:00214F58       DjiNotice1765SwitchUsb2A9
 0001:002150D4       DjiCmmDownloadModeCtrl
 0001:0021542C       DjiCmmUsbSwitch
 0001:00215748       DjiCmmOpModeCtrl
 0001:00215900       DjiCmmClkChangedReconfig
 0001:00215A14       DjiCmmSetOpMode
 0001:00215B94       DjiCmmOpModeSwitchInner
 0001:00215EA4       DjiCmmOpModeSwitch
 0001:00216144       DjiCmmRawBufAllocInfoSet
 0001:00216360       DjiCmmRawBufReset
 0001:002164A0       DjiCmmRawBufAlloc
 0001:00216B54       DjiCmmRawBufFree
 0001:00217090       DjiCmmCapNumIncrease
 0001:00217120       DjiCmmStorageTimesIncrease
 0001:00217224       DjiCmmDoCapture
 0001:00217430       DjiCmmRecordCtrl
 0001:00217800       DjiCmmDoRecord
 0001:0021792C       DjiCmmRecordRestart
 0001:00217C10       DjiCmmDoDzoom
 0001:00217CEC       DjiCmmDzoomGuiHandle
 0001:00217EBC       DjiCmmDzoomFactorSet
 0001:00218010       DjiPushUpdate
 0001:002180E8       DjiPushStart
 0001:002181FC       DjiPushStop
 0001:0021828C       DjiCmmPushTaskEntry
 0001:0021838C       DjiCmmPushCtrl
 0001:0021869C       DjiCmmPushInit
 0001:00218B14       DjiContinParaUpdate
 0001:00218C4C       DjiCmmStartCCap
 0001:00218DE0       DjiCCapTaskEntry
 0001:00218E7C       DjiCmmCCapInit
 0001:00218FB8       DjiStateFlagsClear
 0001:00219194       DjiCmmOsdMutexTry
 0001:0021922C       DjiCmmSrtStart
 0001:00219400       DjiCmmSrtRecord
 0001:00219BAC       DjiSrtTaskEntry
 0001:00219BD4       DjiCmmSrtInit
 0001:00219FBC       DjiCmmKscnInit
 0001:0021A080       DjiCmmRecOsdDrawing
 0001:0021A424       DjiCmmCapOsdItemDrawing
 0001:0021AE1C       DjiCmmPushStateSet
 0001:0021AF0C       DjiCmmPushModeSet
 0001:0021B2E4       DjiOsdTaskEntry
 0001:0021B4C4       DjiCmmCreateOsdTask
 0001:0021B584       DjiCmmOsdInit
 0001:0021B71C       DjiCmmMonSensorAddAll
 0001:0021B9A8       DjiCmmMonThresholdGet
 0001:0021BA98       DjiCmmMonReport
 0001:0021BC68       DjiCmmMonCurStatusGet
 0001:0021BE98       DjiCmmMonAssistTaskEntry
 0001:0021C1D0       DjiCmmMonSensorInit
 0001:0021C3E8       DjiCmmHeartBeatDisconStateSet
 0001:0021C54C       DjiCmmHeartBeatInit
 0001:0021C64C       DjiCmmLedInit
 0001:0021C770       DjiCmmRecoveryMonitorEntry
 0001:0021C8E8       DjiCmmRecoveryInit
 0001:0021C9F4       DjiCmmCameraStateMonitorEntry
 0001:0021CB90       DjiCmmCameraStateMonitorInit
 0001:0021CC84       DjiCmmTemperatureGet
 0001:0021CD60       DjiCmmAgingTryCntGet
 0001:0021CE90       DjiCmmAgingTryCntSet
 0001:0021CF34       DjiCmmAgingDdrReSultGet
 0001:0021D050       DjiCmmAgingDdrResultSave
 0001:0021D144       DjiCmmDdrParamAdj
 0001:0021D980       DjiCmmTemperatureMonitorEntry
 0001:0021DB40       DjiCmmTemperatureGood
 0001:0021DBE8       DjiCmmTemperatureWarn
 0001:0021DC80       DjiCmmTemperatureFatal
 0001:0021DE3C       DjiCmmTemperatureMonitorInit
 0001:0021DFC0       str1
 0001:0021DFF4       DjiCmmUpdateEngineInit
 0001:0021E110       DjiWdgTaskEntry
 0001:0021E18C       DjiCmmWdgStart
 0001:0021E26C       DjiCmmWatchdogInit
 0001:0021E4BC       DjiCmmTimerStart
 0001:0021E600       DjiCmmTimerStop
 0001:0021E6F0       DjiCmmInit
 0001:0021EDD4       DjiCmmSDMonitorInit
 0001:0021EF2C       DjiMovieRecordBufferFatal
 0001:0021EFAC       DjiMovieRecordBufferWarn
 0001:0021F18C       DjiMovieRecordBufferGood
 0001:0021F468       DjiCmmBufferInit
 0001:0021F578       DjiCmmRebootInit
 0001:0021F8F8       AmbaIPC_SpinInit
 0001:00220390       AmbaNAND_SetPtb
 0001:0022060C       AmbaNAND_SetMeta
 0001:0022A990       AmbaIPC_Alloc
 0001:0022A9A8       AmbaIPC_RegisterChannel
 0001:0022AB6C       AmbaIPC_RpmsgRestoreData
 0001:0022AE68       Rpdev_ClockSet
 0001:0022B020       AmbaIPC_ClockInit
 0001:0022BC34       AmbaIPC_RpcSyncRtc
 0001:0022BCCC       AmbaIPC_RpcUsbOwnerSwitch
 0001:0022BD84       AmbaIPC_RpcInit
 0001:0022C060       ProcLsInit
 0001:0022C3B8       ProcReadGetBuffer
 0001:0022C49C       ProcReadScatter
 0001:0022C600       ProcGather
 0001:0022C7E0       ProcWrite
 0001:0022CBFC       AmbaIPC_VFS_OPS_Entry
 0001:0022CD00       AmbaIPC_VfsInit
 0001:0022CF38       EntryArg
 0001:0022D438       AmbaIPC_RfsInit
 0001:0022D52C       Rpdev_KillHiberSuspendTask
 0001:0022D6D0       AmbaIPC_LinkCtrlSuspend
 0001:0022D740       Rpdev_LinkCtrl_Init
 0001:0022D830       Hiber_Valid
 0001:0022D890       HiberNand_WriteHeader
 0001:0022DC4C       HiberNand_WriteHeader2
 0001:0022DE68       HiberNand_ReadHeader
 0001:0022E2AC       HiberNand_Save
 0001:0022E39C       HiberNand_Restore
 0001:0022E50C       Hiber_Return
 0001:0022E5F8       AmbaIPC_HiberSaveRpmsgInfo
 0001:0022E828       AmbaIPC_HiberRestoreRpmsgInfo
 0001:0022EA20       AmbaIPC_HiberPrepare
 0001:0022EB04       AmbaIPC_HiberSuspendEntry
 0001:0022ECD4       AmbaIPC_HiberResume
 0001:0022F3E0       AmbaLink_AtagInit
 0001:00232A20       DSP_ImgCoreProcessCaWarpRemap
 0001:00232BE8       DSP_ImgCoreProcessCalcCawarpCompensation
 0001:00232F0C       AmbaSysProfile_GetTimeStamp
 0001:00233514       LiveviewSync_Entry
 0001:002336D4       Liveview_Entry
 0001:00233964       Liveview_SuperViewLoadWarpTable
 0001:00233B48       Liveview_SuperViewReSetupWarpTable
 0001:00235668       AmbaLiveview_SensorConfig
 0001:00235928       AmbaLiveview_LowDelayCtrl
 0001:00235B14       AmbaLiveview_LiveviewStart
 0001:00237CF0       AmbaLiveview_LiveviewStop
 0001:002386A0       AmbaFovRawDecompress_Entry
 0001:00238828       DjiUstVideoStarndardSetCallback
 0001:0023893C       AmbaGuiTask_Entry
 0001:00239504       nullsub_22
 0001:00239600       DjiTimerGetTickCount
 0001:0023AABC       DjiFileCopy
 0001:0023ADFC       DjiCirBufInit
 0001:0023B0E0       DjiSerialNumGenerate
 0001:0023B750       DjiMsgMuMapIndexGetByMKey
 0001:0023B830       DjiMsgMuMapIndexGetByUKey
 0001:0023BB60       DjiMsgEncChipStatusGet
 0001:0023BC60       DjiMsgEncModStatusGet
 0001:0023BDF0       DjiMsgAtvStatusSet
 0001:0023BF94       DjiMsgAtvStatusGet
 0001:0023C364       DjiMsgRcTimeSyncHandle
 0001:0023C50C       DjiMsgEncConfig
 0001:0023CDF4       DjiMsgEncIndirectVertify
 0001:0023CEC4       DjiMsgOpModeCheck
 0001:0023D20C       DjiMsgCapture
 0001:0023D5AC       DjiMsgPlaybackSwitch
 0001:0023D8E0       DjiMsgHeartBeatDisconHandle
 0001:0023DA48       DjiMsgVirtualKeyMode
 0001:0023DB90       DjiMsgVirtualKeyS2
 0001:0023DDAC       DjiMsgVirtualKeyRec
 0001:0023DFD4       DjiMsgRtcTimeSet
 0001:0023EE90       DjiMsgStPushSet
 0001:0023EFDC       DjiMsgStPushGet
 0001:0023F104       DjiMsgStOsdApertureGet
 0001:0023F238       DjiMsgStOsdShutterSpeedGet
 0001:0023F408       DjiMsgStOsdIsoGet
 0001:0023F4B4       DjiMsgStOsdEvbiasGet
 0001:0023F5FC       DjiMsgCameraStatusPush
 0001:0023FBE0       DjiMsgGimbalWorkModeCtrlPush
 0001:0023FD44       DjiMsgUsbSwitchStatusPush
 0001:0023FED4       DjiMsgCaptureParamPush
 0001:00241368       DjiMsgHistogramPush
 0001:00241474       DjiFileInfoPush
 0001:00241834       DjiMsgUpdateStatusPush
 0001:00242004       DjiMsgUpdateSoundPush
 0001:0024213C       DjiMsgPushOut
 0001:00242340       DjiUegDm368StreamControl
 0001:00242444       DjiMsgNavigationModeCtrl
 0001:00242550       DjiMsgJoystickSubModeCtrl
 0001:00242674       DjiMsgStHditOsdSet
 0001:00242850       DjiMsgStHditOsdGet
 0001:00242914       DjiMsgStSubtitlesLogSet
 0001:00242AC0       DjiMsgStHomeDataSet
 0001:00242DB0       DjiMsgStGimbalOsdGet
 0001:00242E4C       DjiMsgStUpdateSoundSet
 0001:00242F18       DjiMsgStUpdateSoundGet
 0001:00242FC0       DjiMsgStCodeDiscItemSet
 0001:0024328C       DjiMsgStCodeDiscItemGet
 0001:002435DC       DjiMsgStCodeDiscGearSet
 0001:00244394       DjiMsgStSelfTestSet
 0001:002444AC       DjiMsgStCodeDiscGearSet_off_E8444AC
 0001:002444B0       DjiMsgStCodeDiscGearSet_off_E8444B0
 0001:002444B4       DjiMsgStCodeDiscGearSet_off_E8444B4
 0001:002444B8       DjiMsgStCodeDiscGearSet_off_E8444B8
 0001:002444BC       DjiMsgStCodeDiscGearSet_off_E8444BC
 0001:002444C0       DjiMsgStSelfTestGet
 0001:00244574       DjiMsgStDm368RebootStatusSet
 0001:00244698       DjiMsgStDm368RebootStatusGet
 0001:00244738       DjiMsgStCaptureTypeSet
 0001:00244860       DjiMsgStCaptureTypeGet
 0001:002448F0       DjiMsgStUsbSwitchStatusSet
 0001:00244A34       DjiMsgStUsbSwitchStatusGet
 0001:00244AE0       DjiMsgStAtvStatusSet
 0001:00244BFC       DjiMsgStAtvStatusGet
 0001:00244C98       DjiMsgStBandStatusSet
 0001:00244DB0       DjiMsgStEquipmemtTypeSet
 0001:00244EDC       DjiMsgDeviceVersionGet
 0001:00245068       DjiMsgDeviceVersionGet68013
 0001:0024521C       DjiMsgPushParamSet
 0001:0024560C       DjiMsgPushParamGet
 0001:00245804       DjiMsgMultiParamSet
 0001:00245AD8       DjiMsgMultiParamGet
 0001:00245E58       DjiMsgUpdateEntryCamApp
 0001:00245FA0       DjiMsgUpdateConfirmCamApp
 0001:00246100       DjiMsgUpdateTransmitCamApp
 0001:0024625C       DjiMsgUpdateFinishCamApp
 0001:002463A8       DjiMsgUpdateEntryCamLdr
 0001:00246518       DjiMsgUpdateConfirmCamLdr
 0001:002466B0       DjiMsgUpdateTransmitCamLdr
 0001:00246854       DjiMsgUpdateFinishCamLdr
 0001:002469FC       DjiMsgDeviceReboot
 0001:00246C18       DjiMsgDeviceStatusGet
 0001:00246E54       DjiMsgFileSendRequest
 0001:002471E0       DjiMsgFileSegmentErr
 0001:00247528       DjiMsgEncpyptConfig
 0001:00247740       DjiMsgActivateConfig
 0001:00247970       DjiMsgSelfTestStatusPush
 0001:00247AA8       DjiMsgFwUpdateControl
 0001:00247D38       DjiSpecialMsgPlaybackSwitch
 0001:00248188       DjiMsgSpecailControl
 0001:002488E4       DjiMsgDoCapture
 0001:00249414       DjiMsgDoRecordBlock
 0001:002495E8       DjiMsgDoRecord
 0001:00249D7C       DjiMsgHeartBeat
 0001:00249EC0       DjiMsgVirtualKeySend
 0001:0024A314       DjiMsgCameraWorkModeSet
 0001:0024A844       DjiMsgSetUsbSwitch
 0001:0024AA58       DjiMsgGetUsbSwitch
 0001:0024AB9C       DjiMsgCameraWorkModeGet
 0001:0024AE00       DjiMsgPhotoSizeSet
 0001:0024B378       DjiMsgPhotoSizeGet
 0001:0024B5F8       DjiMsgPhotoQualitySet
 0001:0024BAAC       DjiMsgPhotoQualityGet
 0001:0024BD14       DjiMsgPhotoStorageFmtSet
 0001:0024C1BC       DjiMsgPhotoStorageFmtGet
 0001:0024C460       DjiMsgVideoFormatSet
 0001:0024D148       DjiMsgVideoFormatGet
 0001:0024D6CC       DjiMsgVideoQualitySet
 0001:0024DB78       DjiMsgVideoQualityGet
 0001:0024DDE8       DjiMsgVideoStorageFmtSet
 0001:0024E284       DjiMsgVideoStorageFmtGet
 0001:0024E4F8       DjiMsgExpoModeSet
 0001:0024EB98       DjiMsgExpoModeGet
 0001:0024EF18       DjiMsgAeMeterSet
 0001:0024F3E4       DjiMsgAeMeterGet
 0001:0024F63C       DjiMsgApertureSizeGet
 0001:0024F88C       DjiMsgShutterSpeedSet
 0001:0024FDB4       DjiMsgShutterSpeedGet
 0001:002500E0       DjiMsgIsoSet
 0001:00250688       DjiMsgIsoGet
 0001:002508E8       DjiMsgWbEnvSet
 0001:00250E80       DjiMsgWbEnvGet
 0001:002511E4       DjiMsgExpoBiasSet
 0001:0025169C       DjiMsgExpoBiasGet
 0001:002518F0       DjiMsgAeMeterRegionSet
 0001:00251C5C       DjiMsgAeMeterRegionGet
 0001:00251E0C       DjiMsgZoomSet
 0001:00252240       DjiMsgZoomGet
 0001:002523A0       DjiMsgSharpenessSet
 0001:002527CC       DjiMsgSharpenessGet
 0001:00252A18       DjiMsgContrastSet
 0001:00252E30       DjiMsgContrastGet
 0001:00253080       DjiMsgSaturationSet
 0001:002534A8       DjiMsgSaturationGet
 0001:0025370C       DjiMsgHueSet
 0001:00253B2C       DjiMsgHueGet
 0001:00253D7C       DjiMsgDigitalEffectSet
 0001:00254210       DjiMsgDigitalEffectGet
 0001:0025447C       DjiMsgAntiFlikerSet
 0001:002548F0       DjiMsgAntiFlikerGet
 0001:00254B44       DjiMsgMultiCapParamSet
 0001:00254EC0       DjiMsgMultiCapParamGet
 0001:002550A4       DjiMsgContiCapParamSet
 0001:002556C8       DjiMsgContiCapParamGet
 0001:0025588C       DjiMsgHdmiOutputParamSet
 0001:00255D1C       DjiMsgHdmiOutputParamGet
 0001:00255F8C       DjiMsgQuickviewParamSet
 0001:002563C0       DjiMsgQuickviewParamGet
 0001:002565C0       DjiMsgCameraTimeSet
 0001:0025675C       DjiMsgCameraTimeGet
 0001:00256904       DjiMsgCameraGpsSet
 0001:00256C34       DjiMsgCameraGpsGet
 0001:00256E40       DjiMsgDisconStateSet
 0001:0025735C       DjiMsgDisconStateGet
 0001:002575BC       DjiMsgFileIndexModeSet
 0001:002579A4       DjiMsgFileIndexModeGet
 0001:00257C08       DjiMsgAebCapParamSet
 0001:00258154       DjiMsgAebCapParamGet
 0001:00258438       DjiMsgHistogramSet
 0001:00258820       DjiMsgHistogramGet
 0001:00258A00       DjiMsgVideoSubtitlesSet
 0001:00258DDC       DjiMsgVideoSubtitlesGet
 0001:00259010       DjiMsgVideoSubtitlesLogSet
 0001:0025943C       DjiMsgVideoStandardSet
 0001:00259AC4       DjiMsgVideoStandardGet
 0001:00259BDC       DjiMsgAeLockStatusSet
 0001:00259CFC       DjiMsgAeLockStatusGet
 0001:00259E2C       DjiMsgCaptureTypeSet
 0001:0025A34C       DjiMsgCaptureTypeGet
 0001:0025A594       DjiMsgSystemStateGet
 0001:0025A730       DjiMsgPanoramaModeSet
 0001:0025AB60       DjiMsgPanoramaModeGet
 0001:0025AD18       DjiMsgSdInfoGet
 0001:0025AEB0       DjiMsgRecordSettingGet
 0001:0025B080       DjiMsgVideoClipInfoGet
 0001:0025B22C       DjiMsgFsInfoGet
 0001:0025B51C       DjiMsgXcodeCtrl
 0001:0025B834       DjiMsgSdDoFormat
 0001:0025BBA0       DjiMsgSettingsSave
 0001:0025BE80       DjiMsgSettingsLoad
 0001:0025C368       DjiMsgFileDelete
 0001:0025C6A4       DjiMsgVideoPlayControl
 0001:0025CA74       DjiMsgVideoAdaptiveGammaSet
 0001:0025CE40       DjiMsgVideoAdaptiveGammaGet
 0001:0025CFEC       DjiMsgAwbMeterRegionSet
 0001:0025D34C       DjiMsgAwbMeterRegionGet
 0001:0025D4EC       DjiMsgTrackingRegionSet
 0001:0025D84C       DjiMsgTrackingRegionGet
 0001:0025DA08       DjiMsgMgearShuuterSpeedSet
 0001:0025DC78       DjiMsgThumbnail2SingleCtrl
 0001:0025DF8C       DjiMsgTelectrlAction
 0001:0025E4F4       DjiMsgPBZoomCtrl
 0001:0025E778       DjiMsgPBPicDragCtrl
 0001:0025E9F0       DjiMsgHditOsdSet
 0001:0025EC84       DjiMsgHomeDataSet
 0001:0025EE3C       DjiMsgGimbalOsdSet
 0001:0025F100       DjiMsgRcRtcSync
 0001:0025F2E0       DjiMsgAuthorizedMac
 0001:0025F534       DjiMsgTransDel
 0001:0025F814       DjiCheckSensorTest
 0001:0025FF00       DjiMsgIfCali
 0001:002604D0       DjiMsgAuthorLevelSet
 0001:002607E0       DjiMsgSeqNumCreate
 0001:00260918       DjiMsgSeqNumEQ
 0001:00260D40       DjiMsgSeqNumDQ
 0001:00260F5C       DjiMsgSeqNumBufInit
 0001:002611B0       DjiMsgRcntModeHandle
 0001:002613C8       DjiMsg_sub_E8613C8
 0001:00261598       DjiMsgIpcCmdInit
 0001:002616C4       DjiMsgIpcCmdRecv
 0001:002618F8       DjiMsgChannelInit
 0001:00261DC8       DjiMsgPktLogicalCheck
 0001:002620FC       DjiMsgPktAssemble
 0001:00262BD8       DjiMsgPktPieceSend
 0001:00262F2C       DjiMsgPkePieceRecv
 0001:00264A44       DjiMsgPktGenerateRsp
 0001:00264C10       DjiMsgPktSendIRQ
 0001:002650B8       DjiMsgRecvRequestHandle
 0001:00265660       DjiMsgHandleDistribute
 0001:00265814       DjiMsgFlagCtrl
 0001:00265A48       DjiMsgRecvUserHandle
 0001:002662D0       DjiMsgAdjustTask
 0001:0026642C       DjiMsgRecvTask
 0001:00266A4C       DjiMsgSendTask
 0001:00266FB0       DjiMsgHandleTask
 0001:00267588       DjiMsgRecoveryQueueStatusGet
 0001:002676B0       DjiMsgRecoveryReInit
 0001:00267B70       DjiMsg_sub_E867B70
 0001:00268248       DjiMsgSettingsInit
 0001:002685CC       DjiMsgMutexInit
 0001:00268974       DjiMsgQueueInit
 0001:00268E1C       DjiMsgTaskInit
 0001:00269330       DjiMsgInit
 0001:00269A94       DjiMsgTestPrintModule
 0001:00269B2C       a37Cgkosw_ggggg
 0001:00269FF0       DjiMsgTestCmdUT
 0001:0026A644       DjiMsgTestCmdST
 0001:0026AABC       DjiMsgTestPktGen
 0001:0026AE54       DjiMsgTestFlagCtrl
 0001:0026AF68       DjiMsgTestLevelSet
 0001:0026AFFC       DjiMsgTestRouteSet
 0001:0026B0D4       DjiMsgTestVideoStandardCtrl
 0001:0026B2DC       DjiMsgTestPinCtrl
 0001:0026B3E8       DjiMsgTestStageCtrl
 0001:0026CD18       DjiMsgTestUnitTest
 0001:0026DBAC       sha204m_read
 0001:0026DD54       sha204m_write
 0001:0026E454       sha204p_wakeup
 0001:0026E50C       sha204p_i2c_send
 0001:0026E650       sha204p_receive_response
 0001:0026EC00       sha204d_test_read_config_zone
 0001:0026ED34       sha204d_test_nonce
 0001:0026EF68       sha204d_test_mac
 0001:0026F258       sha204d_test_check
 0001:0026F264       sha204d_test_sn
 0001:0026F370       sha204d_test_save_key
 0001:0026F6F4       sha204d_test_lock_config
 0001:0026F704       sha204d_test_w_data_zone
 0001:0026F86C       sha204d_test_w_data_zone_index
 0001:0026FA3C       sha204d_test_rew_data_zone
 0001:0026FBA0       sha204d_test_lock_data
 0001:0026FCE8       sha204d_test_r_data_zone
 0001:00270284       sha204d_test_r_data_zone_index
 0001:002705CC       sha204d_test_w_otp_zone
 0001:0027074C       sha204d_test_lock_otp
 0001:00270754       sha204d_test_r_otp_zone
 0001:002708A4       sha204d_test_save_rom
 0001:002708E8       sha204d_test_read_rom
 0001:00270AE8       sha204d_test_init
 0001:00270B04       DjiEncryptSaveToRom
 0001:00270D04       DjiEncryptReadFromRom
 0001:00270DE4       DjiEncryptGet204LockStatus
 0001:00270EE4       DjiEncryptWriteKeyToDataZone
 0001:002710B0       DjiEncryptWriteAllBoardNumToOTP
 0001:00271258       DjiEncryptWriteSnToDataZone
 0001:00271980       DjiEncryptGetKey
 0001:00271A50       DjiEncryptCheckA9Mac
 0001:00271E04       DjiEncryptInit
 0001:002720B4       DjiEncryptSaveAllToSha204
 0001:002723C0       DjiEncryptSaveToA9
 0001:0027251C       DjiEncryptResaveSn
 0001:002726B0       DjiEncryptSaveBothToSha204AndA9
 0001:00272B28       DjiEncryptReGetA9Status
 0001:00272DA8       DjiEncryptGetA9Status
 0001:00272E90       DjiEncryptTrans
 0001:0027313C       DjiEncryptCheckSN
 0001:0027346C       DjiEncryptCheckA9
 0001:00273C90       MovieRecordVideoEventHandler
 0001:00273FC0       MovieRecordTaskEntry
 0001:00274530       AmbaMovieRecord_TaskCreate
 0001:00274608       AmbaMovieRecord_TaskDelete
 0001:00274680       AmbaMovieRecord_TaskOpen
 0001:0027487C       AmbaMovieRecord_TaskClose
 0001:00274CAC       DjiSdStatGet
 0001:00274E40       DjiSdStatSet
 0001:0027549C       DjiSdFullChk
 0001:002755B0       DjiSdOp_DcfOverflowFlgGet
 0001:00275680       DjiSdOp_DcfOverflowFlgSet
 0001:002757EC       DjiSdOp_SdInitChk
 0001:002758B8       DjiSdOp_SdInsertChk
 0001:00275A00       AmbaSD_GetCardCid
 0001:00275CA4       DjiSdOp_SDFormat
 0001:00276100       DjiSdOp_SdClusterSizeChk
 0001:00276330       DjiSdOp_SdMonEntry
 0001:00276544       DjiSdOp_CapSizeGet
 0001:002767A8       DjiSdOp_VideoBpsGet
 0001:002768F8       DjiSdOp_SDProfGet
 0001:00276B60       DjiSdOp_UsableSDInfoGet
 0001:00276CC8       DjiSdOp_UsableSDInfoSet
 0001:00276E1C       DjiSdOpInit
 0001:00276F20       DjiUstTestSave
 0001:002770E8       DjiUstTestLoad
 0001:002772B0       DjiUstTestDefault
 0001:0027731C       DjiUstTestSetById
 0001:00277598       DjiFileDownloadInforClearFromIniFile
 0001:002779F0       DjiPbErrorFilePartNoGet
 0001:00277A9C       DjiPbErrorFilePartNoSet
 0001:00277B9C       DjiPbFileSendIsStopped
 0001:00277CA4       DjiPbFileSendFlush
 0001:00277DF0       DjiPbFileSegmentSend
 0001:002780B0       DjiPb_sub_E8780B0
 0001:00278160       DjiPbFileSendTypeGet
 0001:00278374       DjiPbFileRecvRequest
 0001:002786F4       DjiPbFileSendWaitFinish
 0001:002788C8       DjiPbFileRequest
 0001:002789EC       DjiPbFileSendCancel
 0001:00278A80       DjiPbFileSendTotalSizeSet
 0001:00278B14       DjiPbFileSegmentsRead
 0001:00278D38       DjiPbFileDownloadPathCheck
 0001:00278F04       DjiPbFileSend
 0001:00279864       DjiDCF_GetFileType
 0001:002799B4       DjiPlaybackSdInsertNotify
 0001:00279A60       DjiPlaybackSdEjectNotify
 0001:00279B5C       DjiPbSDActionTaskEntry
 0001:0027A4F8       DjiPbPicdragTaskEntry
 0001:0027A56C       DjiValidationTaskEntry
 0001:0027A570       DjiFileScanTaskEntry
 0001:0027A6E4       DjiPbFileTypeGetByPageNum
 0001:0027AA60       nullsub_23
 0001:0027AABC       nullsub_24
 0001:0027AD14       DjiPlaybackCallback
 0001:0027B1BC       DjiMsgPbModeSwitch
 0001:0027B470       DjiMsgPbModeSwitch2MultiDisplay
 0001:0027B59C       DjiMsgPbPageSwitch
 0001:0027B7F8       DjiPlaybackPicDragCallback
 0001:0027BD0C       DjiDrawVideoResolution
 0001:0027C010       DjiShowFileTypeIcon
 0001:0027C8C4       DjiShowDeleteIconSelectted
 0001:0027CB90       DjiCancleIconSelectted
 0001:0027D138       DjiThumbnailDisplay_ThmViewStart
 0001:0027D814       ThmDisp_DisplayPageAfterDelete
 0001:0027E560       DjiGetPageFirstFileNumAndPageTotalFileNum
 0001:0027E6F0       ThmDisp_SelectThumbnailIcon
 0001:0027EB0C       DjiDisp_ThumbnailIconFrameColorSet
 0001:0027EF98       DjiPictureDisplay_Handler
 0001:00280F64       DjiThumbnailDisplay_Handler
 0001:002844F0       DjiVideoDisplay_Handler
 0001:00285380       DjiPlaybackStatusCheck
 0001:00285484       DjiPlaybackInit
 0001:00285E54       DjiGetCurSingleDispFileName
 0001:002860A8       DjiRecVideoResInfoGet
 0001:002865E8       DjiVideoResInfoGet
 0001:002866DC       DjiVideoOp_FtypAtomAdd
 0001:002869FC       DjiVideoOp_LimitSizeSet
 0001:00286B68       DjiVideoOp_MvhdInfoGet
 0001:00286D38       DjiVideoOp_TkhdInfoGet
 0001:00286ECC       DjiVideoOp_HdlrInfoGet
 0001:00286FD0       DjiVideoOp_StszInfoGet
 0001:002870AC       DjiVideoOp_MdiaInfoGet
 0001:00287678       DjiVideoOp_TrakInfoGet
 0001:00287A5C       DjiVideoOp_UdtaInfoGet
 0001:00287DB4       DjiVideoOp_VideoInfoGet
 0001:0028869C       DjiGPSToBuf
 0001:0028898C       DjiCmtAtomToBuf
 0001:00289098       DjiResAtomToBuf
 0001:002892D4       DjiUdtaToBuf
 0001:0028D2F0       DjiVideoOp_sub_E88D2F0
 0001:0028D4AC       DjiVideoIdxFileInit
 0001:0028D818       DjiVideoOp_IndexOpInfoReset
 0001:0028DA74       DjiVideoOp_MoovWriteToFile
 0001:0028E054       DjiFlushMoovToFile
 0001:0028E1C0       DjiIndexHeadGet
 0001:0028E2C8       DjiVideoMoovChk
 0001:0028E504       DjiVideoFileRepair
 0001:0028EF34       DjiVideoInvalidFileDelete
 0001:0028F0A4       DjiPathVideoRepair
 0001:0028F8B0       DjiVideoOp_VideoRepair
 0001:0028FA10       DjiVideoFmtSetCallback
 0001:0028FA98       DjiCamReverseSetCallback
 0001:0028FB0C       DjiVideoInit
 0001:0028FCD8       DjiDirCreate
 0001:0028FF10       DjiRepairDirCreate
 0001:0028FFFC       DjiLogDirCreate
 0001:002900D8       DjiVideoThmDirCreate
 0001:002901CC       DjiVideoXcodeDirCreate
 0001:002902C4       DjiPriDirCreate
 0001:002904A0       DjiDirAllFileDelete
 0001:002906CC       DjiVideoThmFNameGet
 0001:00290988       DjiVideoXcodeClrOrgFiles
 0001:00290BCC       DjiVideoXcodeFNameGenerate
 0001:00290D24       DjiVideoXcodeFNameGet
 0001:00290EBC       DjiVideoOp_MoovFilesOpen
 0001:002911A4       DjiVideoOp_MoovWrMuxTake
 0001:002912DC       DjiVideoOp_VideoValidChk
 0001:002917D8       DjiFileValidChk
 0001:002918C4       DjiCameraReverseFlagGet
 0001:00291978       DjiCamReverseConfig
 0001:00291AAC       DjiCameraReverseHandle
 0001:00291D84       DjiVideoUuidGen
 0001:00291F88       DjiDirAndFileNoGet
 0001:002920AC       DjiRecordingVideoPrivateInfoSet
 0001:00292260       DjiXcodingFreeAtomLenGet
 0001:00292418       DjiXcodingVideoPrivateInfoSet
 0001:0029294C       DjiMsgVideoParamGet
 0001:00292B1C       DjiMsgRspFsInfoGet
 0001:00292D40       DjiClipFSInfoGet
 0001:00292E84       DjiXcodeMaxDirNoScan
 0001:00293094       DjiXcodeMaxDirNoInc
 0001:0029316C       DjiXcodePrivateCtrlInfoSet
 0001:00293208       DjiVideoAutoSplitIdIncrease
 0001:002932E8       DjiVideoAutoSplitInfoReset
 0001:002933D8       DjiVideoUudiGetInner
 0001:002936E4       DjiVideoUuidInfoGet
 0001:00293A6C       DjiVideoOp_LimitTimeCheck
 0001:00293CDC       DjiPanoMaxFileNoScan
 0001:00293E94       DjiPanoDirDelete
 0001:00294238       DjiPanoDirCreate
 0001:002946E4       DjiPanoFNameGet
 0001:002947AC       DjiPanoFNameUpdate
 0001:0029485C       DjiPanoURLWrite
 0001:00295044       DjiLedGpioMultiSet
 0001:002955E0       DjiLedDispHandle
 0001:00295740       DjiLedHwInit
 0001:00295848       DjiLedInit
 0001:00295AE8       DjiLedStateSetById
 0001:00295D5C       DjiLedStateGetById
 0001:00295E8C       DjiHG310LedStateSet
 0001:002962F4       DjiLed0StateSet
 0001:0029630C       DjiLedTestColorSet
 0001:002964C8       DjiLedTestStateSet
 0001:00296BBC       AmbaAudio_InputCachedSizeQuery
 0001:00296C28       AmbaAudio_InputNonCachedSizeQuery
 0001:00296C7C       AmbaAudio_InputCreate
 0001:00296FAC       AmbaAudio_InputDataProc
 0001:002971AC       AmbaAudio_InputTaskEntry
 0001:0029736C       AmbaAudio_InputTaskCreate
 0001:002973D8       AmbaAudio_InputTaskStart
 0001:00297530       AmbaAudio_InputTaskStop
 0001:002975D8       AmbaAudio_InputCalibReport
 0001:00297698       AmbaAudio_InputSetFc
 0001:00297870       AmbaAudio_OutputDataProc
 0001:00297D30       AmbaAudio_OutputTaskEntry
 0001:00297FE4       AmbaAudio_OutputTaskCreate
 0001:00298050       AmbaAudio_OutputCachedSizeQuery
 0001:002980B4       AmbaAudio_OutputNonCachedSizeQuery
 0001:00298108       AmbaAudio_OutputCreate
 0001:00298420       AmbaAudio_OutputTaskStart
 0001:00298578       AmbaAudio_OutputTaskStop
 0001:002987C8       AmbaExceptionHandler
 0001:00298B30       AmbaPLL_SetIdspClk
 0001:00299020       DjiUegEsc0VersionHandle
 0001:0029903C       DjiUegEsc0EntryHandle
 0001:00299054       DjiUegEsc0ConfirmHandle
 0001:0029906C       DjiUegEsc0TransmitHandle
 0001:00299084       DjiUegEsc0FinishHandle
 0001:0029909C       DjiUegEsc0RebootHandle
 0001:002990B4       DjiUegEsc1VersionHandle
 0001:002990D0       DjiUegEsc1EntryHandle
 0001:002990E8       DjiUegEsc1ConfirmHandle
 0001:00299100       DjiUegEsc1TransmitHandle
 0001:00299118       DjiUegEsc1FinishHandle
 0001:00299130       DjiUegEsc1RebootHandle
 0001:00299148       DjiUegEsc2VersionHandle
 0001:00299164       DjiUegEsc2EntryHandle
 0001:0029917C       DjiUegEsc2ConfirmHandle
 0001:00299194       DjiUegEsc2TransmitHandle
 0001:002991AC       DjiUegEsc2FinishHandle
 0001:002991C4       DjiUegEsc2RebootHandle
 0001:002991DC       DjiUegEsc3VersionHandle
 0001:002991F8       DjiUegEsc3EntryHandle
 0001:00299210       DjiUegEsc3ConfirmHandle
 0001:00299228       DjiUegEsc3TransmitHandle
 0001:00299240       DjiUegEsc3FinishHandle
 0001:00299258       DjiUegEsc3RebootHandle
 0001:00299270       DjiUegMCAppVersionHandle
 0001:0029928C       DjiUegMCAppEntryHandle
 0001:002992A4       DjiUegMCAppConfirmHandle
 0001:002992BC       DjiUegMCAppTransmitHandle
 0001:002992D4       DjiUegMCAppFinishHandle
 0001:002992EC       DjiUegMCAppRebootHandle
 0001:00299304       DjiUegMCLdrVersionHandle
 0001:00299320       DjiUegMCLdrEntryHandle
 0001:00299338       DjiUegMCLdrConfirmHandle
 0001:00299350       DjiUegMCLdrTransmitHandle
 0001:00299368       DjiUegMCLdrFinishHandle
 0001:00299380       DjiUegMCLdrRebootHandle
 0001:00299398       DjiUegMVOM4VersionHandle
 0001:002993B4       DjiUegMVOM4EntryHandle
 0001:002993CC       DjiUegMVOM4ConfirmHandle
 0001:002993E4       DjiUegMVOM4TransmitHandle
 0001:002993FC       DjiUegMVOM4FinishHandle
 0001:00299414       DjiUegMVOM4RebootHandle
 0001:0029942C       DjiUegMVOM0VersionHandle
 0001:00299448       DjiUegMVOM0EntryHandle
 0001:00299460       DjiUegMVOM0ConfirmHandle
 0001:00299478       DjiUegMVOM0TransmitHandle
 0001:00299490       DjiUegMVOM0FinishHandle
 0001:002994A8       DjiUegMVOM0RebootHandle
 0001:002994C0       DjiUegCenterVersionHandle
 0001:002994DC       DjiUegCenterEntryHandle
 0001:002994F4       DjiUegCenterConfirmHandle
 0001:0029950C       DjiUegCenterTransmitHandle
 0001:00299524       DjiUegCenterFinishHandle
 0001:0029953C       DjiUegCenterRebootHandle
 0001:00299554       DjiUeg1765VersionHandle
 0001:00299570       DjiUeg1765EntryHandle
 0001:00299588       DjiUeg1765ConfirmHandle
 0001:002995A0       DjiUeg1765TransmitHandle
 0001:002995B8       DjiUeg1765FinishHandle
 0001:002995D0       DjiUeg1765RebootHandle
 0001:002995E8       DjiUegGimbalVersionHandle
 0001:00299604       DjiUegGimbalEntryHandle
 0001:0029961C       DjiUegGimbalConfirmHandle
 0001:00299634       DjiUegGimbalTransmitHandle
 0001:0029964C       DjiUegGimbalFinishHandle
 0001:00299664       DjiUegGimbalRebootHandle
 0001:0029967C       DjiUeg68013VersionHandle
 0001:00299698       DjiUeg68013EntryHandle
 0001:002996B0       DjiUeg68013ConfirmHandle
 0001:002996C8       DjiUeg68013TransmitHandle
 0001:002996E0       DjiUeg68013FinishHandle
 0001:00299764       DjiUegDM368VersionHandle
 0001:00299780       DjiUegDM368EntryHandle
 0001:00299798       DjiUegDM368ConfirmHandle
 0001:002997B0       DjiUegDM368TransmitHandle
 0001:002997C8       DjiUegDM368FinishHandle
 0001:002997E0       DjiUegFpgaVersionHandle
 0001:002997FC       DjiUegFpgaEntryHandle
 0001:00299814       DjiUegFpgaConformHandle
 0001:0029982C       DjiUegFpgaFinishHandle
 0001:002998DC       DjiUegBatteryVersionHandle
 0001:002998F8       DjiUegBatteryEntryHandle
 0001:00299910       DjiUegBatteryConfirmHandle
 0001:00299928       DjiUegBatteryTransmitHandle
 0001:00299940       DjiUegBatteryFinishHandle
 0001:00299958       DjiUegBattery2VersionHandle
 0001:00299974       DjiUegBattery2EntryHandle
 0001:0029998C       DjiUegBattery2ConfirmHandle
 0001:002999A4       DjiUegBattery2TransmitHandle
 0001:002999BC       DjiUegBattery2FinishHandle
 0001:002999D4       DjiUegWifiVersionHandle
 0001:002999F0       DjiUegWifiFinishHandle
 0001:00299A08       DjiUegWifiRebootHandle
 0001:00299B3C       DjiUegFwUpdateDeleteHistory
 0001:00299D4C       aLog
 0001:00299D50       DjiUegUpdateLogRecord
 0001:00299FA4       DjiUegUpdateResultRecord
 0001:0029A1C4       DjiUegPathPostfixAdd
 0001:0029A434       DjiUegGetFirmwareTypeById
 0001:0029A484       DjiUeg_sub_E89A484
 0001:0029A4E8       DjiUegFwConfigCheck
 0001:0029A658       DjiUegFwMsgHandler
 0001:0029A870       DjiUegFwInfoGetById
 0001:0029A91C       DjiUegFwRxInfoGetById
 0001:0029A9D4       DjiUegGetFirmwareCodenameById
 0001:0029AA00       DjiUegFwPathGetById
 0001:0029AAD4       DjiUegFwStepResultSet
 0001:0029ABC8       DjiUegFwStageSet
 0001:0029AD54       DjiUegFwStageGet
 0001:0029AE68       DjiUegFwConfirmSet
 0001:0029AFF0       DjiUegFwConfirmGet
 0001:0029B354       DjiUegUpdateStageResume
 0001:0029B5E4       DjiUegFwFlagGive
 0001:0029B6CC       DjiUegFwFlagWait
 0001:0029B990       DjiUegFwIsEncFile
 0001:0029C0B4       DjiUegFwCheck
 0001:0029C5D8       DjiUegFwDetectById
 0001:0029CB80       DjiUegFwMsgVersionSend
 0001:0029CCC0       DjiUegFwMsgVersionHandle
 0001:0029D7A8       DjiUegFwMsgEntrySend
 0001:0029D8BC       DjiUegFwMsgEntryHandle
 0001:0029DA38       DjiUegFwMsgConfirmSend
 0001:0029DDD4       DjiUegFwMsgConfirmHandle
 0001:0029DF9C       DjiUegFwMsgTransmitSend
 0001:0029E404       DjiUegFwMsgTransmitHandle
 0001:0029E58C       DjiUegFwMsgFinishSend
 0001:0029E7B0       DjiUegFwMsgFinishHandle
 0001:0029E9C0       DjiUegFwMsgRebootSend
 0001:0029EADC       DjiUegFwMsgRebootHandle
 0001:0029EBCC       DjiUegFwUsbTransmitSend
 0001:0029EF74       DjiUegFwCameraVersion
 0001:0029F564       DjiUegFwCamAppVersionSend
 0001:0029F578       DjiUegFwCamAppEntry
 0001:0029F8F8       DjiUegFwCamLdrVersionSend
 0001:0029F90C       DjiUegFwCamLdrEntry
 0001:0029FABC       DjiUegFwCamBstVersionSend
 0001:0029FAE8       DjiUegFwCamBstEntry
 0001:0029FCA4       DjiUegFwWifiEntry
 0001:002A006C       DjiUegFpgaCleanUpHandle
 0001:002A023C       DjiUegFwVersionProc
 0001:002A0500       DjiUegFwEntryProc
 0001:002A0858       DjiUegFwConfirmProc
 0001:002A0B58       DjiUegFwTransmitProc
 0001:002A1290       DjiUegFwFinishProc
 0001:002A14E8       DjiUegFwRebootProc
 0001:002A174C       DjiUegFwSucceedHandle
 0001:002A1B1C       DjiUegFwFailHandle
 0001:002A1E88       DjiUegFwRxReceiveWrite
 0001:002A2004       DjiUegFwRxEntryHandle
 0001:002A263C       DjiUegFwRxConfirmHandle
 0001:002A2908       DjiUegFwRxTransmitHandle
 0001:002A32D0       DjiUegFwRxFinishHandle
 0001:002A3F70       DjiUegFwUpdateById
 0001:002A49C0       DjiUegFwUpdateById_0
 0001:002A5468       DjiUegFwOrderControl
 0001:002A55A0       DjiUegFwUpdateProc
 0001:002A58A4       DjiUegGetPacketInfo
 0001:002A59FC       DjiUegPktStageSet
 0001:002A5B0C       DjiUegPktStageGet
 0001:002A5FF0       DjiUegPktSelect
 0001:002A6E24       DjiUegPktHeaderGet
 0001:002A729C       DjiUegPktVersionLinkSet
 0001:002A7574       DjiUegPktVersionLinkGet
 0001:002A77D0       DjiUegPktVersionLinkUpdate
 0001:002A7924       DjiUegPktFlowTypeGet
 0001:002A7D5C       DjiUegPktHeaderCheck
 0001:002A84F0       DjiUegPktPercentFactorGet
 0001:002A867C       DjiUegPktVersionCheck
 0001:002A9354       DjiUegPktFwInfoInit
 0001:002A9710       DjiUegPktOrderControl
 0001:002A9CC4       DjiUegPktConformSet
 0001:002A9E98       DjiUegPktUserConfirm
 0001:002AA3EC       DjiUegPktUpdate
 0001:002ABF8C       DjiUegPktUpdateProc
 0001:002AC36C       DjiUegUpdateProc
 0001:002AC380       DjiUegUpdateStageInit
 0001:002AC510       DjiUegInit
 0001:002ACAD4       DjiUegTestShowStage
 0001:002ACE6C       DjiUegTestPktStageSet
 0001:002ACFD4       DjiUegTestFwStageSet
 0001:002AD158       DjiUegTestConfirmSet
 0001:002AD2EC       DjiUegTestFwStageSave
 0001:002AD3D8       DjiUegTestFwStageClr
 0001:002AD46C       DjiUegTestLoopTest
 0001:002AD634       DjiUegTestVersionLink
 0001:002AD860       AmbaVFS_Open
 0001:002AD8D8       AmbaVFS_Close
 0001:002AD914       AmbaVFS_Write
 0001:002AD980       AmbaVFS_Seek
 0001:002AD9D8       AmbaVFS_Stat
 0001:002ADA1C       AmbaVFS_Read
 0001:002ADA88       AmbaVFS_Rename
 0001:002ADACC       AmbaVFS_Remove
 0001:002ADB08       AmbaVFS_Tell
 0001:002ADB48       AmbaVFS_Chmod
 0001:002ADB8C       AmbaVFS_Chdmod
 0001:002ADBD0       AmbaVFS_FirstDirEnt
 0001:002ADC20       AmbaVFS_Mkdir
 0001:002ADC5C       AmbaVFS_Rmdir
 0001:002ADC98       AmbaVFS_FSync
 0001:002ADCD4       AmbaVFS_fappend
 0001:002ADD24       AmbaVFS_feof
 0001:002ADFA8       AmbaMovieRecord_Init
 0001:002AE428       AmbaMovieRecord_Start
 0001:002AE5D0       AmbaMovieRecord_Stop
 0001:002AE7E4       AmbaMovieRecord_Pause
 0001:002AE968       AmbaMovieRecord_Resume
 0001:002AF1CC       MovieRecordKeyTaskEntry
 0001:002AFAC0       MovieRecordVideoSetup
 0001:002AFEA4       MovieRecordVideoStart
 0001:002B05E0       DjiDCF_DmfModeGet
 0001:002B062C       DjiDCF_DmfFIdSet
 0001:002B0670       DjiDCF_DmfFIdGet
 0001:002B0C40       AmbaDCF_GetFileAmount
 0001:002B0D44       AmbaDCF_GetFileName
 0001:002B2358       AmbaDCF_CreateFileName
 0001:002B294C       AmbaDCF_DeleteFile
 0001:002B5208       DjiDCF_FirstFileIdxGet
 0001:002B53F0       DjiDCF_LastFileIdxGet
 0001:002B55E4       DjiDCF_CurFileIdxGet
 0001:002B594C       DjiDCF_PreFileIdxGet
 0001:002B6460       DjiDCF_FNameGetByIdx
 0001:002B68DC       DjiDCF_GetFullFileName
 0001:002B6AF8       DjiDCF_FSInfoGet
 0001:002B6B50       DjiDCF_FileIdxGetByOffset
 0001:002B6E10       DjiDCF_RootPathGet
 0001:002B7E94       AmbaAudio_DecMaxConfigSize.part.1
 0001:002B7F40       AmbaAudio_nullsub_51
 0001:002B7F44       AmbaAudio_sub_E8B7F44
 0001:002B81A8       AmbaAudio_sub_E8B81A8
 0001:002B8208       AmbaAudio_sub_E8B8208
 0001:002B82C0       AmbaAudio_sub_E8B82C0
 0001:002B82E4       AmbaAudio_sub_E8B82E4
 0001:002B8320       AmbaAudio_sub_E8B8320
 0001:002B83C0       AmbaAudio_Ac3DecFrame
 0001:002B852C       AmbaAudio_sub_E8B852C
 0001:002B854C       AmbaAudio_sub_E8B854C
 0001:002B85F4       AmbaAudio_sub_E8B85F4
 0001:002B86F0       AmbaAudio_sub_E8B86F0
 0001:002B87BC       AmbaAudio_DecOutputData
 0001:002B8C50       AmbaAudio_DecChkEos
 0001:002B8D34       AmbaAudio_Decode
 0001:002B8E00       AmbaAudio_DecIBufferOp
 0001:002B9138       AmbaAudio_DecBypassOp
 0001:002B9248       AmbaAudio_DecTaskEntry
 0001:002B927C       AmbaAudio_DecTaskCreate
 0001:002B92E8       AmbaAudio_DecTaskDelete
 0001:002B934C       AmbaAudio_DecSizeQuery
 0001:002B9424       AmbaAudio_DecCreate
 0001:002B96A4       AmbaAudio_DecTaskSetUp
 0001:002B9A84       AmbaAudio_DecTaskStart
 0001:002B9B14       AmbaAudio_DecTaskStop
 0001:002B9B80       AmbaAudio_DecSetVpts
 0001:002B9C64       AmbaAudio_DecFadeReport
 0001:002B9D94       AmbaAudio_Combine
 0001:002B9EC8       AmbaAudio_BufferSizeQuery
 0001:002B9F58       AmbaAudio_BufferCreate
 0001:002BA17C       AmbaAudio_BufferReset
 0001:002BA29C       AmbaAudio_DecOpenOutputIoNode
 0001:002BA314       AmbaAudio_BufferOpenSrcIoNode
 0001:002BB370       AmbaAudio_EventHandlerCtrlConfig
 0001:002BB414       AmbaAudio_RegisterEventHandler
 0001:002BB540       AmbaAudio_UnRegisterEventHandler
 0001:002BB78C       AmbaAudio_TaskResourceSizeQuery
 0001:002BB924       nullsub_25
 0001:002BB928       nullsub_26
 0001:002BB92C       nullsub_27
 0001:002BB930       nullsub_28
 0001:002BB934       nullsub_29
 0001:002BB938       nullsub_30
 0001:002BB93C       AmbaAudio_SetDebugLevel
 0001:002BD358       AmbaMonitor_ADC_Entry
 0001:002BD79C       ambsh_t
 0001:002BD870       AmbaLink_Malloc
 0001:002BD890       AmbaTest_RegisterCommand
 0001:002BD9CC       nullsub_31
 0001:002BEA08       AmbaEis_TaskCreate
 0001:002BEAC8       AmbaEis_Active
 0001:002BEB4C       AmbaEis_Entry
 0001:002BEBDC       AppLib_CalibGetObj
 0001:002BEC48       AppLib_CalibGetNandStatus
 0001:002BECE0       AmpUT_CalibGetSiteStatus
 0001:002BEE58       AmpUT_CalibMemReset
 0001:002BEF08       AmpUT_CalibResetPartial
 0001:002BEF78       AmpUT_CalibNandLoadTableHead
 0001:002BF00C       AmpUT_CalibNandLoadTable
 0001:002BF270       AmpUT_CalibNandLoad
 0001:002BF4A8       AmpUT_CalibSDCardLoad
 0001:002BF7FC       AmpUT_CalibNandSave
 0001:002BF97C       AmpUT_CalibSDCardSave
 0001:002BFBDC       AmpUT_CalibInitLoadSimple
 0001:002BFCC4       AmpUT_CalibInitSimple
 0001:002BFD44       AmpUT_CalibInit
 0001:002C0EF4       AmbaPictureDisplay_TaskCreate
 0001:002C1B28       AmbaPictureDisplay_SingleViewStart
 0001:002C2B6C       PicDisp_DecodeScreennail
 0001:002C3BF0       PicDisp_ParseFile
 0001:002C3FBC       AmbaPictureDisplay_YuvToRgbTest
 0001:002C4798       XCodeDisplay_Handler
 0001:002C4974       AmbaMonitor_HDMI_Entry
 0001:002C5BBC       StringRemoveChar
 0001:002C71CC       AmbaShellEntry
 0001:002C740C       AmbaShell_GetEnv
 0001:002C7478       AmbaShell_Print
 0001:002C74F0       AmbaShell_Printf
 0001:002C76E0       AmbaShell_Write
 0001:002C7BF0       AmbaTest_RegisterFIOTests
 0001:002C7C48       AmbaTest_GPIO_Usage
 0001:002C7F3C       AmbaTest_GPIO
 0001:002C8244       test_gpio
 0001:002C8264       AmbaTest_SPI_usage
 0001:002C82E8       TestSPI_Transfer
 0001:002C8674       AmbaTest_SPI
 0001:002C86A8       test_spi
 0001:002C8988       test_i2c
 0001:002C934C       test_ddr
 0001:002C9564       test_timer
 0001:002CAD38       test_gdma
 0001:002CB764       test_hdmi
 0001:002CB784       AmbaTest_RegisterHwTests
 0001:002D0AD8       AppMainTask_RegisterCommands
 0001:002D0DAC       imgproc_enableaeb
 0001:002D103C       Capture_Start
 0001:002D1BC8       Capture_RawDataEventHandler
 0001:002D1E10       Capture_YuvDataEventHandler
 0001:002D2A9C       AmbaCapture_SetPhotoLiveviewClk
 0001:002D2B94       AmbaCapture_Done
 0001:002D2BD4       QuickviewTimeUp
 0001:002D2D14       AmbaCaptureManagerTask
 0001:002D348C       AmbaCapture_TaskCreate
 0001:002D3BD4       DjiQuickviewTimeChange
 0001:002D3E58       Storage_EventHandler
 0001:002D3F4C       StorageSendJpegType
 0001:002D44F4       DjiExifGenerate
 0001:002D4914       StorageTaskEntry
 0001:002D60D0       AmbaCaptureStorageTask
 0001:002D64B0       VideoTuner_RawSeqCreate
 0001:002D6B28       VideoTuner_RawSeqDelete
 0001:002D6C10       VideoTuner_RawSeqStart
 0001:002D6C6C       VideoTuner_RawSeqPause
 0001:002D6CB4       VideoTuner_RawSeqResume
 0001:002D6D38       VideoTuner_RawSeqPushRaw
 0001:002D6FA8       VideoTuner_RawSeqPullRaw
 0001:002D7190       VideoTuner_RawDataEventHandler
 0001:002D71F0       VideoTuner_RawCap
 0001:002D72E8       VideoTuner_RawCapStart
 0001:002D74AC       VideoTuner_RawCapDefaultSetting
 0001:002D75D8       VideoTuner_RawCapUpdateSetting
 0001:002D7758       VideoTuner_RawCapPrintInfo
 0001:002D7918       VideoTuner_RawCapCalSensorMode
 0001:002D7A70       VideoTuner_RawCapCalMinDspMemory
 0001:002D7BBC       VideoTuner_RawCapSwitchDspMemory
 0001:002D7D08       VideoTuner_RawCapTaskEntry
 0001:002D7E4C       VideoTuner_RawCapTaskCreate
 0001:002D7FE8       VideoTuner_RawCapTaskDelete
 0001:002D8124       VideoTuner_RawCapProccess
 0001:002D8508       VideoTuner_RawCapSaveFrame
 0001:002D8948       VideoTuner_RawCapDone
 0001:002D8AC0       VideoTuner_VidEnc
 0001:002D8BD0       VideoTuner_VidEncConfig
 0001:002D8D5C       VideoTuner_VidEncDefaultSetting
 0001:002D8F88       VideoTuner_VidEncUpdateSetting
 0001:002D9618       VideoTuner_VidEncPrintInfo
 0001:002D9BB0       VideoTuner_VidEncSwitchMode
 0001:002D9DA8       VideoTuner_VidEncStart
 0001:002DA128       VideoTuner_VidEncFeedRaw
 0001:002DA354       VideoTuner_VidEncDone
 0001:002DA598       VideoTuner_VidEncReadRawTaskEntry
 0001:002DA74C       VideoTuner_YuvDataEventHandler
 0001:002DA7DC       VideoTuner_VidDataEventHandler
 0001:002DA8D0       VideoTuner_VidEncTaskEntry
 0001:002DAD68       VideoTuner_VidEncTaskCreate
 0001:002DAF20       VideoTuner_VidEncTaskDelete
 0001:002DB030       VideoTuner_VidEncSaveYuvStream
 0001:002DB338       VideoTuner_VidEncSaveVideoStream
 0001:002DB500       AmbaVideoTuner_Create
 0001:002DB644       AmbaVideoTuner_RegisterEventHandler
 0001:002DB750       AmbaVideoTuner_UnRegisterEventHandler
 0001:002DBA94       AmbaVideoTuner_TestCmd
 0001:002DC310       AmbaVideoTuner_MctfLiveviewStart
 0001:002DC658       AmbaVideoTuner_MctfLiveviewStop
 0001:002DC838       MCCTRL_Recv
 0001:002DC8B4       MCCTRL_Init
 0001:002DC91C       MCCTRL_GetLinuxLog
 0001:002DC9E8       MCCTRL_68013GetVersion
 0001:002DCAB8       MCCTRL_68013Update
 0001:002DCC30       MCCTRL_WifiUpdate
 0001:002DCDD8       MCCTRL_RegLinuxBootupRecall
 0001:002DCE64       MCCTRL_CallLinuxBootupRecall
 0001:002DCED4       MCCTRL_UsbModeSw
 0001:002DCF68       MCCTRL_UsbModLoad
 0001:002DCFFC       MCCTRL_SetUsbMode
 0001:002DD194       MCCTRL_AuthorizedMacUpdate
 0001:002DD290       MCCTRL_RpcCtrlSvc
 0001:002DD45C       AmbaUSB_System_SetDeviceDataConn
 0001:002DD504       udc_wait_hw_init_done
 0001:002DD578       j_AmbaUSB_Drv_InitHardware
 0001:002DDA38       AmbaUSB_System_SetConnect
 0001:002DDA44       DefaultDeviceSystemInit
 0001:002DDAB4       DefaultDeviceSystemDestroy
 0001:002DDB04       udc_vbus_check_task
 0001:002DDD34       udc_vbus_timer_init
 0001:002DDE20       AmbaUSB_System_DeviceSystemSetup
 0001:002DDECC       AmbaUSB_System_ClassHook
 0001:002DE61C       aAmbausb_host_i
 0001:002DE640       aSOwnerError
 0001:002DE7DC       DjiAaaSceneModeGetFromUST
 0001:002DE8C8       DjiAaaStillAeAutoSet
 0001:002DE970       DjiAaaSetAeOn
 0001:002DEA14       DjiAaaAeStatus
 0001:002DEA6C       DjiAaaSetAwbOn
 0001:002DEB10       DjiAaaGetMaxShutterSpeedForVideo
 0001:002DEBD4       DjiAaaBrightnessSetByIso
 0001:002DF16C       DjiAaaBrightnessSetByShut
 0001:002DF71C       DjiAaaExposureStateGet
 0001:002DFAE0       DjiAaaApertureListGet
 0001:002DFC04       DjiAaaApertureSet
 0001:002DFD38       DjiAaaApertureSetCallback
 0001:002DFE04       DjiAaaFocusValueSet
 0001:002DFE90       DjiAaaEvindexStrGet
 0001:002E0010       DjiAaaAdjStrGet
 0001:002E00D4       DjiAaaAeStillIsoStrGet
 0001:002E019C       DjiAaaIsoGet
 0001:002E04FC       DjiAaaIsoSet
 0001:002E0914       DjiAaaIso_Test
 0001:002E0AA8       DjiAaaIsoSetCallback
 0001:002E0B5C       DjiAaaShutterSpeedGet
 0001:002E0F24       DjiAaaShutterSpeedSet
 0001:002E14D0       DjiAaaShutterSpeed_Test
 0001:002E1654       DjiAaaShutterSpeedSetCallback
 0001:002E180C       DjiAaaAeEvBiasGet
 0001:002E19B4       DjiAaaAeEvBiasSet
 0001:002E1BE8       DjiAaaAeEvBias_Test
 0001:002E1D80       DjiAaaAeEvBiasSetCallback
 0001:002E1E4C       DjiAaaAntiflickerModeGet
 0001:002E1F44       DjiAaaAntiflickerModeSet
 0001:002E216C       DjiAaaAntiflickerMode_Test
 0001:002E22FC       DjiAaaAntiflickerModeSetCallback
 0001:002E23C4       DjiAaaAeMeteringModeGet
 0001:002E24E4       DjiAaaAeMeteringModeSet
 0001:002E26BC       DjiAaaAeMeteringMode_Test
 0001:002E2844       DjiAaaAeMeteringModeSetCallback
 0001:002E298C       DjiAaaAeMeteringSpotGet
 0001:002E2B00       DjiAaaAeMeteringSpotSet
 0001:002E2F4C       DjiAaaAeMeteringSpot_Test
 0001:002E30C0       DjiAaaWbTemperatureGet
 0001:002E33FC       DjiAaaWbTemperatureSet
 0001:002E38EC       DjiAaaWbSceneModeGet
 0001:002E39E4       DjiAaaWbSceneModeSet
 0001:002E3AEC       DjiAaaAwbSceneModeSet
 0001:002E3C74       DjiAaaWbNoGet
 0001:002E3CEC       DjiAaaWbSceneMode_Test
 0001:002E3E90       DjiAaaWbSceneModeSetCallback
 0001:002E406C       DjiAaaSceneModeSet
 0001:002E4A74       DjiAaaSceneMode_Test
 0001:002E4BF0       DjiAaaShutterSpeedSetInSGearRec
 0001:002E4DC4       DjiAaaSceneModeSetCallback
 0001:002E561C       DjiAaaDigitalEffectGet
 0001:002E5704       DjiAaaDigitalEffectSet
 0001:002E57F0       DjiAaaDigitalEffect_Test
 0001:002E597C       DjiAaaDigitalEffectSetCallback
 0001:002E5A38       DjiAaaSharpnessGet
 0001:002E5AB8       DjiAaaSharpnessSet
 0001:002E5BDC       DjiAaaSharpness_Test
 0001:002E5D5C       DjiAaaSharpnessSetCallback
 0001:002E5E0C       DjiAaaContrastGet
 0001:002E5E8C       DjiAaaContrastSet
 0001:002E5F38       DjiAaaContrast_Test
 0001:002E60B8       DjiAaaContrastSetCallback
 0001:002E6168       DjiAaaHueGet
 0001:002E61E8       DjiAaaHueSet
 0001:002E6294       DjiAaaHue_Test
 0001:002E6410       DjiAaaHueSetCallback
 0001:002E64C4       DjiAaaSaturationGet
 0001:002E6548       DjiAaaSaturationSet
 0001:002E65F4       DjiAaaSaturation_Test
 0001:002E6790       DjiAaaSaturationSetCallback
 0001:002E689C       DjiAebSetCallback
 0001:002E6A90       DjiPhotoAebSet
 0001:002E6E8C       DjiAaaRegressionTestArg
 0001:002E6FD0       a2
 0001:002E6FD6       aO
 0001:002E81CC       DjiAaaInit
 0001:002E8368       DjiAaaMaxMinShutterGetInSCapGear
 0001:002E86A8       DjiAaaAebIsoShutterRecomputeBaseOnNewRequirment
 0001:002E9984       DjiTrackingHandler
 0001:002E9EA8       DjiTrackingInit
 0001:002E9F7C       DjiTrackingEnable
 0001:002EA37C       DjiTrackingSetStartPos
 0001:002EA470       DjiTrackingRegionGet
 0001:002EA5AC       DjiTrackingGimbalPush
 0001:002EAFD8       DjiTrackingAppPush
 0001:002EB180       DjiCmmCapOsdDrawTrackingRect
 0001:002EB3F8       DjiTrackingShow
 0001:002EB73C       DjiShlTrackingTest
 0001:002EBAD8       DjiXcodeExeEntryEnQueue
 0001:002EBB68       DjiXcodeExeEntryDeQueue
 0001:002EBC0C       DjiXcodeExeEntryResetQueue
 0001:002EBCB4       DjiXcodeFTreeInsert
 0001:002EBD98       DjiXcodeFTreeUpdate
 0001:002EBEC0       DjiXcodeFTreeEntryGet
 0001:002EBFB4       DjiXcodeFTreeEntryGetById
 0001:002EC0D8       DjiXcodeFTreeSpecStateUpdate
 0001:002EC188       DjiXcodeExeEntryTake
 0001:002EC1D4       DjiCtrlEntryGet
 0001:002EC2C4       DjiCtrlEntryClr
 0001:002EC3C8       DjiCtrlEntryFullChk
 0001:002EC490       AmbaMovieTranscode_Start
 0001:002EC704       DjiMovieTranscodeConfig
 0001:002ECC24       DjiMovieTranscodePbPause
 0001:002ECC60       DjiMovieTranscodePbResume
 0001:002ECD20       DjiTranscodeStateSet
 0001:002ECDD0       DjiXCodeFile
 0001:002ECEA4       DjiTranscodeResValidChk
 0001:002ECF08       DjiTranscodeResSet
 0001:002ECFF4       DjiTranscodeResGet
 0001:002ED0A4       DjiTranscodeSrcDurationSet
 0001:002ED108       DjiTranscodeDesStateSet
 0001:002ED3E0       DjiTranscodeStoreFpsSet
 0001:002ED4DC       DjiTranscodeFpsGet
 0001:002ED5E0       DjiXcodeFnumSet
 0001:002ED65C       DjiXcodedFnumIncrease
 0001:002ED8CC       DjiXcodeTaskEntry
 0001:002EDEF0       DjiXcodeCtrlTaskEntry
 0001:002EE36C       DjiXcodeCommandCallback
 0001:002EE4F0       DjiEntriesCtrlAlloc
 0001:002EE644       DjiQueueCtrLHeadInit
 0001:002EE738       DjiXcodeInit
 0001:002EEEB0       DjiPanoTakePhoto
 0001:002EEF78       GimbalTestFun
 0001:002EEFE0       ManualTakePhoto
 0001:002EF048       DjiGimbalRotateEntryCS
 0001:002EF0BC       DjiGimbalRotateLeaveCS
 0001:002EF12C       DjiGimbalRotateFlagsWait
 0001:002EF1E0       DjiGimbalRotateFlagsSet
 0001:002EF25C       DjiRotateGimbal
 0001:002EF424       DjiGimbalRotateReleaseCtrol
 0001:002EF64C       DjiGetGimbalState
 0001:002EF734       DjiGimbalRotateHandl
 0001:002EF7C4       DjiGetGimbalStateHandle
 0001:002EFDC4       DjiGimbalRotate_sub_E8EFDC4
 0001:002EFEE0       DjiGimbalRotateSetState
 0001:002F00F0       DjiGimbalRotateFlightPanoModeCtrl
 0001:002F0330       DjiGimbalRotateFlightPosPush
 0001:002F069C       DjiGimbalRotateEntry
 0001:002F18DC       DjiGimbalRotateInit
 0001:002F1AD8       DjiGimbalRotateStart
 0001:002F1C44       DjiPanoEntryCS
 0001:002F1CBC       DjiPanoLeaveCS
 0001:002F1D2C       DjiPanoPushEntryCS
 0001:002F1DA0       DjiPanoPushLeaveCS
 0001:002F1E34       DjiPanoSetState
 0001:002F1EC0       DjiPanoAeLock
 0001:002F1FC0       DjiPanoGetTotalNum
 0001:002F2160       DjiPanoInit
 0001:002F22B8       DjiStartPanorama
 0001:002F29A0       DjiStopGimbalRotate
 0001:002F2A28       DjiStopPanorama
 0001:002F2AFC       DjiPanoFinishTakePic
 0001:002F2BD4       DjiPanoFinishStoragePic
 0001:002F2C70       DjiPanoModeSetCallback
 0001:002F2D2C       DjiPanoStateMonitor
 0001:002F2E14       DjiPanoInfoPush
 0001:002F33A8       DjiPano_FNameGetByIdx
 0001:002F3920       DjiShlGimbalTest
 0001:002F3BB4       DjiShlPanoTest
 0001:002F3FBC       DjiShmInfoGet
 0001:002F4060       DjiShmInfoSet
 0001:002F4108       DjiShmDdrTest
 0001:002F42C4       DjiShmShmooByte
 0001:002F4420       DjiShmShmooByteDebug
 0001:002F46C0       DjiShmBestValCalc
 0001:002F49B0       DjiShmShmooProgram
 0001:002F5A34       DjiShmResultRecord
 0001:002F5CE8       DjiShmShmooEntry
 0001:002F5E88       DjiShmDetectProc
 0001:002F5FD4       DjiShlPrintShmoo
 0001:002F613C       DjiShlClearShmoo
 0001:002F6160       DjiShlSetShmooDbgTest
 0001:002F6848       nullsub_59
 0001:002F684C       nullsub_32
 0001:002F68A0       nullsub_33
 0001:002F68A4       nullsub_34
 0001:002F6E14       AmbaIPC_ClientCreate
 0001:002F6EC0       AmbaIPC_ClientCall
 0001:002F70FC       SDCardHandleExecClient
 0001:002F7628       ThreadPoolFunc
 0001:002F7A40       AmbaIPC_SvcRegister
 0001:002F7F14       thread_entry_exit_notify
 0001:002F917C       PhotoPredictQPerComplex
 0001:002FA56C       AmpUTCalibBPC_BufferClear
 0001:002FA8AC       AppLibCalibBPC_BMPSave
 0001:002FAAAC       AppLibCalibBPC_SetPixelValue
 0001:002FACCC       AppLibCalibBPC_Info
 0001:002FB080       AmpUTCalibBPC_MapDecompress
 0001:002FB3AC       AppLibCalibBPC_MapUpdate
 0001:002FB768       AppLibCalibBPC_Reload
 0001:002FB814       AppLibCalibBPC_Init
 0001:002FC37C       AmpUTCalibBPC_BadPixelSave
 0001:002FCAFC       AmpUTCalibBPC_SaveRawImage
 0001:002FCD64       AmpUTCalibBPC_Detect
 0001:002FD388       AmpUTCalibBPC_LoadScript
 0001:002FD66C       AmpUTCalibBPC_Cluster_Detect
 0001:002FDE68       AppLibCalibBPC_Enable
 0001:002FE0C0       AppLibCalibBPC_UTFunc
 0001:002FEF28       DjiBPCBmpDataGet
 0001:002FF210       DjiBPCModeInfoGet
 0001:003023E0       AmpUTCalibVig_sub_E9023E0
 0001:003027F4       AmpUTCalibVig_sub_E9027F4
 0001:00302DDC       AppLibVignette_UTFunc
 0001:00303638       AmbaImageMainEis_Init
 0001:00303A1C       nullsub_35
 0001:00303D04       AmbaImageMainEis_SetDummy
 0001:00303D84       AmbaImageMainEis_GyroParamInit
 0001:00303EBC       AmbaImageMainEis_ParamInit
 0001:00304134       AmbaImgEisCtrl_ModeInit
 0001:00304BF0       AmbaImageMainEis_RangeUpdate
 0001:003056F4       AmbaImageMainEis_Enable
 0001:00308558       TRANSSRV_MemInit
 0001:00308610       TRANSSRV_MemAlloc
 0001:003088C8       TRANSSRV_MemFree
 0001:003088E4       TRANSSRV_MsgBufInit
 0001:00308AB0       TRANSSRV_MsgBufAlloc
 0001:00308B44       TRANSSRV_MsgBufFree
 0001:00308BDC       TRANSSRV_DataBufInit
 0001:00308D00       TRANSSRV_DataBufReset
 0001:00308D80       TRANSSRV_DataBufGetWritePos
 0001:00308DB4       TRANSSRV_DataBufGetFreeCnt
 0001:00308DE0       TRANSSRV_DataBufUpdateWritePos
 0001:00308EB4       TRANSSRV_DataBufGetReadPos
 0001:00308EE8       TRANSSRV_DataBufGetUsedCnt
 0001:00308F14       TRANSSRV_DataBufUpdateReadPos
 0001:00308FF0       TRANSSRV_DataBufAlignToNextBlk
 0001:00309090       TRANSSRV_QueueInit
 0001:0030920C       TRANSSRV_QueueIn
 0001:003092A4       TRANSSRV_QueueOut
 0001:00309364       TRANSSRV_WindowInit
 0001:0030948C       TRANSSRV_WindowReset
 0001:00309570       TRANSSRV_WindowIn
 0001:0030968C       TRANSSRV_WindowOut
 0001:003097A0       TRANSSRV_WindowGetItem
 0001:00309858       TRANSSRV_WindowMove
 0001:00309988       TRANSSRV_RecvDelMsg
 0001:00309D1C       TRANSSRV_RecvMsg
 0001:00309DB4       TRANSSRV_SendStreamData
 0001:00309E80       TRANSSRV_SetStreamEnd
 0001:00309F1C       TRANSSRV_SendMsg
 0001:0030A09C       TRANSSRV_SendData
 0001:0030A414       TRANSSRV_SendFlush
 0001:0030A4A8       TRANSSRV_SetLinkBandWidthCtrlRatio
 0001:0030A58C       TRANSSRV_SetLinkBandWidth
 0001:0030A6E0       TRANSSRV_ResendQueAdd
 0001:0030A994       TRANSSRV_ResendQueDel
 0001:0030ABB8       TRANSSRV_DoResend
 0001:0030B888       TRANSSRV_SendPushMsg
 0001:0030B94C       TRANSSRV_SendAbortMsg
 0001:0030BB30       TRANSSRV_GetJpgThmInfo
 0001:0030C0E4       TRANSSRV_GetJpgScrInfo
 0001:0030C70C       TRANSSRV_GetDngThmInfo
 0001:0030C9D4       TRANSSRV_GetDngScrInfo
 0001:0030CEB0       TRANSSRV_GetThumbnail
 0001:0030D0AC       TRANSSRV_GetScreennail
 0001:0030D2AC       TRANSSRV_MsgCheck
 0001:0030D4B4       TRANSSRV_GetFileInfo
 0001:0030DA14       TRANSSRV_EndFileProc
 0001:0030DAEC       TRANSSRV_SendFileFrag
 0001:0030DFFC       TRANSSRV_GetListInfo
 0001:0030E414       TRANSSRV_EndListProc
 0001:0030E884       TRANSSRV_SendListFrag
 0001:0030F054       TRANSSRV_GetStreamInfo
 0001:0030F3D0       TRANSSRV_SendStreamFrag
 0001:0030F968       TRANSSRV_EndStreamProc
 0001:0030FC34       TRANSSRV_MainProc
 0001:003108DC       TRANSSRV_MainTaskEntry
 0001:00310A4C       TRANSSRV_Init
 0001:00310F6C       Dji_Cal_Mgr
 0001:0031101C       AppLib_CalibUseage
 0001:00311064       AmbaCalib_TestCmd
 0001:00311370       IPC_BufInit
 0001:00311554       IPC_BufAlloc
 0001:003115FC       IPC_BufFree
 0001:00311A78       IPC_Rpmsg_Init
 0001:00311BF8       IPC_Rpmsg_Attach
 0001:00311E00       IPC_Rpmsg_Detach
 0001:0031201C       IPC_Rpmsg_Alloc
 0001:00312288       IPC_Rpmsg_Free
 0001:003123C4       IPC_Rpmsg_Send
 0001:0031252C       IPC_Rpmsg_State
 0001:00312774       IPC_Rpc_Cln_Init
 0001:0031287C       IPC_Rpc_Alloc
 0001:003129E4       IPC_Rpc_Free
 0001:00312AF8       IPC_Rpc_Send
 0001:00312C3C       IPC_Rpc_SendSyn
 0001:00312D94       IPC_Rpc_State
 0001:00312E7C       DjiIpcInit
 0001:00312F04       DjiIpcAttach
 0001:00313030       DjiIpcAlloc
 0001:00313228       DjiIpcRxEntry
 0001:00313398       DjiIpcSendSyn
 0001:00313628       DjiIpcSend
 0001:00313938       DjiIpcState
 0001:00313A94       MoviePlaybackTaskEntry
 0001:00313F08       AmbaMoviePlayback_TaskCreate
 0001:00314204       AmbaMoviePlayback_TaskDelete
 0001:00314300       AmbaMoviePlayback_Open
 0001:0031463C       AmbaMoviePlayback_Close
 0001:003146D8       AmbaMoviePlayback_Start
 0001:00314A54       AmbaMoviePlayback_Stop
 0001:00314B40       AmbaMoviePlayback_Pause
 0001:00314C40       AmbaMoviePlayback_Resume
 0001:00314E18       AmbaMoviePlayback_Forward
 0001:00314EC4       AmbaMoviePlayback_Backward
 0001:00314F80       AmbaMoviePlayback_TimeSearch
 0001:0031518C       MoviePlayback_AudioGetLofHandler
 0001:00315ECC       MoviePlayback_FeedAudio
 0001:00316000       DjiMovieTransFeedAudio
 0001:0031625C       DjiMovieRecordAudioByPass
 0001:00316490       MoviePlayback_SyncAudio
 0001:00316C10       MoviePlayback_CalcLatestDTS
 0001:00316C84       MoviePlayback_CalcLastPTS
 0001:00316E88       MoviePlayback_Preload
 0001:003170C0       MoviePlayback_ReloadAudio
 0001:003175AC       DjiMoviePlayback_TimeSearchMs
 0001:00317764       AmbaMovMuxer_Create
 0001:00317B20       AmbaMovMuxer_Destroy
 0001:0031D4A4       AmbaMovDemuxer
 0001:0031D58C       AmbaMovParseKeyFrame
 0001:0031DC5C       AmbaMovLoadKeyFrame
 0001:003202C0       FileWriteTask_Entry
 0001:00320948       AmbaFileWrite_Flush
 0001:00320E04       AmbaFileOp_GetByte
 0001:00320E5C       AmbaFileOp_GetLe16
 0001:00320EBC       AmbaFileOp_GetLe32
 0001:00320F2C       AmbaFileOp_GetBe16
 0001:00320F8C       AmbaFileOp_GetBe32
 0001:00321120       AmbaFileOp_FileWriteFromBuf
 0001:003211AC       AmbaFileOp_CircularWrite
 0001:00321324       AmbaShell_MemAlloc
 0001:00321AB0       DjiDNG_EntryIdGet
 0001:00321B4C       DjiDNG_ExifIFDPut
 0001:003224F8       DjiDNG_GPSIFDPut
 0001:00322A4C       DjiDNG_IFD0Put
 0001:00323378       DjiDNG_SubIFD1Put
 0001:003238EC       DjiDNG_SubIFD2Put
 0001:00323C3C       DjiDNG_ScanAbleTags
 0001:00323F50       DjiDNG_IFDDescInit
 0001:00324374       DjiDNG_FileInit
 0001:003243D8       DjiDNG_XMPInfoSet
 0001:00324418       DjiDNG_IFD0ImageInfoSet
 0001:003247EC       DjiDNG_ExifImageInfoSet
 0001:00324C04       DjiDNG_GPSImageInfoSet
 0001:00324CB8       DjiDNG_SubIFD1ImageInfoSet
 0001:00324F7C       DjiDNG_SubIFD2ImageInfoSet
 0001:003250A4       DjiDNG_ImageInfoSet
 0001:0032525C       DjiDNG_FileInfoSet
 0001:00325560       DjiDNG_FileWrite
 0001:003259BC       DjiDNG_MakerIFDPut
 0001:00325F24       DjiDNG_FileValidChk
 0001:00326190       DjiDNG_IFDsParse
 0001:003265D4       DjiDNG_LocInfoGet
 0001:00326754       DjiDNG_FileIsValid
 0001:003268FC       DjiDNG_OpcodeEntriesInfoGet
 0001:00326BE4       DjiDNG_BpcInfoGet
 0001:003274E8       DjiDNG_BpcCorrect
 0001:00327654       DjiDNG_BufWriteToFile
 0001:003278FC       DjiDNGInit
 0001:00327D10       DjiExifGPSEnStatGet
 0001:00327FD8       DjiExifOp_InfoSet
 0001:0032827C       DjiExifOp_InfoGet
 0001:00328684       DjiExifOp_GPSIFDPut
 0001:00328A80       DjiExifOp_MakerIFDPut
 0001:003291C8       DjiExifInit
 0001:00329370       DjiExifExposureProgGet
 0001:00329518       DjiExifLightSrcGet
 0001:003295DC       DjiExifMeterModeGet
 0001:00329668       DjiExifExposureModeGet
 0001:00329718       DjiExifWBGet
 0001:00329788       DjiExifSceneCapTypeGet
 0001:0032982C       DjiExifContrastGet
 0001:003298AC       DjiExifSaturationGet
 0001:00329938       DjiExifSharpnessGet
 0001:003299C8       DjiJpgValidChk
 0001:00329FD4       DjiExifXmpInfoSet
 0001:0032A494       DjiExifDNGXmpGet
 0001:0032AA04       DjiExifJpgXmpGet
 0001:0032B004       DjiExifXmpInfoGet
 0001:0032D0E8       FirmwareUpdater
 0001:0032D468       sd_update_A
 0001:0032D47C       sd_update_B
 0001:0032D490       FwUpdater_CheckImgHeader
 0001:0032D5DC       FwUpdater_ParseFwHeader
 0001:0032DE54       DjiAudioDemuxGetWritePointer
 0001:0032DEE4       DjiAudioDecGetReadPointer
 0001:0032DFD0       AmbaAudio_EncMaxConfigSize
 0001:0032E07C       nullsub_55
 0001:0032E080       AmbaAudio_sub_E92E080
 0001:0032E1A0       AmbaAudio_sub_E92E1A0
 0001:0032E3F8       AmbaAudio_sub_E92E3F8
 0001:0032E51C       AmbaAudio_sub_E92E51C
 0001:0032E570       AmbaAudio_sub_E92E570
 0001:0032E5B4       AmbaAudio_sub_E92E5B4
 0001:0032E5E8       AmbaAudio_sub_E92E5E8
 0001:0032E714       AmbaAudio_sub_E92E714
 0001:0032E750       AmbaAudio_sub_E92E750
 0001:0032E834       AmbaAudio_sub_E92E834
 0001:0032E868       AmbaAudio_sub_E92E868
 0001:0032E9A8       AmbaAudio_sub_E92E9A8
 0001:0032EAA4       AmbaAudio_EncCheckInput
 0001:0032EBF8       AmbaAudio_EncUpdateBitsBuf
 0001:0032ED38       AmbaAudio_EncIBufferOp
 0001:0032F0DC       AmbaAudio_EncTaskCreate
 0001:0032F148       AmbaAudio_EncTaskDelete
 0001:0032F1A4       AmbaAudio_EncSizeQuery
 0001:0032F280       AmbaAudio_EncCreate
 0001:0032F498       AmbaAudio_EncTaskSetUp
 0001:0032F854       AmbaAudio_EncTaskStart
 0001:0032F940       AmbaAudio_EncTaskStop
 0001:0032FA20       AmbaAudio_EncFadeReport
 0001:0032FD64       MovieRecord2ndTask_Entry
 0001:00330118       AmbaMovieRecord_2ndTaskCreate
 0001:003301D8       AmbaMovieRecord_2ndTaskDelete
 0001:00330250       AmbaMovieRecord_2ndTaskOpen
 0001:00330428       AmbaMovieRecord_2ndTaskClose
 0001:00331568       a2140
 0001:00331570       aHttpAmbtwsvn2S
 0001:00332200       a2243
 0001:00332208       aHttpAmbtwsvn_6
 0001:00332694       a2241
 0001:0033269C       aHttpAmbtwsvn_0
 0001:00333350       a2262
 0001:00333358       aHttpAmbtwsvn_1
 0001:0033340C       nullsub_52
 0001:0033355C       a2316
 0001:00333564       aHttpAmbtwsvn_2
 0001:0033DFC0       AmbaImageMainAe_Task
 0001:0033EA74       AmbaImageMainAe_Snap
 0001:0033FD78       AmbaImageMainAe_SnapDspDgc
 0001:00340584       AmbaImageMainAwb_Entry
 0001:00340E64       AmbaImageMainAf_Entry
 0001:00341D74       AmbaImageMessageTaskCreate
 0001:00341DD4       AmbaImageMessageEntry
 0001:00341E88       nullsub_36
 0001:00341EB8       ItunerRawEnc_RawDataEventHandler
 0001:00341EF4       ItunerRawEnc_YuvDataEventHandler
 0001:00341F30       ItunerRawEnc_JpegDataEventHandler
 0001:003421F8       AppLibStillEnc_IdspParamSetup
 0001:0034377C       ItunerRawEnc_TaskCreate
 0001:00344338       AppLib_CalibSiteInit
 0001:0034660C       yy_create_buffer
 0001:00346798       yyensure_buffer_stack
 0001:003468D0       MyMalloc
 0001:003469F4       my_fatal_error
 0001:00347764       aS_20
 0001:00347768       aOk_0
 0001:0034776C       AmbaShell_CmdMalloc
 0001:00347C70       _AmbaTUNE_Check_Mutex_Created
 0001:00347CB0       AmbaTUNE_Init
 0001:00347D64       AmbaTUNE_Change_Parser_Mode
 0001:00347DD4       AmbaTUNE_Save_IDSP
 0001:00347E5C       AmbaTUNE_Load_IDSP
 0001:00347EDC       AmbaTUNE_Save_Data
 0001:00347F68       AmbaTUNE_Load_Data
 0001:00347FF4       AmbaTUNE_Execute_IDSP
 0001:0034807C       AmbaTUNE_Get_SystemInfo
 0001:003480FC       AmbaTUNE_Set_SystemInfo
 0001:0034817C       AmbaTUNE_Get_AeInfo
 0001:003481FC       AmbaTUNE_Set_AeInfo
 0001:0034827C       AmbaTUNE_Get_WbSimInfo
 0001:003482FC       AmbaTUNE_Set_WbSimInfo
 0001:0034837C       AmbaTUNE_Get_ItunerInfo
 0001:00348458       atof
 0001:00349C64       AmbaExifFormatter
 0001:0034A4F0       PutMPFHeader
 0001:0034A67C       WriteStream
 0001:0034BE00       udc_driver_init
 0001:0034BF3C       AmbaUSB_Drv_WaitIsrOperationEmpty
 0001:0034C014       udc_add_isr_operation_ex
 0001:0034C0B4       AmbaUSB_Drv_EndpointMapCreate
 0001:0034C22C       AmbaUSB_Drv_EndpointMapGet
 0001:0034C298       udc_dma_memory_allocate
 0001:0034C8DC       udc_dma_memory_destroy
 0001:0034CCB4       udc_isr_task_entry
 0001:0034CE50       AmbaUSB_IsrInit
 0001:0034CF90       udc_isr_task_destroy
 0001:0034D598       AmbaUSB_Drv_SetRxDesc
 0001:0034D798       AmbaUSB_Drv_EmptyDmaFifo
 0001:0034D840       AmbaUSB_Drv_InitHardware
 0001:0034DB98       a_ux_system_ini
 0001:0034DBB0       aUx_mutex
 0001:0034DBBC       aErrorSCanTCrea
 0001:0034DBE4       a_ux_system_des
 0001:0034DBF8       aErrorSCanTCr_0
 0001:0034DECC       AmbaUSB_Descriptor_GetInitInfo
 0001:0034E480       aErrorDescripto
 0001:0034E4A4       aErrorRealSizeI
 0001:0034E894       a_ux_device_sta
 0001:0034E8B0       aUx_transfer_re
 0001:0034E8D8       aSCanTFindInter
 0001:0034E900       aUsbxBufferSize
 0001:0034E930       aUx_transfer__0
 0001:0034E950       ux_slave_class_uvc
 0001:0034E9FC       aUsbxFailedTo_4
 0001:0034EA38       aUsbxFinishIn_0
 0001:0034EA60       aAmbausbd_uvc_r
 0001:0034EA74       aSFailedToCle_0
 0001:0034EA94       aSUvcClassClean
 0001:0034EC68       ux_slave_class_hid
 0001:0034ED30       aUdc_hid_defaul
 0001:0034ED50       aSStart_
 0001:0034ED60       aReportidD
 0001:0034ED74       aLengthD
 0001:0034ED88       a03d0xX
 0001:0034ED98       aAmbausbd_hid_s
 0001:0034EDB0       aSReportLenthDC
 0001:0034EDE0       aSNoRunningClas
 0001:0034EDF8       aUsbxFailedToIn
 0001:0034EE34       aUsbxFinishInit
 0001:0034EE5C       aAmbausbd_hid_r
 0001:0034EE70       aSFailedToClear
 0001:0034EE98       aHidClassClearS
 0001:0034EEB8       ClassMsc_MediaRead
 0001:0034F58C       AmbaUSB_Class_Msc_SetProp
 0001:0034F5D0       AmbaUSB_Class_Msc_Mount
 0001:0034F680       ReadCacheThreadEntry
 0001:0034F750       ux_slave_class_storage
 0001:0034FA50       ClassPicbridge_Entry
 0001:0034FAE4       AmbaUSB_Class_Pictbridge_Start
 0001:0034FB50       AmbaUSB_Class_Pictbridge_Reset
 0001:00350138       MtpReadCacheThreadEntry
 0001:003505DC       AmbaUSB_Class_Mtp_Start
 0001:00350D80       ux_slave_class_cdc_acm
 0001:00350DEC       AmbaUSB_Class_CDC_ACM_Reset
 0001:00350E40       aFailedToInit_4
 0001:00350E70       aFinishInitUs_3
 0001:00350E90       aAmbausb_clas_5
 0001:00350EAC       aSFailedToCle_1
 0001:00350ED8       aCdcAcmClassCle
 0001:003510AC       aCdcAcmDual1Act
 0001:003510C8       aCdcAcmDual1Dea
 0001:003510E0       aCdcAcmDual2Act
 0001:003510FC       aCdcAcmDual2Dea
 0001:00351114       aFailedToInitUs
 0001:00351148       aFinishInitUsbC
 0001:00351170       aFailedToInit_0
 0001:003511A4       aFinishInitUs_0
 0001:003511CC       aAmbausb_clas_6
 0001:003511F0       aSFailedToCle_2
 0001:0035121C       aCdcAcmClassC_0
 0001:00351240       Stream_InstanceActivate
 0001:00351268       Stream_InstanceDeactivate
 0001:00351294       StreamNative_InstanceActivate
 0001:003512A8       StreamNative_InstanceDeactivate
 0001:003512D0       AmbaUSB_Class_Stream_Start
 0001:003513C4       AmbaUSB_Class_Stream_Reset
 0001:00351460       aFailedToInit_1
 0001:00351500       ux_slave_class_simple
 0001:00351594       aSimpleClassIsA
 0001:003515B0       aSimpleClassIsD
 0001:003515D0       aUsbxFailedTo_5
 0001:0035160C       aUsbxFinishIn_1
 0001:00351634       aAmbausb_clas_7
 0001:00351650       aSFailedToCle_3
 0001:0035167C       aSimpleClassCle
 0001:00351A34       a_ux_utility_ge
 0001:00351A54       aSNoSystemCache
 0001:00351AC8       _ux_device_stack_transfer_request
 0001:00351BEC       _ux_utility_memory_copy
 0001:00351C08       DjiGetApertureRange
 0001:00351E40       DjiAfIfGetRoute
 0001:00351F54       DjiAfIfRcvRes
 0001:003524F0       DjiAfIfRead
 0001:00352708       DjiAfIfShading
 0001:003528DC       DjiAfIfReadFromBCPU
 0001:00352A54       DjiAfIfWriteToBCPU
 0001:00352B9C       DjiAfIfWriteToBCPUBak
 0001:00352E2C       DjiAfIfSetFStop
 0001:00353158       DjiAfIfSetFocusValue
 0001:0035332C       DjiAfGetBufferIndex
 0001:0035A8F4       AmbaDSP_ImgSetStaticBadPixelCorrectionInfo
 0001:0035AA58       AmbaDSP_ImgSetStaticBadPixelCorrectionHighlightMode
 0001:0035AB90       AmbaDSP_ImgSetStaticBadPixelCorrection
 0001:0035AEA8       AmbaDSP_ImgGetStaticBadPixelCorrection
 0001:0035AFE4       AmbaDSP_ImgSetStaticBadPixelCorrectionByPass
 0001:0035B290       AmbaDSP_ImgGetStaticBadPixelCorrectionByPass
 0001:0035B418       AmbaDSP_ImgSetStaticBadPixelCorrectionDebug
 0001:0035C374       AmpCalib_VigCalFromRaw
 0001:0035DF00       AmbaDSP_ImgCalcVignetteCompensation
 0001:0035E114       AmbaDSP_ImgSetVignetteCompensation
 0001:0035E178       AmbaDSP_ImgCalcVignetteCompensation_2
 0001:0035E47C       AmbaDSP_ImgSetVignetteCompensation_2
 0001:0035E904       AmbaDSP_ImgGetVignetteCompensation
 0001:0035EAEC       AmbaDSP_ImgSetVignetteCompensationByPass
 0001:0035F100       AmbaUTVigControllerVigStrInterpo
 0001:0035F4B0       AmbaUTVigControllerVigStrength
 0001:0035F848       AmbaUTVigControllerStillVigStrength
 0001:0035F93C       AmbaUTVigControllerVigMain
 0001:0035FB5C       AmbaUTVigControllerInit
 0001:00361228       aHjltzl_0
 0001:00361230       aCcn
 0001:00361EF8       AmpUT_CalibPathIf
 0001:0036221C       AmpUTCalibBlc_SaveRawImage
 0001:00362B9C       AppLibBLC_UTFunc
 0001:00363858       AppLibWB_UTFunc
 0001:00363C50       AppLibCalibWarp_SelectWarpTable
 0001:00364850       AppLibCalibWarp_Init
 0001:003649AC       AmpUTCalibWarp_GenWarpFromSpec
 0001:00366A64       pCalibWarpInfo
 0001:00366A78       AmpUTCalibWarp_GenTopViewWarpFromSpec
 0001:00368C78       AmpUTCalibWarp_WarpMergeBinFile
 0001:00369410       AppLibWarp_UTFunc
 0001:0036969C       AmpUTCalibCa_SelectCaTable
 0001:0036A50C       AmpUTCalibCa_GenCaFromSpec
 0001:0036D004       AppLibCA_UTFunc
 0001:00373DB8       a2191
 0001:00373DC0       aHttpAmbtwsvn_3
 0001:00373E28       AmbaAudio_AacSetup
 0001:00374188       AmbaAudio_AacOpen
 0001:003742E4       AmbaAudio_AacEncode
 0001:003744BC       a2242
 0001:003744C4       aHttpAmbtwsvn_7
 0001:00374AB4       aHttpAmbtwsvn_4
 0001:0037525C       a2246
 0001:00375264       aHttpAmbtwsvn_8
 0001:00375794       aHttpAmbtwsvn_5
 0001:003757D4       a2316_0
 0001:0037B368       SetWbGain
 0001:0037B468       AmbaDSP_ImgSetWbGainInfo
 0001:0037B4E4       AmbaDSP_sub_E97B4E4
 0001:0037B4EC       AmbaDSP_ImgSetWbGain
 0001:0037BA3C       AmbaDSP_ImgGetWbGain
 0001:0037BBEC       _USBHdlr_Lookup_Tuning_Mode
 0001:0037BC5C       _USBHdlr_Lookup_Tuning_Mode_Ext
 0001:0037BF7C       _usbhdlr_read_line
 0001:0037C020       _USBHdlr_Load_Text
 0001:0037C120       USBHdlr_Save_IDSP
 0001:0037C30C       _USBHdlr_Load_Raw
 0001:0037C370       _USBHldr_Load_Vignette
 0001:0037C448       _USBHdlr_sub_E97C448
 0001:0037C450       _USBHdlr_Load_Warp_Table
 0001:0037C528       _USBHdlr_sub_E97C528
 0001:0037C530       _USBHdlr_sub_E97C530
 0001:0037C538       _USBHdlr_Load_Ca_Table
 0001:0037C628       _USBHdlr_sub_E97C628
 0001:0037C630       _USBHdlr_sub_E97C630
 0001:0037C638       _USBHdlr_Load_FPN_Map
 0001:0037C710       _USBHdlr_sub_E97C710
 0001:0037C718       _USBHdlr_Load_CC_Reg
 0001:0037C7A4       _USBHdlr_Load_CC_ThreeD
 0001:0037C830       _USBHdlr_Load_FIRST_SHARPEN_ThreeD_Table
 0001:0037C894       _USBHdlr_Load_FINAL_SHARPEN_ThreeD_Table
 0001:0037C8F8       _USBHdlr_Load_ASF_ThreeD_Table
 0001:0037C95C       _USBHdlr_Load_HISO_ASF_ThreeD_Table
 0001:0037C9E0       _USBHdlr_Load_HISO_HIGH_ASF_ThreeD_Table
 0001:0037CA64       _USBHdlr_Load_HISO_LOW_ASF_ThreeD_Table
 0001:0037CAE0       _USBHdlr_Load_HISO_MED1_ASF_ThreeD_Table
 0001:0037CB64       _USBHdlr_Load_HISO_MED2_ASF_ThreeD_Table
 0001:0037CBEC       _USBHdlr_Load_HISO_LI2ND_ASF_ThreeD_Table
 0001:0037CC74       _USBHdlr_Load_HISO_CHROMA_ASF_ThreeD_Table
 0001:0037CCF0       _USBHdlr_Load_HISO_HIGH_SHARPEN_ThreeD_Table
 0001:0037CDAC       _USBHdlr_Load_HISO_MED_SHARPEN_ThreeD_Table
 0001:0037CE6C       _USBHdlr_Load_HISO_LISO1_SHARPEN_ThreeD_Table
 0001:0037CF28       _USBHdlr_Load_HISO_LISO2_SHARPEN_ThreeD_Table
 0001:0037CFE0       _USBHdlr_Load_HISO_CHROMA_MED_COMBINE_ThreeD_Table
 0001:0037D064       _USBHdlr_Load_HISO_CHROMA_LOW_COMBINE_ThreeD_Table
 0001:0037D0E4       _USBHdlr_Load_HISO_CHROMA_VERYLOW_COMBINE_ThreeD_Table
 0001:0037D170       _USBHdlr_Load_HISO_LUMA_NOISE_COMBINE_ThreeD_Table
 0001:0037D1EC       _USBHdlr_Load_LOW_ASF_COMBINE_ThreeD_Table
 0001:0037D268       _USBHdlr_Load_HISO_COMBINE_ThreeD_Table
 0001:0037D308       _USBHdlr_sub_E97D308
 0001:0037D310       _USBHdlr_sub_E97D310
 0001:0037D318       _USBHdlr_sub_E97D318
 0001:0037D320       _USBHdlr_sub_E97D320
 0001:0037D328       _USBHdlr_sub_E97D328
 0001:0037D330       _USBHdlr_sub_E97D330
 0001:0037D338       _USBHdlr_sub_E97D338
 0001:0037D340       _USBHdlr_sub_E97D340
 0001:0037D348       _USBHdlr_sub_E97D348
 0001:0037D350       _USBHdlr_sub_E97D350
 0001:0037D358       _USBHdlr_sub_E97D358
 0001:0037D360       _USBHdlr_sub_E97D360
 0001:0037D368       _USBHdlr_sub_E97D368
 0001:0037D370       _USBHdlr_sub_E97D370
 0001:0037D378       _USBHdlr_sub_E97D378
 0001:0037D380       _USBHdlr_sub_E97D380
 0001:0037D388       _USBHdlr_sub_E97D388
 0001:0037D390       _USBHdlr_sub_E97D390
 0001:0037D398       _USBHdlr_sub_E97D398
 0001:0037D3A0       _USBHdlr_sub_E97D3A0
 0001:0037D3A8       _USBHdlr_sub_E97D3A8
 0001:0037D3B0       _USBHdlr_sub_E97D3B0
 0001:0037D3B8       _USBHdlr_sub_E97D3B8
 0001:0037D3C0       _USBHdlr_sub_E97D3C0
 0001:0037D3C8       _USBHdlr_sub_E97D3C8
 0001:0037D3D0       _USBHdlr_sub_E97D3D0
 0001:0037D3D8       _USBHdlr_Save_Jpg
 0001:0037D450       _USBHdlr_sub_E97D450
 0001:0037D47C       _USBHdlr_Save_and_Load_Dummy
 0001:0037D4A0       USBHdlr_Load_Data
 0001:0037D51C       USBHdlr_Save_Data
 0001:0037D608       _USBHdlr_Get_SHPA_ASF
 0001:0037D8E8       _USBHdlr_Get_SHPB
 0001:0037DD94       _USBHdlr_Set_BIN_PKG
 0001:0037E44C       _USBHdlr_Set_White_Balance
 0001:0037E54C       _USBHdlr_Set_SHPA_ASF
 0001:0037E830       _USBHdlr_Set_SHPB
 0001:0037EBB8       aAfhm
 0001:0037F0D4       a0369BehKQnT
 0001:0037F4D4       _TextHdlr_Get_Driver_Letter
 0001:0037F554       _TextHdlr_Change_System_Drive
 0001:0037F6B0       _TextHdlr_Lookup_Tuning_Mode
 0001:0037F720       _TextHdlr_Lookup_Tuning_Mode_Ext
 0001:0037F790       _read_line
 0001:0037F88C       _TextHdlr_Load_Text
 0001:0037FB30       TextHdlr_Load_IDSP
 0001:0037FBA0       _TextHdlr_Check_Param_Completeness
 0001:003801BC       _TextHdlr_Save_Raw
 0001:003802D4       _TextHdlr_Load_Raw
 0001:0038046C       _TextHldr_Load_Vignette
 0001:00380574       _TextHldr_Load_Bypass_Vignette
 0001:0038069C       _TextHdlr_Load_Warp_Table
 0001:003807B8       _TextHdlr_Load_Bypass_Horizontal_Table
 0001:00380948       _TextHdlr_Load_Bypass_Vertical_Table
 0001:00380AC8       _TextHdlr_Load_Ca_Table
 0001:00380BE4       _TextHldr_Load_Bypass_Ca_Horizontal_Table
 0001:00380DA8       _TextHdlr_Load_Bypass_Ca_Vertical_Table
 0001:00380F4C       _TextHdlr_Load_FPN_Map
 0001:00381054       _TextHdlr_Load_Bypass_FPN_Map
 0001:00381158       _TextHdlr_Load_CC_Reg
 0001:00381208       _TextHdlr_Load_CC_ThreeD
 0001:003812D0       _TextHdlr_Load_FIRST_SHARPEN_ThreeD_Table
 0001:003813E0       _TextHdlr_Load_FINAL_SHARPEN_ThreeD_Table
 0001:003814EC       _TextHdlr_Load_ASF_ThreeD_Table
 0001:003815C0       _TextHdlr_Load_HISO_ASF_ThreeD_Table
 0001:00381698       _TextHdlr_Load_HISO_HIGH_ASF_ThreeD_Table
 0001:00381768       _TextHdlr_Load_HISO_LOW_ASF_ThreeD_Table
 0001:00381838       _TextHdlr_Load_HISO_MED1_ASF_ThreeD_Table
 0001:00381908       _TextHdlr_Load_HISO_MED2_ASF_ThreeD_Table
 0001:003819DC       _TextHdlr_Load_HISO_LI2ND_ASF_ThreeD_Table
 0001:00381AB0       _TextHdlr_Load_HISO_CHROMA_ASF_ThreeD_Table
 0001:00381B80       _TextHdlr_Load_HISO_HIGH_SHARPEN_ThreeD_Table
 0001:00381C88       _TextHdlr_Load_HISO_MED_SHARPEN_ThreeD_Table
 0001:00381D98       _TextHdlr_Load_HISO_LISO1_SHARPEN_ThreeD_Table
 0001:00381EA4       _TextHdlr_Load_HISO_LISO2_SHARPEN_ThreeD_Table
 0001:00381FAC       _TextHdlr_Load_HISO_CHROMA_MED_COMBINE_ThreeD_Table
 0001:00382080       _TextHdlr_Load_HISO_CHROMA_LOW_COMBINE_ThreeD_Table
 0001:00382148       _TextHdlr_Load_HISO_CHROMA_VERYLOW_COMBINE_ThreeD_Table
 0001:00382218       _TextHdlr_Load_HISO_LUMA_NOISE_COMBINE_ThreeD_Table
 0001:003822E0       _TextHdlr_Load_LOW_ASF_COMBINE_ThreeD_Table
 0001:003823A4       _TextHdlr_Load_HISO_COMBINE_ThreeD_Table
 0001:00382480       _TextHdlr_Save_FPN_Map
 0001:00382590       _TextHdlr_Save_Bypass_FPN_Map
 0001:00382698       _TextHdlr_Save_Vignette
 0001:0038288C       _TextHdlr_Save_Warp_Table
 0001:00382984       _TextHdlr_Save_Ca_Table
 0001:00382A80       _TextHdlr_Save_CC_Reg
 0001:00382B54       _TextHdlr_Save_CC_ThreeD
 0001:00382C18       _TextHdlr_Save_FIRST_SHARPEN_ThreeD_Table
 0001:00382D0C       _TextHdlr_Save_FINAL_SHARPEN_ThreeD_Table
 0001:00382DC8       _TextHdlr_Save_ASF_ThreeD_Table
 0001:00382E8C       _TextHdlr_Save_HISO_ASF_ThreeD_Table
 0001:00382F48       _TextHdlr_Save_HISO_HIGH_ASF_ThreeD_Table
 0001:00383004       _TextHdlr_Save_HISO_LOW_ASF_ThreeD_Table
 0001:003830C0       _TextHdlr_Save_HISO_MED1_ASF_ThreeD_Table
 0001:0038317C       _TextHdlr_Save_HISO_MED2_ASF_ThreeD_Table
 0001:0038323C       _TextHdlr_Save_HISO_LI2ND_ASF_ThreeD_Table
 0001:003832FC       _TextHdlr_Save_HISO_CHROMA_ASF_ThreeD_Table
 0001:003833C0       _TextHdlr_Save_HISO_HIGH_SHARPEN_ThreeD_Table
 0001:00383480       _TextHdlr_Save_HISO_MED_SHARPEN_ThreeD_Table
 0001:00383540       _TextHdlr_Save_HISO_LISO1_SHARPEN_ThreeD_Table
 0001:003835F8       _TextHdlr_Save_HISO_LISO2_SHARPEN_ThreeD_Table
 0001:003836B8       _TextHdlr_Save_HISO_CHROMA_MED_COMBINE_ThreeD_Table
 0001:00383778       _TextHdlr_Save_HISO_CHROMA_LOW_COMBINE_ThreeD_Table
 0001:00383840       _TextHdlr_Save_HISO_CHROMA_VERYLOW_COMBINE_ThreeD_Table
 0001:00383900       _TextHdlr_Save_HISO_LUMA_NOISE_COMBINE_ThreeD_Table
 0001:003839B4       _TextHdlr_Save_LOW_ASF_COMBINE_ThreeD_Table
 0001:00383A7C       _TextHdlr_Save_HISO_COMBINE_ThreeD_Table
 0001:00383B50       _TextHdlr_Save_Jpg
 0001:00383D1C       _TextHdlr_Save_Y
 0001:00383ED8       _TextHdlr_Save_UV
 0001:0038407C       _TextHdlr_Save_YUV
 0001:0038416C       _TextHdlr_Save_and_Load_Dummy
 0001:00384190       TextHdlr_Load_Data
 0001:0038420C       TextHdlr_Save_Data
 0001:00384294       _TextHdlr_load_Ext_file
 0001:0038438C       _TextHdlr_Save_Ext_File
 0001:003844D8       _TextHdlr_Fill_Ext_File_Path
 0001:003865A8       _ux_utility_print
 0001:00386658       a_ux_utility_pr
 0001:00386670       aSCanTCreatePri
 0001:00386698       aSCanTCreateP_0
 0001:003866C4       aUx_print_threa
 0001:003866D4       aSCanTCreateP_1
 0001:003866FC       a_ux_utility__0
 0001:00386718       aSCanTDeletePri
 0001:00386740       a08uUsb
 0001:003869EC       aUsbxInterfaceN
 0001:00386AD8       _ux_utility_free_system_memory
 0001:00386B08       a_ux_utility_fr
 0001:00386B28       aSCanTFree0xXCo
 0001:003870F8       a08uDFullSpeed
 0001:00387110       aUdc_handler_en
 0001:0038712C       aSCanTGetEndpoi
 0001:00387154       aUdc_handler__0
 0001:00387310       _ux_device_stack_class_register
 0001:00387824       aUx_pictbridge_
 0001:00387844       aUx_pictbridg_0
 0001:00387864       aUx_pictbridg_1
 0001:0038787C       _ux_utility_event_flags_get
 0001:00387914       _ux_utility_string_to_unicode
 0001:0038796C       _ux_pictbridge_dpsclient_reset
 0001:00387A30       aFailedToClearD
 0001:00387A54       aFailedToDele_1
 0001:00387A74       aFailToDeleteEv
 0001:00387A90       aFailToDeleteSe
 0001:00387D64       a_ux_device_cla
 0001:00387D8C       aSErrorDuringGe
 0001:00387DC0       aSErrorDuring_0
 0001:00387DF4       aSTxAborted_
 0001:00387E08       aSTxFailed_
 0001:0038809C       aUx_slave_class
 0001:00388378       _ux_device_class_pima_response_send
 0001:00388540       aUndefined
 0001:0038854C       aGeneralError
 0001:0038855C       aSessionNotOpen
 0001:00388570       aInvalidTransac
 0001:00388588       aOperationNotSu
 0001:003885A0       aParameterNotSu
 0001:003885B8       aIncompleteTran
 0001:003885CC       aInvalidStorage
 0001:003885E0       aInvalidObjectH
 0001:003885F8       aDeviceProperty
 0001:00388618       aInvalidObjectF
 0001:00388634       aStorageFull
 0001:00388644       aObjectWritePro
 0001:0038865C       aStorageReadOnl
 0001:00388670       aAccessDeny
 0001:0038867C       aNoThumbnailPre
 0001:00388814       a_ux_device__10
 0001:00388840       aSSetLineStateD
 0001:00388868       aSet_control_li
 0001:00388898       aUdc_cdc_acm_ge
 0001:003888B8       aSInstanceDReac
 0001:00388C88       j__txe_mutex_put
 0001:00388CF4       AmbaIQParamImx117_A9_Get_Adj_Photo_Param
 0001:00388D30       AmbaIQParamImx117_A9_Get_Adj_Still_Low_Iso_param
 0001:00388D6C       AmbaIQParamImx117_A9_Get_Adj_Still_High_Iso_param
 0001:00388DB0       AmbaIQParamImx117_A9_Get_Scene_Data
 0001:00389578       DSP_ImgCoreProcessStaticBadPixelCorrection
 0001:003897B4       DSP_ImgCoreProcessCalcVignetteCompensation
 0001:0038A668       a0123456789ab_0
 0001:0038B21C       nullsub_37
 0001:0038B258       AmbaCalib_CalWarpTable
 0001:0038D894       AmbaCalib_CalTopViewTable
 0001:0038E7B0       nullsub_38
 0001:003A7544       nullsub_53
 0001:003B008C       nullsub_39
 0001:003B28AC       DSP_ImgCoreProcessWbGain
 0001:003B3144       nullsub_65
 0001:003B3160       _AmbaItuner_Is_Video_Preview_Tuning
 0001:003B3188       _AmbaItuner_Check_Filter
 0001:003B54F0       _Ituner_Hook_Dummy_Func
 0001:003B56F0       AmbaItuner_Execute
 0001:003B9EF8       AmbaItuner_Refresh
 0001:003BC674       TUNE_Parser_Create
 0001:003BC708       TUNE_Parser_Add_Reg
 0001:003BC758       TUNE_Parser_Set_Reglist_Valid
 0001:003BC830       TUNE_Parser_Get_Reg
 0001:003BC8EC       TUNE_Parser_Lookup_Reg
 0001:003BC984       TUNE_Parser_Lookup_Param
 0001:003BCB20       TUNE_Parser_Generate_Line
 0001:003BCC98       TUNE_Parser_Get_LineBuf
 0001:003BCD18       TUNE_Parser_Parse_Line
 0001:003C35BC       a0123456789ab_1
 0001:003C3638       _ux_utility_thread_suspend
 0001:003C363C       _ux_utility_thread_delete
 0001:003C392C       _ux_device_stack_descriptor_send
 0001:003C3D40       a_ux_device_s_0
 0001:003C3D64       aSStringConta_0
 0001:003C3D98       aSUnsupportedDe
 0001:003C4884       AmbaUSB_sub_E9C4884
 0001:003C4978       TransferCallback_TransferOutPacket
 0001:003C4C18       AmbaUSB_sub_E9C4C18
 0001:003C5694       _ux_utility_string_length_get
 0001:003C56B4       j__txe_event_flags_set
 0001:003D27BC       nullsub_54
 0001:003D7AD0       aLibopusUnknown
 0001:003E028C       AmbaDSP_ImgSetDeferredBlackLevelInfo
 0001:003E02F0       amba_debug_printf_2
 0001:003E02F8       AmbaDSP_ImgSetDeferredBlackLevel
 0001:003E0BDC       AmbaDSP_ImgGetDeferredBlackLevel
 0001:003E110C       aUsbAmbausb_drv
 0001:003E26FC       a_ux_device_c_0
 0001:003E2728       aSCanTAllocateM
 0001:003E2B34       a_ux_device_c_1
 0001:003E2B5C       aSErrorDuring_1
 0001:003E2B90       aSErrorDuring_2
 0001:003E2BC4       aSTxAborted__0
 0001:003E2BD8       aSTxFailed__0
 0001:003E34A0       a_ux_device_c_2
 0001:003E34CC       aSDataLengthDMa
 0001:003E37F4       a_udc_pima_obje
 0001:003E3814       aSNoCallbackFun
 0001:003E4098       aWrongDataInfoD
 0001:003E40DC       aSendOrGetFunct
 0001:003E4104       aCustomCommandD
 0001:003E498C       nullsub_56
 0001:003E49A4       nullsub_57
 0001:003E6A3C       nullsub_58
 0001:00405214       DSP_ImgCoreProcessDeferredBlackLevel
 0001:004285E8       nullsub_64
 0001:00428DD4       AmbaCaptureJpgGenTask
 0001:0042A1DC       PrepareCleanRawIdspCfg
 0001:0042A57C       PrepareStatisticsCfg
 0001:0042A788       PrepareFastModeFiltersAndIsoCfg
 0001:0042AA2C       PrepareLisoFiltersAndIsoCfg
 0001:0042B018       PrepareHisoFiltersAndIsoCfg
 0001:0042B5E8       AmbaCaptureYuvGenTask
 0001:00431638       AmbaIPC_TestInit
 0001:004317A0       print_paramdata
 0001:004318A4       show_msgblk
 0001:004318DC       rpc_msg_receiver
 0001:00431954       rpc_msg_send
 0001:00431A48       IpcTestEntry
 0001:00431B00       AmbaLink_RPCInit
 0001:00431C8C       AmbaRPC_MSG_Reg_CB
 0001:00431CB4       AmbaRPC_MSG_Send
 0001:00431CF0       R_MSGFW_SEND_FUNC_svc
 0001:00431D3C       RPC_R_MSGFW_Init
 0001:00431E58       RPC_LU_MSGFW_Init
 0001:00431ED0       RPC_LU_MSGFW_Send
 0001:00432D50       IMX117_Enable
 0001:00433908       test_is2_init
 0001:004341BC       test_is2_Rash
 0001:00434838       _video_raw_enc_program_get_raw_id
 0001:00434B60       _yuv_data_post_process
 0001:00434E58       _feed_data_pre_process
 0001:0043506C       test_is2_video_rawenc
 0001:0043A9B4       test_is2_stat
 0001:0043EEDC       test_is2_raw
 0001:0043F044       test_is2_rawenc
 0001:0043F12C       test_is2_lowiso
 0001:0043F2F4       test_is2_ituner
 0001:0043FBE0       pFmt
 0001:0043FBFC       pMode
 0001:004429CC       ishelp
 0001:00442AB0       AmbaIMG_TestCmd
 0001:004430B0       AppCdcAcmd_CreateLogMem
 0001:0044313C       AppCdcAcmd_Task
 0001:004431D0       AppCdcAcmd_RcvTask
 0001:00443280       AppCdcAcmd_Start
 0001:00443484       AppCdcAcmd_Stop
 0001:00443774       AppCdcAcmMultid_LogDump
 0001:0044385C       AppCdcAcmMultid_CalculateLogMemorySize
 0001:004438DC       AppCdcAcmMultid_SendLog
 0001:00443AE0       AppCdcAcmMultid_ReleaseLogMem
 0001:00443B38       AppCdcAcmMultid_CreateLogMem
 0001:00443BDC       AppCdcAcmMultid_SendTask
 0001:00443C80       AppCdcAcmMultid_RecvTask
 0001:00443D74       AppCdcAcmMultid_Start
 0001:004440A0       AppCdcAcmMultid_Stop
 0001:00444364       AmbaHidReportSendTask
 0001:00444400       stck
 0001:00444410       MixStorage_AllocateRamdisk
 0001:00444AD4       AppMtpd_ParseExifObject
 0001:00444E14       AppMtpd_CbObjectNumberGet
 0001:00444EDC       AppMtpd_CbObjectInfoGet
 0001:00444FCC       AppMtpd_CbObjectThumbGet
 0001:00445158       AppMtpd_CbObjectDataGet
 0001:004453A8       AppMtpd_CbObjectInfoSend
 0001:004455FC       AppMtpd_CbObjectDataSend
 0001:004458B4       MTP_AmageDataGet
 0001:00445948       MTP_AmageDataSend
 0001:004459C0       AppMtpd_VendorSetLongDataCommand
 0001:00445AB0       AppMtpd_VendorGetLongDataCommand
 0001:00445BD4       AppMtpd_CbVendorProcess
 0001:00445C8C       AppMtpd_ReAllocDataBuffer
 0001:00445D44       AppMtpd_AllocDataBuffer
 0001:00445E28       AppMtpd_InitSystem
 0001:0044613C       AmbaUSB_MTP_Init
 0001:004462F4       MtpPreParseThreadEntry
 0001:0044642C       AppMtpd_PreParseThreadDestroy
 0001:004464D4       AppMtpd_PreParseThreadCreate
 0001:004466F4       AppMtpd_PreParseBufDoubleCapacity
 0001:00446BD4       AppMtpd_DbGetAttributeFromHandle
 0001:00446C18       AppMtpd_DbDoubleCapacity
 0001:00446D70       AppMtpd_DbAddHandle
 0001:00446EC8       AppMtpd_DbInsertHandle
 0001:00447178       AppMtpd_DbIsObjectHandleValid
 0001:004471EC       AppMtpd_DbGetFileNameFromHandle
 0001:004472A0       AppMtpd_DbGetFilePathFromHandle
 0001:004473EC       AppMtpd_DbGetParentHandle
 0001:00447438       AppMtpd_DbGetNumberOfObjects
 0001:004474E4       AppMtpd_DbFillObjectHandles
 0001:004476E4       AppMtpd_DbScanDirectory
 0001:00447A28       AppMtpd_DbScan
 0001:00447D80       AppMtpd_DbDeleteObject
 0001:004480F8       nullsub_60
 0001:004483C0       AppMtpd_CbDevicePropValueSet
 0001:00448580       AmbaUSB_MSC_DoMount
 0001:00448640       FillPropDesc_ShortNoForm
 0001:004486DC       FillPropDesc_LongNoForm
 0001:00448774       FillPropDesc_ProtectionStatus
 0001:00448874       FillPropDesc_ObjectSize
 0001:00448954       FillPropDesc_ParentObject
 0001:00448A24       FillPropDesc_PersistentUniqueObjectIdentifier
 0001:00448B24       FillPropDesc_NonConsumable
 0001:00448C18       FillPropDesc_UseCount
 0001:00448CE8       FillPropDesc_SampleRate
 0001:00448DEC       FillPropDesc_NumberOfChannels
 0001:00448EFC       FillPropDesc_AudioWaveCodec
 0001:0044900C       FillPropDesc_AudioBitrate
 0001:0044910C       FillPropDesc_AudioDuration
 0001:004491DC       FillPropDesc_Width
 0001:004492DC       FillPropDesc_Height
 0001:004493DC       FillPropDesc_ScanType
 0001:00449554       FillPropDesc_FourCCCodec
 0001:0044964C       FillPropDesc_VideoBitrate
 0001:00449754       FillPropDesc_FramePerThousandSeconds
 0001:00449848       FillPropDesc_KeyFrameDistance
 0001:00449950       FillPropDesc_String
 0001:00449A70       AppMtpd_CbObjectPropDescGet
 0001:00449FD4       AppMtpd_CbObjectPropValueGet
 0001:0044A660       AppMtpd_CheckGroupCode
 0001:0044A854       AppMtpd_FillPropListEmelemtString
 0001:0044A934       AppMtpd_FillPropList
 0001:0044AEB4       AppMtpd_FillPropListAll
 0001:0044B020       AppMtpd_CbObjectPropListGet
 0001:0044B400       AmbaUSB_Class_Pictbridge_SetInfo
 0001:0044B46C       Simple_VendorRequest
 0001:0044BBE4       DjiShlPrintFwHwVersion
 0001:0044BC98       DjiShlSystemPrintLevel
 0001:0044BF10       DjiShlPrintFrequency
 0001:0044C4F0       DjiShlUserSettingsTest
 0001:0044C514       DjiShlMessageTest
 0001:0044C538       DjiShlUegTest
 0001:0044C55C       DjiShlShmooTest
 0001:0044C580       DjiShlLEDTest
 0001:0044C5A4       DjiShlEncryptTest
 0001:0044C5C8       DjiShlPlaybackTest
 0001:0044C5EC       DjiShlAfInterface
 0001:0044C610       DjiShlPrintTemperature
 0001:0044C714       DjiShlSuspendDSP
 0001:0044C980       DjiShlResumeDSP
 0001:0044CA6C       DjiShlSwitchMode
 0001:0044CB4C       DjiShl3aTest
 0001:0044CB5C       DjiShlSystemReboot
 0001:0044CB88       DjiShlPrintMemConfig
 0001:0044CB98       DjiShlMiscROMTest
 0001:0044CC6C       DjiShlFirmwareUpdateTest
 0001:0044CE0C       DjiShlConsoleControl
 0001:0044CE58       DjiShlPrintResetReason
 0001:0044CE68       DjiShlCircularBufTest
 0001:0044D088       DjiShlAutoRebootCtrl
 0001:0044D1BC       DjiShlFlushLog
 0001:0044D1E0       DjiShlHdmiReconnect
 0001:0044D2D8       DjiShlWdgCtrl
 0001:0044D514       DjiShlVodeoOSDTest
 0001:0044D5F4       DjiShlMemoryTest
 0001:0044D770       DjiShlStorageTest
 0001:0044D77C       DjiShlRename
 0001:0044D8F4       DjiShlAfRgbCount
 0001:0044D990       DjiShlAfCfaCount
 0001:0044DA24       DjiShlAfInfo
 0001:0044DB04       DjiShlLogTest
 0001:0044DD64       DjiShlUpdateMAC
 0001:0044DE74       DjiShlAfZone
 0001:0044E0D4       DjiShlCmdInit
 0001:0044E2A8       Print_FS_Dev_INFO
 0001:0044E474       Print_SD_Factoryinfo
 0001:0044E4E0       PrintSDInfo
 0001:0044E74C       DjiTestSD
 0001:0044ECD8       DjiTestGPSUsage
 0001:0044EE2C       DjiTestGPS
 0001:0044F7B0       DjiFileExistChk
 0001:0044F828       DjiTestVideoUsage
 0001:0044F9C8       DjiTestVideo
 0001:00450738       DjiTestCaptureUsage
 0001:00450768       DjiTestCapture
 0001:00450898       DjiTestDCFUsage
 0001:00450944       DjiFileAppendTest
 0001:00450A88       DjiFileWriteTest
 0001:00450CD0       DjiTestDCF
 0001:00451B04       DjiTestBpc
 0001:00451DAC       _tx_initialize_low_level
 0001:00451DB0       __tx_irq_handler
 0001:00451DBC       __tx_fiq_handler
 0001:00451DD0       __tx_irq_handler_0
 0001:004521B0       main
 0001:004521C0       tx_application_define
 0001:00452228       _tx_initialize_kernel_enter
 0001:00452290       _tx_initialize_high_level
 0001:00452364       _tx_trace_initialize
 0001:004523C8       _tx_thread_initialize
 0001:004524AC       _tx_timer_initialize
 0001:00452C10       test_fioprf_randvrfy
 0001:00453668       fioprf_test_thruput_all
 0001:0045435C       test_fioprf_thruput
 0001:00454758       test_sd_read_sector
 0001:00454C2C       test_sd_write_sector
 0001:00455C4C       test_sd_max_freq
 0001:00456998       test_sd
 0001:00456B7C       sd_delay_crtl_criteria
 0001:004579D8       data_output_delay_start
 0001:00457AEC       test_sd_shmoo
 0001:00458444       _ux_device_class_uvc_entry
 0001:004584C4       a_ux_device__11
 0001:004584E0       aSClassDCodeDoe
 0001:00458554       _ux_device_class_uvc_initialize
 0001:0045872C       a_ux_device_c_3
 0001:0045874C       aSCanTAllocateS
 0001:00458774       aUx_device_clas
 0001:00458798       aUx_slave_cla_0
 0001:004587B4       aSCanTCreateThr
 0001:004587D0       aSCanTAllocat_0
 0001:00458800       aUvc_event_thre
 0001:0045881C       aSCanTCreateEve
 0001:00458840       aUvc_event_th_0
 0001:00458854       aSCanTCreateE_0
 0001:00458878       _ux_device_class_uvc_reset
 0001:00458984       a_ux_device__12
 0001:004589A0       aSCanTDeleteUvc
 0001:004589C4       aSDeleteUvcSema
 0001:004589F4       aSCanTDeleteU_0
 0001:00458A20       aSDeleteUvcEven
 0001:00458A54       _ux_device_class_uvc_activate
 0001:00458B30       uvc_it_process_exposure_time_absolute_control
 0001:00458C3C       uvc_it_process_auto_exposure_mode_control
 0001:00458D68       uvc_process_request_it
 0001:00458DFC       process_request_error_code_control
 0001:00458E70       process_power_mode_control
 0001:00458F00       process_video_control_request
 0001:00458F48       process_video_streaming_request
 0001:00458F90       uvc_process_request_oc
 0001:00458FD0       uvc_pu_process_brightness_control
 0001:004590F0       uvc_pu_process_contrast_control
 0001:00459204       uvc_pu_process_hue_control
 0001:0045932C       uvc_pu_process_sharpness_control
 0001:00459454       uvc_pu_process_saturation_control
 0001:00459568       uvc_pu_process_powerline_control
 0001:004596C4       _ux_device_class_uvc_control_request
 0001:00459850       _ux_utility_thread_resume
 0001:00459A8C       config_uvc_probe_control
 0001:00459B74       process_probe_control
 0001:00459C28       aUvcFormatDFram
 0001:00459C4C       aWarningConfig_
 0001:00459C98       aWarningConfi_0
 0001:00459CE4       aProcess_probe_
 0001:00459D18       process_commit_control
 0001:00459DA0       aProcess_commit
 0001:00459E4C       ux_slave_class_storage_thread
 0001:00459FA4       aUx_slave_cla_1
 0001:0045A004       aDeleteThreadFa
 0001:0045A53C       _ux_device_class_storage_thread
 0001:0045AA74       a_ux_device_c_4
 0001:0045AA94       aSReceiveLength
 0001:0045AAB8       aSSignaureError
 0001:0045AAD0       aSReceiveTimeou
 0001:0045AAF4       aSCanTReceiveDa
 0001:0045B9AC       aMscMmcModeSens
 0001:0045BD14       _ux_device_class_storage_start_stop
 0001:0045BDC8       a_ux_device__13
 0001:0045BDEC       aSNoActionForDi
 0001:0045BE10       aSNoActionForEn
 0001:0045C478       aMscReadCdFaile
 0001:0045CF24       ClassMtp_VendorRequest
 0001:0045CF98       delete_interrupt_thread
 0001:0045D02C       _ux_device_class_pima_reset
 0001:0045D0A4       aDelete_interru
 0001:0045D0BC       aSCanTDeleteInt
 0001:0045D0F0       aSDeletePimaInt
 0001:0045D128       a_ux_device__14
 0001:0045D144       aSCanTDeletePim
 0001:0045D16C       aSEventArrayIsN
 0001:0045D224       _ux_device_class_pima_control_request
 0001:0045D3E4       a_ux_device_c_5
 0001:0045D40C       aSCancelWlength
 0001:0045D428       aSCanTGetDataFo
 0001:0045D45C       aSResetWlengthD
 0001:0045D474       aSCanTGetData_0
 0001:0045D4A8       aSUnknownComman
 0001:0045D4D0       _ux_device_class_simple_entry
 0001:0045D580       a_ux_device_c_9
 0001:0045D5A0       aSCommandD
 0001:0045D5B4       aSClassDCodeD_0
 0001:0045D5DC       _ux_device_class_simple_initialize
 0001:0045D6D8       a_ux_device__15
 0001:0045D6FC       aSCanTAlloca_14
 0001:0045D72C       aUx_slave_cl_10
 0001:0045D74C       aUx_slave_cl_11
 0001:0045D804       _ux_device_class_simple_control_request
 0001:0045D8A4       a_ux_device_c_6
 0001:0045D8CC       aSDonTSupportSt
 0001:0045DA20       TransferRequest_TxProcess_SetDesc
 0001:0045DCFC       TransferRequest_TxControlInProcess
 0001:0045E220       aUsbxEpDRxError
 0001:0045E268       a0xXRxSemaOutEr
 0001:0045E2B8       aUsbxEpDRxErr_0
 0001:0045E4B8       ux_slave_class_cdc_acm_in_mutex
 0001:0045E54C       aUx_slave_cl_12
 0001:0045E56C       aUx_slave_cl_13
 0001:0045E628       _ux_device_class_cdc_acm_reset
 0001:0045E6AC       a_ux_device__16
 0001:0045E6CC       aSCanTDeleteInM
 0001:0045E6F4       aSCanTDeleteOut
 0001:0045E798       ux_slave_class_thread
 0001:0045E8BC       aUx_slave_cla_2
 0001:0045E8D4       aUx_device_cl_0
 0001:0045EACC       aHidDeleteThrea
 0001:0045EAF0       aHidDeleteThr_0
 0001:0045ED08       _ux_device_class_hid_event_get
 0001:0045F098       a08uStartNative
 0001:0045F0B4       a08uCloseNative
 0001:0045F0F0       _ux_device_class_stream_deactivate
 0001:0045F168       a_ux_device__17
 0001:0045F18C       aDeactiveEp0xXI
 0001:00461F04       ambsh_cardmgr
 0001:004628A8       ambsh_cat
 0001:00462BC0       ambsh_cd
 0001:004636AC       ambsh_chmod
 0001:004637AC       ambsh_cleandir
 0001:004638F4       ambsh_date_usage
 0001:00463918       ambsh_date
 0001:00463CA0       ambsh_dmesg
 0001:00464048       ambsh_echo
 0001:0046446C       aW
 0001:00464470       ambsh_firmfl
 0001:00464598       ambsh_format
 0001:004646E8       ambsh_help
 0001:004647A4       nullsub_40
 0001:00464C74       ambsh_ls
 0001:00464F60       ambsh_mkdir
 0001:00465134       ambsh_nftl_read_sector
 0001:004655C0       ambsh_nftl_write_sector
 0001:00465954       ambsh_nftl_verify_sector
 0001:00465F14       ambsh_nftl_pread
 0001:004664C0       ambsh_nftl_pwrite
 0001:00466954       aStg_0
 0001:00466980       aM
 0001:00466984       aMe
 0001:00466988       aS_21
 0001:0046698C       aInc
 0001:00466990       aDec_1
 0001:00466994       ambsh_nftl_erase
 0001:00466B10       ambsh_nftl_erase_lba
 0001:00466CFC       ambsh_nftl_thruput
 0001:00467340       ambsh_nftl_init
 0001:00467534       ambsh_nftl_deinit
 0001:00467708       ambsh_nftl_get_status
 0001:004679D0       ambsh_nftl_reclaim_bb
 0001:00467C40       ambsh_nftl_bbm
 0001:00468160       ambsh_nftl_log2phy
 0001:00468544       ambsh_nftl_phy2log
 0001:004688F0       ambsh_nftl_used_lba
 0001:00468B6C       ambsh_nftl_unused_pba
 0001:00468DC0       ambsh_nftl_usage
 0001:00468E4C       ambsh_nftl
 0001:00469170       ambsh_ps
 0001:004692DC       ambsh_pwd
 0001:0046930C       aS_28
 0001:004694CC       ambsh_writeb
 0001:004694F4       ambsh_writew
 0001:0046951C       ambsh_writel
 0001:00469544       ambsh_readb
 0001:0046956C       ambsh_readw
 0001:00469594       ambsh_readl
 0001:004695DC       ambsh_reboot
 0001:00469640       aYes
 0001:00469670       ambsh_rm
 0001:00469914       ambsh_savebin
 0001:00469B88       ambsh_sleep
 0001:00469BFC       ambsh_suspend
 0001:00469CAC       ambsh_true
 0001:00469CDC       ambsh_vol
 0001:0046BE88       nullsub_61
 0001:0046C1D0       nullsub_62
 0001:0046C8D4       nullsub_41
 0001:00475730       nullsub_42
 0001:004815D0       _ux_pictbridge_xml_function_input_getcapability_capability_layouts
 0001:00481700       _ux_pictbridge_xml_function_input_getcapability_capability_papertypes
 0001:0048178C       _ux_pictbridge_xml_function_input_notifydevicestatus_capabilitychanged
 0001:004817DC       _ux_pictbridge_xml_function_input_notifydevicestatus_disconnectenable
 0001:0048182C       _ux_pictbridge_xml_function_input_notifydevicestatus_dpsprintservicestatus
 0001:00481888       _ux_pictbridge_xml_function_input_notifydevicestatus_errorreason
 0001:0048192C       _ux_pictbridge_xml_function_input_notifydevicestatus_errorstatus
 0001:00481988       _ux_pictbridge_xml_function_input_notifydevicestatus_jobendreason
 0001:004819FC       _ux_pictbridge_xml_function_input_notifydevicestatus_newjobok
 0001:00481A4C       _ux_pictbridge_xml_function_input_startjob
 0001:00481AA8       _ux_pictbridge_xml_function_input_startjob_jobconfig_cropping
 0001:00481AD8       _ux_pictbridge_xml_function_input_startjob_jobconfig_dateprint
 0001:00481B08       _ux_pictbridge_xml_function_input_startjob_jobconfig_filenameprint
 0001:00481B38       _ux_pictbridge_xml_function_input_startjob_jobconfig_filetype
 0001:00481B68       _ux_pictbridge_xml_function_input_startjob_jobconfig_fixedsize
 0001:00481B98       _ux_pictbridge_xml_function_input_startjob_jobconfig_imageoptimize
 0001:00481BC8       _ux_pictbridge_xml_function_input_startjob_jobconfig_layout
 0001:00481BF8       _ux_pictbridge_xml_function_input_startjob_jobconfig_papersize
 0001:00481C28       _ux_pictbridge_xml_function_input_startjob_jobconfig_papertype
 0001:00481C58       _ux_pictbridge_xml_function_input_startjob_jobconfig_quality
 0001:00481CEC       _ux_pictbridge_xml_function_input_startjob_printinfo_copies
 0001:00481DB4       _ux_pictbridge_xml_function_input_startjob_printinfo_copyid
 0001:00481DE8       _ux_pictbridge_xml_function_input_startjob_printinfo_croppingarea
 0001:00481F28       _ux_pictbridge_xml_function_input_startjob_printinfo_date
 0001:00481F68       _ux_pictbridge_xml_function_input_startjob_printinfo_fileid
 0001:00481F9C       _ux_pictbridge_xml_function_input_startjob_printinfo_filename
 0001:00481FDC       _ux_pictbridge_xml_function_input_startjob_printinfo_filepath
 0001:0048201C       _ux_pictbridge_xml_function_input_startjob_printinfo_prtpid
 0001:00482050       _ux_pictbridge_xml_function_null
 0001:00482058       _ux_pictbridge_xml_function_output_getcapability_capability_croppings
 0001:0048207C       _ux_sub_EA8207C
 0001:00482178       _ux_pictbridge_xml_function_output_getcapability_capability_dateprints
 0001:0048219C       _ux_pictbridge_xml_function_output_getcapability_capability_filenameprints
 0001:004821C0       _ux_pictbridge_xml_function_output_getcapability_capability_filetypes
 0001:004821E4       _ux_pictbridge_xml_function_output_getcapability_capability_fixedsizes
 0001:00482208       _ux_pictbridge_xml_function_output_getcapability_capability_imageoptimizes
 0001:0048222C       _ux_pictbridge_xml_function_output_getcapability_capability_layouts
 0001:00482250       _ux_pictbridge_xml_function_output_getcapability_capability_papersizes
 0001:00482270       _ux_pictbridge_xml_function_output_getcapability_capability_papertypes
 0001:00482290       _ux_pictbridge_xml_function_output_getcapability_capability_qualities
 0001:004822B0       _ux_pictbridge_xml_function_output_getdevicestatus_capabilitychanged
 0001:00482300       _ux_pictbridge_xml_function_output_getdevicestatus_disconnectenable
 0001:00482350       _ux_pictbridge_xml_function_output_getdevicestatus_dpsprintservicestatus
 0001:004823AC       _ux_pictbridge_xml_function_output_getdevicestatus_errorreason
 0001:00482450       _ux_pictbridge_xml_function_output_getdevicestatus_errorstatus
 0001:004824AC       _ux_pictbridge_xml_function_output_getdevicestatus_jobendreason
 0001:00482520       _ux_pictbridge_xml_function_output_getdevicestatus_newjobok
 0001:00482570       _ux_pictbridge_xml_function_output_result
 0001:004825A0       _ux_pictbridge_xml_function_root_dps
 0001:00482634       _ux_pictbridge_xml_function_root_input
 0001:00482644       _ux_pictbridge_xml_function_root_output
 0001:00482654       _ux_pictbridge_xml_function_root_xml
 0001:00483018       notifyDeviceStatus
 0001:00483740       _tx_thread_shell_entry
 0001:00483810       _tx_thread_timeout
 0001:00483934       _ux_device_class_uvc_thread
 0001:00483994       _udc_uvc_event_thread
 0001:004839DC       a_ux_device__18
 0001:004839F8       aSWaitSemaphore
 0001:00483A1C       a_udc_uvc_event
 0001:00483AE8       aUsbxCanTSendHi
 0001:00483C80       init_vfpv3
 0001:00487FE4       aRr
 0001:0048C8EE       aR_9
 0001:0048C8F0       a2_10
 0001:0048C8F2       a4_0
 0001:0048C8F4       a5_0
 0001:0048C8F6       a8_0
 0001:0048C8F8       a9
 0001:0048C8FA       a3_3
 0001:0048C900       aS_26
 0001:0048C902       aL
 0001:0048C904       aD_5
 0001:0048C906       aM_0
 0001:0048C908       aP
 0001:0048C914       aT_0
 0001:0048E825       aSuccess_3
 0001:0048E82D       aInvalidArgum_0
 0001:0048E83E       aBufferTooSmall
 0001:0048E84F       aInternalError
 0001:0048E85E       aCorruptedStrea
 0001:0048E86F       aRequestNotImpl
 0001:0048E887       aInvalidState
 0001:0048E895       aMemoryAllocati
 0001:0048E8B4       aEmpty_0
 0001:0048E8B5       aEmpty_1
 0001:0048E8B6       aEmpty_2
 0001:0049298C       aSystem_0
 0001:0049310C       aDeferred_black
 0001:006B69D4       aAmbademo
 0001:006B84E4       aFc300x_1
 0001:006B8504       aDji
 0001:006B8524       aV01_30_5036_2
 0001:006BA15C       aAmba_dsp_img_a
 0001:006BA18C       aO_mode_liso
 0001:006BA1AC       aO_mode_hiso
 0001:006BA1BC       aAmba_dsp_yuv42
 0001:006BA1CC       aAmba_dsp_yuv_0
 0001:006BE244       aTtt
 0001:006BE274       aDdd
 0001:006BE27C       aA_0
 0001:006BE27E       aA_1
 0001:006BE2A4       aXx
 0001:006BE2AC       a2_0
 0001:006BE424       aTtt_0
 0001:006BE454       aDdd_0
 0001:006BE45C       aA_2
 0001:006BE45E       aA_3
 0001:006BE484       aXx_0
 0001:006BE48C       a2_1
 0001:006BFA68       aDddd
 0001:006BFA98       aDddd_0
 0001:006BFAC8       aDddd_1
 0001:006BFAF8       aDddd_2
 0001:006BFB28       aDddd_3
 0001:006BFB58       aDddd_4
 0001:006BFB88       aDddd_5
 0001:006BFBB8       aDddd_6
 0001:006BFBE8       aDddd_7
 0001:006BFC18       aDddd_8
 0001:006BFCEC       aLlllldddd
 0001:006BFD1C       aLlllldddd_0
 0001:006BFD4C       aLlllldddd_1
 0001:006BFD7C       aLlllldddd_2
 0001:006BFDAC       aLlllldddd_3
 0001:006BFDDC       aLlllldddd_4
 0001:006C9A00       aA_4
 0001:006C9A02       aA_5
 0001:006C9A04       aA_6
 0001:006C9A06       aA_7
 0001:006C9A08       aA_8
 0001:006CC800       aTtt_1
 0001:006CC830       aDdd_1
 0001:006CC838       aA_9
 0001:006CC83A       aA_10
 0001:006CC860       aXx_1
 0001:006CC868       a2_2
 0001:006CC9E0       aTtt_2
 0001:006CCA10       aDdd_2
 0001:006CCA18       aA_11
 0001:006CCA1A       aA_12
 0001:006CCA40       aXx_2
 0001:006CCA48       a2_3
 0001:006CE024       aDddd_9
 0001:006CE054       aDddd_10
 0001:006CE084       aDddd_11
 0001:006CE0B4       aDddd_12
 0001:006CE0E4       aDddd_13
 0001:006CE114       aDddd_14
 0001:006CE144       aDddd_15
 0001:006CE174       aDddd_16
 0001:006CE1A4       aDddd_17
 0001:006CE1D4       aDddd_18
 0001:006CE2A8       aLlllldddd_5
 0001:006CE2D8       aLlllldddd_6
 0001:006CE308       aLlllldddd_7
 0001:006CE338       aLlllldddd_8
 0001:006CE368       aLlllldddd_9
 0001:006CE398       aLlllldddd_10
 0001:006D7A1C       aY
 0001:006D7A22       aA_13
 0001:006D7A24       aA_14
 0001:006D7A4C       aR
 0001:006D7A52       aA_15
 0001:006D7A54       aA_16
 0001:006D7A7C       aK
 0001:006D7A82       aA_17
 0001:006D7A84       aA_18
 0001:006D7AAC       aD_3
 0001:006D7AB2       aA_19
 0001:006D7ADC       aZ
 0001:006D7AE2       aA_20
 0001:006D7B0C       aP_0
 0001:006D7B12       aA_21
 0001:006D7B14       aZ_0
 0001:006D7B3C       aP_1
 0001:006D7B42       aA_22
 0001:006D7B44       aX
 0001:006D7B6C       aP_2
 0001:006D7B72       aA_23
 0001:006D7B74       aX_0
 0001:006D7B9C       aP_3
 0001:006D7BA2       aA_24
 0001:006D7BA4       aX_1
 0001:006D7BCC       aP_4
 0001:006D7BD2       aA_25
 0001:006D7BD4       aX_2
 0001:006D7BFC       aP_5
 0001:006D7C02       aA_26
 0001:006D7C04       aX_3
 0001:006DAC9C       aDd
 0001:006FACA8       aPppp
 0001:006FACD8       aPppp_0
 0001:006FAD08       aPppp_1
 0001:006FAD38       aPppp_2
 0001:006FAD68       aPppp_3
 0001:006FC5DC       aR_0
 0001:006FC60C       aR_1
 0001:006FC63C       aR_2
 0001:006FC66C       aR_3
 0001:006FC78C       aR_4
 0001:006FC7BC       aR_5
 0001:006FC7EC       aR_6
 0001:006FC81C       aR_7
 0001:006FC84C       aR_8
 0001:007062A0       aA_27
 0001:007062A4       aA_28
 0001:007062A6       aA_29
 0001:007062A8       aA_30
 0001:00706300       aA_31
 0001:00706304       aA_32
 0001:00706306       aA_33
 0001:00706308       aA_34
 0001:00706360       aA_35
 0001:00706364       aA_36
 0001:00706366       aA_37
 0001:00706368       aA_38
 0001:007063C0       aA_39
 0001:007063C4       aA_40
 0001:007063C6       aA_41
 0001:007063C8       aA_42
 0001:00706420       aA_43
 0001:00706424       aA_44
 0001:00706426       aA_45
 0001:00706428       aA_46
 0001:00706480       aA_47
 0001:00706484       aA_48
 0001:00706486       aA_49
 0001:00706488       aA_50
 0001:007064E0       aA_51
 0001:007064E4       aA_52
 0001:007064E6       aA_53
 0001:007064E8       aA_54
 0001:00706540       aA_55
 0001:00706544       aA_56
 0001:00706546       aA_57
 0001:00706548       aA_58
 0001:007065A0       aA_59
 0001:007065A4       aA_60
 0001:007065A6       aA_61
 0001:007065A8       aA_62
 0001:00706600       aA_63
 0001:00706604       aA_64
 0001:00706606       aA_65
 0001:00706608       aA_66
 0001:00709520       aA_67
 0001:00709528       aA_68
 0001:0070952A       aA_69
 0001:00709550       aCkc
 0001:00709558       aA_70
 0001:0070955A       aA_71
 0001:00709580       aCkc_0
 0001:00709588       aA_72
 0001:0070958A       aA_73
 0001:00709700       aA_74
 0001:00709708       aA_75
 0001:0070970A       aA_76
 0001:00709730       aCkc_1
 0001:00709738       aA_77
 0001:0070973A       aA_78
 0001:00709760       aCkc_2
 0001:00709768       aA_79
 0001:0070976A       aA_80
 0001:007170BC       aA_81
 0001:007170C4       aA_82
 0001:007170C6       aA_83
 0001:007170EC       aCkc_3
 0001:007170F4       aA_84
 0001:007170F6       aA_85
 0001:0071711C       aCkc_4
 0001:00717124       aA_86
 0001:00717126       aA_87
 0001:0071729C       aA_88
 0001:007172A4       aA_89
 0001:007172A6       aA_90
 0001:007172CC       aCkc_5
 0001:007172D4       aA_91
 0001:007172D6       aA_92
 0001:007172FC       aCkc_6
 0001:00717304       aA_93
 0001:00717306       aA_94
 0001:00724A48       aTtt_3
 0001:00724A78       aDdd_3
 0001:00724A80       aA_95
 0001:00724A82       aA_96
 0001:00724AD8       aQq
 0001:00724C28       aTtt_4
 0001:00724C58       aDdd_4
 0001:00724C60       aA_97
 0001:00724C62       aA_98
 0001:00724CB8       aQq_0
 0001:00732B54       aTtt_5
 0001:00732B84       aDdd_5
 0001:00732BB4       aXx_3
 0001:00732BBC       a2_4
 0001:00732D34       aTtt_6
 0001:00732D64       aDdd_6
 0001:00732D94       aXx_4
 0001:00732D9C       a2_5
 0001:00740C60       aTtt_7
 0001:00740C90       aTtt_8
 0001:00740CC0       aXxx
 0001:00740CF0       aXxx_0
 0001:00740E40       aTtt_9
 0001:00740E70       aTtt_10
 0001:00740EA0       aXxx_1
 0001:00740ED0       aXxx_2
 0001:00783D84       aDdd_7
 0001:00783DB4       aDdd_8
 0001:00783DE4       aDdd_9
 0001:00783E14       aDdd_10
 0001:00783E44       aDdd_11
 0001:00784234       aDdd_12
 0001:00784264       aDdd_13
 0001:00784294       aDdd_14
 0001:007842C4       aDdd_15
 0001:007842F4       aDdd_16
 0001:00786084       test_lists
 0001:0078608C       aUbi_mtd8RootUb
 0001:007860DC       a23697071727374
 0001:0078AF14       aSuperviewwarpt
 0001:0078B024       aSuperviewwar_0
 0001:0078B184       aSuperviewwar_1
 0001:0078B294       aSuperviewwar_2
 0001:0078C0D0       AmbaDSP_ImgArchConfig
 0001:00790DC8       aAmbacam_rev
 0001:00791CF8       aFpn_highlight
 0001:00792DD8       aAe_op
 0001:00793018       aEv_index
 0001:00793888       aLuma_index
 0001:00793B58       aAe_tile_num__2
 0001:00793FD8       aAwb_tile_num_2
 0001:00794578       aAf_tile_num__2
 0001:007949F8       aEnable_7
 0001:00795028       aEnable_8
 0001:007952F8       aEnable_9
 0001:00795BF8       aEnable_10
 0001:00795DA8       aEnable_11
 0001:00796618       aWarp_control
 0001:00797548       aEnable_12
 0001:00797D28       aEnable_13
 0001:007986B8       aHorz_warp_en_0
 0001:00798E98       aSensor_id
 0001:007990D8       aR_black
 0001:00799318       aEnable_14
 0001:007993A8       aEnable_15
 0001:007995E8       aEnable_16
 0001:00799948       aEnable_17
 0001:0079A368       aEnable_18
 0001:0079A3F8       aGain_0
 0001:0079A488       aR_gain
 0001:0079A638       aLevel_red
 0001:0079A878       aEnable_19
 0001:0079AC68       aReg_path
 0001:0079AD88       aCurve_red
 0001:0079B5F8       aEnable_20
 0001:0079B718       aEnable_21
 0001:0079BB08       aActivity_thr_0
 0001:0079BF88       aNarrow_enable
 0001:0079C1C8       aEnable_22
 0001:0079CB58       aFir_specify
 0001:0079D4E8       aFir_specify_0
 0001:0079D8D8       aCoring_table
 0001:0079D968       aHigh_0
 0001:0079DDE8       aEnable_23
 0001:0079F4F8       aY_temporal_m_0
 0001:007A0428       aEnable_24
 0001:007A0548       aEnable_25
 0001:007A05D8       aUse_1st_sharpe
 0001:007A0668       aStrength
 0001:007A06F8       aEnable_26
 0001:007A20D8       aEnable_27
 0001:007A37E8       aEnable_28
 0001:007A3B48       aEdge_start_cb
 0001:007A3D88       aEnable_29
 0001:007A4058       aT0_cb
 0001:007A63C8       aT0_cb_0
 0001:007A8228       aEnable_30
 0001:007A82B8       aLuma_high
 0001:007A8738       aFir_specify_1
 0001:007A98BC       aAmbarell
 0001:007A98C8       aA9DscEvkPlatfo
 0001:007A98DC       a1000
 0001:007A98F0       aAmbarell_0
 0001:007A98FC       aA9DscEvkPlat_0
 0001:007A9910       a1000_0
 0001:007A9924       aAmbarella_0
 0001:007A9930       aA9MtpDevice_0
 0001:007A9940       a1_0_0_0
 0001:007A9948       aV1_0
 0001:007A9950       aA9MtpClientDis
 0001:007A996C       aA9MtpClientSdS
 0001:007A9A34       aCAmba_mtp_txt
 0001:007A9A44       aAmbarella_1
 0001:007A9A50       aA9_dsc_platfor
 0001:007A9A60       a6668828
 0001:007A9C70       aStatus_3
 0001:007B4D40       aFc300x_2
 0001:007B8324       aDji_app_0
 0001:007B9FA4       aJ
 0001:007BA638       firmwares
 0001:007BBE75       aP3x_fw_v___bin
 0001:007BBEB5       aP3x_fw_vD_D_D_bin
 0001:007BBEF6       aP3x_fw_v____bin
 0001:007BBF36       aP3x_fw_vD_D_D___bin
 0001:007BBFF8       aP3x
 0001:007BC0A8       dji_ust_properties
 0001:007BC634       aCa9_0
 0001:007BC654       aCode
 0001:007BC6B4       _AmbaSysLogCtrl__State
 0001:007BC78C       _AmbaRTC_DaysOfMonth
 0001:007BC850       aD_4
 0001:007BD43C       _TestSpiConfig
 0001:007BD448       _TestSpiProtocol
 0001:007BD51C       aBbt23tbb
 0001:007BF150       a2014AmbarellaU
 0001:007F41E0       aUx_slave_cla_8
 0001:007F41F8       aUx_slave_cla_5
 0001:007F4210       aUx_slave_cla_4
 0001:007F4224       aUx_slave_cla_3
 0001:007F4238       aUx_slave_cla_9
 0001:007F4250       aUx_slave_cla_7
 0001:007F4264       aExpressl
 0001:007F4270       _ux_system_slave_class_storage_product_id
 0001:007F4284       a2001
 0001:007F4318       aCopyrightC1996
 0001:007F4380       _tx_thread_system_state
 0001:007F4384       _ux_pictbridge_xml_item_input_getfilelist
 0001:007F44C4       _ux_pictbridge_xml_item_output_getfilelist
 0001:007F45B4       _ux_pictbridge_xml_item_input_getpartialfile
 0001:007F46F4       _ux_pictbridge_xml_item_output_getpartialfile
 0001:007F4794       _ux_pictbridge_xml_item_input_getfile
 0001:007F4834       _ux_pictbridge_xml_item_output_getfile
 0001:007F48D4       _ux_pictbridge_xml_item_input_getthumb
 0001:007F4974       _ux_pictbridge_xml_item_output_getthumb
 0001:007F4A14       _ux_pictbridge_xml_item_input_getfileinfo
 0001:007F4AB4       _ux_pictbridge_xml_item_output_getfileinfo
 0001:007F4C44       _ux_pictbridge_xml_item_input_getfileid
 0001:007F4D34       _ux_pictbridge_xml_item_output_getfileid
 0001:007F4E24       _ux_pictbridge_xml_item_input_notifydevicestatus
 0001:007F50A4       _ux_pictbridge_xml_item_input_notifyjobstatus
 0001:007F5284       _ux_pictbridge_xml_item_input_abortjob
 0001:007F5324       _ux_pictbridge_xml_item_input_startjob_jobconfig
 0001:007F5694       _ux_pictbridge_xml_item_input_startjob_printinfo
 0001:007F5964       _ux_pictbridge_xml_item_input_startjob
 0001:007F5A54       _ux_pictbridge_xml_item_output_getdevicestatus
 0001:007F5CD4       _ux_pictbridge_xml_item_output_getjobstatus
 0001:007F5EB4       _ux_pictbridge_xml_item_input_getcapability_capability
 0001:007F6274       _ux_pictbridge_xml_item_input_getcapability
 0001:007F6314       _ux_pictbridge_xml_item_output_getcapability_capability
 0001:007F66D4       _ux_pictbridge_xml_item_output_getcapability
 0001:007F6774       _ux_pictbridge_xml_item_input_configureprintservice
 0001:007F6954       _ux_pictbridge_xml_item_output_configureprintservice
 0001:007F6B84       _ux_pictbridge_xml_item_input
 0001:007F7084       _ux_pictbridge_xml_item_output
 0001:007F75D4       _ux_pictbridge_xml_item_root
 0001:007F7764       aDdiscvry_dps
 0001:007F7774       aHdiscvry_dps
 0001:007F7784       aDrequest_dps
 0001:007F7794       aDrsponse_dps
 0001:007F77A4       aPimaClientStorageVolume
 0001:007F77C0       aPimaClientSt_0
 0001:007F77DC       aXmlVersion1_0
 0001:007F77F0       aDpsXmlnsHttpWw
 0001:007F781C       aDps
 0001:007F7820       aOutput_0
 0001:007F7828       aInput
 0001:007F7830       aResult
 0001:007F7838       aConfigureprint
 0001:007F7850       aDpsversions
 0001:007F785C       aVendorname
 0001:007F7868       aVendorspecific
 0001:007F7880       aProductname
 0001:007F788C       aSerialno
 0001:007F7898       aCapability
 0001:007F78A4       aGetcapability
 0001:007F78B4       aQualities
 0001:007F78C0       aPapersizes
 0001:007F78CC       aPapertypes
 0001:007F78D8       aFiletypes
 0001:007F78E4       aDateprints
 0001:007F78F0       aFilenameprints
 0001:007F7900       aImageoptimizes
 0001:007F7910       aLayouts
 0001:007F7918       aFixedsizes
 0001:007F7924       aCroppings
 0001:007F7930       aCharrepertoire
 0001:007F7940       aGetdevicestatu
 0001:007F7950       aNotifydevicest
 0001:007F7964       aNotifyjobstatu
 0001:007F7974       aStartjob
 0001:007F7980       aAbortjob
 0001:007F798C       aContinuejob
 0001:007F7998       aQuality
 0001:007F79A0       aPapersize_0
 0001:007F79AC       aPapertype
 0001:007F79B8       aFiletype
 0001:007F79C4       aDateprint
 0001:007F79D0       aFilenameprint
 0001:007F79E0       aImageoptimize
 0001:007F79F0       aLayout
 0001:007F79F8       aJobconfig
 0001:007F7A04       aPrintinfo
 0001:007F7A10       aFileid
 0001:007F7A18       aFilename
 0001:007F7A24       aDate
 0001:007F7A2C       aPapersize
 0001:007F7A38       aVersion
 0001:007F7A40       aXmlns
 0001:007F7A48       aHttpWww_cipa_j
 0002:00001CB0       aStgStg2IdxPrfC
 0002:00001CDC       ambsh_nftl_list
 0002:00003868       aMicrosoft_com1
 0002:00021BA0       aSyvzsyvz
 0002:00022EC0       aLkkk
 0002:00022ECC       aSss
 0002:00022EE0       aTItMM
 0002:00022F28       aIiiiSsslkkkQuu
 0002:00022F64       aYvzYvzYvzYvzYv
 0002:00022F98       aYvz
 0002:00023820       aFjEF
 0002:00023830       aFjE
 0002:000245EC       a98765443210_
 0002:000247EC       aSg
 0002:00025120       a98765443210__0
 0003:000ED700       SdHostAmb
 0004:00000000       unused_after_end
 0004:0143A46C       _DjiDspImgFirData
 0004:018F6850       _printk_buf
 0004:02FC1D8C       _DSP_StillCapMem
 0004:02FC1EFC       _DSP_VideoTuningMem
 0004:02FC1F18       _DSP_TotalCacheMemSize
 0004:02FC1F1C       _DSP_TotalNonCachedMemSize
 0004:02FC1F20       _DSP_TotalUsedNonCachedMem
 0004:02FC1F24       _UserCameraMode_Buf

Program entry point at 0001:00000000
