
 Start         Length     Name                   Class
 0001:00000000 000001780H LOAD                   CODE
 0003:00000000 000000008H .init                  CODE
 0004:00000000 000000560H .plt                   CODE
 0005:00000000 000006E60H .text                  CODE
 0006:00000000 000000008H .fini                  CODE
 0007:00000000 000003878H .rodata                CONST
 0008:00000000 000000004H .eh_frame              CONST
 0009:00000000 000000004H .init_array            DATA
 000A:00000000 000000004H .fini_array            DATA
 000B:00000000 000000004H .jcr                   DATA
 0002:00000000 000000100H LOAD                   DATA
 000C:00000000 0000001C8H .got                   DATA
 000D:00000000 000001FE8H .data                  DATA
 000E:00000000 000000240H .bss                   BSS
 000F:00000000 000000000H .prgend                .prgend


  Address         Publics by Value

 0001:00010114       aLibLdMuslArmhf
 0001:0001012C       elf_hash_nbucket
 0001:00010130       elf_hash_nchain
 0001:00010134       elf_hash_bucket
 0001:000102B8       elf_hash_chain
 0001:00010C69       aLibdumlUtilSo
 0001:00010C79       aBind
 0001:00010C7E       aRegisterFrameI
 0001:00010C94       aStrftime
 0001:00010C9D       aErrnoLocation
 0001:00010CAE       aClockGettime
 0001:00010CBC       aSystem
 0001:00010CC3       aUsleep
 0001:00010CCA       aMemcpy
 0001:00010CD1       aJvRegisterclas
 0001:00010CE5       aFini
 0001:00010CEB       aGettimeofday
 0001:00010CF8       aDussLogDumpBac
 0001:00010D10       aMalloc
 0001:00010D17       aStrncmp
 0001:00010D1F       aDussLogPrint
 0001:00010D2E       aStrlen
 0001:00010D35       aFcntl
 0001:00010D3B       aLseek
 0001:00010D41       aItmDeregistert
 0001:00010D5D       aSnprintf
 0001:00010D66       aItmRegistertmc
 0001:00010D80       aGetpid
 0001:00010D87       aPclose
 0001:00010D8E       aSetsockopt
 0001:00010D99       aLocaltime
 0001:00010DA3       aFgets
 0001:00010DA9       aStrncpy
 0001:00010DB1       aMemset
 0001:00010DB8       aSocket
 0001:00010DBF       aExit
 0001:00010DC4       aAtoi
 0001:00010DC9       aStrchr
 0001:00010DD0       aStrerror
 0001:00010DD9       aPopen
 0001:00010DDF       aDussLogGenHead
 0001:00010DF1       aStrcpy
 0001:00010DF8       aDeregisterFram
 0001:00010E10       aLibdumlFrwkSo
 0001:00010E20       aDussOsalGetGlo
 0001:00010E3A       aDussHalDeviceO
 0001:00010E4F       aDussOsalTimerC
 0001:00010E66       aFwrite
 0001:00010E6D       aDussOsalTimerS
 0001:00010E85       aPthreadMutexIn
 0001:00010E98       aDussOsalTaskSl
 0001:00010EAD       aDussEventRespO
 0001:00010EC0       aMkdir
 0001:00010EC6       aDussEventCreat
 0001:00010EE3       aDussSketchInit
 0001:00010EFA       aIoctl
 0001:00010F00       aPthreadMutexLo
 0001:00010F13       aOpendir
 0001:00010F1B       aMbChannelStatR
 0001:00010F35       aDussEventRespD
 0001:00010F5A       aDussMbCreateRo
 0001:00010F75       aAccess
 0001:00010F7C       aFclose
 0001:00010F83       aFread
 0001:00010F89       aDussEventCreat_0
 0001:00010FA2       aFopen
 0001:00010FA8       aDussEventSend
 0001:00010FB8       aDussMbControlR
 0001:00010FD3       aClosedir
 0001:00010FDC       aDussMbDestroyR
 0001:00010FF8       aDussOsalTaskCr
 0001:0001100E       aSscanf
 0001:00011015       aDussEventStart
 0001:0001102D       aDussEventSendS
 0001:00011042       aDussEventRespD_0
 0001:00011057       aMbChannelStatL
 0001:0001106F       aDussEventLogCo
 0001:00011086       aRecvmsg
 0001:0001108E       aMemcmp
 0001:00011095       aSprintf
 0001:0001109D       aPthreadMutexUn
 0001:000110B2       aStrstr
 0001:000110B9       aDussEventRespE
 0001:000110CD       aDussOsalTimerD
 0001:000110E5       aSrand
 0001:000110EB       aDussOsalTaskJo
 0001:000110FF       aDussOsalTaskFr
 0001:00011113       aPuts
 0001:00011118       aDussSketchGetC
 0001:00011139       aLibdumlHalSo
 0001:00011148       aDussHalGpioSet
 0001:00011160       aDussHalGpioSet_0
 0001:0001117C       aLibdumlOsalSo
 0001:0001118C       aDussOsalStoreF
 0001:000111AF       aDussOsalTimerR
 0001:000111C6       aLibstdcSo6
 0001:000111D5       aStrtoul
 0001:000111DD       aLibgccSSo1
 0001:000111EB       aAeabiUl2d
 0001:000111F8       aAeabiLlsl
 0001:00011205       aAeabiLlsr
 0001:00011212       aAeabiUldivmod
 0001:00011223       aAeabiIdivmod
 0001:00011233       aAeabiIdiv
 0001:00011240       aLibcSo
 0001:00011248       aFork
 0001:0001124D       aKlogctl
 0001:00011255       aReaddir
 0001:0001125D       aStrcat
 0001:00011264       aChmod
 0001:0001126A       aTimerSettime
 0001:00011278       aRename
 0001:0001127F       aRemove
 0001:00011286       aExecl
 0001:0001128C       aStrrchr
 0001:00011294       aStat
 0001:00011299       aLibcStartMain
 0001:000112AB       aEdata
 0001:000112B2       aBssStart
 0001:000112BE       aBssStart_0
 0001:000112CC       aBssEnd
 0001:000112D8       aEnd
 0001:000112E0       aEnd_0
 0001:000112E5       aGcc35
 0003:00011780       .init_proc
 0004:0001179C       timer_settime
 0004:000117A8       bind
 0004:000117B4       duss_osal_get_global_time
 0004:000117C0       __register_frame_info
 0004:000117CC       strftime
 0004:000117D8       __errno_location
 0004:000117E4       duss_hal_device_open
 0004:000117F0       duss_osal_timer_create
 0004:000117FC       clock_gettime
 0004:00011808       open
 0004:00011814       fwrite
 0004:00011820       j_system
 0004:00011824       system
 0004:00011830       usleep
 0004:0001183C       memcpy
 0004:00011848       sleep
 0004:00011854       j_duss_osal_timer_suspend
 0004:00011858       duss_osal_timer_suspend
 0004:00011864       pthread_mutex_init
 0004:00011870       duss_osal_task_sleep
 0004:0001187C       __aeabi_llsl
 0004:00011888       gettimeofday
 0004:00011894       duss_log_dump_backtrace
 0004:000118A0       strcat
 0004:000118AC       remove
 0004:000118B8       duss_event_resp_ok
 0004:000118C4       strtoul
 0004:000118D0       mkdir
 0004:000118DC       malloc
 0004:000118E8       klogctl
 0004:000118F4       strrchr
 0004:00011900       strncmp
 0004:0001190C       duss_event_create_client_ext
 0004:00011918       duss_sketch_initialize
 0004:00011924       duss_log_print
 0004:00011930       ioctl
 0004:0001193C       duss_osal_store_fc_timestamp_delta
 0004:00011948       strlen
 0004:00011954       pthread_mutex_lock
 0004:00011960       opendir
 0004:0001196C       stat
 0004:00011978       fcntl
 0004:00011984       lseek
 0004:00011990       mb_channel_stat_reset_all
 0004:0001199C       snprintf
 0004:000119A8       j_duss_hal_gpio_set_value
 0004:000119AC       duss_hal_gpio_set_value
 0004:000119B8       read
 0004:000119C4       duss_event_resp_data_without_retcode
 0004:000119D0       duss_mb_create_route_table
 0004:000119DC       access
 0004:000119E8       getpid
 0004:000119F4       pclose
 0004:00011A00       fclose
 0004:00011A0C       setsockopt
 0004:00011A18       fread
 0004:00011A24       duss_event_create_client
 0004:00011A30       fopen
 0004:00011A3C       chmod
 0004:00011A48       time
 0004:00011A54       __libc_start_main
 0004:00011A60       duss_event_send
 0004:00011A6C       duss_mb_control_route_item
 0004:00011A78       write
 0004:00011A84       closedir
 0004:00011A90       duss_mb_destroy_route_table
 0004:00011A9C       duss_hal_gpio_set_direction
 0004:00011AA8       localtime
 0004:00011AB4       close
 0004:00011AC0       timer_create
 0004:00011ACC       duss_osal_task_create
 0004:00011AD8       fgets
 0004:00011AE4       sscanf
 0004:00011AF0       strncpy
 0004:00011AFC       duss_event_start_client
 0004:00011B08       duss_event_send_sync
 0004:00011B14       duss_event_resp_data
 0004:00011B20       execl
 0004:00011B2C       memset
 0004:00011B38       mb_channel_stat_log_all
 0004:00011B44       j_duss_event_log_control
 0004:00011B48       duss_event_log_control
 0004:00011B54       recvmsg
 0004:00011B60       __aeabi_uldivmod
 0004:00011B6C       memcmp
 0004:00011B78       sprintf
 0004:00011B84       socket
 0004:00011B90       rand
 0004:00011B9C       exit
 0004:00011BA8       rename
 0004:00011BB4       fork
 0004:00011BC0       pthread_mutex_unlock
 0004:00011BCC       __aeabi_idiv
 0004:00011BD8       strstr
 0004:00011BE4       __aeabi_idivmod
 0004:00011BF0       __aeabi_llsr
 0004:00011BFC       j_free
 0004:00011C00       free
 0004:00011C0C       atoi
 0004:00011C18       readdir
 0004:00011C24       strchr
 0004:00011C30       duss_event_resp_err
 0004:00011C3C       duss_osal_timer_destroy
 0004:00011C48       strerror
 0004:00011C54       srand
 0004:00011C60       printf
 0004:00011C6C       duss_osal_task_join
 0004:00011C78       popen
 0004:00011C84       j_duss_osal_task_free
 0004:00011C88       duss_osal_task_free
 0004:00011C94       __aeabi_ul2d
 0004:00011CA0       puts
 0004:00011CAC       duss_sketch_get_config_file_name
 0004:00011CB8       duss_log_gen_head
 0004:00011CC4       strcpy
 0004:00011CD0       duss_osal_timer_resume
 0004:00011CDC       __deregister_frame_info
 0005:00011CE8       .main_proc
 0005:00011FA0       needle
 0005:00011FC8       start
 0005:00011FFC       fini
 0005:00012000       init
 0005:00012004       main
 0005:000120A8       sys_event_rt_check_mobile
 0005:00012170       funcName
 0005:00012174       srcFile
 0005:0001217C       sys_event_query_device_info
 0005:000121F4       sys_event_cb_wifi_start_ground
 0005:00012254       sys_event_cb_wifi_stop_ground
 0005:000122A8       sys_event_custom_cmd
 0005:00012408       send_reboot_cmd
 0005:000124B4       request_active_state_cmd
 0005:0001257C       sys_event_control_blackbox_folder
 0005:00012648       sys_event_set_date
 0005:00012724       sys_event_parse_size
 0005:00012848       format
 0005:0001284C       modes
 0005:00012860       sys_event_set_blackbox_info
 0005:00012BF0       sys_event_get_blackbox_info
 0005:00012D80       da2_connection_timeout
 0005:00012E68       mutex
 0005:00012E70       j_j_duss_event_log_control
 0005:00012E74       sys_generate_auth_msg
 0005:00012F20       sys_event_rt_control_mobile_by_direct_host
 0005:00013084       filter_internal_upgrade_msg_cb
 0005:000130D8       amt_control_task_entry
 0005:000131B8       arg
 0005:000131BC       path
 0005:000131C8       reboot_task_entry
 0005:000133B4       useconds
 0005:000133D4       mobile_route_check
 0005:00013864       sys_event_cb_flyctrl_info
 0005:000139C0       create_reboot_task
 0005:00013A00       sys_event_reboot
 0005:00013C48       sys_is_secureDebug
 0005:00013C68       sys_wm160_event_start
 0005:00013E48       sys_host_all_event_start
 0005:00013FF4       sys_is_production
 0005:00014048       command
 0005:00014060       sys_check_securedebug_auth
 0005:000141AC       sys_event_cb_dev_ver_get
 0005:000142D8       sys_amt_control_task
 0005:00014314       mobile_route_check_timer_create
 0005:000143DC       mobile_route_check_timer_destory
 0005:00014464       get_rt_item_dev_name
 0005:000144C8       sys_event_rt_control_by_name
 0005:0001465C       parse_and_handle_device_event
 0005:000148D0       s2
 0005:00014A44       sys_uevent_listen_start
 0005:00014ADC       sys_uevent_init
 0005:00014B38       sys_timesync_set_query_time
 0005:00014D5C       oflag
 0005:00014D60       file
 0005:00014E78       request
 0005:00014E8C       sys_timesync_actively_query_time
 0005:00014F44       sys_timesync_start
 0005:000150A4       type
 0005:000150CE       init_bulk_func
 0005:00015368       s
 0005:00015374       buf
 0005:0001537C       name
 0005:00015698       filename
 0005:000159B8       log_init
 0005:00015D7C       alloc_procps_scan
 0005:00015EBA       set_oom_score
 0005:00015FD4       ping_fc
 0005:0001605C       sys_register_motor_err_action
 0005:000161BC       src
 0005:000161D0       sys_disable_motor_run
 0005:00016370       start_heartbeat
 0005:00016404       hold_fc_in_stilling_state
 0005:00016458       permit_fc_work_normal
 0005:000164A8       sys_check_vbus_status
 0005:00016530       sys_start_fc_heartbeat
 0005:000165C4       ping_fc_status
 0005:000166BC       duss_hal_gpio_set_all_low
 0005:00016708       sys_gpio_init
 0005:0001675C       sys_fatal_log_check
 0005:00016808       sys_self_state_send
 0005:00016878       sys_ping_camera_status
 0005:00016944       sys_self_state
 0005:00016964       sys_enable_self_status_check
 0005:00016A1C       sys_disable_self_status_check
 0005:00016A9C       read_lastest_record
 0005:00016B70       sys_check_uav_fly_status
 0005:00016C5C       sys_device_reboot
 0005:00016CF0       sys_get_serial_number
 0005:00016DF0       sys_data_compliance_clean_request
 0005:00017340       sys_data_compliance_state_request
 0005:000188AC       prepare_sha256_h_quad
 0006:00018B48       .term_proc
 0007:00018B50       aSysEventRtChec
 0007:00018B6A       aSysEventQueryD
 0007:00018B86       aSysEventCbWifi
 0007:00018BA5       aSysEventCbWifi_0
 0007:00018BC3       aSysEventCustom
 0007:00018BD8       aSendRebootCmd
 0007:00018BE8       aRequestActiveS
 0007:00018C01       aSysEventContro
 0007:00018C23       aSysEventSetDat
 0007:00018C36       aSysEventParseS
 0007:00018C4B       aSysEventSetBla
 0007:00018C67       aSysEventGetBla
 0007:00018C83       aDa2ConnectionT
 0007:00018C9A       aSysGenerateAut
 0007:00018CB0       aSysEventRtCont
 0007:00018CDB       aFilterInternal
 0007:00018CFA       aAmtControlTask
 0007:00018D11       aRebootTaskEntr
 0007:00018D23       aGetVersionCmd
 0007:00018D33       aMobileRouteChe
 0007:00018D46       aSysWifiSwitchR
 0007:00018D5C       aSysInfoSendSub
 0007:00018D7C       aSysInfoSendRem
 0007:00018DA3       aSysEventCbFlyc
 0007:00018DBD       aSysEventReboot
 0007:00018DCE       aSysWm160EventS
 0007:00018DE4       aSysHostAllEven
 0007:00018DFD       aSysIsProductio
 0007:00018E0F       aSysCheckSecure
 0007:00018E2A       aSysEventCbDevV
 0007:00018E43       aMobileRouteChe_0
 0007:00018E63       aMobileRouteChe_2
 0007:00018E84       aSrcSysEventC
 0007:00018E94       aDynamicRouteSy
 0007:00018F02       aDynamicRouteSy_0
 0007:00018F6F       aOct272020
 0007:00018F7B       aWm161AmbaAc
 0007:00018F89       aSSS
 0007:00018F92       a144855
 0007:00018F9B       aCmdQueryDevice
 0007:00018FB5       aDynamicRouteSy_1
 0007:00018FF6       aDynamicRouteSy_2
 0007:00019033       aCustomCmdModul
 0007:0001905A       aHoldFcInStilli
 0007:00019075       aPermitFcWorkNo
 0007:0001908C       aErrorUsbStatus
 0007:0001909E       aCustomCmdExecS
 0007:000190BC       aCustomCmdUndef
 0007:000190F4       aCustomCmdUndef_0
 0007:00019128       aGetRebootAckFr
 0007:00019154       aGetActiveState
 0007:00019186       aCatProcCmdline
 0007:000191BB       aSysEventContro_0
 0007:000191ED       aSysEventContro_1
 0007:00019231       aRmRfTmpBlackbo
 0007:00019248       aSysEventContro_2
 0007:0001928D       aDateSD02d02d02
 0007:000192B1       aGotWrongTimeOr
 0007:000192D1       aGotSysEventSet
 0007:00019318       aLogConfigCanTR
 0007:0001934E       aLogConfigCanTR_0
 0007:00019387       aCatS
 0007:0001938E       aLogConfigCanTR_1
 0007:000193C8       aLogConfigReadT
 0007:000193FE       aTmpEmmcLogConf_0
 0007:00019424       aTmpEmmcLogConf_1
 0007:0001944B       aTmpEmmcLogConf_2
 0007:00019479       aTmpEmmcLogConf_3
 0007:000194A1       aTmpEmmcLogConf_4
 0007:000194C8       aTmpEmmcLogConf
 0007:000194F1       aLogConfigSysEv
 0007:00019538       aLogConfigSysEv_0
 0007:0001957C       aLogConfigSysEv_1
 0007:000195C1       aLogConfigSysEv_2
 0007:0001960D       aLogConfigSysEv_3
 0007:00019653       aLogConfigSysEv_4
 0007:00019698       aLogConfigSysEv_5
 0007:000196DE       aLogConfigSysEv_8
 0007:00019720       aLogConfigSysEv_6
 0007:00019771       aLogConfigSysEv_7
 0007:000197B7       aEchoDS
 0007:000197C4       aLogConfigSysEv_9
 0007:00019821       aLogConfigSysEv_10
 0007:0001986E       aTmpEmmcLogConf_5
 0007:00019883       aLogConfigSysEv_11
 0007:000198BB       aLogConfigSysEv_12
 0007:000198F9       aLogConfigSysEv_13
 0007:00019932       aDa2DonTConnect
 0007:00019968       aDussEventSendU
 0007:00019994       aDussEventSendU_0
 0007:000199C2       aGetGenerateAut
 0007:000199EB       aDynamicRouteSy_3
 0007:00019A42       aDynamicRouteSy_4
 0007:00019ADA       aDynamicRouteSy_5
 0007:00019B5A       aDynamicRouteSy_6
 0007:00019BDB       aSecureDebugWas
 0007:00019C10       aOnetimeFlagAut
 0007:00019C41       aOnetimeAuthPas
 0007:00019C5C       aDjiAmt
 0007:00019C64       aTakeCareWeFail
 0007:00019C8E       aOnetimeFlagIsN
 0007:00019CC6       aRebootTaskEntr_0
 0007:00019CE8       aSendRebootCmdT
 0007:00019D06       aSendRebootCmdT_0
 0007:00019D25       aGetVersionFrom
 0007:00019D4E       aGetFcVersionFa
 0007:00019D65       aGetFcVersionOk
 0007:00019D8B       aSendRebootCmdT_1
 0007:00019DAC       aSendRebootCmdT_2
 0007:00019DCF       aCheckmobilerou_0
 0007:00019DF2       aCheckmobilerou_1
 0007:00019E24       aCheckmobilerou
 0007:00019E63       aDynamicRouteSy_7
 0007:00019EA2       aDynamicRouteSy_8
 0007:00019EF6       aDynamicRouteSy_9
 0007:00019F52       aSubscribeFlyct
 0007:00019F83       aSubscribeFlyct_1
 0007:00019FAD       aSubscribeFlyct_0
 0007:00019FCF       aSubscribeFlyct_2
 0007:00019FED       aSubscribeRemov
 0007:0001A025       aSubscribeRemov_1
 0007:0001A056       aSubscribeRemov_0
 0007:0001A07F       aSubscribeRemov_2
 0007:0001A0A4       aSubscribeFlyct_3
 0007:0001A0D4       aSubscribeFcTim
 0007:0001A118       aSubscribeStore
 0007:0001A143       aRebootTask
 0007:0001A14F       aSysEventReboot_0
 0007:0001A173       aReceiveRebootF
 0007:0001A19D       aSysEventReboot_1
 0007:0001A1BF       aSysEventReboot_2
 0007:0001A1E6       aTmpEmmcEmcReco
 0007:0001A202       aSysEventReboot_3
 0007:0001A21F       aTouchS
 0007:0001A228       aSysEventReboot_5
 0007:0001A247       aSysEventReboot_4
 0007:0001A276       aCatProcCmdline_0
 0007:0001A2B2       aStartDjiSysEve
 0007:0001A2CE       aTmpBlackboxSdr
 0007:0001A2EA       aSystemService
 0007:0001A2F9       aCreateRouteTab
 0007:0001A316       aCreateDjiSysEv
 0007:0001A333       aEagleDussOsalT
 0007:0001A362       aDussEventStart_0
 0007:0001A387       aCreateDjiSysEv_0
 0007:0001A3A2       aAll
 0007:0001A3A6       aDussMbCreateRo_0
 0007:0001A3CC       aDuss
 0007:0001A3D3       aCreateHostAllE
 0007:0001A401       aDussEventCreat_1
 0007:0001A425       aDussEventStart_1
 0007:0001A442       aCreateHostallE
 0007:0001A45D       aCatProcCmdline_1
 0007:0001A493       aCatProcCmdline_2
 0007:0001A4C5       aProductionStat
 0007:0001A4FD       aGetCheckSecure
 0007:0001A52B       aCatProcCmdline_3
 0007:0001A567       aTheSecuredebug
 0007:0001A588       aUsrBinUsbcfgVc
 0007:0001A5A4       aAnErrorHappens
 0007:0001A5D6       aDa2IsConnected
 0007:0001A5EA       aWm161Uav
 0007:0001A5F4       aSVerA
 0007:0001A5FD       aAmtControlTask_0
 0007:0001A60E       aDynamicRouteMo
 0007:0001A652       aMobileRouteChe_1
 0007:0001A66B       aSysMobileRoute
 0007:0001A69D       aSysMobileRoute_0
 0007:0001A6C4       aSysMobileRoute_1
 0007:0001A6F7       aMain
 0007:0001A6FC       aUsbConfig
 0007:0001A707       aSystemEtcDjiJs
 0007:0001A71C       aSrcSysEntryC
 0007:0001A72C       aDussSketchInit_0
 0007:0001A75F       aDussSketchInit_1
 0007:0001A790       aProcCmdline
 0007:0001A79E       aReadProcCmdlin
 0007:0001A7BB       aMpState
 0007:0001A7C5       aCouldnTFindMpS
 0007:0001A80A       aFactory
 0007:0001A816       aProduction
 0007:0001A822       aMpStateValueIn
 0007:0001A86B       aAndroidbootSec
 0007:0001A885       aCouldnTFindSec
 0007:0001A8CE       aSecureDebugVal
 0007:0001A91B       aConfigModeD
 0007:0001A92C       aUsbConfigFailD
 0007:0001A941       aGetRtItemDevNa
 0007:0001A956       aSysEventRtCont_0
 0007:0001A973       aParseEvent
 0007:0001A97F       aHandleDeviceEv
 0007:0001A993       aSysUeventListe
 0007:0001A9AB       aSysUeventInit
 0007:0001A9BB       aSrcSysUeventsC
 0007:0001A9CD       aInvalidDevName
 0007:0001A9E7       aNoDevNameForTh
 0007:0001AA09       aEnableRouteTab
 0007:0001AA2D       aErrorToEnableR
 0007:0001AA5A       aDisableRouteTa
 0007:0001AA7F       aErrorToDisable
 0007:0001AAAD       aDevTtygs0
 0007:0001AAB9       aUeventMsgS
 0007:0001AACA       aAction
 0007:0001AAD2       aDevpath
 0007:0001AADB       aSubsystem
 0007:0001AAE6       aFirmware
 0007:0001AAF0       aMajor
 0007:0001AAF7       aMinor
 0007:0001AAFE       aPartn
 0007:0001AB05       aPartname
 0007:0001AB0F       aDevname
 0007:0001AB18       aUsbState
 0007:0001AB23       aInterface
 0007:0001AB2E       aProduct
 0007:0001AB37       aModalias
 0007:0001AB41       aDevtype
 0007:0001AB4A       aAmbudcStatus
 0007:0001AB59       aSysEventSSSSDD
 0007:0001AB8A       aWm160EventObjN
 0007:0001ABA2       aWm160EventObjM_0
 0007:0001ABC9       aWm160EventObjM
 0007:0001ABFD       aChange
 0007:0001AC04       aPlatform
 0007:0001AC0D       aSS
 0007:0001AC14       aConfigured
 0007:0001AC1F       aHandleUsbEvent
 0007:0001AC56       aUsbDeviceWasPu
 0007:0001AC89       aAttached
 0007:0001AC92       aUsbDeviceWasPu_0
 0007:0001ACC1       aStartUeventsLi
 0007:0001ACE1       aSysUeventsList
 0007:0001ACF6       aCreateUeventsT
 0007:0001AD12       aUeventOpenSock
 0007:0001AD2C       aTimesyncActive
 0007:0001AD49       aSysTimesyncQue
 0007:0001AD71       aSysTimesyncAct
 0007:0001AD9A       aSysTimesyncSet
 0007:0001ADB6       aSysTimesyncSet_0
 0007:0001ADD2       aSysTimesyncAct_0
 0007:0001ADF3       aSysTimesyncSta
 0007:0001AE06       aSrcTimesyncSys
 0007:0001AE22       aTimesyncPlease
 0007:0001AE69       aTimesyncTimeOu
 0007:0001AEAB       aTimesyncSendQu
 0007:0001AED6       aTimesyncTheQue
 0007:0001AF17       aTimesyncQueryT
 0007:0001AF45       aDevPpsDjiGpio
 0007:0001AF57       aTimesyncOpenPp
 0007:0001AF7C       aTheQueryIndexI
 0007:0001AFBA       aSWrongIoctlDEr
 0007:0001AFE2       aActivelyQueryT
 0007:0001AFFB       aTimesyncCreate
 0007:0001B038       aTimesyncCreate_0
 0007:0001B07B       aTimesyncEventO
 0007:0001B0BD       aInitBulkFunc
 0007:0001B0ED       aSrcUsbConfigBu
 0007:0001B103       aConfigUsbBulkE
 0007:0001B11B       aDevUsbFfsBulkE
 0007:0001B131       aSCannotOpenCon
 0007:0001B160       aSSwitchingToV1
 0007:0001B194       aSWriteDescript
 0007:0001B1C0       aSWritingString
 0007:0001B1E9       aDevUsbFfsBulkE_0
 0007:0001B1FF       aDevUsbFfsBulkE_1
 0007:0001B215       aUsbBulkEpIsRea
 0007:0001B22B       aWaitUsbEpReady
 0007:0001B24A       aOpenError
 0007:0001B256       aUsrBinUsbcfgPr
 0007:0001B274       aUsrBinUsbcfgEn
 0007:0001B292       aUsrBinUsbcfgEn_0
 0007:0001B2B1       aSysTopStore
 0007:0001B2BF       aSysLogControl
 0007:0001B2CF       aSysKmsgStore
 0007:0001B2DE       aProcStat
 0007:0001B2E9       aSLluLluLluLluL
 0007:0001B31A       aYMDHMS
 0007:0001B32D       aSS2f72f72f72f7
 0007:0001B367       aUsrNiceSysIowa
 0007:0001B3B0       aSWriteErrnoDS
 0007:0001B3C7       aTmpBlackboxLog
 0007:0001B3E1       aMakeDirSErrorD
 0007:0001B3FB       aChmodSErrorDS
 0007:0001B412       aKernelLog
 0007:0001B41D       aSD
 0007:0001B423       aRemoveSErrnoDS
 0007:0001B43B       aRenameSToSErrn
 0007:0001B45C       a1
 0007:0001B461       aOpenSErrnoDS
 0007:0001B477       aSLseekErrnoDS
 0007:0001B48E       aLogInit
 0007:0001B497       aAllocProcpsSca
 0007:0001B4A9       aSetOomScore
 0007:0001B4B7       aProcSysVmDropC
 0007:0001B4D0       aSrcLogSysLogC
 0007:0001B4E2       aCanNotOpenSErr
 0007:0001B4FE       aTmpBlackboxLog_2
 0007:0001B510       aSystem_0
 0007:0001B517       aSS_0
 0007:0001B51D       aCurrentTime
 0007:0001B52A       aDevKmsg
 0007:0001B534       aTopLog
 0007:0001B53C       aYMDHMS_0
 0007:0001B54E       aDS
 0007:0001B556       aSysMb
 0007:0001B55D       aNetworkMb
 0007:0001B568       aSwMb
 0007:0001B56E       aHdvtMb
 0007:0001B576       aNavigationMb
 0007:0001B584       aFlightMb
 0007:0001B58E       aFlightUpMb
 0007:0001B59B       aBlackboxMb
 0007:0001B5A7       aProc
 0007:0001B5AD       aOpendirErrnoS
 0007:0001B5C2       aProcU
 0007:0001B5CC       aProcDOomScoreA
 0007:0001B5E3       aAdbd
 0007:0001B5E8       aSyslogd
 0007:0001B5F0       aDjiNavigation
 0007:0001B5FF       aDjiSwUav
 0007:0001B60A       aDjiHdvtUav
 0007:0001B617       aDjiNetwork
 0007:0001B623       aPingFc
 0007:0001B62B       aSysRegisterMot
 0007:0001B649       aSysDisableMoto
 0007:0001B65F       aStartHeartbeat
 0007:0001B66F       aHoldFcInStilli_0
 0007:0001B689       aPermitFcWorkNo_0
 0007:0001B69F       aSysCheckVbusSt
 0007:0001B6B5       aSrcSysControlC
 0007:0001B6CE       aPingFcErrorD
 0007:0001B6E1       aAlreadyRegiste
 0007:0001B725       aUpgrade
 0007:0001B72D       aRegisterMotorE
 0007:0001B752       aSuccToRegister
 0007:0001B7B9       aRegisterMotorC
 0007:0001B7DD       aHaveNotRegiste
 0007:0001B804       aSetMotorWorkSt
 0007:0001B825       aSuccessToSetMo
 0007:0001B855       aFailedToSetMot
 0007:0001B882       aTimeoutResetRe
 0007:0001B8A4       aHeartbeatWithF
 0007:0001B8BB       aSysDussOsalTim
 0007:0001B8E3       aMotorCtrlHoldF
 0007:0001B90B       aMotorCtrlPermi
 0007:0001B92F       aCatProcAmbarel
 0007:0001B96B       aVbusOnlineDisa
 0007:0001B98A       aSysStartFcHear
 0007:0001B9A1       aPingFcStatus
 0007:0001B9B0       aSysGpioInit
 0007:0001B9BE       aHeartbeatFcFor
 0007:0001B9D4       aSrcSysGpioCont
 0007:0001B9EB       aSysStartFcHear_0
 0007:0001BA0D       aPingFcStatusRu
 0007:0001BA23       aPingFcStatusEr
 0007:0001BA3D       aPingFcStatusSu
 0007:0001BA54       aSysClassGpio
 0007:0001BA64       aSysSysGpioInit
 0007:0001BA81       aSysFatalLogChe
 0007:0001BA95       aSysSelfStateSe
 0007:0001BAA9       aSysPingCameraS
 0007:0001BAC0       aSysEnableSelfS
 0007:0001BADD       aSysDisableSelf
 0007:0001BAFB       aSrcSysSelfStat
 0007:0001BB10       aTmpBlackboxLog_0
 0007:0001BB39       aCore
 0007:0001BB3F       aCoredumpFileEx
 0007:0001BB55       aSysSysSelfStat
 0007:0001BB7F       aSysPingCameraS_0
 0007:0001BBA1       aSysPingCameraS_1
 0007:0001BBC1       aSelfStatusChec
 0007:0001BBEE       aSelfStatusChec_0
 0007:0001BC06       aSysDussOsalTim_0
 0007:0001BC2F       aSysDisableSelf_0
 0007:0001BC4F       aSysDussOsalTim_1
 0007:0001BC79       aReadLastestRec
 0007:0001BC8D       aSysCheckUavFly
 0007:0001BCA6       aSysDeviceReboo
 0007:0001BCB8       aSysGetSerialNu
 0007:0001BCCE       aSysDataComplia
 0007:0001BCF0       aLoadPublicKey
 0007:0001BD00       aSignatureVerif
 0007:0001BD11       aSaveCompliance
 0007:0001BD28       aDeleteLogs
 0007:0001BD34       aSysDataComplia_0
 0007:0001BD56       aSysDataComplia_1
 0007:0001BD78       aRb
 0007:0001BD7B       aTmpBlackboxLog_1
 0007:0001BD9B       aSrcSysLogDelet
 0007:0001BDB0       aThereIsNoDataC
 0007:0001BDED       aThereIsNoEnoug
 0007:0001BE22       aRequestMotorWo
 0007:0001BE47       aMotorIsStillNe
 0007:0001BE78       aMotorIsRunning
 0007:0001BEAD       aFailToSendRebo
 0007:0001BED4       aFailedToGetSer
 0007:0001BF05       aFailedToGetSer_0
 0007:0001BF37       aMessageHasNoEn
 0007:0001BF55       aCurrentlyWeOnl
 0007:0001BF91       aDeviceTypeDoes
 0007:0001BFC2       aFailedToGetSer_1
 0007:0001BFDF       aDeviceSSnS
 0007:0001BFF0       aInputProductSn
 0007:0001C019       aWeHaveReceived
 0007:0001C03C       aTimeInRequestI
 0007:0001C065       aFlag0xXInDataC
 0007:0001C090       aUsrLibEccPubli
 0007:0001C0AC       aGetSSStatError
 0007:0001C0C1       aFailedToOpenS
 0007:0001C0D4       aPublicKeyInSIs
 0007:0001C0F2       aFailToLoadPubl
 0007:0001C10B       aFailedToVerify
 0007:0001C12B       aSignatureVerif_0
 0007:0001C144       aFailedToOpenSR
 0007:0001C164       aFailedToWriteS
 0007:0001C185       aUsrBinSetLogCl
 0007:0001C1A4       aRecordComplian
 0007:0001C1BE       aAnErrorHappens_0
 0007:0001C1EA       aDeleteLogsFail
 0007:0001C1FE       aWb
 0007:0001C201       aSRequestLength
 0007:0001C222       aCurrentlyWeOnl_0
 0007:0001C25F       aFailToReadLast
 0007:0001C27C       aThereIsNoRecor
 0007:0001C296       aDevUrandom
 0007:0001C2A3       aDevRandom
 000C:0002D000       _GLOBAL_OFFSET_TABLE_
 000C:0002D00C       timer_settime_ptr
 000C:0002D010       bind_ptr
 000C:0002D014       duss_osal_get_global_time_ptr
 000C:0002D018       __register_frame_info_ptr
 000C:0002D01C       strftime_ptr
 000C:0002D020       __errno_location_ptr
 000C:0002D024       duss_hal_device_open_ptr
 000C:0002D028       duss_osal_timer_create_ptr
 000C:0002D02C       clock_gettime_ptr
 000C:0002D030       open_ptr
 000C:0002D034       fwrite_ptr
 000C:0002D038       system_ptr
 000C:0002D03C       usleep_ptr
 000C:0002D040       memcpy_ptr
 000C:0002D044       sleep_ptr
 000C:0002D048       duss_osal_timer_suspend_ptr
 000C:0002D04C       pthread_mutex_init_ptr
 000C:0002D050       duss_osal_task_sleep_ptr
 000C:0002D054       __aeabi_llsl_ptr
 000C:0002D058       gettimeofday_ptr
 000C:0002D05C       duss_log_dump_backtrace_ptr
 000C:0002D060       strcat_ptr
 000C:0002D064       remove_ptr
 000C:0002D068       duss_event_resp_ok_ptr
 000C:0002D06C       strtoul_ptr
 000C:0002D070       mkdir_ptr
 000C:0002D074       malloc_ptr
 000C:0002D078       klogctl_ptr
 000C:0002D07C       strrchr_ptr
 000C:0002D080       strncmp_ptr
 000C:0002D084       duss_event_create_client_ext_ptr
 000C:0002D088       duss_sketch_initialize_ptr
 000C:0002D08C       duss_log_print_ptr
 000C:0002D090       ioctl_ptr
 000C:0002D094       duss_osal_store_fc_timestamp_delta_ptr
 000C:0002D098       strlen_ptr
 000C:0002D09C       pthread_mutex_lock_ptr
 000C:0002D0A0       opendir_ptr
 000C:0002D0A4       stat_ptr
 000C:0002D0A8       fcntl_ptr
 000C:0002D0AC       lseek_ptr
 000C:0002D0B0       mb_channel_stat_reset_all_ptr
 000C:0002D0B4       snprintf_ptr
 000C:0002D0B8       duss_hal_gpio_set_value_ptr
 000C:0002D0BC       read_ptr
 000C:0002D0C0       duss_event_resp_data_without_retcode_ptr
 000C:0002D0C4       duss_mb_create_route_table_ptr
 000C:0002D0C8       access_ptr
 000C:0002D0CC       getpid_ptr
 000C:0002D0D0       pclose_ptr
 000C:0002D0D4       fclose_ptr
 000C:0002D0D8       setsockopt_ptr
 000C:0002D0DC       fread_ptr
 000C:0002D0E0       duss_event_create_client_ptr
 000C:0002D0E4       fopen_ptr
 000C:0002D0E8       chmod_ptr
 000C:0002D0EC       time_ptr
 000C:0002D0F0       __libc_start_main_ptr
 000C:0002D0F4       duss_event_send_ptr
 000C:0002D0F8       duss_mb_control_route_item_ptr
 000C:0002D0FC       write_ptr
 000C:0002D100       closedir_ptr
 000C:0002D104       duss_mb_destroy_route_table_ptr
 000C:0002D108       duss_hal_gpio_set_direction_ptr
 000C:0002D10C       localtime_ptr
 000C:0002D110       close_ptr
 000C:0002D114       timer_create_ptr
 000C:0002D118       duss_osal_task_create_ptr
 000C:0002D11C       fgets_ptr
 000C:0002D120       sscanf_ptr
 000C:0002D124       strncpy_ptr
 000C:0002D128       duss_event_start_client_ptr
 000C:0002D12C       duss_event_send_sync_ptr
 000C:0002D130       duss_event_resp_data_ptr
 000C:0002D134       execl_ptr
 000C:0002D138       memset_ptr
 000C:0002D13C       mb_channel_stat_log_all_ptr
 000C:0002D140       duss_event_log_control_ptr
 000C:0002D144       recvmsg_ptr
 000C:0002D148       __aeabi_uldivmod_ptr
 000C:0002D14C       memcmp_ptr
 000C:0002D150       sprintf_ptr
 000C:0002D154       socket_ptr
 000C:0002D158       rand_ptr
 000C:0002D15C       exit_ptr
 000C:0002D160       rename_ptr
 000C:0002D164       fork_ptr
 000C:0002D168       pthread_mutex_unlock_ptr
 000C:0002D16C       __aeabi_idiv_ptr
 000C:0002D170       strstr_ptr
 000C:0002D174       __aeabi_idivmod_ptr
 000C:0002D178       __aeabi_llsr_ptr
 000C:0002D17C       free_ptr
 000C:0002D180       atoi_ptr
 000C:0002D184       readdir_ptr
 000C:0002D188       strchr_ptr
 000C:0002D18C       duss_event_resp_err_ptr
 000C:0002D190       duss_osal_timer_destroy_ptr
 000C:0002D194       strerror_ptr
 000C:0002D198       srand_ptr
 000C:0002D19C       printf_ptr
 000C:0002D1A0       duss_osal_task_join_ptr
 000C:0002D1A4       popen_ptr
 000C:0002D1A8       duss_osal_task_free_ptr
 000C:0002D1AC       __aeabi_ul2d_ptr
 000C:0002D1B0       puts_ptr
 000C:0002D1B4       duss_sketch_get_config_file_name_ptr
 000C:0002D1B8       duss_log_gen_head_ptr
 000C:0002D1BC       strcpy_ptr
 000C:0002D1C0       duss_osal_timer_resume_ptr
 000C:0002D1C4       __deregister_frame_info_ptr
 000D:0002D1D0       aUsrLocalDumlDj
 000D:0002F088       aUsrLocalDumlDj_0
 000E:0002F1B0       _edata
 000E:0002F1F0       g_event_obj
 000E:0002F1F4       IsSecureDebug
 000E:0002F1FC       mobile_link_type
 000E:0002F3E0       self_status_check_timer
 000F:0002F3F0       _end

Program entry point at 0005:000002E0
